Component: ARM Compiler 5.06 update 1 (build 61) Tool: armlink [4d35a8]

==============================================================================

Image Symbol Table

    Local Symbols

    Symbol Name                              Value     Ov Type        Size  Object(Section)

    RESET                                    0x00000000   Section      192  startup_fm32l0xx.o(RESET)
    ../clib/../cmprslib/zerorunl.c           0x00000000   Number         0  __dczerorl.o ABSOLUTE
    ../clib/microlib/division.c              0x00000000   Number         0  ldiv.o ABSOLUTE
    ../clib/microlib/division.c              0x00000000   Number         0  uldiv.o ABSOLUTE
    ../clib/microlib/division.c              0x00000000   Number         0  idiv.o ABSOLUTE
    ../clib/microlib/division.c              0x00000000   Number         0  uidiv.o ABSOLUTE
    ../clib/microlib/init/entry.s            0x00000000   Number         0  entry8b.o ABSOLUTE
    ../clib/microlib/init/entry.s            0x00000000   Number         0  entry8a.o ABSOLUTE
    ../clib/microlib/init/entry.s            0x00000000   Number         0  entry7b.o ABSOLUTE
    ../clib/microlib/init/entry.s            0x00000000   Number         0  entry7a.o ABSOLUTE
    ../clib/microlib/init/entry.s            0x00000000   Number         0  entry.o ABSOLUTE
    ../clib/microlib/init/entry.s            0x00000000   Number         0  entry2.o ABSOLUTE
    ../clib/microlib/init/entry.s            0x00000000   Number         0  entry5.o ABSOLUTE
    ../clib/microlib/init/entry.s            0x00000000   Number         0  entry10b.o ABSOLUTE
    ../clib/microlib/init/entry.s            0x00000000   Number         0  entry11a.o ABSOLUTE
    ../clib/microlib/init/entry.s            0x00000000   Number         0  entry11b.o ABSOLUTE
    ../clib/microlib/init/entry.s            0x00000000   Number         0  entry10a.o ABSOLUTE
    ../clib/microlib/init/entry.s            0x00000000   Number         0  entry9b.o ABSOLUTE
    ../clib/microlib/init/entry.s            0x00000000   Number         0  entry9a.o ABSOLUTE
    ../clib/microlib/longlong.c              0x00000000   Number         0  llushr.o ABSOLUTE
    ../clib/microlib/longlong.c              0x00000000   Number         0  llshl.o ABSOLUTE
    ../clib/microlib/longlong.c              0x00000000   Number         0  llmul.o ABSOLUTE
    ../clib/microlib/longlong.c              0x00000000   Number         0  llsshr.o ABSOLUTE
    ../clib/microlib/string/memcpy.c         0x00000000   Number         0  memcpya.o ABSOLUTE
    ../clib/microlib/string/memcpy.c         0x00000000   Number         0  memcpyb.o ABSOLUTE
    ../clib/microlib/string/memset.c         0x00000000   Number         0  memseta.o ABSOLUTE
    ../clib/microlib/stubs.s                 0x00000000   Number         0  iusefp.o ABSOLUTE
    ../fplib/microlib/d2f.c                  0x00000000   Number         0  d2f.o ABSOLUTE
    ../fplib/microlib/f2d.c                  0x00000000   Number         0  f2d.o ABSOLUTE
    ../fplib/microlib/fpadd.c                0x00000000   Number         0  dadd.o ABSOLUTE
    ../fplib/microlib/fpadd.c                0x00000000   Number         0  fadd.o ABSOLUTE
    ../fplib/microlib/fpdiv.c                0x00000000   Number         0  fdiv.o ABSOLUTE
    ../fplib/microlib/fpdiv.c                0x00000000   Number         0  ddiv.o ABSOLUTE
    ../fplib/microlib/fpepilogue.c           0x00000000   Number         0  fepilogue.o ABSOLUTE
    ../fplib/microlib/fpepilogue.c           0x00000000   Number         0  depilogue.o ABSOLUTE
    ../fplib/microlib/fpfix.c                0x00000000   Number         0  ffixi.o ABSOLUTE
    ../fplib/microlib/fpfix.c                0x00000000   Number         0  ffixui.o ABSOLUTE
    ../fplib/microlib/fpfix.c                0x00000000   Number         0  dfixi.o ABSOLUTE
    ../fplib/microlib/fpfix.c                0x00000000   Number         0  dfixui.o ABSOLUTE
    ../fplib/microlib/fpfix.c                0x00000000   Number         0  dfixul.o ABSOLUTE
    ../fplib/microlib/fpfix.c                0x00000000   Number         0  dfixl.o ABSOLUTE
    ../fplib/microlib/fpflt.c                0x00000000   Number         0  fflti.o ABSOLUTE
    ../fplib/microlib/fpflt.c                0x00000000   Number         0  dflti.o ABSOLUTE
    ../fplib/microlib/fpflt.c                0x00000000   Number         0  dfltui.o ABSOLUTE
    ../fplib/microlib/fpflt.c                0x00000000   Number         0  dfltl.o ABSOLUTE
    ../fplib/microlib/fpflt.c                0x00000000   Number         0  ffltui.o ABSOLUTE
    ../fplib/microlib/fpmul.c                0x00000000   Number         0  fmul.o ABSOLUTE
    ../fplib/microlib/fpmul.c                0x00000000   Number         0  dmul.o ABSOLUTE
    ../fplib/microlib/fpscalb.c              0x00000000   Number         0  dscalb.o ABSOLUTE
    ../fplib/microlib/fpscalb.c              0x00000000   Number         0  fscalb.o ABSOLUTE
    ..\CM0\Factory.c                         0x00000000   Number         0  factory.o ABSOLUTE
    ..\CM0\LCD.c                             0x00000000   Number         0  lcd.o ABSOLUTE
    ..\CM0\UEnergy-at.C                      0x00000000   Number         0  uenergy-at.o ABSOLUTE
    ..\CM0\event.c                           0x00000000   Number         0  event.o ABSOLUTE
    ..\CM0\i2c.c                             0x00000000   Number         0  i2c.o ABSOLUTE
    ..\CM0\init.c                            0x00000000   Number         0  init.o ABSOLUTE
    ..\CM0\interrupt.c                       0x00000000   Number         0  interrupt.o ABSOLUTE
    ..\CM0\iokey.c                           0x00000000   Number         0  iokey.o ABSOLUTE
    ..\CM0\mainproc.c                        0x00000000   Number         0  mainproc.o ABSOLUTE
    ..\CM0\money.c                           0x00000000   Number         0  money.o ABSOLUTE
    ..\CM0\rtc.c                             0x00000000   Number         0  rtc.o ABSOLUTE
    ..\CM0\tariff.c                          0x00000000   Number         0  tariff.o ABSOLUTE
    ..\CM0\u7816.c                           0x00000000   Number         0  u7816.o ABSOLUTE
    ..\CM0\uartx.c                           0x00000000   Number         0  uartx.o ABSOLUTE
    ..\CM0\verify.c                          0x00000000   Number         0  verify.o ABSOLUTE
    ..\\CM0\\Factory.c                       0x00000000   Number         0  factory.o ABSOLUTE
    ..\\CM0\\LCD.c                           0x00000000   Number         0  lcd.o ABSOLUTE
    ..\\CM0\\UEnergy-at.C                    0x00000000   Number         0  uenergy-at.o ABSOLUTE
    ..\\CM0\\event.c                         0x00000000   Number         0  event.o ABSOLUTE
    ..\\CM0\\i2c.c                           0x00000000   Number         0  i2c.o ABSOLUTE
    ..\\CM0\\init.c                          0x00000000   Number         0  init.o ABSOLUTE
    ..\\CM0\\interrupt.c                     0x00000000   Number         0  interrupt.o ABSOLUTE
    ..\\CM0\\iokey.c                         0x00000000   Number         0  iokey.o ABSOLUTE
    ..\\CM0\\mainproc.c                      0x00000000   Number         0  mainproc.o ABSOLUTE
    ..\\CM0\\money.c                         0x00000000   Number         0  money.o ABSOLUTE
    ..\\CM0\\rtc.c                           0x00000000   Number         0  rtc.o ABSOLUTE
    ..\\CM0\\tariff.c                        0x00000000   Number         0  tariff.o ABSOLUTE
    ..\\CM0\\u7816.c                         0x00000000   Number         0  u7816.o ABSOLUTE
    ..\\CM0\\uartx.c                         0x00000000   Number         0  uartx.o ABSOLUTE
    ..\\CM0\\verify.c                        0x00000000   Number         0  verify.o ABSOLUTE
    ..\\cpu\\FM32L0XX\\Device\\Source\\system_FM32L0XX3.c 0x00000000   Number         0  system_fm32l0xx3.o ABSOLUTE
    ..\\cpu\\FM32L0XX\\Device\\Source\\system_fm32l0xx_active.c 0x00000000   Number         0  system_fm32l0xx_active.o ABSOLUTE
    ..\\cpu\\FM32L0XX\\Device\\Source\\system_fm32l0xx_lowpower.c 0x00000000   Number         0  system_fm32l0xx_lowpower.o ABSOLUTE
    ..\\cpu\\FM32L0XX\\Drivers\\Source\\fm32l0xx_anac.c 0x00000000   Number         0  fm32l0xx_anac.o ABSOLUTE
    ..\\cpu\\FM32L0XX\\Drivers\\Source\\fm32l0xx_dma.c 0x00000000   Number         0  fm32l0xx_dma.o ABSOLUTE
    ..\\cpu\\FM32L0XX\\Drivers\\Source\\fm32l0xx_gpio.c 0x00000000   Number         0  fm32l0xx_gpio.o ABSOLUTE
    ..\\cpu\\FM32L0XX\\Drivers\\Source\\fm32l0xx_iwdg.c 0x00000000   Number         0  fm32l0xx_iwdg.o ABSOLUTE
    ..\\cpu\\FM32L0XX\\Drivers\\Source\\fm32l0xx_nvmif.c 0x00000000   Number         0  fm32l0xx_nvmif.o ABSOLUTE
    ..\\cpu\\FM32L0XX\\Drivers\\Source\\fm32l0xx_rcc.c 0x00000000   Number         0  fm32l0xx_rcc.o ABSOLUTE
    ..\\cpu\\FM32L0XX\\Drivers\\Source\\fm32l0xx_rtc.c 0x00000000   Number         0  fm32l0xx_rtc.o ABSOLUTE
    ..\\cpu\\FM32L0XX\\Drivers\\Source\\fm32l0xx_scu.c 0x00000000   Number         0  fm32l0xx_scu.o ABSOLUTE
    ..\\cpu\\FM32L0XX\\Drivers\\Source\\fm32l0xx_spi.c 0x00000000   Number         0  fm32l0xx_spi.o ABSOLUTE
    ..\cpu\FM32L0XX\Device\Source\ARM\startup_FM32L0XX.s 0x00000000   Number         0  startup_fm32l0xx.o ABSOLUTE
    ..\cpu\FM32L0XX\Device\Source\system_FM32L0XX3.c 0x00000000   Number         0  system_fm32l0xx3.o ABSOLUTE
    ..\cpu\FM32L0XX\Device\Source\system_fm32l0xx_active.c 0x00000000   Number         0  system_fm32l0xx_active.o ABSOLUTE
    ..\cpu\FM32L0XX\Device\Source\system_fm32l0xx_lowpower.c 0x00000000   Number         0  system_fm32l0xx_lowpower.o ABSOLUTE
    ..\cpu\FM32L0XX\Drivers\Source\fm32l0xx_anac.c 0x00000000   Number         0  fm32l0xx_anac.o ABSOLUTE
    ..\cpu\FM32L0XX\Drivers\Source\fm32l0xx_dma.c 0x00000000   Number         0  fm32l0xx_dma.o ABSOLUTE
    ..\cpu\FM32L0XX\Drivers\Source\fm32l0xx_gpio.c 0x00000000   Number         0  fm32l0xx_gpio.o ABSOLUTE
    ..\cpu\FM32L0XX\Drivers\Source\fm32l0xx_i2c.c 0x00000000   Number         0  fm32l0xx_i2c.o ABSOLUTE
    ..\cpu\FM32L0XX\Drivers\Source\fm32l0xx_iwdg.c 0x00000000   Number         0  fm32l0xx_iwdg.o ABSOLUTE
    ..\cpu\FM32L0XX\Drivers\Source\fm32l0xx_nvmif.c 0x00000000   Number         0  fm32l0xx_nvmif.o ABSOLUTE
    ..\cpu\FM32L0XX\Drivers\Source\fm32l0xx_rcc.c 0x00000000   Number         0  fm32l0xx_rcc.o ABSOLUTE
    ..\cpu\FM32L0XX\Drivers\Source\fm32l0xx_rtc.c 0x00000000   Number         0  fm32l0xx_rtc.o ABSOLUTE
    ..\cpu\FM32L0XX\Drivers\Source\fm32l0xx_scu.c 0x00000000   Number         0  fm32l0xx_scu.o ABSOLUTE
    ..\cpu\FM32L0XX\Drivers\Source\fm32l0xx_spi.c 0x00000000   Number         0  fm32l0xx_spi.o ABSOLUTE
    ..\cpu\FM32L0XX\Drivers\Source\fm32l0xx_uart.c 0x00000000   Number         0  fm32l0xx_uart.o ABSOLUTE
    cdcmple.s                                0x00000000   Number         0  cdcmple.o ABSOLUTE
    cfcmple.s                                0x00000000   Number         0  cfcmple.o ABSOLUTE
    cfrcmple.s                               0x00000000   Number         0  cfrcmple.o ABSOLUTE
    dc.s                                     0x00000000   Number         0  dc.o ABSOLUTE
    handlers.s                               0x00000000   Number         0  handlers.o ABSOLUTE
    init.s                                   0x00000000   Number         0  init.o ABSOLUTE
    .ARM.Collect$$$$00000000                 0x000000c0   Section        0  entry.o(.ARM.Collect$$$$00000000)
    .ARM.Collect$$$$00000001                 0x000000c0   Section        4  entry2.o(.ARM.Collect$$$$00000001)
    .ARM.Collect$$$$00000004                 0x000000c4   Section        4  entry5.o(.ARM.Collect$$$$00000004)
    .ARM.Collect$$$$00000008                 0x000000c8   Section        0  entry7b.o(.ARM.Collect$$$$00000008)
    .ARM.Collect$$$$0000000A                 0x000000c8   Section        0  entry8b.o(.ARM.Collect$$$$0000000A)
    .ARM.Collect$$$$0000000B                 0x000000c8   Section        8  entry9a.o(.ARM.Collect$$$$0000000B)
    .ARM.Collect$$$$0000000D                 0x000000d0   Section        0  entry10a.o(.ARM.Collect$$$$0000000D)
    .ARM.Collect$$$$0000000F                 0x000000d0   Section        0  entry11a.o(.ARM.Collect$$$$0000000F)
    .ARM.Collect$$$$00002712                 0x000000d0   Section        4  entry2.o(.ARM.Collect$$$$00002712)
    __lit__00000000                          0x000000d0   Data           4  entry2.o(.ARM.Collect$$$$00002712)
    .text                                    0x000000d4   Section       28  startup_fm32l0xx.o(.text)
    .text                                    0x000000f0   Section        0  uidiv.o(.text)
    .text                                    0x0000011c   Section        0  idiv.o(.text)
    .text                                    0x00000144   Section        0  uldiv.o(.text)
    .text                                    0x000001a4   Section        0  ldiv.o(.text)
    .text                                    0x000001f0   Section        0  llmul.o(.text)
    .text                                    0x0000026a   Section        0  llshl.o(.text)
    .text                                    0x0000028a   Section        0  llushr.o(.text)
    .text                                    0x000002ac   Section        0  memcpya.o(.text)
    .text                                    0x000002d0   Section        0  memseta.o(.text)
    .text                                    0x000002f4   Section        0  fadd.o(.text)
    .text                                    0x000003a6   Section        0  fmul.o(.text)
    .text                                    0x00000420   Section        0  fdiv.o(.text)
    .text                                    0x0000049c   Section        0  fscalb.o(.text)
    .text                                    0x000004b4   Section        0  dadd.o(.text)
    .text                                    0x00000618   Section        0  dmul.o(.text)
    .text                                    0x000006e8   Section        0  ddiv.o(.text)
    .text                                    0x000007d8   Section        0  dscalb.o(.text)
    .text                                    0x00000804   Section        0  fflti.o(.text)
    .text                                    0x0000081a   Section        0  ffltui.o(.text)
    .text                                    0x00000828   Section        0  dflti.o(.text)
    .text                                    0x00000850   Section        0  dfltui.o(.text)
    .text                                    0x0000086c   Section        0  dfltl.o(.text)
    .text                                    0x00000898   Section        0  ffixi.o(.text)
    .text                                    0x000008ca   Section        0  ffixui.o(.text)
    .text                                    0x000008f4   Section        0  dfixi.o(.text)
    .text                                    0x0000093c   Section        0  dfixui.o(.text)
    .text                                    0x00000978   Section        0  dfixl.o(.text)
    .text                                    0x000009c8   Section        0  dfixul.o(.text)
    .text                                    0x00000a08   Section        0  f2d.o(.text)
    .text                                    0x00000a30   Section       40  cdcmple.o(.text)
    .text                                    0x00000a58   Section        0  d2f.o(.text)
    .text                                    0x00000a90   Section       20  cfcmple.o(.text)
    .text                                    0x00000aa4   Section       20  cfrcmple.o(.text)
    .text                                    0x00000ab8   Section        0  llsshr.o(.text)
    .text                                    0x00000ade   Section        0  fepilogue.o(.text)
    .text                                    0x00000ade   Section        0  iusefp.o(.text)
    .text                                    0x00000b60   Section        0  depilogue.o(.text)
    .text                                    0x00000c20   Section       36  init.o(.text)
    .text                                    0x00000c44   Section        0  __dczerorl.o(.text)
    i.ADC_ChannelSel                         0x00000c80   Section        0  fm32l0xx_anac.o(i.ADC_ChannelSel)
    i.ADC_Disable                            0x00000c98   Section        0  fm32l0xx_anac.o(i.ADC_Disable)
    i.ADC_Enable                             0x00000ca8   Section        0  fm32l0xx_anac.o(i.ADC_Enable)
    i.ADC_ITDisable                          0x00000cb8   Section        0  fm32l0xx_anac.o(i.ADC_ITDisable)
    i.ADC_SetTrim                            0x00000cc8   Section        0  fm32l0xx_anac.o(i.ADC_SetTrim)
    i.ATT7051SPIOp                           0x00000cd4   Section        0  uenergy-at.o(i.ATT7051SPIOp)
    i.ATT7051WRPRO                           0x00000de4   Section        0  uenergy-at.o(i.ATT7051WRPRO)
    i.ATT7051_Check                          0x00000e00   Section        0  uenergy-at.o(i.ATT7051_Check)
    i.Adc_Proc                               0x00001000   Section        0  init.o(i.Adc_Proc)
    i.AddNClock                              0x000019b8   Section        0  init.o(i.AddNClock)
    i.Add_Min_Clock                          0x00001b1c   Section        0  uartx.o(i.Add_Min_Clock)
    i.AltFunIO                               0x00001bb0   Section        0  verify.o(i.AltFunIO)
    i.AnalogIO                               0x00001c2c   Section        0  verify.o(i.AnalogIO)
    i.Auth_In_Out                            0x00001c78   Section        0  u7816.o(i.Auth_In_Out)
    i.Authorization                          0x00001cb4   Section        0  u7816.o(i.Authorization)
    i.BT1_IRQHandler                         0x00001d18   Section        0  interrupt.o(i.BT1_IRQHandler)
    i.BT2_IRQHandler                         0x00001d8c   Section        0  interrupt.o(i.BT2_IRQHandler)
    i.BUF4TST_BypassDisable                  0x00001e00   Section        0  fm32l0xx_anac.o(i.BUF4TST_BypassDisable)
    i.BUF4TST_BypassEn                       0x00001e10   Section        0  fm32l0xx_anac.o(i.BUF4TST_BypassEn)
    i.BUF4TST_ChannelSel                     0x00001e20   Section        0  fm32l0xx_anac.o(i.BUF4TST_ChannelSel)
    i.BUF4TST_Disable                        0x00001e38   Section        0  fm32l0xx_anac.o(i.BUF4TST_Disable)
    i.BUF4TST_Enable                         0x00001e48   Section        0  fm32l0xx_anac.o(i.BUF4TST_Enable)
    i.Backup_Para_7051                       0x00001e58   Section        0  uenergy-at.o(i.Backup_Para_7051)
    i.Bcd2Hex                                0x00001e8c   Section        0  rtc.o(i.Bcd2Hex)
    i.Bcd2Hex_LS                             0x00001f14   Section        0  rtc.o(i.Bcd2Hex_LS)
    i.Bcd2Hex_SS                             0x00001f28   Section        0  rtc.o(i.Bcd2Hex_SS)
    i.Bcd_To_Hex                             0x00001f4a   Section        0  rtc.o(i.Bcd_To_Hex)
    i.BitValue                               0x00001f5a   Section        0  uartx.o(i.BitValue)
    i.Bkdl_Verify                            0x00001f6c   Section        0  verify.o(i.Bkdl_Verify)
    i.Ble_Chk_Heart                          0x00001f94   Section        0  uartx.o(i.Ble_Chk_Heart)
    i.Ble_Frame_Cs                           0x00001fd4   Section        0  uartx.o(i.Ble_Frame_Cs)
    i.Ble_Init                               0x00002014   Section        0  uartx.o(i.Ble_Init)
    i.Ble_Rst                                0x0000206c   Section        0  uartx.o(i.Ble_Rst)
    i.Ble_Rst_Judge                          0x000020b8   Section        0  uartx.o(i.Ble_Rst_Judge)
    i.Byte2Short                             0x000020d8   Section        0  rtc.o(i.Byte2Short)
    i.Byte2uInt                              0x000020e4   Section        0  rtc.o(i.Byte2uInt)
    i.Byte2uShort                            0x000020fa   Section        0  rtc.o(i.Byte2uShort)
    i.CalLoad                                0x00002108   Section        0  money.o(i.CalLoad)
    i.CalZhuhe                               0x00002208   Section        0  uartx.o(i.CalZhuhe)
    i.Cal_ChkSum                             0x000022f2   Section        0  uartx.o(i.Cal_ChkSum)
    i.Cal_Comb                               0x0000230c   Section        0  uartx.o(i.Cal_Comb)
    i.Cal_Comb_Usedl                         0x0000253c   Section        0  uartx.o(i.Cal_Comb_Usedl)
    i.Cal_Mac_Pro                            0x00002654   Section        0  u7816.o(i.Cal_Mac_Pro)
    i.Cal_Pav                                0x00002694   Section        0  uenergy-at.o(i.Cal_Pav)
    i.CalcAbsDay                             0x00002750   Section        0  event.o(i.CalcAbsDay)
    i.CalcAbsMin                             0x00002798   Section        0  event.o(i.CalcAbsMin)
    i.CalcTime                               0x000027b4   Section        0  event.o(i.CalcTime)
    i.Calc_Pwr_Proc                          0x000027d0   Section        0  money.o(i.Calc_Pwr_Proc)
    i.Calculate_Adj                          0x000029c8   Section        0  uenergy-at.o(i.Calculate_Adj)
    i.Calculate_Ah                           0x00002a54   Section        0  uartx.o(i.Calculate_Ah)
    i.Calculate_Dl_G                         0x00002ab0   Section        0  money.o(i.Calculate_Dl_G)
    i.Calculate_Min                          0x00002aec   Section        0  interrupt.o(i.Calculate_Min)
    i.Calculate_Overflow                     0x00002b30   Section        0  money.o(i.Calculate_Overflow)
    i.Calculate_Program_Cs                   0x00002ba8   Section        0  uartx.o(i.Calculate_Program_Cs)
    i.Calculate_Timer                        0x00002be8   Section        0  uartx.o(i.Calculate_Timer)
    i.CardTxRxFrame                          0x00002c38   Section        0  u7816.o(i.CardTxRxFrame)
    i.Changecontrol_Process                  0x00002d64   Section        0  tariff.o(i.Changecontrol_Process)
    i.CheckNvicIrqEn                         0x00002e10   Section        0  verify.o(i.CheckNvicIrqEn)
    i.CheckSysReg                            0x00002e2c   Section        0  verify.o(i.CheckSysReg)
    i.Check_Err_Pro                          0x00002e3c   Section        0  uenergy-at.o(i.Check_Err_Pro)
    i.ChkBufZero                             0x0000304c   Section        0  rtc.o(i.ChkBufZero)
    i.ChkLastclockerrRcdTime                 0x00003066   Section        0  uartx.o(i.ChkLastclockerrRcdTime)
    i.ChkPdRcdTime                           0x0000309a   Section        0  uenergy-at.o(i.ChkPdRcdTime)
    i.ClearPloadRec                          0x000030cc   Section        0  event.o(i.ClearPloadRec)
    i.Clear_Meter                            0x0000323c   Section        0  u7816.o(i.Clear_Meter)
    i.Clear_Nv_Ram                           0x00003390   Section        0  init.o(i.Clear_Nv_Ram)
    i.Clear_Rand_Gene                        0x000033a4   Section        0  u7816.o(i.Clear_Rand_Gene)
    i.Clear_W_Wdt                            0x000033e0   Section        0  init.o(i.Clear_W_Wdt)
    i.Clear_Wdt                              0x000033ec   Section        0  init.o(i.Clear_Wdt)
    i.Clk_Adj_Proc                           0x00003424   Section        0  init.o(i.Clk_Adj_Proc)
    i.ClockAddOne                            0x00003634   Section        0  uartx.o(i.ClockAddOne)
    i.CloseEsam                              0x0000365c   Section        0  u7816.o(i.CloseEsam)
    i.CloseFlash                             0x0000369c   Section        0  i2c.o(i.CloseFlash)
    i.Close_And_ClearIRQ                     0x000036dc   Section        0  interrupt.o(i.Close_And_ClearIRQ)
    i.Close_None_GPIO                        0x000036ec   Section        0  verify.o(i.Close_None_GPIO)
    i.CloseeIO                               0x00003844   Section        0  verify.o(i.CloseeIO)
    i.Closerelay                             0x0000385c   Section        0  money.o(i.Closerelay)
    i.Closerelay1                            0x000038cc   Section        0  money.o(i.Closerelay1)
    i.ClrRecTimes                            0x00003920   Section        0  event.o(i.ClrRecTimes)
    i.Clr_Commu_Relaydata                    0x00003d44   Section        0  uartx.o(i.Clr_Commu_Relaydata)
    i.Clr_Otherdata                          0x00003d6c   Section        0  uartx.o(i.Clr_Otherdata)
    i.Clr_Reportdata                         0x00003dac   Section        0  uartx.o(i.Clr_Reportdata)
    i.Clr_Reportnum                          0x00003de0   Section        0  uartx.o(i.Clr_Reportnum)
    i.Clr_Zero_Data                          0x00003e0c   Section        0  uartx.o(i.Clr_Zero_Data)
    i.Cmp_Bcd_Inv                            0x00003e34   Section        0  rtc.o(i.Cmp_Bcd_Inv)
    i.Cmp_Clock                              0x00003e64   Section        0  rtc.o(i.Cmp_Clock)
    i.Cmp_Data                               0x00003e94   Section        0  rtc.o(i.Cmp_Data)
    i.Cmp_Meter_Id                           0x00003ebc   Section        0  u7816.o(i.Cmp_Meter_Id)
    i.ColdReset                              0x00003ed8   Section        0  u7816.o(i.ColdReset)
    i.CommReadCalData                        0x00003fa8   Section        0  uenergy-at.o(i.CommReadCalData)
    i.CommSetRtc                             0x00003fd8   Section        0  uartx.o(i.CommSetRtc)
    i.CommSetRtc_Adj                         0x000040b4   Section        0  uartx.o(i.CommSetRtc_Adj)
    i.CommWriteCalData                       0x000041cc   Section        0  uenergy-at.o(i.CommWriteCalData)
    i.Comm_Auth_Judge                        0x0000439c   Section        0  uartx.o(i.Comm_Auth_Judge)
    i.Comm_Calculate_Comp_Rp                 0x000043ac   Section        0  uartx.o(i.Comm_Calculate_Comp_Rp)
    i.Comm_Calculate_Dl                      0x00004490   Section        0  uartx.o(i.Comm_Calculate_Dl)
    i.Comm_Event_Proc                        0x00004500   Section        0  mainproc.o(i.Comm_Event_Proc)
    i.Comm_Read_Reg                          0x00004584   Section        0  uenergy-at.o(i.Comm_Read_Reg)
    i.Comm_Write_Reg                         0x000045f8   Section        0  uenergy-at.o(i.Comm_Write_Reg)
    i.Commaddr_Verify                        0x00004784   Section        0  verify.o(i.Commaddr_Verify)
    i.Commmodule_Check                       0x000047dc   Section        0  iokey.o(i.Commmodule_Check)
    i.Comp_RpdltoEepromBuf                   0x00004918   Section        0  event.o(i.Comp_RpdltoEepromBuf)
    i.Config_ShiQuLad_Proc                   0x00004984   Section        0  tariff.o(i.Config_ShiQuLad_Proc)
    i.Config_Shiduan_Process                 0x000049c0   Section        0  tariff.o(i.Config_Shiduan_Process)
    i.Configure_Register_Sleep               0x00004adc   Section        0  interrupt.o(i.Configure_Register_Sleep)
    i.Cover_Check                            0x00004ecc   Section        0  iokey.o(i.Cover_Check)
    i.Crc_16Bits                             0x00004f5c   Section        0  verify.o(i.Crc_16Bits)
    i.Crc_16Bits_Add2                        0x00004f94   Section        0  verify.o(i.Crc_16Bits_Add2)
    i.Crc_Check                              0x00004fa8   Section        0  verify.o(i.Crc_Check)
    i.Decrypt                                0x00004fc8   Section        0  uartx.o(i.Decrypt)
    i.Delay_Initial                          0x00005060   Section        0  init.o(i.Delay_Initial)
    i.Delay_Netu                             0x00005090   Section        0  u7816.o(i.Delay_Netu)
    i.DeviceSleepCFG                         0x000050a8   Section        0  interrupt.o(i.DeviceSleepCFG)
    i.Disable_I2C_IO                         0x00005114   Section        0  verify.o(i.Disable_I2C_IO)
    i.Disable_Pulse                          0x0000513c   Section        0  verify.o(i.Disable_Pulse)
    i.Disp_Dl_G_Dot                          0x00005160   Section        0  lcd.o(i.Disp_Dl_G_Dot)
    i.Disp_Pw_Dot                            0x00005240   Section        0  lcd.o(i.Disp_Pw_Dot)
    i.Disp_Time_Dot                          0x0000526c   Section        0  lcd.o(i.Disp_Time_Dot)
    i.Display_Para_Verify                    0x0000529c   Section        0  verify.o(i.Display_Para_Verify)
    i.Displayitem_Verify                     0x000052e4   Section        0  verify.o(i.Displayitem_Verify)
    i.Displaykey_Check                       0x00005370   Section        0  iokey.o(i.Displaykey_Check)
    i.Displaykey_Process                     0x000053c8   Section        0  iokey.o(i.Displaykey_Process)
    i.Dl_Check                               0x00005454   Section        0  verify.o(i.Dl_Check)
    i.DltoEepromBuf                          0x000054b4   Section        0  event.o(i.DltoEepromBuf)
    i.ETIMER2_IRQHandler                     0x000054dc   Section        0  interrupt.o(i.ETIMER2_IRQHandler)
    i.ETIMER4_IRQHandler                     0x00005998   Section        0  interrupt.o(i.ETIMER4_IRQHandler)
    i.EmuRegOp                               0x000059e0   Section        0  uenergy-at.o(i.EmuRegOp)
    i.Emu_Para_Verify                        0x00005a30   Section        0  uenergy-at.o(i.Emu_Para_Verify)
    i.Emu_Reg_Verify                         0x00005a78   Section        0  uenergy-at.o(i.Emu_Reg_Verify)
    i.Enable_Closerelay                      0x00005b64   Section        0  iokey.o(i.Enable_Closerelay)
    i.Enable_I2C_IO                          0x00005b80   Section        0  verify.o(i.Enable_I2C_IO)
    i.Enable_Led_IO                          0x00005bb8   Section        0  verify.o(i.Enable_Led_IO)
    i.Enable_Pulse                           0x00005bcc   Section        0  verify.o(i.Enable_Pulse)
    i.Energy_Event_Proc                      0x00005bf4   Section        0  mainproc.o(i.Energy_Event_Proc)
    i.EsamReset                              0x00005c20   Section        0  u7816.o(i.EsamReset)
    i.Esam_Err_Report                        0x00005c80   Section        0  u7816.o(i.Esam_Err_Report)
    i.Esam_Para_Verify                       0x00005ca0   Section        0  verify.o(i.Esam_Para_Verify)
    i.Event_Record                           0x00005db8   Section        0  event.o(i.Event_Record)
    i.Exchange                               0x00005f74   Section        0  event.o(i.Exchange)
    i.FDET_IRQHandler                        0x00005f90   Section        0  interrupt.o(i.FDET_IRQHandler)
    i.Factory_Init                           0x00005fa0   Section        0  u7816.o(i.Factory_Init)
    i.FailKey                                0x00006394   Section        0  u7816.o(i.FailKey)
    i.Fill_RTC_RT_TAdc                       0x000063c0   Section        0  verify.o(i.Fill_RTC_RT_TAdc)
    i.Fill_RTC_RT_TVal                       0x00006450   Section        0  verify.o(i.Fill_RTC_RT_TVal)
    i.FindSQ                                 0x000064d8   Section        0  tariff.o(i.FindSQ)
    i.FindSpecPos                            0x0000653c   Section        0  event.o(i.FindSpecPos)
    i.Find_EventTable                        0x0000660c   Section        0  uartx.o(i.Find_EventTable)
    i.FlashID                                0x0000663c   Section        0  i2c.o(i.FlashID)
    i.Flash_Page_Write                       0x000066a4   Section        0  i2c.o(i.Flash_Page_Write)
    i.Flash_RdSR1                            0x00006750   Section        0  i2c.o(i.Flash_RdSR1)
    i.Flash_Rd_Bottom                        0x00006794   Section        0  i2c.o(i.Flash_Rd_Bottom)
    i.Flash_Sector_Erase                     0x000067e8   Section        0  i2c.o(i.Flash_Sector_Erase)
    i.Flash_WREN                             0x00006820   Section        0  i2c.o(i.Flash_WREN)
    i.Flash_Write_Bottom                     0x00006874   Section        0  i2c.o(i.Flash_Write_Bottom)
    i.Flash_Write_Cycle                      0x00006970   Section        0  i2c.o(i.Flash_Write_Cycle)
    i.Flashaddr                              0x000069cc   Section        0  i2c.o(i.Flashaddr)
    i.Four_RpdltoEepromBuf                   0x00006a54   Section        0  event.o(i.Four_RpdltoEepromBuf)
    i.Freeze_Change_Judge                    0x00006a84   Section        0  tariff.o(i.Freeze_Change_Judge)
    i.Freeze_Dl                              0x00006bd4   Section        0  money.o(i.Freeze_Dl)
    i.Freeze_Judge                           0x00006d54   Section        0  money.o(i.Freeze_Judge)
    i.Freeze_Pddata                          0x00006e5c   Section        0  money.o(i.Freeze_Pddata)
    i.Freeze_Usedl                           0x00006f68   Section        0  money.o(i.Freeze_Usedl)
    i.Fwdl_Verify                            0x00006fd4   Section        0  verify.o(i.Fwdl_Verify)
    i.GPIO_Get_InitParam                     0x00006ffc   Section        0  fm32l0xx_gpio.o(i.GPIO_Get_InitParam)
    i.GPIO_Init                              0x0000706c   Section        0  fm32l0xx_gpio.o(i.GPIO_Init)
    i.GPIO_ResetBits                         0x000070cc   Section        0  fm32l0xx_gpio.o(i.GPIO_ResetBits)
    i.GPIO_SetBits                           0x000070d0   Section        0  fm32l0xx_gpio.o(i.GPIO_SetBits)
    i.Gain_Adjust                            0x000070d4   Section        0  uenergy-at.o(i.Gain_Adjust)
    i.GetADCResult                           0x000072c0   Section        0  init.o(i.GetADCResult)
    i.GetBps                                 0x00007314   Section        0  verify.o(i.GetBps)
    i.GetKey                                 0x0000733e   Section        0  u7816.o(i.GetKey)
    i.GetKeyStatus                           0x0000734c   Section        0  u7816.o(i.GetKeyStatus)
    i.GetLcdNo                               0x00007368   Section        0  uartx.o(i.GetLcdNo)
    i.GetPswBit                              0x0000744c   Section        0  u7816.o(i.GetPswBit)
    i.GetRecAddr                             0x000074a0   Section        0  i2c.o(i.GetRecAddr)
    i.GetRecNum                              0x00007628   Section        0  i2c.o(i.GetRecNum)
    i.GetRtcRTrimVal                         0x00007744   Section        0  init.o(i.GetRtcRTrimVal)
    i.GetSetBitNum                           0x000077c0   Section        0  u7816.o(i.GetSetBitNum)
    i.GetValtimes                            0x000077f4   Section        0  i2c.o(i.GetValtimes)
    i.Get_7816_Char                          0x00007808   Section        0  u7816.o(i.Get_7816_Char)
    i.Get_Err_Data                           0x00007864   Section        0  uenergy-at.o(i.Get_Err_Data)
    i.Get_Keep_Timer                         0x00007908   Section        0  interrupt.o(i.Get_Keep_Timer)
    i.Get_Money_File                         0x00007930   Section        0  uartx.o(i.Get_Money_File)
    i.Get_RTCTop_Proc                        0x00007980   Section        0  uartx.o(i.Get_RTCTop_Proc)
    i.HardFault_Handler                      0x00007a30   Section        0  interrupt.o(i.HardFault_Handler)
    i.Hex2Bcd                                0x00007a4c   Section        0  rtc.o(i.Hex2Bcd)
    i.Hex2Bcd_Dl                             0x00007ac4   Section        0  money.o(i.Hex2Bcd_Dl)
    i.Hex2Bcd_Dl_G                           0x00007b54   Section        0  money.o(i.Hex2Bcd_Dl_G)
    i.Hex2Bcd_SS                             0x00007bb6   Section        0  rtc.o(i.Hex2Bcd_SS)
    i.Hex_To_Bcd                             0x00007bd8   Section        0  rtc.o(i.Hex_To_Bcd)
    i.Histroy_Freeze_Dl                      0x00007be8   Section        0  money.o(i.Histroy_Freeze_Dl)
    i.Hour_Freeze_Dl                         0x00007d80   Section        0  money.o(i.Hour_Freeze_Dl)
    i.I2C_Read_Bottom                        0x00007dc0   Section        0  i2c.o(i.I2C_Read_Bottom)
    i.I2C_Read_Eeprom                        0x00007e54   Section        0  i2c.o(i.I2C_Read_Eeprom)
    i.I2C_Read_Eeprom44                      0x00007ed6   Section        0  i2c.o(i.I2C_Read_Eeprom44)
    i.I2C_Write_Bottom                       0x00007f04   Section        0  i2c.o(i.I2C_Write_Bottom)
    i.I2C_Write_Eeprom                       0x00007f6c   Section        0  i2c.o(i.I2C_Write_Eeprom)
    i.I2C_Write_Eeprom44                     0x00007ff2   Section        0  i2c.o(i.I2C_Write_Eeprom44)
    i.I2c_Receive_Byte                       0x00008020   Section        0  i2c.o(i.I2c_Receive_Byte)
    i.I2c_Send_Bit                           0x00008054   Section        0  i2c.o(i.I2c_Send_Bit)
    i.I2c_Send_Byte                          0x00008088   Section        0  i2c.o(i.I2c_Send_Byte)
    i.I2c_Wait_5ms                           0x000080bc   Section        0  init.o(i.I2c_Wait_5ms)
    i.IWDT_Init                              0x000080d4   Section        0  init.o(i.IWDT_Init)
    i.Ib_K                                   0x000080f8   Section        0  uenergy-at.o(i.Ib_K)
    i.InitVolSts                             0x00008144   Section        0  money.o(i.InitVolSts)
    i.Init_Arm0                              0x0000816c   Section        0  init.o(i.Init_Arm0)
    i.Init_Meter_Chip                        0x00008170   Section        0  uenergy-at.o(i.Init_Meter_Chip)
    i.Init_Metererrstatus                    0x000081bc   Section        0  money.o(i.Init_Metererrstatus)
    i.Init_Pad_Io                            0x00008204   Section        0  init.o(i.Init_Pad_Io)
    i.Init_RCHF_Trim                         0x00008230   Section        0  init.o(i.Init_RCHF_Trim)
    i.Init_Relay                             0x00008268   Section        0  init.o(i.Init_Relay)
    i.Init_System                            0x000082b8   Section        0  init.o(i.Init_System)
    i.InputtIO                               0x000085ec   Section        0  verify.o(i.InputtIO)
    i.Int2Byte                               0x0000865a   Section        0  rtc.o(i.Int2Byte)
    i.Inverse                                0x0000866a   Section        0  event.o(i.Inverse)
    i.IsBCD                                  0x0000868a   Section        0  uartx.o(i.IsBCD)
    i.IsFlashRec                             0x000086a2   Section        0  i2c.o(i.IsFlashRec)
    i.IsMultiBcd                             0x000086c2   Section        0  uartx.o(i.IsMultiBcd)
    i.IxRMSOS_Adjust                         0x000086e8   Section        0  uenergy-at.o(i.IxRMSOS_Adjust)
    i.JTRecord                               0x00008768   Section        0  uartx.o(i.JTRecord)
    i.JudgeClockNoWeek                       0x000087d0   Section        0  rtc.o(i.JudgeClockNoWeek)
    i.JudgeEndClock                          0x000087dc   Section        0  uartx.o(i.JudgeEndClock)
    i.JudgeSwitch                            0x0000880c   Section        0  uartx.o(i.JudgeSwitch)
    i.JudgeSwitch2                           0x00008864   Section        0  uartx.o(i.JudgeSwitch2)
    i.JudgeYearClock                         0x000088a8   Section        0  tariff.o(i.JudgeYearClock)
    i.Judge_645_Frame                        0x000088d8   Section        0  interrupt.o(i.Judge_645_Frame)
    i.Judge_Clock                            0x00008a8c   Section        0  rtc.o(i.Judge_Clock)
    i.Judge_Edge                             0x00008b70   Section        0  u7816.o(i.Judge_Edge)
    i.Judge_Io_Status                        0x00008b9c   Section        0  interrupt.o(i.Judge_Io_Status)
    i.Judge_MeterId                          0x00008be0   Section        0  interrupt.o(i.Judge_MeterId)
    i.Judge_Min_Space                        0x00008d0c   Section        0  uartx.o(i.Judge_Min_Space)
    i.Judge_Relay_Delay                      0x00008d68   Section        0  money.o(i.Judge_Relay_Delay)
    i.Judge_Uip_Data                         0x00008dbc   Section        0  uenergy-at.o(i.Judge_Uip_Data)
    i.LCD_Num_Data                           0x00009504   Section        0  lcd.o(i.LCD_Num_Data)
    i.LCD_Table                              0x000099fc   Section        0  lcd.o(i.LCD_Table)
    i.Ladderdata_Check                       0x00009a28   Section        0  tariff.o(i.Ladderdata_Check)
    i.Lcd_Disp_On                            0x00009a40   Section        0  interrupt.o(i.Lcd_Disp_On)
    i.Lcd_Disp_Zedl                          0x00009a50   Section        0  lcd.o(i.Lcd_Disp_Zedl)
    i.Lcd_Display                            0x00009ac0   Section        0  lcd.o(i.Lcd_Display)
    i.Lcd_LCDEN_Off                          0x0000a318   Section        0  lcd.o(i.Lcd_LCDEN_Off)
    i.Lcd_LCDEN_On                           0x0000a328   Section        0  lcd.o(i.Lcd_LCDEN_On)
    i.Lcd_Show_N                             0x0000a338   Section        0  lcd.o(i.Lcd_Show_N)
    i.Lcd_Show_ZF                            0x0000a414   Section        0  lcd.o(i.Lcd_Show_ZF)
    i.Lcdled_Control                         0x0000a438   Section        0  interrupt.o(i.Lcdled_Control)
    i.Load_Judge                             0x0000a560   Section        0  event.o(i.Load_Judge)
    i.LoopExchange                           0x0000a718   Section        0  uartx.o(i.LoopExchange)
    i.LoopInverse                            0x0000a744   Section        0  uartx.o(i.LoopInverse)
    i.MacExchange                            0x0000a766   Section        0  uartx.o(i.MacExchange)
    i.Mac_Err_Proc                           0x0000a780   Section        0  u7816.o(i.Mac_Err_Proc)
    i.MeterIC_RST0                           0x0000a7ac   Section        0  verify.o(i.MeterIC_RST0)
    i.MeterIC_RST1                           0x0000a7c8   Section        0  verify.o(i.MeterIC_RST1)
    i.Meter_Const_Verify                     0x0000a7e4   Section        0  verify.o(i.Meter_Const_Verify)
    i.Mode_Verify                            0x0000a808   Section        0  verify.o(i.Mode_Verify)
    i.Mt_Alarmstatus_Judge                   0x0000a8b8   Section        0  money.o(i.Mt_Alarmstatus_Judge)
    i.NMI_Handler                            0x0000a920   Section        0  interrupt.o(i.NMI_Handler)
    i.NVIC_ClearPendingIRQ                   0x0000a934   Section        0  init.o(i.NVIC_ClearPendingIRQ)
    NVIC_ClearPendingIRQ                     0x0000a935   Thumb Code    18  init.o(i.NVIC_ClearPendingIRQ)
    i.NVIC_ClearPendingIRQ                   0x0000a94c   Section        0  interrupt.o(i.NVIC_ClearPendingIRQ)
    NVIC_ClearPendingIRQ                     0x0000a94d   Thumb Code    18  interrupt.o(i.NVIC_ClearPendingIRQ)
    i.NVIC_DisableIRQ                        0x0000a964   Section        0  init.o(i.NVIC_DisableIRQ)
    NVIC_DisableIRQ                          0x0000a965   Thumb Code    18  init.o(i.NVIC_DisableIRQ)
    i.NVIC_DisableIRQ                        0x0000a97c   Section        0  interrupt.o(i.NVIC_DisableIRQ)
    NVIC_DisableIRQ                          0x0000a97d   Thumb Code    18  interrupt.o(i.NVIC_DisableIRQ)
    i.NVIC_DisableIRQ                        0x0000a994   Section        0  verify.o(i.NVIC_DisableIRQ)
    NVIC_DisableIRQ                          0x0000a995   Thumb Code    18  verify.o(i.NVIC_DisableIRQ)
    i.NVIC_EnableIRQ                         0x0000a9ac   Section        0  init.o(i.NVIC_EnableIRQ)
    NVIC_EnableIRQ                           0x0000a9ad   Thumb Code    18  init.o(i.NVIC_EnableIRQ)
    i.NVIC_EnableIRQ                         0x0000a9c4   Section        0  interrupt.o(i.NVIC_EnableIRQ)
    NVIC_EnableIRQ                           0x0000a9c5   Thumb Code    18  interrupt.o(i.NVIC_EnableIRQ)
    i.NVIC_EnableIRQ                         0x0000a9dc   Section        0  verify.o(i.NVIC_EnableIRQ)
    NVIC_EnableIRQ                           0x0000a9dd   Thumb Code    18  verify.o(i.NVIC_EnableIRQ)
    i.NVIC_SetPriority                       0x0000a9f4   Section        0  interrupt.o(i.NVIC_SetPriority)
    NVIC_SetPriority                         0x0000a9f5   Thumb Code    60  interrupt.o(i.NVIC_SetPriority)
    i.NVIC_SetPriority                       0x0000aa38   Section        0  verify.o(i.NVIC_SetPriority)
    NVIC_SetPriority                         0x0000aa39   Thumb Code    60  verify.o(i.NVIC_SetPriority)
    i.Note_Relay_Event                       0x0000aa7c   Section        0  event.o(i.Note_Relay_Event)
    i.Note_Reset_Number                      0x0000aafc   Section        0  init.o(i.Note_Reset_Number)
    i.Note_Run_Event                         0x0000ad7c   Section        0  event.o(i.Note_Run_Event)
    i.Number_Add1                            0x0000af08   Section        0  event.o(i.Number_Add1)
    i.Nvram_Judge                            0x0000af38   Section        0  init.o(i.Nvram_Judge)
    i.Offset_Adjust                          0x0000af68   Section        0  uenergy-at.o(i.Offset_Adjust)
    i.OpenFlash                              0x0000b170   Section        0  i2c.o(i.OpenFlash)
    i.Openrelay                              0x0000b1ec   Section        0  money.o(i.Openrelay)
    i.Openrelay1                             0x0000b284   Section        0  money.o(i.Openrelay1)
    i.OutputIO                               0x0000b2d8   Section        0  verify.o(i.OutputIO)
    i.PH_Adjust                              0x0000b34c   Section        0  uenergy-at.o(i.PH_Adjust)
    i.Pd_Adc_Calculate                       0x0000b3b0   Section        0  interrupt.o(i.Pd_Adc_Calculate)
    i.Pd_Calculate_Judge                     0x0000b4d0   Section        0  money.o(i.Pd_Calculate_Judge)
    i.Pd_Histroyfreeze_Judge                 0x0000b730   Section        0  money.o(i.Pd_Histroyfreeze_Judge)
    i.Pd_Hourfreeze_Judge                    0x0000b8e4   Section        0  money.o(i.Pd_Hourfreeze_Judge)
    i.PowerError_Check                       0x0000babc   Section        0  interrupt.o(i.PowerError_Check)
    i.Powerd_Data_Process                    0x0000bb24   Section        0  init.o(i.Powerd_Data_Process)
    i.Price_Judge                            0x0000be88   Section        0  tariff.o(i.Price_Judge)
    i.Process_Usedl                          0x0000c014   Section        0  money.o(i.Process_Usedl)
    i.ProgramRecord                          0x0000c0a4   Section        0  uartx.o(i.ProgramRecord)
    i.RTC_IRQHandler                         0x0000c0f8   Section        0  interrupt.o(i.RTC_IRQHandler)
    i.RdHisEvent                             0x0000c1f4   Section        0  uartx.o(i.RdHisEvent)
    i.RdHisPd                                0x0000c656   Section        0  uartx.o(i.RdHisPd)
    i.RdRecTimes                             0x0000c71c   Section        0  event.o(i.RdRecTimes)
    i.Rd_Relay_Buy_Rec                       0x0000c73c   Section        0  uartx.o(i.Rd_Relay_Buy_Rec)
    i.ReadBinFile                            0x0000cf00   Section        0  u7816.o(i.ReadBinFile)
    i.ReadBinWithMac                         0x0000cf20   Section        0  u7816.o(i.ReadBinWithMac)
    i.ReadE2WithBackup                       0x0000cff8   Section        0  i2c.o(i.ReadE2WithBackup)
    i.ReadE2WithJieti                        0x0000d022   Section        0  tariff.o(i.ReadE2WithJieti)
    i.ReadFreezedRec                         0x0000d034   Section        0  uartx.o(i.ReadFreezedRec)
    i.ReadLoadRec                            0x0000d390   Section        0  event.o(i.ReadLoadRec)
    i.ReadRandom                             0x0000d92c   Section        0  u7816.o(i.ReadRandom)
    i.ReadRecFile                            0x0000d968   Section        0  u7816.o(i.ReadRecFile)
    i.Read_Event_Number                      0x0000d986   Section        0  event.o(i.Read_Event_Number)
    i.Read_Event_Point                       0x0000d9c4   Section        0  event.o(i.Read_Event_Point)
    i.Read_Kx                                0x0000da18   Section        0  u7816.o(i.Read_Kx)
    i.Read_Rtc                               0x0000da38   Section        0  rtc.o(i.Read_Rtc)
    i.Read_Sysclock                          0x0000dad4   Section        0  rtc.o(i.Read_Sysclock)
    i.Read_UIP                               0x0000e0e8   Section        0  uenergy-at.o(i.Read_UIP)
    i.Read_UIPF                              0x0000e640   Section        0  uenergy-at.o(i.Read_UIPF)
    i.Read_Uip_Data                          0x0000e6ac   Section        0  event.o(i.Read_Uip_Data)
    i.Ready_Reportdata                       0x0000e728   Section        0  uartx.o(i.Ready_Reportdata)
    i.RefreshPrice                           0x0000e7c4   Section        0  tariff.o(i.RefreshPrice)
    i.Relay_Ctrl                             0x0000e7e0   Section        0  uartx.o(i.Relay_Ctrl)
    i.Relaystatus_Check                      0x0000e944   Section        0  iokey.o(i.Relaystatus_Check)
    i.ReportEvent                            0x0000eb68   Section        0  uartx.o(i.ReportEvent)
    i.ReportProc                             0x0000ebd0   Section        0  uartx.o(i.ReportProc)
    i.Report_Response                        0x0000edb0   Section        0  uartx.o(i.Report_Response)
    i.Reset                                  0x0000eefc   Section        0  interrupt.o(i.Reset)
    i.Rpdl_Verify                            0x0000ef60   Section        0  verify.o(i.Rpdl_Verify)
    i.RxTxCommhead                           0x0000ef94   Section        0  u7816.o(i.RxTxCommhead)
    i.SCover_Check                           0x0000efac   Section        0  interrupt.o(i.SCover_Check)
    i.SPI_Rx_Byte                            0x0000f058   Section        0  i2c.o(i.SPI_Rx_Byte)
    i.SPI_Tx_Byte                            0x0000f084   Section        0  i2c.o(i.SPI_Tx_Byte)
    i.SVD_Disable                            0x0000f0ac   Section        0  fm32l0xx_anac.o(i.SVD_Disable)
    i.SVD_Enable                             0x0000f0bc   Section        0  fm32l0xx_anac.o(i.SVD_Enable)
    i.SVD_IRQHandler                         0x0000f0cc   Section        0  interrupt.o(i.SVD_IRQHandler)
    i.SVD_Init                               0x0000f0dc   Section        0  fm32l0xx_anac.o(i.SVD_Init)
    i.Save_Keep_Timer                        0x0000f100   Section        0  interrupt.o(i.Save_Keep_Timer)
    i.Sclock_Event_Proc                      0x0000f174   Section        0  mainproc.o(i.Sclock_Event_Proc)
    i.SelectFile                             0x0000f20c   Section        0  u7816.o(i.SelectFile)
    i.Sendaddr                               0x0000f23c   Section        0  i2c.o(i.Sendaddr)
    i.Sequence                               0x0000f2c4   Section        0  tariff.o(i.Sequence)
    i.SetKey                                 0x0000f32a   Section        0  u7816.o(i.SetKey)
    i.Set_Comm_Rate                          0x0000f33c   Section        0  uartx.o(i.Set_Comm_Rate)
    i.Set_Reportdata                         0x0000f3d4   Section        0  uartx.o(i.Set_Reportdata)
    i.Set_Rtc                                0x0000f4a8   Section        0  rtc.o(i.Set_Rtc)
    i.ShiquRecord                            0x0000f520   Section        0  uartx.o(i.ShiquRecord)
    i.Short2Byte                             0x0000f5f4   Section        0  rtc.o(i.Short2Byte)
    i.Sleep                                  0x0000f5fc   Section        0  interrupt.o(i.Sleep)
    i.Snd_7816_Byte                          0x0000fb2c   Section        0  u7816.o(i.Snd_7816_Byte)
    i.Starttimer_Verify                      0x0000fb84   Section        0  verify.o(i.Starttimer_Verify)
    i.Store_Data                             0x0000fb98   Section        0  interrupt.o(i.Store_Data)
    i.Store_Meterstatus                      0x0000fd90   Section        0  iokey.o(i.Store_Meterstatus)
    i.SynEeprom                              0x0000fdb0   Section        0  i2c.o(i.SynEeprom)
    i.SynFlashRec                            0x0000fff4   Section        0  i2c.o(i.SynFlashRec)
    i.Syn_Clock                              0x00010138   Section        0  rtc.o(i.Syn_Clock)
    i.SystemInit                             0x0001015c   Section        0  system_fm32l0xx3.o(i.SystemInit)
    i.SystemTicksInterval                    0x000101c0   Section        0  interrupt.o(i.SystemTicksInterval)
    i.Temperpara_Verify                      0x000101d0   Section        0  verify.o(i.Temperpara_Verify)
    i.TicksDelay                             0x00010230   Section        0  system_fm32l0xx3.o(i.TicksDelay)
    i.TicksDelayMs                           0x00010250   Section        0  system_fm32l0xx3.o(i.TicksDelayMs)
    i.TicksDelayUs                           0x00010274   Section        0  system_fm32l0xx3.o(i.TicksDelayUs)
    i.Timezone_Judge                         0x0001028c   Section        0  tariff.o(i.Timezone_Judge)
    i.Tx_645_Frame                           0x0001044c   Section        0  interrupt.o(i.Tx_645_Frame)
    i.UART0_IRQHandler                       0x00010504   Section        0  interrupt.o(i.UART0_IRQHandler)
    i.UART1_IRQHandler                       0x0001053c   Section        0  interrupt.o(i.UART1_IRQHandler)
    i.UART2_IRQHandler                       0x00010574   Section        0  interrupt.o(i.UART2_IRQHandler)
    i.UART5_IRQHandler                       0x000105b0   Section        0  interrupt.o(i.UART5_IRQHandler)
    i.UIP_K                                  0x000105f0   Section        0  uenergy-at.o(i.UIP_K)
    i.UartReadByte                           0x00010670   Section        0  uenergy-at.o(i.UartReadByte)
    i.UartWriteByte                          0x000106b4   Section        0  uenergy-at.o(i.UartWriteByte)
    i.Uart_IE_Disable_Proc                   0x000106f0   Section        0  interrupt.o(i.Uart_IE_Disable_Proc)
    i.Uart_Proc                              0x00010724   Section        0  uartx.o(i.Uart_Proc)
    i.Uart_RXErr_Proc                        0x00015b84   Section        0  interrupt.o(i.Uart_RXErr_Proc)
    i.UpdataRunFile                          0x00015bd0   Section        0  u7816.o(i.UpdataRunFile)
    i.UpdateBinFile                          0x00015c50   Section        0  u7816.o(i.UpdateBinFile)
    i.UpdateEepromKey                        0x00015c84   Section        0  u7816.o(i.UpdateEepromKey)
    i.UpdateEsamKey                          0x00015e44   Section        0  u7816.o(i.UpdateEsamKey)
    i.UpdateSysPara                          0x00015fac   Section        0  uartx.o(i.UpdateSysPara)
    i.Update_ESAM_Bin_Mac                    0x00016098   Section        0  u7816.o(i.Update_ESAM_Bin_Mac)
    i.Vector_Event_Proc                      0x000160d8   Section        0  mainproc.o(i.Vector_Event_Proc)
    i.Veri_Btmr1                             0x0001616c   Section        0  verify.o(i.Veri_Btmr1)
    i.Veri_Btmr1_Pcount                      0x000161dc   Section        0  verify.o(i.Veri_Btmr1_Pcount)
    i.Veri_Btmr2                             0x00016218   Section        0  verify.o(i.Veri_Btmr2)
    i.Veri_Btmr2_Pcount                      0x00016288   Section        0  verify.o(i.Veri_Btmr2_Pcount)
    i.Veri_Clk_Gen                           0x000162c0   Section        0  verify.o(i.Veri_Clk_Gen)
    i.Veri_Disp                              0x00016398   Section        0  verify.o(i.Veri_Disp)
    i.Veri_Etmr2                             0x000164b4   Section        0  verify.o(i.Veri_Etmr2)
    i.Veri_Etmr4                             0x00016540   Section        0  verify.o(i.Veri_Etmr4)
    i.Veri_I2c                               0x000165bc   Section        0  verify.o(i.Veri_I2c)
    i.Veri_Pad                               0x000165d8   Section        0  verify.o(i.Veri_Pad)
    i.Veri_Psw                               0x0001692c   Section        0  uartx.o(i.Veri_Psw)
    i.Veri_Rtc                               0x00016988   Section        0  verify.o(i.Veri_Rtc)
    i.Veri_SVD_Ctrl                          0x00016a1c   Section        0  verify.o(i.Veri_SVD_Ctrl)
    i.Veri_Sys_Reg                           0x00016a78   Section        0  verify.o(i.Veri_Sys_Reg)
    i.Veri_U7816                             0x00016acc   Section        0  verify.o(i.Veri_U7816)
    i.Veri_Uart_All                          0x00016b60   Section        0  verify.o(i.Veri_Uart_All)
    i.Veri_Wwdt                              0x00016e00   Section        0  verify.o(i.Veri_Wwdt)
    i.Verify_Dl                              0x00016e2c   Section        0  verify.o(i.Verify_Dl)
    i.Verify_para                            0x00016e96   Section        0  verify.o(i.Verify_para)
    i.VolPassRate                            0x00016ee4   Section        0  money.o(i.VolPassRate)
    i.WWDT_IRQHandler                        0x00017048   Section        0  interrupt.o(i.WWDT_IRQHandler)
    i.WWDT_Init                              0x0001705c   Section        0  init.o(i.WWDT_Init)
    i.Wait_for_end                           0x0001706c   Section        0  i2c.o(i.Wait_for_end)
    i.Week_Holiday_Verify                    0x000170b4   Section        0  verify.o(i.Week_Holiday_Verify)
    i.Wr_Powerdown_Data                      0x000170dc   Section        0  interrupt.o(i.Wr_Powerdown_Data)
    i.Wr_Pretime_Dayfreeze                   0x00017230   Section        0  money.o(i.Wr_Pretime_Dayfreeze)
    i.Wr_Pretime_Hisfreeze                   0x00017234   Section        0  money.o(i.Wr_Pretime_Hisfreeze)
    i.WriteBinWithMac                        0x00017264   Section        0  u7816.o(i.WriteBinWithMac)
    i.WriteE2WithBackup                      0x000172d0   Section        0  i2c.o(i.WriteE2WithBackup)
    i.WriteE2WithJieti                       0x00017306   Section        0  tariff.o(i.WriteE2WithJieti)
    i.Write_Event_Point                      0x00017328   Section        0  event.o(i.Write_Event_Point)
    i.Write_Load_Point                       0x000173e8   Section        0  event.o(i.Write_Load_Point)
    i.Xor_Data                               0x00017468   Section        0  uartx.o(i.Xor_Data)
    i.Yc_Auth                                0x00017480   Section        0  uartx.o(i.Yc_Auth)
    i.Year_Ladder_Judge                      0x0001752c   Section        0  tariff.o(i.Year_Ladder_Judge)
    i.__ARM_clz                              0x000175fc   Section        0  depilogue.o(i.__ARM_clz)
    i.__ARM_common_ll_mulss                  0x0001762a   Section        0  money.o(i.__ARM_common_ll_mulss)
    i.__ARM_common_ll_muluu                  0x0001765a   Section        0  uartx.o(i.__ARM_common_ll_muluu)
    i.__ARM_common_switch8                   0x0001768a   Section        0  fm32l0xx_rcc.o(i.__ARM_common_switch8)
    i.__scatterload_copy                     0x000176a4   Section       14  handlers.o(i.__scatterload_copy)
    i.__scatterload_null                     0x000176b2   Section        2  handlers.o(i.__scatterload_null)
    i.__scatterload_zeroinit                 0x000176b4   Section       14  handlers.o(i.__scatterload_zeroinit)
    i.feik_Num_Verify                        0x000176c4   Section        0  verify.o(i.feik_Num_Verify)
    i.isPowerOff                             0x000176ec   Section        0  init.o(i.isPowerOff)
    i.main                                   0x00017708   Section        0  mainproc.o(i.main)
    .constdata                               0x00017734   Section      448  event.o(.constdata)
    .constdata                               0x000178f4   Section      104  i2c.o(.constdata)
    .constdata                               0x0001795c   Section       18  mainproc.o(.constdata)
    .constdata                               0x00017970   Section       80  rtc.o(.constdata)
    .constdata                               0x000179c0   Section       12  u7816.o(.constdata)
    .constdata                               0x000179cc   Section       72  uenergy-at.o(.constdata)
    Protected                                0x0003f800   Section     1156  factory.o(Protected)
    .ARM.__AT_0x20000000                     0x20000000   Section      496  mainproc.o(.ARM.__AT_0x20000000)
    .data                                    0x20000200   Section        4  system_fm32l0xx3.o(.data)
    .data                                    0x20000204   Section        1  mainproc.o(.data)
    .data                                    0x20000205   Section        1  mainproc.o(.data)
    .data                                    0x20000206   Section        1  mainproc.o(.data)
    .data                                    0x20000207   Section        1  mainproc.o(.data)
    .data                                    0x20000208   Section        1  mainproc.o(.data)
    .data                                    0x20000209   Section        1  mainproc.o(.data)
    .data                                    0x2000020c   Section       12  mainproc.o(.data)
    .data                                    0x20000218   Section        1  mainproc.o(.data)
    .data                                    0x20000219   Section        1  mainproc.o(.data)
    .data                                    0x2000021a   Section        1  mainproc.o(.data)
    .data                                    0x2000021b   Section        1  mainproc.o(.data)
    .data                                    0x2000021c   Section        1  mainproc.o(.data)
    .data                                    0x2000021d   Section        1  mainproc.o(.data)
    .data                                    0x2000021e   Section        1  mainproc.o(.data)
    .data                                    0x2000021f   Section        1  mainproc.o(.data)
    .data                                    0x20000220   Section        1  mainproc.o(.data)
    .data                                    0x20000221   Section        1  mainproc.o(.data)
    .data                                    0x20000222   Section        2  mainproc.o(.data)
    .data                                    0x20000224   Section        2  mainproc.o(.data)
    .data                                    0x20000228   Section        4  mainproc.o(.data)
    .data                                    0x2000022c   Section        4  mainproc.o(.data)
    .data                                    0x20000230   Section        4  mainproc.o(.data)
    .data                                    0x20000234   Section        4  mainproc.o(.data)
    .data                                    0x20000238   Section        1  mainproc.o(.data)
    .data                                    0x20000239   Section        1  mainproc.o(.data)
    .data                                    0x2000023a   Section        1  mainproc.o(.data)
    .data                                    0x2000023b   Section        1  mainproc.o(.data)
    .data                                    0x2000023c   Section        1  mainproc.o(.data)
    .data                                    0x2000023e   Section        2  mainproc.o(.data)
    .data                                    0x20000240   Section        1  mainproc.o(.data)
    .data                                    0x20000242   Section        2  mainproc.o(.data)
    .data                                    0x20000244   Section        4  mainproc.o(.data)
    .data                                    0x20000248   Section        4  mainproc.o(.data)
    .data                                    0x2000024c   Section        1  mainproc.o(.data)
    .data                                    0x20000250   Section        4  mainproc.o(.data)
    .data                                    0x20000254   Section        2  mainproc.o(.data)
    .data                                    0x20000256   Section        1  mainproc.o(.data)
    .data                                    0x20000257   Section        1  mainproc.o(.data)
    .data                                    0x20000258   Section        1  mainproc.o(.data)
    .data                                    0x20000259   Section        1  mainproc.o(.data)
    .data                                    0x2000025a   Section        1  mainproc.o(.data)
    .data                                    0x2000025b   Section        1  mainproc.o(.data)
    .data                                    0x2000025c   Section        1  mainproc.o(.data)
    .data                                    0x2000025d   Section        1  mainproc.o(.data)
    .data                                    0x2000025e   Section        1  mainproc.o(.data)
    .data                                    0x2000025f   Section        1  mainproc.o(.data)
    .data                                    0x20000260   Section        1  mainproc.o(.data)
    .data                                    0x20000261   Section        1  mainproc.o(.data)
    .data                                    0x20000262   Section        2  mainproc.o(.data)
    .data                                    0x20000264   Section        2  mainproc.o(.data)
    .data                                    0x20000266   Section        1  mainproc.o(.data)
    .data                                    0x20000267   Section        1  mainproc.o(.data)
    .data                                    0x20000268   Section        1  mainproc.o(.data)
    .data                                    0x20000269   Section        2  mainproc.o(.data)
    .data                                    0x2000026b   Section        2  mainproc.o(.data)
    .data                                    0x2000026d   Section        1  mainproc.o(.data)
    .data                                    0x20000270   Section        4  mainproc.o(.data)
    .data                                    0x20000274   Section        4  mainproc.o(.data)
    .data                                    0x20000278   Section        1  mainproc.o(.data)
    .data                                    0x2000027a   Section        2  mainproc.o(.data)
    .data                                    0x2000027c   Section        1  mainproc.o(.data)
    .data                                    0x2000027e   Section        2  mainproc.o(.data)
    .data                                    0x20000280   Section        1  mainproc.o(.data)
    .data                                    0x20000281   Section        1  mainproc.o(.data)
    .data                                    0x20000282   Section        1  mainproc.o(.data)
    .data                                    0x20000284   Section        4  mainproc.o(.data)
    .data                                    0x20000288   Section        1  mainproc.o(.data)
    .data                                    0x20000289   Section        1  mainproc.o(.data)
    .data                                    0x2000028a   Section        1  mainproc.o(.data)
    .data                                    0x2000028b   Section        1  mainproc.o(.data)
    .data                                    0x2000028c   Section        1  mainproc.o(.data)
    .data                                    0x2000028d   Section        1  mainproc.o(.data)
    .data                                    0x2000028e   Section        8  mainproc.o(.data)
    .data                                    0x20000296   Section        1  mainproc.o(.data)
    .data                                    0x20000298   Section        2  mainproc.o(.data)
    .data                                    0x2000029a   Section        1  mainproc.o(.data)
    .data                                    0x2000029b   Section        8  mainproc.o(.data)
    .data                                    0x200002a4   Section        2  mainproc.o(.data)
    .data                                    0x200002a6   Section        1  mainproc.o(.data)
    .data                                    0x200002a7   Section        8  mainproc.o(.data)
    .data                                    0x200002af   Section        3  mainproc.o(.data)
    .data                                    0x200002b2   Section        3  mainproc.o(.data)
    .data                                    0x200002b5   Section        7  mainproc.o(.data)
    .data                                    0x200002bc   Section        1  mainproc.o(.data)
    .data                                    0x200002bd   Section        2  mainproc.o(.data)
    .data                                    0x200002bf   Section        8  mainproc.o(.data)
    .data                                    0x200002c7   Section        8  mainproc.o(.data)
    .data                                    0x200002cf   Section        8  mainproc.o(.data)
    .data                                    0x200002d7   Section        8  mainproc.o(.data)
    .data                                    0x200002df   Section        1  mainproc.o(.data)
    .data                                    0x200002e0   Section        8  mainproc.o(.data)
    .data                                    0x200002e8   Section        4  mainproc.o(.data)
    .data                                    0x200002ec   Section        8  mainproc.o(.data)
    .data                                    0x200002f4   Section       56  uenergy-at.o(.data)
    .bss                                     0x2000032c   Section       14  mainproc.o(.bss)
    .bss                                     0x2000033a   Section      136  mainproc.o(.bss)
    .bss                                     0x200003c4   Section       40  mainproc.o(.bss)
    .bss                                     0x200003ec   Section       97  mainproc.o(.bss)
    .bss                                     0x2000044d   Section       28  mainproc.o(.bss)
    .bss                                     0x20000469   Section       32  mainproc.o(.bss)
    .bss                                     0x20000489   Section       22  mainproc.o(.bss)
    .bss                                     0x200004a0   Section       24  mainproc.o(.bss)
    .bss                                     0x200004b8   Section       85  mainproc.o(.bss)
    .bss                                     0x2000050d   Section       50  mainproc.o(.bss)
    .bss                                     0x20000540   Section      400  mainproc.o(.bss)
    .bss                                     0x200006d0   Section       56  mainproc.o(.bss)
    .bss                                     0x20000708   Section       12  mainproc.o(.bss)
    .bss                                     0x20000714   Section      385  mainproc.o(.bss)
    .bss                                     0x20000896   Section     6088  mainproc.o(.bss)
    .bss                                     0x2000205e   Section       29  mainproc.o(.bss)
    .bss                                     0x2000207b   Section       13  mainproc.o(.bss)
    .bss                                     0x20002088   Section       38  mainproc.o(.bss)
    .bss                                     0x200020ae   Section       66  mainproc.o(.bss)
    .bss                                     0x200020f0   Section       96  mainproc.o(.bss)
    .bss                                     0x20002150   Section       10  mainproc.o(.bss)
    .bss                                     0x2000215c   Section       48  mainproc.o(.bss)
    .bss                                     0x2000218c   Section       28  mainproc.o(.bss)
    .bss                                     0x200021a8   Section       56  mainproc.o(.bss)
    .bss                                     0x200021e0   Section       45  mainproc.o(.bss)
    .bss                                     0x2000220d   Section      250  mainproc.o(.bss)
    .bss                                     0x20002307   Section      250  mainproc.o(.bss)
    .bss                                     0x20002404   Section       32  mainproc.o(.bss)
    .bss                                     0x20002424   Section      128  uenergy-at.o(.bss)
    STACK                                    0x20004e00   Section     4096  startup_fm32l0xx.o(STACK)

    Global Symbols

    Symbol Name                              Value     Ov Type        Size  Object(Section)

    BuildAttributes$$THM_ISAv3M$S$PE$A:L22$X:L11$S22$IEEE1$IW$USESV6$~STKCKD$USESV7$~SHL$OTIME$ROPI$EBA8$MICROLIB$REQ8$PRES8$EABIv2 0x00000000   Number         0  anon$$obj.o ABSOLUTE
    __ARM_use_no_argv                        0x00000000   Number         0  mainproc.o ABSOLUTE
    __Vectors                                0x00000000   Data           4  startup_fm32l0xx.o(RESET)
    __cpp_initialize__aeabi_                  - Undefined Weak Reference
    __cxa_finalize                            - Undefined Weak Reference
    _clock_init                               - Undefined Weak Reference
    _microlib_exit                            - Undefined Weak Reference
    __Vectors_End                            0x000000c0   Data           0  startup_fm32l0xx.o(RESET)
    __Vectors_Size                           0x000000c0   Number         0  startup_fm32l0xx.o ABSOLUTE
    __main                                   0x000000c1   Thumb Code     0  entry.o(.ARM.Collect$$$$00000000)
    _main_stk                                0x000000c1   Thumb Code     0  entry2.o(.ARM.Collect$$$$00000001)
    _main_scatterload                        0x000000c5   Thumb Code     0  entry5.o(.ARM.Collect$$$$00000004)
    __main_after_scatterload                 0x000000c9   Thumb Code     0  entry5.o(.ARM.Collect$$$$00000004)
    _main_clock                              0x000000c9   Thumb Code     0  entry7b.o(.ARM.Collect$$$$00000008)
    _main_cpp_init                           0x000000c9   Thumb Code     0  entry8b.o(.ARM.Collect$$$$0000000A)
    _main_init                               0x000000c9   Thumb Code     0  entry9a.o(.ARM.Collect$$$$0000000B)
    __rt_final_cpp                           0x000000d1   Thumb Code     0  entry10a.o(.ARM.Collect$$$$0000000D)
    __rt_final_exit                          0x000000d1   Thumb Code     0  entry11a.o(.ARM.Collect$$$$0000000F)
    Reset_Handler                            0x000000d5   Thumb Code     8  startup_fm32l0xx.o(.text)
    SVC_Handler                              0x000000e1   Thumb Code     2  startup_fm32l0xx.o(.text)
    PendSV_Handler                           0x000000e3   Thumb Code     2  startup_fm32l0xx.o(.text)
    SysTick_Handler                          0x000000e5   Thumb Code     2  startup_fm32l0xx.o(.text)
    ADC_IRQHandler                           0x000000e7   Thumb Code     0  startup_fm32l0xx.o(.text)
    AES_IRQHandler                           0x000000e7   Thumb Code     0  startup_fm32l0xx.o(.text)
    COMP_IRQHandler                          0x000000e7   Thumb Code     0  startup_fm32l0xx.o(.text)
    DISP_IRQHandler                          0x000000e7   Thumb Code     0  startup_fm32l0xx.o(.text)
    DMA_IRQHandler                           0x000000e7   Thumb Code     0  startup_fm32l0xx.o(.text)
    ETIMER1_IRQHandler                       0x000000e7   Thumb Code     0  startup_fm32l0xx.o(.text)
    ETIMER3_IRQHandler                       0x000000e7   Thumb Code     0  startup_fm32l0xx.o(.text)
    GPIO_IRQHandler                          0x000000e7   Thumb Code     0  startup_fm32l0xx.o(.text)
    HSPI_IRQHandler                          0x000000e7   Thumb Code     0  startup_fm32l0xx.o(.text)
    I2C_IRQHandler                           0x000000e7   Thumb Code     0  startup_fm32l0xx.o(.text)
    LPTIM_IRQHandler                         0x000000e7   Thumb Code     0  startup_fm32l0xx.o(.text)
    NVMIF_IRQHandler                         0x000000e7   Thumb Code     0  startup_fm32l0xx.o(.text)
    SPI1_IRQHandler                          0x000000e7   Thumb Code     0  startup_fm32l0xx.o(.text)
    SPI2_IRQHandler                          0x000000e7   Thumb Code     0  startup_fm32l0xx.o(.text)
    TRNG_IRQHandler                          0x000000e7   Thumb Code     0  startup_fm32l0xx.o(.text)
    UART3_IRQHandler                         0x000000e7   Thumb Code     0  startup_fm32l0xx.o(.text)
    UART4_IRQHandler                         0x000000e7   Thumb Code     0  startup_fm32l0xx.o(.text)
    USART0_IRQHandler                        0x000000e7   Thumb Code     0  startup_fm32l0xx.o(.text)
    USART1_IRQHandler                        0x000000e7   Thumb Code     0  startup_fm32l0xx.o(.text)
    __aeabi_uidiv                            0x000000f1   Thumb Code     0  uidiv.o(.text)
    __aeabi_uidivmod                         0x000000f1   Thumb Code    44  uidiv.o(.text)
    __aeabi_idiv                             0x0000011d   Thumb Code     0  idiv.o(.text)
    __aeabi_idivmod                          0x0000011d   Thumb Code    40  idiv.o(.text)
    __aeabi_uldivmod                         0x00000145   Thumb Code    96  uldiv.o(.text)
    __aeabi_ldivmod                          0x000001a5   Thumb Code    76  ldiv.o(.text)
    __aeabi_lmul                             0x000001f1   Thumb Code   122  llmul.o(.text)
    _ll_mul                                  0x000001f1   Thumb Code     0  llmul.o(.text)
    __aeabi_llsl                             0x0000026b   Thumb Code    32  llshl.o(.text)
    _ll_shift_l                              0x0000026b   Thumb Code     0  llshl.o(.text)
    __aeabi_llsr                             0x0000028b   Thumb Code    34  llushr.o(.text)
    _ll_ushift_r                             0x0000028b   Thumb Code     0  llushr.o(.text)
    __aeabi_memcpy                           0x000002ad   Thumb Code    36  memcpya.o(.text)
    __aeabi_memcpy4                          0x000002ad   Thumb Code     0  memcpya.o(.text)
    __aeabi_memcpy8                          0x000002ad   Thumb Code     0  memcpya.o(.text)
    __aeabi_memset                           0x000002d1   Thumb Code    14  memseta.o(.text)
    __aeabi_memset4                          0x000002d1   Thumb Code     0  memseta.o(.text)
    __aeabi_memset8                          0x000002d1   Thumb Code     0  memseta.o(.text)
    __aeabi_memclr                           0x000002df   Thumb Code     4  memseta.o(.text)
    __aeabi_memclr4                          0x000002df   Thumb Code     0  memseta.o(.text)
    __aeabi_memclr8                          0x000002df   Thumb Code     0  memseta.o(.text)
    _memset$wrapper                          0x000002e3   Thumb Code    18  memseta.o(.text)
    __aeabi_fadd                             0x000002f5   Thumb Code   162  fadd.o(.text)
    __aeabi_fsub                             0x00000397   Thumb Code     8  fadd.o(.text)
    __aeabi_frsub                            0x0000039f   Thumb Code     8  fadd.o(.text)
    __aeabi_fmul                             0x000003a7   Thumb Code   122  fmul.o(.text)
    __aeabi_fdiv                             0x00000421   Thumb Code   124  fdiv.o(.text)
    __ARM_scalbnf                            0x0000049d   Thumb Code    24  fscalb.o(.text)
    scalbnf                                  0x0000049d   Thumb Code     0  fscalb.o(.text)
    __aeabi_dadd                             0x000004b5   Thumb Code   328  dadd.o(.text)
    __aeabi_dsub                             0x000005fd   Thumb Code    12  dadd.o(.text)
    __aeabi_drsub                            0x00000609   Thumb Code    12  dadd.o(.text)
    __aeabi_dmul                             0x00000619   Thumb Code   202  dmul.o(.text)
    __aeabi_ddiv                             0x000006e9   Thumb Code   234  ddiv.o(.text)
    __ARM_scalbn                             0x000007d9   Thumb Code    44  dscalb.o(.text)
    scalbn                                   0x000007d9   Thumb Code     0  dscalb.o(.text)
    __aeabi_i2f                              0x00000805   Thumb Code    22  fflti.o(.text)
    __aeabi_ui2f                             0x0000081b   Thumb Code    14  ffltui.o(.text)
    __aeabi_i2d                              0x00000829   Thumb Code    34  dflti.o(.text)
    __aeabi_ui2d                             0x00000851   Thumb Code    24  dfltui.o(.text)
    __aeabi_l2d                              0x0000086d   Thumb Code    38  dfltl.o(.text)
    __aeabi_f2iz                             0x00000899   Thumb Code    50  ffixi.o(.text)
    __aeabi_f2uiz                            0x000008cb   Thumb Code    40  ffixui.o(.text)
    __aeabi_d2iz                             0x000008f5   Thumb Code    62  dfixi.o(.text)
    __aeabi_d2uiz                            0x0000093d   Thumb Code    50  dfixui.o(.text)
    __aeabi_d2lz                             0x00000979   Thumb Code    72  dfixl.o(.text)
    __aeabi_d2ulz                            0x000009c9   Thumb Code    54  dfixul.o(.text)
    __aeabi_f2d                              0x00000a09   Thumb Code    40  f2d.o(.text)
    __aeabi_cdcmpeq                          0x00000a31   Thumb Code     0  cdcmple.o(.text)
    __aeabi_cdcmple                          0x00000a31   Thumb Code    38  cdcmple.o(.text)
    __aeabi_d2f                              0x00000a59   Thumb Code    56  d2f.o(.text)
    __aeabi_cfcmpeq                          0x00000a91   Thumb Code     0  cfcmple.o(.text)
    __aeabi_cfcmple                          0x00000a91   Thumb Code    20  cfcmple.o(.text)
    __aeabi_cfrcmple                         0x00000aa5   Thumb Code    20  cfrcmple.o(.text)
    __aeabi_lasr                             0x00000ab9   Thumb Code    38  llsshr.o(.text)
    _ll_sshift_r                             0x00000ab9   Thumb Code     0  llsshr.o(.text)
    __I$use$fp                               0x00000adf   Thumb Code     0  iusefp.o(.text)
    _float_round                             0x00000adf   Thumb Code    16  fepilogue.o(.text)
    _float_epilogue                          0x00000aef   Thumb Code   114  fepilogue.o(.text)
    _double_round                            0x00000b61   Thumb Code    26  depilogue.o(.text)
    _double_epilogue                         0x00000b7b   Thumb Code   164  depilogue.o(.text)
    __scatterload                            0x00000c21   Thumb Code    28  init.o(.text)
    __scatterload_rt2                        0x00000c21   Thumb Code     0  init.o(.text)
    __decompress                             0x00000c45   Thumb Code     0  __dczerorl.o(.text)
    __decompress0                            0x00000c45   Thumb Code    58  __dczerorl.o(.text)
    ADC_ChannelSel                           0x00000c81   Thumb Code    18  fm32l0xx_anac.o(i.ADC_ChannelSel)
    ADC_Disable                              0x00000c99   Thumb Code    12  fm32l0xx_anac.o(i.ADC_Disable)
    ADC_Enable                               0x00000ca9   Thumb Code    12  fm32l0xx_anac.o(i.ADC_Enable)
    ADC_ITDisable                            0x00000cb9   Thumb Code    12  fm32l0xx_anac.o(i.ADC_ITDisable)
    ADC_SetTrim                              0x00000cc9   Thumb Code     6  fm32l0xx_anac.o(i.ADC_SetTrim)
    ATT7051SPIOp                             0x00000cd5   Thumb Code   256  uenergy-at.o(i.ATT7051SPIOp)
    ATT7051WRPRO                             0x00000de5   Thumb Code    26  uenergy-at.o(i.ATT7051WRPRO)
    ATT7051_Check                            0x00000e01   Thumb Code   480  uenergy-at.o(i.ATT7051_Check)
    Adc_Proc                                 0x00001001   Thumb Code  2480  init.o(i.Adc_Proc)
    AddNClock                                0x000019b9   Thumb Code   338  init.o(i.AddNClock)
    Add_Min_Clock                            0x00001b1d   Thumb Code   134  uartx.o(i.Add_Min_Clock)
    AltFunIO                                 0x00001bb1   Thumb Code   124  verify.o(i.AltFunIO)
    AnalogIO                                 0x00001c2d   Thumb Code    76  verify.o(i.AnalogIO)
    Auth_In_Out                              0x00001c79   Thumb Code    56  u7816.o(i.Auth_In_Out)
    Authorization                            0x00001cb5   Thumb Code    94  u7816.o(i.Authorization)
    BT1_IRQHandler                           0x00001d19   Thumb Code    80  interrupt.o(i.BT1_IRQHandler)
    BT2_IRQHandler                           0x00001d8d   Thumb Code    80  interrupt.o(i.BT2_IRQHandler)
    BUF4TST_BypassDisable                    0x00001e01   Thumb Code    12  fm32l0xx_anac.o(i.BUF4TST_BypassDisable)
    BUF4TST_BypassEn                         0x00001e11   Thumb Code    12  fm32l0xx_anac.o(i.BUF4TST_BypassEn)
    BUF4TST_ChannelSel                       0x00001e21   Thumb Code    18  fm32l0xx_anac.o(i.BUF4TST_ChannelSel)
    BUF4TST_Disable                          0x00001e39   Thumb Code    12  fm32l0xx_anac.o(i.BUF4TST_Disable)
    BUF4TST_Enable                           0x00001e49   Thumb Code    12  fm32l0xx_anac.o(i.BUF4TST_Enable)
    Backup_Para_7051                         0x00001e59   Thumb Code    38  uenergy-at.o(i.Backup_Para_7051)
    Bcd2Hex                                  0x00001e8d   Thumb Code   122  rtc.o(i.Bcd2Hex)
    Bcd2Hex_LS                               0x00001f15   Thumb Code    20  rtc.o(i.Bcd2Hex_LS)
    Bcd2Hex_SS                               0x00001f29   Thumb Code    34  rtc.o(i.Bcd2Hex_SS)
    Bcd_To_Hex                               0x00001f4b   Thumb Code    16  rtc.o(i.Bcd_To_Hex)
    BitValue                                 0x00001f5b   Thumb Code    16  uartx.o(i.BitValue)
    Bkdl_Verify                              0x00001f6d   Thumb Code    30  verify.o(i.Bkdl_Verify)
    Ble_Chk_Heart                            0x00001f95   Thumb Code    38  uartx.o(i.Ble_Chk_Heart)
    Ble_Frame_Cs                             0x00001fd5   Thumb Code    54  uartx.o(i.Ble_Frame_Cs)
    Ble_Init                                 0x00002015   Thumb Code    76  uartx.o(i.Ble_Init)
    Ble_Rst                                  0x0000206d   Thumb Code    64  uartx.o(i.Ble_Rst)
    Ble_Rst_Judge                            0x000020b9   Thumb Code    22  uartx.o(i.Ble_Rst_Judge)
    Byte2Short                               0x000020d9   Thumb Code    12  rtc.o(i.Byte2Short)
    Byte2uInt                                0x000020e5   Thumb Code    22  rtc.o(i.Byte2uInt)
    Byte2uShort                              0x000020fb   Thumb Code    12  rtc.o(i.Byte2uShort)
    CalLoad                                  0x00002109   Thumb Code   248  money.o(i.CalLoad)
    CalZhuhe                                 0x00002209   Thumb Code   234  uartx.o(i.CalZhuhe)
    Cal_ChkSum                               0x000022f3   Thumb Code    26  uartx.o(i.Cal_ChkSum)
    Cal_Comb                                 0x0000230d   Thumb Code   546  uartx.o(i.Cal_Comb)
    Cal_Comb_Usedl                           0x0000253d   Thumb Code   270  uartx.o(i.Cal_Comb_Usedl)
    Cal_Mac_Pro                              0x00002655   Thumb Code    58  u7816.o(i.Cal_Mac_Pro)
    Cal_Pav                                  0x00002695   Thumb Code   178  uenergy-at.o(i.Cal_Pav)
    CalcAbsDay                               0x00002751   Thumb Code    68  event.o(i.CalcAbsDay)
    CalcAbsMin                               0x00002799   Thumb Code    28  event.o(i.CalcAbsMin)
    CalcTime                                 0x000027b5   Thumb Code    26  event.o(i.CalcTime)
    Calc_Pwr_Proc                            0x000027d1   Thumb Code   468  money.o(i.Calc_Pwr_Proc)
    Calculate_Adj                            0x000029c9   Thumb Code   132  uenergy-at.o(i.Calculate_Adj)
    Calculate_Ah                             0x00002a55   Thumb Code    76  uartx.o(i.Calculate_Ah)
    Calculate_Dl_G                           0x00002ab1   Thumb Code    54  money.o(i.Calculate_Dl_G)
    Calculate_Min                            0x00002aed   Thumb Code    54  interrupt.o(i.Calculate_Min)
    Calculate_Overflow                       0x00002b31   Thumb Code   116  money.o(i.Calculate_Overflow)
    Calculate_Program_Cs                     0x00002ba9   Thumb Code    58  uartx.o(i.Calculate_Program_Cs)
    Calculate_Timer                          0x00002be9   Thumb Code    70  uartx.o(i.Calculate_Timer)
    CardTxRxFrame                            0x00002c39   Thumb Code   284  u7816.o(i.CardTxRxFrame)
    Changecontrol_Process                    0x00002d65   Thumb Code   160  tariff.o(i.Changecontrol_Process)
    CheckNvicIrqEn                           0x00002e11   Thumb Code    24  verify.o(i.CheckNvicIrqEn)
    CheckSysReg                              0x00002e2d   Thumb Code    16  verify.o(i.CheckSysReg)
    Check_Err_Pro                            0x00002e3d   Thumb Code   478  uenergy-at.o(i.Check_Err_Pro)
    ChkBufZero                               0x0000304d   Thumb Code    26  rtc.o(i.ChkBufZero)
    ChkLastclockerrRcdTime                   0x00003067   Thumb Code    52  uartx.o(i.ChkLastclockerrRcdTime)
    ChkPdRcdTime                             0x0000309b   Thumb Code    50  uenergy-at.o(i.ChkPdRcdTime)
    ClearPloadRec                            0x000030cd   Thumb Code   350  event.o(i.ClearPloadRec)
    Clear_Meter                              0x0000323d   Thumb Code   308  u7816.o(i.Clear_Meter)
    Clear_Nv_Ram                             0x00003391   Thumb Code    14  init.o(i.Clear_Nv_Ram)
    Clear_Rand_Gene                          0x000033a5   Thumb Code    44  u7816.o(i.Clear_Rand_Gene)
    Clear_W_Wdt                              0x000033e1   Thumb Code     8  init.o(i.Clear_W_Wdt)
    Clear_Wdt                                0x000033ed   Thumb Code    36  init.o(i.Clear_Wdt)
    Clk_Adj_Proc                             0x00003425   Thumb Code   482  init.o(i.Clk_Adj_Proc)
    ClockAddOne                              0x00003635   Thumb Code    38  uartx.o(i.ClockAddOne)
    CloseEsam                                0x0000365d   Thumb Code    54  u7816.o(i.CloseEsam)
    CloseFlash                               0x0000369d   Thumb Code    60  i2c.o(i.CloseFlash)
    Close_And_ClearIRQ                       0x000036dd   Thumb Code    16  interrupt.o(i.Close_And_ClearIRQ)
    Close_None_GPIO                          0x000036ed   Thumb Code   340  verify.o(i.Close_None_GPIO)
    CloseeIO                                 0x00003845   Thumb Code    22  verify.o(i.CloseeIO)
    Closerelay                               0x0000385d   Thumb Code    86  money.o(i.Closerelay)
    Closerelay1                              0x000038cd   Thumb Code    62  money.o(i.Closerelay1)
    ClrRecTimes                              0x00003921   Thumb Code   966  event.o(i.ClrRecTimes)
    Clr_Commu_Relaydata                      0x00003d45   Thumb Code    28  uartx.o(i.Clr_Commu_Relaydata)
    Clr_Otherdata                            0x00003d6d   Thumb Code    56  uartx.o(i.Clr_Otherdata)
    Clr_Reportdata                           0x00003dad   Thumb Code    44  uartx.o(i.Clr_Reportdata)
    Clr_Reportnum                            0x00003de1   Thumb Code    40  uartx.o(i.Clr_Reportnum)
    Clr_Zero_Data                            0x00003e0d   Thumb Code    30  uartx.o(i.Clr_Zero_Data)
    Cmp_Bcd_Inv                              0x00003e35   Thumb Code    48  rtc.o(i.Cmp_Bcd_Inv)
    Cmp_Clock                                0x00003e65   Thumb Code    44  rtc.o(i.Cmp_Clock)
    Cmp_Data                                 0x00003e95   Thumb Code    38  rtc.o(i.Cmp_Data)
    Cmp_Meter_Id                             0x00003ebd   Thumb Code    24  u7816.o(i.Cmp_Meter_Id)
    ColdReset                                0x00003ed9   Thumb Code   188  u7816.o(i.ColdReset)
    CommReadCalData                          0x00003fa9   Thumb Code    38  uenergy-at.o(i.CommReadCalData)
    CommSetRtc                               0x00003fd9   Thumb Code   200  uartx.o(i.CommSetRtc)
    CommSetRtc_Adj                           0x000040b5   Thumb Code   256  uartx.o(i.CommSetRtc_Adj)
    CommWriteCalData                         0x000041cd   Thumb Code   424  uenergy-at.o(i.CommWriteCalData)
    Comm_Auth_Judge                          0x0000439d   Thumb Code    12  uartx.o(i.Comm_Auth_Judge)
    Comm_Calculate_Comp_Rp                   0x000043ad   Thumb Code   224  uartx.o(i.Comm_Calculate_Comp_Rp)
    Comm_Calculate_Dl                        0x00004491   Thumb Code   106  uartx.o(i.Comm_Calculate_Dl)
    Comm_Event_Proc                          0x00004501   Thumb Code   114  mainproc.o(i.Comm_Event_Proc)
    Comm_Read_Reg                            0x00004585   Thumb Code   112  uenergy-at.o(i.Comm_Read_Reg)
    Comm_Write_Reg                           0x000045f9   Thumb Code   376  uenergy-at.o(i.Comm_Write_Reg)
    Commaddr_Verify                          0x00004785   Thumb Code    70  verify.o(i.Commaddr_Verify)
    Commmodule_Check                         0x000047dd   Thumb Code   264  iokey.o(i.Commmodule_Check)
    Comp_RpdltoEepromBuf                     0x00004919   Thumb Code    94  event.o(i.Comp_RpdltoEepromBuf)
    Config_ShiQuLad_Proc                     0x00004985   Thumb Code    46  tariff.o(i.Config_ShiQuLad_Proc)
    Config_Shiduan_Process                   0x000049c1   Thumb Code   264  tariff.o(i.Config_Shiduan_Process)
    Configure_Register_Sleep                 0x00004add   Thumb Code   936  interrupt.o(i.Configure_Register_Sleep)
    Cover_Check                              0x00004ecd   Thumb Code   116  iokey.o(i.Cover_Check)
    Crc_16Bits                               0x00004f5d   Thumb Code    52  verify.o(i.Crc_16Bits)
    Crc_16Bits_Add2                          0x00004f95   Thumb Code    20  verify.o(i.Crc_16Bits_Add2)
    Crc_Check                                0x00004fa9   Thumb Code    30  verify.o(i.Crc_Check)
    Decrypt                                  0x00004fc9   Thumb Code   140  uartx.o(i.Decrypt)
    Delay_Initial                            0x00005061   Thumb Code    40  init.o(i.Delay_Initial)
    Delay_Netu                               0x00005091   Thumb Code    18  u7816.o(i.Delay_Netu)
    DeviceSleepCFG                           0x000050a9   Thumb Code    98  interrupt.o(i.DeviceSleepCFG)
    Disable_I2C_IO                           0x00005115   Thumb Code    34  verify.o(i.Disable_I2C_IO)
    Disable_Pulse                            0x0000513d   Thumb Code    26  verify.o(i.Disable_Pulse)
    Disp_Dl_G_Dot                            0x00005161   Thumb Code   216  lcd.o(i.Disp_Dl_G_Dot)
    Disp_Pw_Dot                              0x00005241   Thumb Code    38  lcd.o(i.Disp_Pw_Dot)
    Disp_Time_Dot                            0x0000526d   Thumb Code    44  lcd.o(i.Disp_Time_Dot)
    Display_Para_Verify                      0x0000529d   Thumb Code    54  verify.o(i.Display_Para_Verify)
    Displayitem_Verify                       0x000052e5   Thumb Code   130  verify.o(i.Displayitem_Verify)
    Displaykey_Check                         0x00005371   Thumb Code    74  iokey.o(i.Displaykey_Check)
    Displaykey_Process                       0x000053c9   Thumb Code   106  iokey.o(i.Displaykey_Process)
    Dl_Check                                 0x00005455   Thumb Code    90  verify.o(i.Dl_Check)
    DltoEepromBuf                            0x000054b5   Thumb Code    30  event.o(i.DltoEepromBuf)
    ETIMER2_IRQHandler                       0x000054dd   Thumb Code  1204  interrupt.o(i.ETIMER2_IRQHandler)
    ETIMER4_IRQHandler                       0x00005999   Thumb Code    56  interrupt.o(i.ETIMER4_IRQHandler)
    EmuRegOp                                 0x000059e1   Thumb Code    74  uenergy-at.o(i.EmuRegOp)
    Emu_Para_Verify                          0x00005a31   Thumb Code    46  uenergy-at.o(i.Emu_Para_Verify)
    Emu_Reg_Verify                           0x00005a79   Thumb Code   216  uenergy-at.o(i.Emu_Reg_Verify)
    Enable_Closerelay                        0x00005b65   Thumb Code    22  iokey.o(i.Enable_Closerelay)
    Enable_I2C_IO                            0x00005b81   Thumb Code    52  verify.o(i.Enable_I2C_IO)
    Enable_Led_IO                            0x00005bb9   Thumb Code    16  verify.o(i.Enable_Led_IO)
    Enable_Pulse                             0x00005bcd   Thumb Code    32  verify.o(i.Enable_Pulse)
    Energy_Event_Proc                        0x00005bf5   Thumb Code    38  mainproc.o(i.Energy_Event_Proc)
    EsamReset                                0x00005c21   Thumb Code    76  u7816.o(i.EsamReset)
    Esam_Err_Report                          0x00005c81   Thumb Code    26  u7816.o(i.Esam_Err_Report)
    Esam_Para_Verify                         0x00005ca1   Thumb Code   248  verify.o(i.Esam_Para_Verify)
    Event_Record                             0x00005db9   Thumb Code   420  event.o(i.Event_Record)
    Exchange                                 0x00005f75   Thumb Code    26  event.o(i.Exchange)
    FDET_IRQHandler                          0x00005f91   Thumb Code    12  interrupt.o(i.FDET_IRQHandler)
    Factory_Init                             0x00005fa1   Thumb Code   858  u7816.o(i.Factory_Init)
    FailKey                                  0x00006395   Thumb Code    42  u7816.o(i.FailKey)
    Fill_RTC_RT_TAdc                         0x000063c1   Thumb Code   138  verify.o(i.Fill_RTC_RT_TAdc)
    Fill_RTC_RT_TVal                         0x00006451   Thumb Code   130  verify.o(i.Fill_RTC_RT_TVal)
    FindSQ                                   0x000064d9   Thumb Code    90  tariff.o(i.FindSQ)
    FindSpecPos                              0x0000653d   Thumb Code   204  event.o(i.FindSpecPos)
    Find_EventTable                          0x0000660d   Thumb Code    44  uartx.o(i.Find_EventTable)
    FlashID                                  0x0000663d   Thumb Code   100  i2c.o(i.FlashID)
    Flash_Page_Write                         0x000066a5   Thumb Code   166  i2c.o(i.Flash_Page_Write)
    Flash_RdSR1                              0x00006751   Thumb Code    64  i2c.o(i.Flash_RdSR1)
    Flash_Rd_Bottom                          0x00006795   Thumb Code    78  i2c.o(i.Flash_Rd_Bottom)
    Flash_Sector_Erase                       0x000067e9   Thumb Code    50  i2c.o(i.Flash_Sector_Erase)
    Flash_WREN                               0x00006821   Thumb Code    78  i2c.o(i.Flash_WREN)
    Flash_Write_Bottom                       0x00006875   Thumb Code   248  i2c.o(i.Flash_Write_Bottom)
    Flash_Write_Cycle                        0x00006971   Thumb Code    78  i2c.o(i.Flash_Write_Cycle)
    Flashaddr                                0x000069cd   Thumb Code   130  i2c.o(i.Flashaddr)
    Four_RpdltoEepromBuf                     0x00006a55   Thumb Code    38  event.o(i.Four_RpdltoEepromBuf)
    Freeze_Change_Judge                      0x00006a85   Thumb Code   318  tariff.o(i.Freeze_Change_Judge)
    Freeze_Dl                                0x00006bd5   Thumb Code   352  money.o(i.Freeze_Dl)
    Freeze_Judge                             0x00006d55   Thumb Code   242  money.o(i.Freeze_Judge)
    Freeze_Pddata                            0x00006e5d   Thumb Code   240  money.o(i.Freeze_Pddata)
    Freeze_Usedl                             0x00006f69   Thumb Code   104  money.o(i.Freeze_Usedl)
    Fwdl_Verify                              0x00006fd5   Thumb Code    30  verify.o(i.Fwdl_Verify)
    GPIO_Get_InitParam                       0x00006ffd   Thumb Code   112  fm32l0xx_gpio.o(i.GPIO_Get_InitParam)
    GPIO_Init                                0x0000706d   Thumb Code    96  fm32l0xx_gpio.o(i.GPIO_Init)
    GPIO_ResetBits                           0x000070cd   Thumb Code     4  fm32l0xx_gpio.o(i.GPIO_ResetBits)
    GPIO_SetBits                             0x000070d1   Thumb Code     4  fm32l0xx_gpio.o(i.GPIO_SetBits)
    Gain_Adjust                              0x000070d5   Thumb Code   448  uenergy-at.o(i.Gain_Adjust)
    GetADCResult                             0x000072c1   Thumb Code    80  init.o(i.GetADCResult)
    GetBps                                   0x00007315   Thumb Code    42  verify.o(i.GetBps)
    GetKey                                   0x0000733f   Thumb Code    14  u7816.o(i.GetKey)
    GetKeyStatus                             0x0000734d   Thumb Code    24  u7816.o(i.GetKeyStatus)
    GetLcdNo                                 0x00007369   Thumb Code   224  uartx.o(i.GetLcdNo)
    GetPswBit                                0x0000744d   Thumb Code    74  u7816.o(i.GetPswBit)
    GetRecAddr                               0x000074a1   Thumb Code   370  i2c.o(i.GetRecAddr)
    GetRecNum                                0x00007629   Thumb Code   270  i2c.o(i.GetRecNum)
    GetRtcRTrimVal                           0x00007745   Thumb Code   118  init.o(i.GetRtcRTrimVal)
    GetSetBitNum                             0x000077c1   Thumb Code    48  u7816.o(i.GetSetBitNum)
    GetValtimes                              0x000077f5   Thumb Code    20  i2c.o(i.GetValtimes)
    Get_7816_Char                            0x00007809   Thumb Code    76  u7816.o(i.Get_7816_Char)
    Get_Err_Data                             0x00007865   Thumb Code   150  uenergy-at.o(i.Get_Err_Data)
    Get_Keep_Timer                           0x00007909   Thumb Code    36  interrupt.o(i.Get_Keep_Timer)
    Get_Money_File                           0x00007931   Thumb Code    74  uartx.o(i.Get_Money_File)
    Get_RTCTop_Proc                          0x00007981   Thumb Code   154  uartx.o(i.Get_RTCTop_Proc)
    HardFault_Handler                        0x00007a31   Thumb Code    20  interrupt.o(i.HardFault_Handler)
    Hex2Bcd                                  0x00007a4d   Thumb Code   112  rtc.o(i.Hex2Bcd)
    Hex2Bcd_Dl                               0x00007ac5   Thumb Code   138  money.o(i.Hex2Bcd_Dl)
    Hex2Bcd_Dl_G                             0x00007b55   Thumb Code    98  money.o(i.Hex2Bcd_Dl_G)
    Hex2Bcd_SS                               0x00007bb7   Thumb Code    34  rtc.o(i.Hex2Bcd_SS)
    Hex_To_Bcd                               0x00007bd9   Thumb Code    16  rtc.o(i.Hex_To_Bcd)
    Histroy_Freeze_Dl                        0x00007be9   Thumb Code   392  money.o(i.Histroy_Freeze_Dl)
    Hour_Freeze_Dl                           0x00007d81   Thumb Code    54  money.o(i.Hour_Freeze_Dl)
    I2C_Read_Bottom                          0x00007dc1   Thumb Code   142  i2c.o(i.I2C_Read_Bottom)
    I2C_Read_Eeprom                          0x00007e55   Thumb Code   130  i2c.o(i.I2C_Read_Eeprom)
    I2C_Read_Eeprom44                        0x00007ed7   Thumb Code    46  i2c.o(i.I2C_Read_Eeprom44)
    I2C_Write_Bottom                         0x00007f05   Thumb Code   104  i2c.o(i.I2C_Write_Bottom)
    I2C_Write_Eeprom                         0x00007f6d   Thumb Code   134  i2c.o(i.I2C_Write_Eeprom)
    I2C_Write_Eeprom44                       0x00007ff3   Thumb Code    46  i2c.o(i.I2C_Write_Eeprom44)
    I2c_Receive_Byte                         0x00008021   Thumb Code    44  i2c.o(i.I2c_Receive_Byte)
    I2c_Send_Bit                             0x00008055   Thumb Code    46  i2c.o(i.I2c_Send_Bit)
    I2c_Send_Byte                            0x00008089   Thumb Code    48  i2c.o(i.I2c_Send_Byte)
    I2c_Wait_5ms                             0x000080bd   Thumb Code    18  init.o(i.I2c_Wait_5ms)
    IWDT_Init                                0x000080d5   Thumb Code    28  init.o(i.IWDT_Init)
    Ib_K                                     0x000080f9   Thumb Code    72  uenergy-at.o(i.Ib_K)
    InitVolSts                               0x00008145   Thumb Code    34  money.o(i.InitVolSts)
    Init_Arm0                                0x0000816d   Thumb Code     2  init.o(i.Init_Arm0)
    Init_Meter_Chip                          0x00008171   Thumb Code    58  uenergy-at.o(i.Init_Meter_Chip)
    Init_Metererrstatus                      0x000081bd   Thumb Code    48  money.o(i.Init_Metererrstatus)
    Init_Pad_Io                              0x00008205   Thumb Code    38  init.o(i.Init_Pad_Io)
    Init_RCHF_Trim                           0x00008231   Thumb Code    44  init.o(i.Init_RCHF_Trim)
    Init_Relay                               0x00008269   Thumb Code    64  init.o(i.Init_Relay)
    Init_System                              0x000082b9   Thumb Code   644  init.o(i.Init_System)
    InputtIO                                 0x000085ed   Thumb Code   110  verify.o(i.InputtIO)
    Int2Byte                                 0x0000865b   Thumb Code    16  rtc.o(i.Int2Byte)
    Inverse                                  0x0000866b   Thumb Code    32  event.o(i.Inverse)
    IsBCD                                    0x0000868b   Thumb Code    24  uartx.o(i.IsBCD)
    IsFlashRec                               0x000086a3   Thumb Code    32  i2c.o(i.IsFlashRec)
    IsMultiBcd                               0x000086c3   Thumb Code    36  uartx.o(i.IsMultiBcd)
    IxRMSOS_Adjust                           0x000086e9   Thumb Code   124  uenergy-at.o(i.IxRMSOS_Adjust)
    JTRecord                                 0x00008769   Thumb Code    98  uartx.o(i.JTRecord)
    JudgeClockNoWeek                         0x000087d1   Thumb Code    12  rtc.o(i.JudgeClockNoWeek)
    JudgeEndClock                            0x000087dd   Thumb Code    40  uartx.o(i.JudgeEndClock)
    JudgeSwitch                              0x0000880d   Thumb Code    86  uartx.o(i.JudgeSwitch)
    JudgeSwitch2                             0x00008865   Thumb Code    60  uartx.o(i.JudgeSwitch2)
    JudgeYearClock                           0x000088a9   Thumb Code    48  tariff.o(i.JudgeYearClock)
    Judge_645_Frame                          0x000088d9   Thumb Code   402  interrupt.o(i.Judge_645_Frame)
    Judge_Clock                              0x00008a8d   Thumb Code   206  rtc.o(i.Judge_Clock)
    Judge_Edge                               0x00008b71   Thumb Code    38  u7816.o(i.Judge_Edge)
    Judge_Io_Status                          0x00008b9d   Thumb Code    56  interrupt.o(i.Judge_Io_Status)
    Judge_MeterId                            0x00008be1   Thumb Code   284  interrupt.o(i.Judge_MeterId)
    Judge_Min_Space                          0x00008d0d   Thumb Code    88  uartx.o(i.Judge_Min_Space)
    Judge_Relay_Delay                        0x00008d69   Thumb Code    62  money.o(i.Judge_Relay_Delay)
    Judge_Uip_Data                           0x00008dbd   Thumb Code  1762  uenergy-at.o(i.Judge_Uip_Data)
    LCD_Num_Data                             0x00009505   Thumb Code  1270  lcd.o(i.LCD_Num_Data)
    LCD_Table                                0x000099fd   Thumb Code    28  lcd.o(i.LCD_Table)
    Ladderdata_Check                         0x00009a29   Thumb Code    20  tariff.o(i.Ladderdata_Check)
    Lcd_Disp_On                              0x00009a41   Thumb Code    14  interrupt.o(i.Lcd_Disp_On)
    Lcd_Disp_Zedl                            0x00009a51   Thumb Code   108  lcd.o(i.Lcd_Disp_Zedl)
    Lcd_Display                              0x00009ac1   Thumb Code  2042  lcd.o(i.Lcd_Display)
    Lcd_LCDEN_Off                            0x0000a319   Thumb Code    12  lcd.o(i.Lcd_LCDEN_Off)
    Lcd_LCDEN_On                             0x0000a329   Thumb Code    12  lcd.o(i.Lcd_LCDEN_On)
    Lcd_Show_N                               0x0000a339   Thumb Code   206  lcd.o(i.Lcd_Show_N)
    Lcd_Show_ZF                              0x0000a415   Thumb Code    28  lcd.o(i.Lcd_Show_ZF)
    Lcdled_Control                           0x0000a439   Thumb Code   234  interrupt.o(i.Lcdled_Control)
    Load_Judge                               0x0000a561   Thumb Code   392  event.o(i.Load_Judge)
    LoopExchange                             0x0000a719   Thumb Code    44  uartx.o(i.LoopExchange)
    LoopInverse                              0x0000a745   Thumb Code    34  uartx.o(i.LoopInverse)
    MacExchange                              0x0000a767   Thumb Code    24  uartx.o(i.MacExchange)
    Mac_Err_Proc                             0x0000a781   Thumb Code    34  u7816.o(i.Mac_Err_Proc)
    MeterIC_RST0                             0x0000a7ad   Thumb Code    24  verify.o(i.MeterIC_RST0)
    MeterIC_RST1                             0x0000a7c9   Thumb Code    24  verify.o(i.MeterIC_RST1)
    Meter_Const_Verify                       0x0000a7e5   Thumb Code    22  verify.o(i.Meter_Const_Verify)
    Mode_Verify                              0x0000a809   Thumb Code   150  verify.o(i.Mode_Verify)
    Mt_Alarmstatus_Judge                     0x0000a8b9   Thumb Code    78  money.o(i.Mt_Alarmstatus_Judge)
    NMI_Handler                              0x0000a921   Thumb Code    14  interrupt.o(i.NMI_Handler)
    Note_Relay_Event                         0x0000aa7d   Thumb Code   100  event.o(i.Note_Relay_Event)
    Note_Reset_Number                        0x0000aafd   Thumb Code   578  init.o(i.Note_Reset_Number)
    Note_Run_Event                           0x0000ad7d   Thumb Code   362  event.o(i.Note_Run_Event)
    Number_Add1                              0x0000af09   Thumb Code    38  event.o(i.Number_Add1)
    Nvram_Judge                              0x0000af39   Thumb Code    38  init.o(i.Nvram_Judge)
    Offset_Adjust                            0x0000af69   Thumb Code   482  uenergy-at.o(i.Offset_Adjust)
    OpenFlash                                0x0000b171   Thumb Code   110  i2c.o(i.OpenFlash)
    Openrelay                                0x0000b1ed   Thumb Code   120  money.o(i.Openrelay)
    Openrelay1                               0x0000b285   Thumb Code    60  money.o(i.Openrelay1)
    OutputIO                                 0x0000b2d9   Thumb Code   116  verify.o(i.OutputIO)
    PH_Adjust                                0x0000b34d   Thumb Code    82  uenergy-at.o(i.PH_Adjust)
    Pd_Adc_Calculate                         0x0000b3b1   Thumb Code   252  interrupt.o(i.Pd_Adc_Calculate)
    Pd_Calculate_Judge                       0x0000b4d1   Thumb Code   596  money.o(i.Pd_Calculate_Judge)
    Pd_Histroyfreeze_Judge                   0x0000b731   Thumb Code   410  money.o(i.Pd_Histroyfreeze_Judge)
    Pd_Hourfreeze_Judge                      0x0000b8e5   Thumb Code   458  money.o(i.Pd_Hourfreeze_Judge)
    PowerError_Check                         0x0000babd   Thumb Code    88  interrupt.o(i.PowerError_Check)
    Powerd_Data_Process                      0x0000bb25   Thumb Code   796  init.o(i.Powerd_Data_Process)
    Price_Judge                              0x0000be89   Thumb Code   358  tariff.o(i.Price_Judge)
    Process_Usedl                            0x0000c015   Thumb Code   140  money.o(i.Process_Usedl)
    ProgramRecord                            0x0000c0a5   Thumb Code    74  uartx.o(i.ProgramRecord)
    RTC_IRQHandler                           0x0000c0f9   Thumb Code   202  interrupt.o(i.RTC_IRQHandler)
    RdHisEvent                               0x0000c1f5   Thumb Code  1122  uartx.o(i.RdHisEvent)
    RdHisPd                                  0x0000c657   Thumb Code   198  uartx.o(i.RdHisPd)
    RdRecTimes                               0x0000c71d   Thumb Code    26  event.o(i.RdRecTimes)
    Rd_Relay_Buy_Rec                         0x0000c73d   Thumb Code  1980  uartx.o(i.Rd_Relay_Buy_Rec)
    ReadBinFile                              0x0000cf01   Thumb Code    32  u7816.o(i.ReadBinFile)
    ReadBinWithMac                           0x0000cf21   Thumb Code   196  u7816.o(i.ReadBinWithMac)
    ReadE2WithBackup                         0x0000cff9   Thumb Code    42  i2c.o(i.ReadE2WithBackup)
    ReadE2WithJieti                          0x0000d023   Thumb Code    18  tariff.o(i.ReadE2WithJieti)
    ReadFreezedRec                           0x0000d035   Thumb Code   852  uartx.o(i.ReadFreezedRec)
    ReadLoadRec                              0x0000d391   Thumb Code  1432  event.o(i.ReadLoadRec)
    ReadRandom                               0x0000d92d   Thumb Code    52  u7816.o(i.ReadRandom)
    ReadRecFile                              0x0000d969   Thumb Code    30  u7816.o(i.ReadRecFile)
    Read_Event_Number                        0x0000d987   Thumb Code    60  event.o(i.Read_Event_Number)
    Read_Event_Point                         0x0000d9c5   Thumb Code    80  event.o(i.Read_Event_Point)
    Read_Kx                                  0x0000da19   Thumb Code    32  u7816.o(i.Read_Kx)
    Read_Rtc                                 0x0000da39   Thumb Code   152  rtc.o(i.Read_Rtc)
    Read_Sysclock                            0x0000dad5   Thumb Code  1488  rtc.o(i.Read_Sysclock)
    Read_UIP                                 0x0000e0e9   Thumb Code  1344  uenergy-at.o(i.Read_UIP)
    Read_UIPF                                0x0000e641   Thumb Code   100  uenergy-at.o(i.Read_UIPF)
    Read_Uip_Data                            0x0000e6ad   Thumb Code   112  event.o(i.Read_Uip_Data)
    Ready_Reportdata                         0x0000e729   Thumb Code   150  uartx.o(i.Ready_Reportdata)
    RefreshPrice                             0x0000e7c5   Thumb Code    20  tariff.o(i.RefreshPrice)
    Relay_Ctrl                               0x0000e7e1   Thumb Code   314  uartx.o(i.Relay_Ctrl)
    Relaystatus_Check                        0x0000e945   Thumb Code   464  iokey.o(i.Relaystatus_Check)
    ReportEvent                              0x0000eb69   Thumb Code    82  uartx.o(i.ReportEvent)
    ReportProc                               0x0000ebd1   Thumb Code   426  uartx.o(i.ReportProc)
    Report_Response                          0x0000edb1   Thumb Code   302  uartx.o(i.Report_Response)
    Reset                                    0x0000eefd   Thumb Code    74  interrupt.o(i.Reset)
    Rpdl_Verify                              0x0000ef61   Thumb Code    44  verify.o(i.Rpdl_Verify)
    RxTxCommhead                             0x0000ef95   Thumb Code    18  u7816.o(i.RxTxCommhead)
    SCover_Check                             0x0000efad   Thumb Code   146  interrupt.o(i.SCover_Check)
    SPI_Rx_Byte                              0x0000f059   Thumb Code    40  i2c.o(i.SPI_Rx_Byte)
    SPI_Tx_Byte                              0x0000f085   Thumb Code    36  i2c.o(i.SPI_Tx_Byte)
    SVD_Disable                              0x0000f0ad   Thumb Code    12  fm32l0xx_anac.o(i.SVD_Disable)
    SVD_Enable                               0x0000f0bd   Thumb Code    12  fm32l0xx_anac.o(i.SVD_Enable)
    SVD_IRQHandler                           0x0000f0cd   Thumb Code    12  interrupt.o(i.SVD_IRQHandler)
    SVD_Init                                 0x0000f0dd   Thumb Code    30  fm32l0xx_anac.o(i.SVD_Init)
    Save_Keep_Timer                          0x0000f101   Thumb Code   106  interrupt.o(i.Save_Keep_Timer)
    Sclock_Event_Proc                        0x0000f175   Thumb Code   148  mainproc.o(i.Sclock_Event_Proc)
    SelectFile                               0x0000f20d   Thumb Code    42  u7816.o(i.SelectFile)
    Sendaddr                                 0x0000f23d   Thumb Code   132  i2c.o(i.Sendaddr)
    Sequence                                 0x0000f2c5   Thumb Code   102  tariff.o(i.Sequence)
    SetKey                                   0x0000f32b   Thumb Code    18  u7816.o(i.SetKey)
    Set_Comm_Rate                            0x0000f33d   Thumb Code   136  uartx.o(i.Set_Comm_Rate)
    Set_Reportdata                           0x0000f3d5   Thumb Code   196  uartx.o(i.Set_Reportdata)
    Set_Rtc                                  0x0000f4a9   Thumb Code   110  rtc.o(i.Set_Rtc)
    ShiquRecord                              0x0000f521   Thumb Code   206  uartx.o(i.ShiquRecord)
    Short2Byte                               0x0000f5f5   Thumb Code     8  rtc.o(i.Short2Byte)
    Sleep                                    0x0000f5fd   Thumb Code  1308  interrupt.o(i.Sleep)
    Snd_7816_Byte                            0x0000fb2d   Thumb Code    76  u7816.o(i.Snd_7816_Byte)
    Starttimer_Verify                        0x0000fb85   Thumb Code    16  verify.o(i.Starttimer_Verify)
    Store_Data                               0x0000fb99   Thumb Code   438  interrupt.o(i.Store_Data)
    Store_Meterstatus                        0x0000fd91   Thumb Code    24  iokey.o(i.Store_Meterstatus)
    SynEeprom                                0x0000fdb1   Thumb Code   534  i2c.o(i.SynEeprom)
    SynFlashRec                              0x0000fff5   Thumb Code   306  i2c.o(i.SynFlashRec)
    Syn_Clock                                0x00010139   Thumb Code    32  rtc.o(i.Syn_Clock)
    SystemInit                               0x0001015d   Thumb Code    60  system_fm32l0xx3.o(i.SystemInit)
    SystemTicksInterval                      0x000101c1   Thumb Code    12  interrupt.o(i.SystemTicksInterval)
    Temperpara_Verify                        0x000101d1   Thumb Code    84  verify.o(i.Temperpara_Verify)
    TicksDelay                               0x00010231   Thumb Code    28  system_fm32l0xx3.o(i.TicksDelay)
    TicksDelayMs                             0x00010251   Thumb Code    32  system_fm32l0xx3.o(i.TicksDelayMs)
    TicksDelayUs                             0x00010275   Thumb Code    18  system_fm32l0xx3.o(i.TicksDelayUs)
    Timezone_Judge                           0x0001028d   Thumb Code   400  tariff.o(i.Timezone_Judge)
    Tx_645_Frame                             0x0001044d   Thumb Code   156  interrupt.o(i.Tx_645_Frame)
    UART0_IRQHandler                         0x00010505   Thumb Code    52  interrupt.o(i.UART0_IRQHandler)
    UART1_IRQHandler                         0x0001053d   Thumb Code    52  interrupt.o(i.UART1_IRQHandler)
    UART2_IRQHandler                         0x00010575   Thumb Code    56  interrupt.o(i.UART2_IRQHandler)
    UART5_IRQHandler                         0x000105b1   Thumb Code    60  interrupt.o(i.UART5_IRQHandler)
    UIP_K                                    0x000105f1   Thumb Code   118  uenergy-at.o(i.UIP_K)
    UartReadByte                             0x00010671   Thumb Code    52  uenergy-at.o(i.UartReadByte)
    UartWriteByte                            0x000106b5   Thumb Code    42  uenergy-at.o(i.UartWriteByte)
    Uart_IE_Disable_Proc                     0x000106f1   Thumb Code    48  interrupt.o(i.Uart_IE_Disable_Proc)
    Uart_Proc                                0x00010725   Thumb Code 21540  uartx.o(i.Uart_Proc)
    Uart_RXErr_Proc                          0x00015b85   Thumb Code    70  interrupt.o(i.Uart_RXErr_Proc)
    UpdataRunFile                            0x00015bd1   Thumb Code   114  u7816.o(i.UpdataRunFile)
    UpdateBinFile                            0x00015c51   Thumb Code    42  u7816.o(i.UpdateBinFile)
    UpdateEepromKey                          0x00015c85   Thumb Code   424  u7816.o(i.UpdateEepromKey)
    UpdateEsamKey                            0x00015e45   Thumb Code   334  u7816.o(i.UpdateEsamKey)
    UpdateSysPara                            0x00015fad   Thumb Code   198  uartx.o(i.UpdateSysPara)
    Update_ESAM_Bin_Mac                      0x00016099   Thumb Code    58  u7816.o(i.Update_ESAM_Bin_Mac)
    Vector_Event_Proc                        0x000160d9   Thumb Code   142  mainproc.o(i.Vector_Event_Proc)
    Veri_Btmr1                               0x0001616d   Thumb Code   104  verify.o(i.Veri_Btmr1)
    Veri_Btmr1_Pcount                        0x000161dd   Thumb Code    50  verify.o(i.Veri_Btmr1_Pcount)
    Veri_Btmr2                               0x00016219   Thumb Code   104  verify.o(i.Veri_Btmr2)
    Veri_Btmr2_Pcount                        0x00016289   Thumb Code    48  verify.o(i.Veri_Btmr2_Pcount)
    Veri_Clk_Gen                             0x000162c1   Thumb Code   162  verify.o(i.Veri_Clk_Gen)
    Veri_Disp                                0x00016399   Thumb Code   234  verify.o(i.Veri_Disp)
    Veri_Etmr2                               0x000164b5   Thumb Code   126  verify.o(i.Veri_Etmr2)
    Veri_Etmr4                               0x00016541   Thumb Code   112  verify.o(i.Veri_Etmr4)
    Veri_I2c                                 0x000165bd   Thumb Code    22  verify.o(i.Veri_I2c)
    Veri_Pad                                 0x000165d9   Thumb Code   826  verify.o(i.Veri_Pad)
    Veri_Psw                                 0x0001692d   Thumb Code    84  uartx.o(i.Veri_Psw)
    Veri_Rtc                                 0x00016989   Thumb Code   126  verify.o(i.Veri_Rtc)
    Veri_SVD_Ctrl                            0x00016a1d   Thumb Code    80  verify.o(i.Veri_SVD_Ctrl)
    Veri_Sys_Reg                             0x00016a79   Thumb Code    78  verify.o(i.Veri_Sys_Reg)
    Veri_U7816                               0x00016acd   Thumb Code   134  verify.o(i.Veri_U7816)
    Veri_Uart_All                            0x00016b61   Thumb Code   602  verify.o(i.Veri_Uart_All)
    Veri_Wwdt                                0x00016e01   Thumb Code    40  verify.o(i.Veri_Wwdt)
    Verify_Dl                                0x00016e2d   Thumb Code   106  verify.o(i.Verify_Dl)
    Verify_para                              0x00016e97   Thumb Code    76  verify.o(i.Verify_para)
    VolPassRate                              0x00016ee5   Thumb Code   338  money.o(i.VolPassRate)
    WWDT_IRQHandler                          0x00017049   Thumb Code    14  interrupt.o(i.WWDT_IRQHandler)
    WWDT_Init                                0x0001705d   Thumb Code    12  init.o(i.WWDT_Init)
    Wait_for_end                             0x0001706d   Thumb Code    60  i2c.o(i.Wait_for_end)
    Week_Holiday_Verify                      0x000170b5   Thumb Code    30  verify.o(i.Week_Holiday_Verify)
    Wr_Powerdown_Data                        0x000170dd   Thumb Code   286  interrupt.o(i.Wr_Powerdown_Data)
    Wr_Pretime_Dayfreeze                     0x00017231   Thumb Code     2  money.o(i.Wr_Pretime_Dayfreeze)
    Wr_Pretime_Hisfreeze                     0x00017235   Thumb Code    44  money.o(i.Wr_Pretime_Hisfreeze)
    WriteBinWithMac                          0x00017265   Thumb Code    96  u7816.o(i.WriteBinWithMac)
    WriteE2WithBackup                        0x000172d1   Thumb Code    54  i2c.o(i.WriteE2WithBackup)
    WriteE2WithJieti                         0x00017307   Thumb Code    32  tariff.o(i.WriteE2WithJieti)
    Write_Event_Point                        0x00017329   Thumb Code   184  event.o(i.Write_Event_Point)
    Write_Load_Point                         0x000173e9   Thumb Code   120  event.o(i.Write_Load_Point)
    Xor_Data                                 0x00017469   Thumb Code    24  uartx.o(i.Xor_Data)
    Yc_Auth                                  0x00017481   Thumb Code   142  uartx.o(i.Yc_Auth)
    Year_Ladder_Judge                        0x0001752d   Thumb Code   190  tariff.o(i.Year_Ladder_Judge)
    __ARM_clz                                0x000175fd   Thumb Code    46  depilogue.o(i.__ARM_clz)
    __ARM_common_ll_mulss                    0x0001762b   Thumb Code    48  money.o(i.__ARM_common_ll_mulss)
    __ARM_common_ll_muluu                    0x0001765b   Thumb Code    48  uartx.o(i.__ARM_common_ll_muluu)
    __ARM_common_switch8                     0x0001768b   Thumb Code    26  fm32l0xx_rcc.o(i.__ARM_common_switch8)
    __scatterload_copy                       0x000176a5   Thumb Code    14  handlers.o(i.__scatterload_copy)
    __scatterload_null                       0x000176b3   Thumb Code     2  handlers.o(i.__scatterload_null)
    __scatterload_zeroinit                   0x000176b5   Thumb Code    14  handlers.o(i.__scatterload_zeroinit)
    feik_Num_Verify                          0x000176c5   Thumb Code    30  verify.o(i.feik_Num_Verify)
    isPowerOff                               0x000176ed   Thumb Code    18  init.o(i.isPowerOff)
    main                                     0x00017709   Thumb Code    44  mainproc.o(i.main)
    LoadOffset                               0x00017734   Data           6  event.o(.constdata)
    LoadLen                                  0x0001773a   Data           6  event.o(.constdata)
    EventTable                               0x00017750   Data         296  event.o(.constdata)
    MaxRecNum                                0x00017878   Data         100  event.o(.constdata)
    gui_MonthBeginDay                        0x000178dc   Data          24  event.o(.constdata)
    Ee_Addr                                  0x000178f4   Data          52  i2c.o(.constdata)
    Fl_Addr                                  0x00017928   Data          52  i2c.o(.constdata)
    BPS_SPBRGL1                              0x0001795c   Data          18  mainproc.o(.constdata)
    MaxDays                                  0x00017970   Data          12  rtc.o(.constdata)
    ConstIns                                 0x000179c0   Data          12  u7816.o(.constdata)
    Dl_Cpu_Init2                             0x000179cc   Data           4  uenergy-at.o(.constdata)
    Default_Reg                              0x000179d0   Data           6  uenergy-at.o(.constdata)
    Dl_Cpu_Init                              0x000179d8   Data          60  uenergy-at.o(.constdata)
    Region$$Table$$Base                      0x00017a14   Number         0  anon$$obj.o(Region$$Table)
    Region$$Table$$Limit                     0x00017a44   Number         0  anon$$obj.o(Region$$Table)
    clkmode                                  0x0003f800   Data           1  factory.o(Protected)
    rchfcfgreg                               0x0003f804   Data           4  factory.o(Protected)
    runwdtcon                                0x0003f808   Data           4  factory.o(Protected)
    rtcosccfg                                0x0003f80c   Data           1  factory.o(Protected)
    SleepBorCfg                              0x0003f810   Data           4  factory.o(Protected)
    SleepPdrCfg                              0x0003f814   Data           4  factory.o(Protected)
    RunBorCfg                                0x0003f818   Data           4  factory.o(Protected)
    RunPdrCfg                                0x0003f81c   Data           4  factory.o(Protected)
    Compile_LvdLvCfg                         0x0003f820   Data           1  factory.o(Protected)
    Runet1Outcnt                             0x0003f824   Data           4  factory.o(Protected)
    Runrtctmls                               0x0003f828   Data           1  factory.o(Protected)
    IRDutyCycleCfg                           0x0003f82c   Data           4  factory.o(Protected)
    Relay_Mode                               0x0003f830   Data           1  factory.o(Protected)
    C_ucSoftVerForFactory                    0x0003f831   Data           8  factory.o(Protected)
    Correction_Mode                          0x0003f839   Data           1  factory.o(Protected)
    Rn8209c_Mode                             0x0003f83a   Data           1  factory.o(Protected)
    Compile_Polar_485                        0x0003f83b   Data           1  factory.o(Protected)
    Memoryerr_Ctrl                           0x0003f83c   Data           1  factory.o(Protected)
    FlashPowerOff_Ctrl                       0x0003f83d   Data           1  factory.o(Protected)
    EsamPowerOff_Ctrl                        0x0003f83e   Data           1  factory.o(Protected)
    Wwdt_Lcd_Ctrl                            0x0003f83f   Data           1  factory.o(Protected)
    RTC_Trim_Ctrl                            0x0003f840   Data           1  factory.o(Protected)
    SleepPtatOffsetCfg                       0x0003f841   Data           1  factory.o(Protected)
    Extbattery                               0x0003f842   Data           1  factory.o(Protected)
    ExtVoltage                               0x0003f843   Data           1  factory.o(Protected)
    Verdate                                  0x0003f844   Data          24  factory.o(Protected)
    RatedVolt                                0x0003f85c   Data           6  factory.o(Protected)
    RatedCurr                                0x0003f862   Data           6  factory.o(Protected)
    MaxCurr                                  0x0003f868   Data           6  factory.o(Protected)
    MinCurr                                  0x0003f86e   Data           6  factory.o(Protected)
    TrtCurr                                  0x0003f874   Data           6  factory.o(Protected)
    ActiveClass                              0x0003f87a   Data           4  factory.o(Protected)
    ReActiveClass                            0x0003f87e   Data           4  factory.o(Protected)
    MaterType                                0x0003f882   Data          32  factory.o(Protected)
    ProtocolVer                              0x0003f8a2   Data          16  factory.o(Protected)
    SoftwareVer1                             0x0003f8b2   Data          32  factory.o(Protected)
    HardwareVer1                             0x0003f8d2   Data          32  factory.o(Protected)
    FactoryNum                               0x0003f8f2   Data          32  factory.o(Protected)
    Softbk                                   0x0003f912   Data           8  factory.o(Protected)
    Facdate                                  0x0003f91a   Data          10  factory.o(Protected)
    Def_Meterconst_Bcd                       0x0003f924   Data           4  factory.o(Protected)
    Def_Meterconst_Hex                       0x0003f928   Data           1  factory.o(Protected)
    Def_Plusevalidtimer                      0x0003f929   Data           1  factory.o(Protected)
    resetworking_timer_delay                 0x0003f92a   Data           1  factory.o(Protected)
    Bps_9600                                 0x0003f92b   Data           1  factory.o(Protected)
    Zb_Comm_Timer_delay                      0x0003f92c   Data           2  factory.o(Protected)
    Mod_Comm_Timer_delay1                    0x0003f92e   Data           2  factory.o(Protected)
    Mod_Comm_Timer_delay2                    0x0003f930   Data           1  factory.o(Protected)
    Def_Erase_Times                          0x0003f931   Data           1  factory.o(Protected)
    const_xtl_top                            0x0003f934   Data           4  factory.o(Protected)
    const_KL                                 0x0003f938   Data           4  factory.o(Protected)
    const_KH                                 0x0003f93c   Data           4  factory.o(Protected)
    const_TmpsL                              0x0003f940   Data           4  factory.o(Protected)
    const_TmpsH                              0x0003f944   Data           4  factory.o(Protected)
    constF_Volt                              0x0003f948   Data           1  factory.o(Protected)
    const_adc_TrimB                          0x0003f94a   Data           2  factory.o(Protected)
    const_adc_TrimT                          0x0003f94c   Data           2  factory.o(Protected)
    const_KHKL_TrimRange                     0x0003f94e   Data           2  factory.o(Protected)
    const_T_OffsetRun                        0x0003f950   Data           4  factory.o(Protected)
    const_T_OffsetSlp                        0x0003f954   Data           4  factory.o(Protected)
    const_TopNoTrim                          0x0003f958   Data           1  factory.o(Protected)
    const_TopNTRange                         0x0003f959   Data           1  factory.o(Protected)
    const_T_CL                               0x0003f95c   Data           4  factory.o(Protected)
    const_T_CH                               0x0003f960   Data           4  factory.o(Protected)
    const_C_Mode                             0x0003f964   Data           1  factory.o(Protected)
    Relaytimer_Delay_N                       0x0003f965   Data           1  factory.o(Protected)
    Relaytimer_Delay_W                       0x0003f966   Data           1  factory.o(Protected)
    Defaultspacetimer                        0x0003f967   Data           1  factory.o(Protected)
    Defrelayerrorcnt_s                       0x0003f968   Data           1  factory.o(Protected)
    Defrelayerrorcount                       0x0003f969   Data           1  factory.o(Protected)
    Defrelayerrorcount_r                     0x0003f96a   Data           1  factory.o(Protected)
    Def_Dl_Difference                        0x0003f96b   Data           1  factory.o(Protected)
    Def_Plusefiltertimer                     0x0003f96c   Data           1  factory.o(Protected)
    Def_Plusefiltertimer2                    0x0003f96d   Data           1  factory.o(Protected)
    Adjclk_timer_delay_s                     0x0003f96e   Data           1  factory.o(Protected)
    Adjclk_timer_delay                       0x0003f96f   Data           1  factory.o(Protected)
    Defendenergyvoltage                      0x0003f970   Data           2  factory.o(Protected)
    Def_Shielding_I1                         0x0003f972   Data           1  factory.o(Protected)
    Def_Shielding_I2                         0x0003f973   Data           1  factory.o(Protected)
    Def_Shielding_Cos                        0x0003f974   Data           1  factory.o(Protected)
    Defcurrovercount                         0x0003f975   Data           1  factory.o(Protected)
    Defaultpdvoltage                         0x0003f976   Data           2  factory.o(Protected)
    Defaultpddelay                           0x0003f978   Data           1  factory.o(Protected)
    Deflowvoltagecount_s                     0x0003f979   Data           1  factory.o(Protected)
    Deflowvoltagecount                       0x0003f97a   Data           1  factory.o(Protected)
    Uoffset                                  0x0003f97c   Data           2  factory.o(Protected)
    Def_Powerdetcnt2                         0x0003f97e   Data           1  factory.o(Protected)
    ht7017_mclk                              0x0003f97f   Data           1  factory.o(Protected)
    Def_SelfHeat_I                           0x0003f980   Data           4  factory.o(Protected)
    Def_SelfHeat_Cancel                      0x0003f984   Data           1  factory.o(Protected)
    Def_Device_Id                            0x0003f988   Data           4  factory.o(Protected)
    Fulllcdbias                              0x0003f98c   Data           1  factory.o(Protected)
    Runlcdbias                               0x0003f98d   Data           1  factory.o(Protected)
    RunlLCDSET                               0x0003f98e   Data           1  factory.o(Protected)
    RunlLCDDRV                               0x0003f98f   Data           1  factory.o(Protected)
    Sleeplcdfreq                             0x0003f990   Data           1  factory.o(Protected)
    SleepLCDSET                              0x0003f991   Data           1  factory.o(Protected)
    SleepLCDDRV                              0x0003f992   Data           1  factory.o(Protected)
    Sleepvthreshold                          0x0003f994   Data          12  factory.o(Protected)
    Sleeplcdbias                             0x0003f9a0   Data           6  factory.o(Protected)
    def_powerdown_timer                      0x0003f9a6   Data           1  factory.o(Protected)
    def_meterrun_timer                       0x0003f9a7   Data           1  factory.o(Protected)
    def_coverdelaytimer                      0x0003f9a8   Data           1  factory.o(Protected)
    Defaultauthtimer                         0x0003f9aa   Data           2  factory.o(Protected)
    Defaultstartup                           0x0003f9ac   Data           1  factory.o(Protected)
    MAX_PSW_NUM                              0x0003f9ad   Data           1  factory.o(Protected)
    Defpassworderrcnt                        0x0003f9ae   Data           1  factory.o(Protected)
    Def_Vthreshold                           0x0003f9b0   Data           2  factory.o(Protected)
    Def_Vthreshold_H                         0x0003f9b2   Data           2  factory.o(Protected)
    Def_Relay_ActL                           0x0003f9b4   Data           2  factory.o(Protected)
    Def_Relay_ActH                           0x0003f9b6   Data           2  factory.o(Protected)
    Def_Relay_Det                            0x0003f9b8   Data           2  factory.o(Protected)
    disp_table                               0x0003f9bc   Data         132  factory.o(Protected)
    Def_Limitmenory_table                    0x0003fa40   Data          12  factory.o(Protected)
    Def_DisplayPara_table                    0x0003fa4c   Data          29  factory.o(Protected)
    Def_SleepDisplayPara_table               0x0003fa69   Data           8  factory.o(Protected)
    Def_Sleepdisp_table                      0x0003fa72   Data          32  factory.o(Protected)
    Def_featureword_table                    0x0003fa92   Data          32  factory.o(Protected)
    Def_weekloadpara_table                   0x0003fab2   Data          27  factory.o(Protected)
    Def_vollmtpara_table                     0x0003facd   Data          26  factory.o(Protected)
    Def_Autodisp_table                       0x0003fae8   Data          62  factory.o(Protected)
    Def_Keydisp_table                        0x0003fb26   Data         124  factory.o(Protected)
    Def_freezeparameter_table                0x0003fba2   Data          12  factory.o(Protected)
    Def_feik_table                           0x0003fbae   Data           8  factory.o(Protected)
    Def_histroyparameter_table               0x0003fbb6   Data           6  factory.o(Protected)
    Def_Password3_table                      0x0003fbbc   Data           4  factory.o(Protected)
    Def_Password4_table                      0x0003fbc0   Data           4  factory.o(Protected)
    Def_sqb_table1                           0x0003fbc4   Data          42  factory.o(Protected)
    Def_sqb_table2                           0x0003fbee   Data          42  factory.o(Protected)
    Def_sdb_table1                           0x0003fc18   Data          42  factory.o(Protected)
    Def_sdb_table2                           0x0003fc42   Data          42  factory.o(Protected)
    Def_jtshiqu_table                        0x0003fc6c   Data          12  factory.o(Protected)
    Def_jtshiqu_table2                       0x0003fc78   Data          12  factory.o(Protected)
    NoInit                                   0x20000000   Data         496  mainproc.o(.ARM.__AT_0x20000000)
    SystemCoreClock                          0x20000200   Data           4  system_fm32l0xx3.o(.data)
    Meter_Status_S                           0x20000204   Data           1  mainproc.o(.data)
    Meter_Status1_S                          0x20000205   Data           1  mainproc.o(.data)
    Meter_Status2_S                          0x20000206   Data           1  mainproc.o(.data)
    System_Status_S                          0x20000207   Data           1  mainproc.o(.data)
    System_Status1_S                         0x20000208   Data           1  mainproc.o(.data)
    System_Status2_S                         0x20000209   Data           1  mainproc.o(.data)
    System_Status3_S                         0x2000020c   Data           1  mainproc.o(.data)
    System_Status4_S                         0x2000020d   Data           1  mainproc.o(.data)
    AT7051_Flag_S                            0x2000020e   Data           1  mainproc.o(.data)
    run_readrtc_flag                         0x2000020f   Data           1  mainproc.o(.data)
    run_display_flag                         0x20000210   Data           1  mainproc.o(.data)
    run_relaychk_flag                        0x20000211   Data           1  mainproc.o(.data)
    reg_veri_flag                            0x20000212   Data           1  mainproc.o(.data)
    Powerd_Flag                              0x20000214   Data           4  mainproc.o(.data)
    System_Status5_S                         0x20000218   Data           1  mainproc.o(.data)
    AT7051_Flag2_S                           0x20000219   Data           1  mainproc.o(.data)
    DisKeySamp                               0x2000021a   Data           1  mainproc.o(.data)
    Uart1KeySamp                             0x2000021b   Data           1  mainproc.o(.data)
    VectorTimer                              0x2000021c   Data           1  mainproc.o(.data)
    Key_Status                               0x2000021d   Data           1  mainproc.o(.data)
    Outputtype                               0x2000021e   Data           1  mainproc.o(.data)
    Successled                               0x2000021f   Data           1  mainproc.o(.data)
    Shiduanctrl                              0x20000220   Data           1  mainproc.o(.data)
    Relayctrl                                0x20000221   Data           1  mainproc.o(.data)
    Adcctrl                                  0x20000222   Data           2  mainproc.o(.data)
    Lcdled                                   0x20000224   Data           2  mainproc.o(.data)
    Identitytimer                            0x20000228   Data           4  mainproc.o(.data)
    IR_EnTimer                               0x2000022c   Data           4  mainproc.o(.data)
    Opendelaytimer                           0x20000230   Data           4  mainproc.o(.data)
    CurrentTimer                             0x20000234   Data           4  mainproc.o(.data)
    Relayerror_Count                         0x20000238   Data           1  mainproc.o(.data)
    Relayerror_Count1                        0x20000239   Data           1  mainproc.o(.data)
    Relayerror_Count2                        0x2000023a   Data           1  mainproc.o(.data)
    Relay_Space_Timer                        0x2000023b   Data           1  mainproc.o(.data)
    Keyclose_timer                           0x2000023c   Data           1  mainproc.o(.data)
    Stop_Disptimer                           0x2000023e   Data           2  mainproc.o(.data)
    Temperature_Hex                          0x20000240   Data           1  mainproc.o(.data)
    Temperature_Adc                          0x20000242   Data           2  mainproc.o(.data)
    Rtcadj_Offset                            0x20000244   Data           4  mainproc.o(.data)
    Rtcadj_Offset2                           0x20000248   Data           4  mainproc.o(.data)
    RtcStopProcFlag                          0x2000024c   Data           1  mainproc.o(.data)
    Hw_Lcdled_Timer                          0x20000250   Data           4  mainproc.o(.data)
    Ext_Disp_Cnt                             0x20000254   Data           2  mainproc.o(.data)
    Init_Led_Timer                           0x20000256   Data           1  mainproc.o(.data)
    Cover_Space_Timer                        0x20000257   Data           1  mainproc.o(.data)
    PowerDetCnt0                             0x20000258   Data           1  mainproc.o(.data)
    PowerDetCnt1                             0x20000259   Data           1  mainproc.o(.data)
    PowerDetCnt2                             0x2000025a   Data           1  mainproc.o(.data)
    PowerDetCnt3                             0x2000025b   Data           1  mainproc.o(.data)
    Resetworking_Timer                       0x2000025c   Data           1  mainproc.o(.data)
    Current_Over_Count                       0x2000025d   Data           1  mainproc.o(.data)
    Current_Over_Count2                      0x2000025e   Data           1  mainproc.o(.data)
    Current_Over_Count3                      0x2000025f   Data           1  mainproc.o(.data)
    Current_Over_Count4                      0x20000260   Data           1  mainproc.o(.data)
    Current_Over_Count5                      0x20000261   Data           1  mainproc.o(.data)
    Current_Over_Count41                     0x20000262   Data           2  mainproc.o(.data)
    Current_Over_Count51                     0x20000264   Data           2  mainproc.o(.data)
    Voltage_Low_Count                        0x20000266   Data           1  mainproc.o(.data)
    Adj_Clk_Timer_S                          0x20000267   Data           1  mainproc.o(.data)
    Adj_Clk_Timer                            0x20000268   Data           1  mainproc.o(.data)
    ReportList                               0x20000269   Data           2  mainproc.o(.data)
    BkupReport                               0x2000026b   Data           2  mainproc.o(.data)
    Meter_Run_Timer3                         0x2000026d   Data           1  mainproc.o(.data)
    Lost_Aver_I                              0x20000270   Data           4  mainproc.o(.data)
    Lost_V_Timer                             0x20000274   Data           4  mainproc.o(.data)
    Commmodule_Space_Timer                   0x20000278   Data           1  mainproc.o(.data)
    Zb_Comm_Timer                            0x2000027a   Data           2  mainproc.o(.data)
    Zbbps                                    0x2000027c   Data           1  mainproc.o(.data)
    Mod_Comm_Timer1                          0x2000027e   Data           2  mainproc.o(.data)
    Mod_Comm_Timer2                          0x20000280   Data           1  mainproc.o(.data)
    Bat_Delay_Timer                          0x20000281   Data           1  mainproc.o(.data)
    Bat_Change_Timer                         0x20000282   Data           1  mainproc.o(.data)
    HardFault_Flag                           0x20000284   Data           4  mainproc.o(.data)
    Nline_Err_Count                          0x20000288   Data           1  mainproc.o(.data)
    Plusefiltertimer                         0x20000289   Data           1  mainproc.o(.data)
    Plusefiltertimer2                        0x2000028a   Data           1  mainproc.o(.data)
    UpdateBps                                0x2000028b   Data           1  mainproc.o(.data)
    EmuErrCnt                                0x2000028c   Data           1  mainproc.o(.data)
    FlashTimer                               0x2000028d   Data           1  mainproc.o(.data)
    FreezeBuf                                0x2000028e   Data           8  mainproc.o(.data)
    Plusevalidtimer                          0x20000296   Data           1  mainproc.o(.data)
    Ble_CF                                   0x20000298   Data           2  mainproc.o(.data)
    Ble_Step                                 0x2000029a   Data           1  mainproc.o(.data)
    Ble_Buf                                  0x2000029b   Data           8  mainproc.o(.data)
    Ble_RstTimer                             0x200002a4   Data           2  mainproc.o(.data)
    Ble_Reset                                0x200002a6   Data           1  mainproc.o(.data)
    Comm_Addr                                0x200002a7   Data           8  mainproc.o(.data)
    Decimal                                  0x200002af   Data           3  mainproc.o(.data)
    Display                                  0x200002b2   Data           3  mainproc.o(.data)
    Meter                                    0x200002b5   Data           7  mainproc.o(.data)
    Ic_Comm_RxPtr                            0x200002bc   Data           1  mainproc.o(.data)
    Err_Sw12                                 0x200002bd   Data           2  mainproc.o(.data)
    PcRst8B                                  0x200002bf   Data           8  mainproc.o(.data)
    PcRand                                   0x200002c7   Data           8  mainproc.o(.data)
    EsamRst8B                                0x200002cf   Data           8  mainproc.o(.data)
    EsamRand                                 0x200002d7   Data           8  mainproc.o(.data)
    Esam_Timer                               0x200002df   Data           1  mainproc.o(.data)
    MvFlash                                  0x200002e0   Data           8  mainproc.o(.data)
    SynEe                                    0x200002e8   Data           4  mainproc.o(.data)
    Ijtimer_Para                             0x200002ec   Data           8  mainproc.o(.data)
    Pav_Cnt                                  0x200002f4   Data           1  uenergy-at.o(.data)
    Iav_Cnt                                  0x200002f5   Data           1  uenergy-at.o(.data)
    Qav_Cnt                                  0x200002f6   Data           1  uenergy-at.o(.data)
    Uav_Cnt                                  0x200002f7   Data           1  uenergy-at.o(.data)
    Back_Num                                 0x200002f8   Data           1  uenergy-at.o(.data)
    Back_NumQ                                0x200002f9   Data           1  uenergy-at.o(.data)
    Back_NumN                                0x200002fa   Data           1  uenergy-at.o(.data)
    ht7017_ver                               0x200002fb   Data           1  uenergy-at.o(.data)
    AStep                                    0x200002fc   Data           1  uenergy-at.o(.data)
    AStep_Bk                                 0x200002fd   Data           1  uenergy-at.o(.data)
    StepDetCnt                               0x200002fe   Data           1  uenergy-at.o(.data)
    SelfStep                                 0x200002ff   Data           1  uenergy-at.o(.data)
    SelfStep_Bk                              0x20000300   Data           1  uenergy-at.o(.data)
    SelfDetCnt                               0x20000301   Data           1  uenergy-at.o(.data)
    SelfICnt                                 0x20000302   Data           1  uenergy-at.o(.data)
    Pav_Temp                                 0x20000304   Data           4  uenergy-at.o(.data)
    Iav_Temp                                 0x20000308   Data           4  uenergy-at.o(.data)
    Qav_Temp                                 0x2000030c   Data           4  uenergy-at.o(.data)
    Uav_Temp                                 0x20000310   Data           4  uenergy-at.o(.data)
    PulseTemp                                0x20000314   Data           4  uenergy-at.o(.data)
    SelfHeatTime                             0x20000318   Data           4  uenergy-at.o(.data)
    EUartBuf                                 0x2000031c   Data           6  uenergy-at.o(.data)
    Att7051_Calib2                           0x20000324   Data           8  uenergy-at.o(.data)
    Sclock                                   0x2000032c   Data          14  mainproc.o(.bss)
    RdLoadPara                               0x2000033a   Data         136  mainproc.o(.bss)
    DispBuf                                  0x200003c4   Data          40  mainproc.o(.bss)
    LoadBuf                                  0x200003ec   Data          97  mainproc.o(.bss)
    Esam_Para                                0x2000044d   Data          28  mainproc.o(.bss)
    Display_Para                             0x20000469   Data          32  mainproc.o(.bss)
    Starttime                                0x20000489   Data          22  mainproc.o(.bss)
    Emu_Para                                 0x200004a0   Data          24  mainproc.o(.bss)
    Price                                    0x200004b8   Data          85  mainproc.o(.bss)
    Tariff                                   0x2000050d   Data          50  mainproc.o(.bss)
    Item                                     0x20000540   Data         400  mainproc.o(.bss)
    Emu_Data                                 0x200006d0   Data          56  mainproc.o(.bss)
    Fun_Para                                 0x20000708   Data          12  mainproc.o(.bss)
    Eeprom                                   0x20000714   Data         385  mainproc.o(.bss)
    Uart                                     0x20000896   Data        6088  mainproc.o(.bss)
    Week_Holiday                             0x2000205e   Data          29  mainproc.o(.bss)
    Tpara                                    0x2000207b   Data          13  mainproc.o(.bss)
    Mode                                     0x20002088   Data          38  mainproc.o(.bss)
    ADCResultArr                             0x200020ae   Data          66  mainproc.o(.bss)
    RTC_RT                                   0x200020f0   Data          96  mainproc.o(.bss)
    Feik                                     0x20002150   Data          10  mainproc.o(.bss)
    Keeptime                                 0x2000215c   Data          48  mainproc.o(.bss)
    VolLimit                                 0x2000218c   Data          28  mainproc.o(.bss)
    VolStatus                                0x200021a8   Data          56  mainproc.o(.bss)
    Ble_Connect                              0x200021e0   Data          45  mainproc.o(.bss)
    Ic_Comm_RxBuf                            0x2000220d   Data         250  mainproc.o(.bss)
    Ic_Comm_TxBuf                            0x20002307   Data         250  mainproc.o(.bss)
    SynFlash                                 0x20002404   Data          32  mainproc.o(.bss)
    Cal_Adj                                  0x20002424   Data          14  uenergy-at.o(.bss)
    SelfHeat                                 0x20002432   Data          50  uenergy-at.o(.bss)
    Att7051_Calib                            0x20002464   Data          64  uenergy-at.o(.bss)
    __initial_sp                             0x20005e00   Data           0  startup_fm32l0xx.o(STACK)



==============================================================================

Memory Map of the image

  Image Entry point : 0x000000c1

  Load Region LR_IROM1 (Base: 0x00000000, Size: 0x00017b70, Max: 0x0003b800, ABSOLUTE, COMPRESSED[0x00017a4c])

    Execution Region ER_IROM1 (Base: 0x00000000, Size: 0x00017a44, Max: 0xffffffff, ABSOLUTE)

    Base Addr    Size         Type   Attr      Idx    E Section Name        Object

    0x00000000   0x000000c0   Data   RO          988    RESET               startup_fm32l0xx.o
    0x000000c0   0x00000000   Code   RO         3747  * .ARM.Collect$$$$00000000  mc_p.l(entry.o)
    0x000000c0   0x00000004   Code   RO         3818    .ARM.Collect$$$$00000001  mc_p.l(entry2.o)
    0x000000c4   0x00000004   Code   RO         3821    .ARM.Collect$$$$00000004  mc_p.l(entry5.o)
    0x000000c8   0x00000000   Code   RO         3823    .ARM.Collect$$$$00000008  mc_p.l(entry7b.o)
    0x000000c8   0x00000000   Code   RO         3825    .ARM.Collect$$$$0000000A  mc_p.l(entry8b.o)
    0x000000c8   0x00000008   Code   RO         3826    .ARM.Collect$$$$0000000B  mc_p.l(entry9a.o)
    0x000000d0   0x00000000   Code   RO         3828    .ARM.Collect$$$$0000000D  mc_p.l(entry10a.o)
    0x000000d0   0x00000000   Code   RO         3830    .ARM.Collect$$$$0000000F  mc_p.l(entry11a.o)
    0x000000d0   0x00000004   Code   RO         3819    .ARM.Collect$$$$00002712  mc_p.l(entry2.o)
    0x000000d4   0x0000001c   Code   RO          989    .text               startup_fm32l0xx.o
    0x000000f0   0x0000002c   Code   RO         3750    .text               mc_p.l(uidiv.o)
    0x0000011c   0x00000028   Code   RO         3752    .text               mc_p.l(idiv.o)
    0x00000144   0x00000060   Code   RO         3754    .text               mc_p.l(uldiv.o)
    0x000001a4   0x0000004c   Code   RO         3756    .text               mc_p.l(ldiv.o)
    0x000001f0   0x0000007a   Code   RO         3758    .text               mc_p.l(llmul.o)
    0x0000026a   0x00000020   Code   RO         3760    .text               mc_p.l(llshl.o)
    0x0000028a   0x00000022   Code   RO         3762    .text               mc_p.l(llushr.o)
    0x000002ac   0x00000024   Code   RO         3764    .text               mc_p.l(memcpya.o)
    0x000002d0   0x00000024   Code   RO         3766    .text               mc_p.l(memseta.o)
    0x000002f4   0x000000b2   Code   RO         3770    .text               mf_p.l(fadd.o)
    0x000003a6   0x0000007a   Code   RO         3772    .text               mf_p.l(fmul.o)
    0x00000420   0x0000007c   Code   RO         3774    .text               mf_p.l(fdiv.o)
    0x0000049c   0x00000018   Code   RO         3776    .text               mf_p.l(fscalb.o)
    0x000004b4   0x00000164   Code   RO         3778    .text               mf_p.l(dadd.o)
    0x00000618   0x000000d0   Code   RO         3780    .text               mf_p.l(dmul.o)
    0x000006e8   0x000000f0   Code   RO         3782    .text               mf_p.l(ddiv.o)
    0x000007d8   0x0000002c   Code   RO         3784    .text               mf_p.l(dscalb.o)
    0x00000804   0x00000016   Code   RO         3786    .text               mf_p.l(fflti.o)
    0x0000081a   0x0000000e   Code   RO         3788    .text               mf_p.l(ffltui.o)
    0x00000828   0x00000028   Code   RO         3790    .text               mf_p.l(dflti.o)
    0x00000850   0x0000001c   Code   RO         3792    .text               mf_p.l(dfltui.o)
    0x0000086c   0x0000002c   Code   RO         3794    .text               mf_p.l(dfltl.o)
    0x00000898   0x00000032   Code   RO         3796    .text               mf_p.l(ffixi.o)
    0x000008ca   0x00000028   Code   RO         3798    .text               mf_p.l(ffixui.o)
    0x000008f2   0x00000002   PAD
    0x000008f4   0x00000048   Code   RO         3800    .text               mf_p.l(dfixi.o)
    0x0000093c   0x0000003c   Code   RO         3802    .text               mf_p.l(dfixui.o)
    0x00000978   0x00000050   Code   RO         3804    .text               mf_p.l(dfixl.o)
    0x000009c8   0x00000040   Code   RO         3806    .text               mf_p.l(dfixul.o)
    0x00000a08   0x00000028   Code   RO         3808    .text               mf_p.l(f2d.o)
    0x00000a30   0x00000028   Code   RO         3810    .text               mf_p.l(cdcmple.o)
    0x00000a58   0x00000038   Code   RO         3812    .text               mf_p.l(d2f.o)
    0x00000a90   0x00000014   Code   RO         3814    .text               mf_p.l(cfcmple.o)
    0x00000aa4   0x00000014   Code   RO         3816    .text               mf_p.l(cfrcmple.o)
    0x00000ab8   0x00000026   Code   RO         3832    .text               mc_p.l(llsshr.o)
    0x00000ade   0x00000000   Code   RO         3834    .text               mc_p.l(iusefp.o)
    0x00000ade   0x00000082   Code   RO         3835    .text               mf_p.l(fepilogue.o)
    0x00000b60   0x000000be   Code   RO         3837    .text               mf_p.l(depilogue.o)
    0x00000c1e   0x00000002   PAD
    0x00000c20   0x00000024   Code   RO         3841    .text               mc_p.l(init.o)
    0x00000c44   0x0000003a   Code   RO         3851    .text               mc_p.l(__dczerorl.o)
    0x00000c7e   0x00000002   PAD
    0x00000c80   0x00000018   Code   RO          564    i.ADC_ChannelSel    fm32l0xx_anac.o
    0x00000c98   0x00000010   Code   RO          566    i.ADC_Disable       fm32l0xx_anac.o
    0x00000ca8   0x00000010   Code   RO          567    i.ADC_Enable        fm32l0xx_anac.o
    0x00000cb8   0x00000010   Code   RO          570    i.ADC_ITDisable     fm32l0xx_anac.o
    0x00000cc8   0x0000000c   Code   RO          572    i.ADC_SetTrim       fm32l0xx_anac.o
    0x00000cd4   0x00000110   Code   RO         3563    i.ATT7051SPIOp      uenergy-at.o
    0x00000de4   0x0000001a   Code   RO         3564    i.ATT7051WRPRO      uenergy-at.o
    0x00000dfe   0x00000002   PAD
    0x00000e00   0x00000200   Code   RO         3565    i.ATT7051_Check     uenergy-at.o
    0x00001000   0x000009b8   Code   RO         1424    i.Adc_Proc          init.o
    0x000019b8   0x00000164   Code   RO         1425    i.AddNClock         init.o
    0x00001b1c   0x00000094   Code   RO         2843    i.Add_Min_Clock     uartx.o
    0x00001bb0   0x0000007c   Code   RO         3215    i.AltFunIO          verify.o
    0x00001c2c   0x0000004c   Code   RO         3216    i.AnalogIO          verify.o
    0x00001c78   0x0000003c   Code   RO         2612    i.Auth_In_Out       u7816.o
    0x00001cb4   0x00000064   Code   RO         2613    i.Authorization     u7816.o
    0x00001d18   0x00000074   Code   RO         1574    i.BT1_IRQHandler    interrupt.o
    0x00001d8c   0x00000074   Code   RO         1575    i.BT2_IRQHandler    interrupt.o
    0x00001e00   0x00000010   Code   RO          577    i.BUF4TST_BypassDisable  fm32l0xx_anac.o
    0x00001e10   0x00000010   Code   RO          578    i.BUF4TST_BypassEn  fm32l0xx_anac.o
    0x00001e20   0x00000018   Code   RO          579    i.BUF4TST_ChannelSel  fm32l0xx_anac.o
    0x00001e38   0x00000010   Code   RO          580    i.BUF4TST_Disable   fm32l0xx_anac.o
    0x00001e48   0x00000010   Code   RO          581    i.BUF4TST_Enable    fm32l0xx_anac.o
    0x00001e58   0x00000034   Code   RO         3566    i.Backup_Para_7051  uenergy-at.o
    0x00001e8c   0x00000088   Code   RO         2346    i.Bcd2Hex           rtc.o
    0x00001f14   0x00000014   Code   RO         2347    i.Bcd2Hex_LS        rtc.o
    0x00001f28   0x00000022   Code   RO         2348    i.Bcd2Hex_SS        rtc.o
    0x00001f4a   0x00000010   Code   RO         2349    i.Bcd_To_Hex        rtc.o
    0x00001f5a   0x00000010   Code   RO         2844    i.BitValue          uartx.o
    0x00001f6a   0x00000002   PAD
    0x00001f6c   0x00000028   Code   RO         3217    i.Bkdl_Verify       verify.o
    0x00001f94   0x00000040   Code   RO         2846    i.Ble_Chk_Heart     uartx.o
    0x00001fd4   0x00000040   Code   RO         2847    i.Ble_Frame_Cs      uartx.o
    0x00002014   0x00000058   Code   RO         2848    i.Ble_Init          uartx.o
    0x0000206c   0x0000004c   Code   RO         2849    i.Ble_Rst           uartx.o
    0x000020b8   0x00000020   Code   RO         2850    i.Ble_Rst_Judge     uartx.o
    0x000020d8   0x0000000c   Code   RO         2351    i.Byte2Short        rtc.o
    0x000020e4   0x00000016   Code   RO         2352    i.Byte2uInt         rtc.o
    0x000020fa   0x0000000c   Code   RO         2353    i.Byte2uShort       rtc.o
    0x00002106   0x00000002   PAD
    0x00002108   0x00000100   Code   RO         2155    i.CalLoad           money.o
    0x00002208   0x000000ea   Code   RO         2851    i.CalZhuhe          uartx.o
    0x000022f2   0x0000001a   Code   RO         2852    i.Cal_ChkSum        uartx.o
    0x0000230c   0x00000230   Code   RO         2853    i.Cal_Comb          uartx.o
    0x0000253c   0x00000118   Code   RO         2854    i.Cal_Comb_Usedl    uartx.o
    0x00002654   0x00000040   Code   RO         2614    i.Cal_Mac_Pro       u7816.o
    0x00002694   0x000000bc   Code   RO         3567    i.Cal_Pav           uenergy-at.o
    0x00002750   0x00000048   Code   RO          997    i.CalcAbsDay        event.o
    0x00002798   0x0000001c   Code   RO          998    i.CalcAbsMin        event.o
    0x000027b4   0x0000001a   Code   RO          999    i.CalcTime          event.o
    0x000027ce   0x00000002   PAD
    0x000027d0   0x000001f8   Code   RO         2156    i.Calc_Pwr_Proc     money.o
    0x000029c8   0x0000008c   Code   RO         3568    i.Calculate_Adj     uenergy-at.o
    0x00002a54   0x0000005c   Code   RO         2855    i.Calculate_Ah      uartx.o
    0x00002ab0   0x0000003c   Code   RO         2157    i.Calculate_Dl_G    money.o
    0x00002aec   0x00000044   Code   RO         1576    i.Calculate_Min     interrupt.o
    0x00002b30   0x00000078   Code   RO         2158    i.Calculate_Overflow  money.o
    0x00002ba8   0x00000040   Code   RO         2856    i.Calculate_Program_Cs  uartx.o
    0x00002be8   0x00000050   Code   RO         2857    i.Calculate_Timer   uartx.o
    0x00002c38   0x0000012c   Code   RO         2615    i.CardTxRxFrame     u7816.o
    0x00002d64   0x000000ac   Code   RO         2517    i.Changecontrol_Process  tariff.o
    0x00002e10   0x0000001c   Code   RO         3218    i.CheckNvicIrqEn    verify.o
    0x00002e2c   0x00000010   Code   RO         3219    i.CheckSysReg       verify.o
    0x00002e3c   0x00000210   Code   RO         3569    i.Check_Err_Pro     uenergy-at.o
    0x0000304c   0x0000001a   Code   RO         2354    i.ChkBufZero        rtc.o
    0x00003066   0x00000034   Code   RO         2858    i.ChkLastclockerrRcdTime  uartx.o
    0x0000309a   0x00000032   Code   RO         3570    i.ChkPdRcdTime      uenergy-at.o
    0x000030cc   0x00000170   Code   RO         1000    i.ClearPloadRec     event.o
    0x0000323c   0x00000154   Code   RO         2616    i.Clear_Meter       u7816.o
    0x00003390   0x00000014   Code   RO         1426    i.Clear_Nv_Ram      init.o
    0x000033a4   0x0000003c   Code   RO         2617    i.Clear_Rand_Gene   u7816.o
    0x000033e0   0x0000000c   Code   RO         1427    i.Clear_W_Wdt       init.o
    0x000033ec   0x00000038   Code   RO         1428    i.Clear_Wdt         init.o
    0x00003424   0x00000210   Code   RO         1429    i.Clk_Adj_Proc      init.o
    0x00003634   0x00000026   Code   RO         2859    i.ClockAddOne       uartx.o
    0x0000365a   0x00000002   PAD
    0x0000365c   0x00000040   Code   RO         2618    i.CloseEsam         u7816.o
    0x0000369c   0x00000040   Code   RO         1202    i.CloseFlash        i2c.o
    0x000036dc   0x00000010   Code   RO         1577    i.Close_And_ClearIRQ  interrupt.o
    0x000036ec   0x00000158   Code   RO         3220    i.Close_None_GPIO   verify.o
    0x00003844   0x00000016   Code   RO         3221    i.CloseeIO          verify.o
    0x0000385a   0x00000002   PAD
    0x0000385c   0x00000070   Code   RO         2159    i.Closerelay        money.o
    0x000038cc   0x00000054   Code   RO         2160    i.Closerelay1       money.o
    0x00003920   0x00000424   Code   RO         1001    i.ClrRecTimes       event.o
    0x00003d44   0x00000028   Code   RO         2860    i.Clr_Commu_Relaydata  uartx.o
    0x00003d6c   0x00000040   Code   RO         2861    i.Clr_Otherdata     uartx.o
    0x00003dac   0x00000034   Code   RO         2862    i.Clr_Reportdata    uartx.o
    0x00003de0   0x0000002c   Code   RO         2863    i.Clr_Reportnum     uartx.o
    0x00003e0c   0x00000028   Code   RO         2864    i.Clr_Zero_Data     uartx.o
    0x00003e34   0x00000030   Code   RO         2355    i.Cmp_Bcd_Inv       rtc.o
    0x00003e64   0x00000030   Code   RO         2356    i.Cmp_Clock         rtc.o
    0x00003e94   0x00000026   Code   RO         2357    i.Cmp_Data          rtc.o
    0x00003eba   0x00000002   PAD
    0x00003ebc   0x0000001c   Code   RO         2619    i.Cmp_Meter_Id      u7816.o
    0x00003ed8   0x000000d0   Code   RO         2620    i.ColdReset         u7816.o
    0x00003fa8   0x00000030   Code   RO         3571    i.CommReadCalData   uenergy-at.o
    0x00003fd8   0x000000dc   Code   RO         2865    i.CommSetRtc        uartx.o
    0x000040b4   0x00000118   Code   RO         2866    i.CommSetRtc_Adj    uartx.o
    0x000041cc   0x000001d0   Code   RO         3572    i.CommWriteCalData  uenergy-at.o
    0x0000439c   0x00000010   Code   RO         2867    i.Comm_Auth_Judge   uartx.o
    0x000043ac   0x000000e4   Code   RO         2868    i.Comm_Calculate_Comp_Rp  uartx.o
    0x00004490   0x00000070   Code   RO         2869    i.Comm_Calculate_Dl  uartx.o
    0x00004500   0x00000084   Code   RO         1968    i.Comm_Event_Proc   mainproc.o
    0x00004584   0x00000074   Code   RO         3573    i.Comm_Read_Reg     uenergy-at.o
    0x000045f8   0x0000018c   Code   RO         3574    i.Comm_Write_Reg    uenergy-at.o
    0x00004784   0x00000058   Code   RO         3222    i.Commaddr_Verify   verify.o
    0x000047dc   0x0000013c   Code   RO         1834    i.Commmodule_Check  iokey.o
    0x00004918   0x0000006c   Code   RO         1002    i.Comp_RpdltoEepromBuf  event.o
    0x00004984   0x0000003c   Code   RO         2518    i.Config_ShiQuLad_Proc  tariff.o
    0x000049c0   0x0000011c   Code   RO         2519    i.Config_Shiduan_Process  tariff.o
    0x00004adc   0x000003f0   Code   RO         1578    i.Configure_Register_Sleep  interrupt.o
    0x00004ecc   0x00000090   Code   RO         1835    i.Cover_Check       iokey.o
    0x00004f5c   0x00000038   Code   RO         3223    i.Crc_16Bits        verify.o
    0x00004f94   0x00000014   Code   RO         3224    i.Crc_16Bits_Add2   verify.o
    0x00004fa8   0x0000001e   Code   RO         3225    i.Crc_Check         verify.o
    0x00004fc6   0x00000002   PAD
    0x00004fc8   0x00000098   Code   RO         2870    i.Decrypt           uartx.o
    0x00005060   0x00000030   Code   RO         1430    i.Delay_Initial     init.o
    0x00005090   0x00000018   Code   RO         2621    i.Delay_Netu        u7816.o
    0x000050a8   0x0000006c   Code   RO         1579    i.DeviceSleepCFG    interrupt.o
    0x00005114   0x00000028   Code   RO         3226    i.Disable_I2C_IO    verify.o
    0x0000513c   0x00000024   Code   RO         3227    i.Disable_Pulse     verify.o
    0x00005160   0x000000e0   Code   RO         1889    i.Disp_Dl_G_Dot     lcd.o
    0x00005240   0x0000002c   Code   RO         1890    i.Disp_Pw_Dot       lcd.o
    0x0000526c   0x00000030   Code   RO         1891    i.Disp_Time_Dot     lcd.o
    0x0000529c   0x00000048   Code   RO         3228    i.Display_Para_Verify  verify.o
    0x000052e4   0x0000008c   Code   RO         3229    i.Displayitem_Verify  verify.o
    0x00005370   0x00000058   Code   RO         1836    i.Displaykey_Check  iokey.o
    0x000053c8   0x0000008c   Code   RO         1837    i.Displaykey_Process  iokey.o
    0x00005454   0x00000060   Code   RO         3230    i.Dl_Check          verify.o
    0x000054b4   0x00000028   Code   RO         1003    i.DltoEepromBuf     event.o
    0x000054dc   0x000004bc   Code   RO         1580    i.ETIMER2_IRQHandler  interrupt.o
    0x00005998   0x00000048   Code   RO         1581    i.ETIMER4_IRQHandler  interrupt.o
    0x000059e0   0x00000050   Code   RO         3575    i.EmuRegOp          uenergy-at.o
    0x00005a30   0x00000048   Code   RO         3576    i.Emu_Para_Verify   uenergy-at.o
    0x00005a78   0x000000ec   Code   RO         3577    i.Emu_Reg_Verify    uenergy-at.o
    0x00005b64   0x0000001c   Code   RO         1838    i.Enable_Closerelay  iokey.o
    0x00005b80   0x00000038   Code   RO         3231    i.Enable_I2C_IO     verify.o
    0x00005bb8   0x00000014   Code   RO         3232    i.Enable_Led_IO     verify.o
    0x00005bcc   0x00000028   Code   RO         3233    i.Enable_Pulse      verify.o
    0x00005bf4   0x0000002c   Code   RO         1969    i.Energy_Event_Proc  mainproc.o
    0x00005c20   0x00000060   Code   RO         2622    i.EsamReset         u7816.o
    0x00005c80   0x00000020   Code   RO         2623    i.Esam_Err_Report   u7816.o
    0x00005ca0   0x00000118   Code   RO         3234    i.Esam_Para_Verify  verify.o
    0x00005db8   0x000001bc   Code   RO         1004    i.Event_Record      event.o
    0x00005f74   0x0000001a   Code   RO         1005    i.Exchange          event.o
    0x00005f8e   0x00000002   PAD
    0x00005f90   0x00000010   Code   RO         1582    i.FDET_IRQHandler   interrupt.o
    0x00005fa0   0x000003f4   Code   RO         2624    i.Factory_Init      u7816.o
    0x00006394   0x0000002a   Code   RO         2625    i.FailKey           u7816.o
    0x000063be   0x00000002   PAD
    0x000063c0   0x00000090   Code   RO         3235    i.Fill_RTC_RT_TAdc  verify.o
    0x00006450   0x00000088   Code   RO         3236    i.Fill_RTC_RT_TVal  verify.o
    0x000064d8   0x00000064   Code   RO         2520    i.FindSQ            tariff.o
    0x0000653c   0x000000d0   Code   RO         1006    i.FindSpecPos       event.o
    0x0000660c   0x00000030   Code   RO         2871    i.Find_EventTable   uartx.o
    0x0000663c   0x00000068   Code   RO         1203    i.FlashID           i2c.o
    0x000066a4   0x000000ac   Code   RO         1204    i.Flash_Page_Write  i2c.o
    0x00006750   0x00000044   Code   RO         1205    i.Flash_RdSR1       i2c.o
    0x00006794   0x00000054   Code   RO         1206    i.Flash_Rd_Bottom   i2c.o
    0x000067e8   0x00000038   Code   RO         1207    i.Flash_Sector_Erase  i2c.o
    0x00006820   0x00000054   Code   RO         1208    i.Flash_WREN        i2c.o
    0x00006874   0x000000fc   Code   RO         1209    i.Flash_Write_Bottom  i2c.o
    0x00006970   0x0000005c   Code   RO         1210    i.Flash_Write_Cycle  i2c.o
    0x000069cc   0x00000088   Code   RO         1211    i.Flashaddr         i2c.o
    0x00006a54   0x00000030   Code   RO         1007    i.Four_RpdltoEepromBuf  event.o
    0x00006a84   0x00000150   Code   RO         2521    i.Freeze_Change_Judge  tariff.o
    0x00006bd4   0x00000180   Code   RO         2161    i.Freeze_Dl         money.o
    0x00006d54   0x00000108   Code   RO         2162    i.Freeze_Judge      money.o
    0x00006e5c   0x0000010c   Code   RO         2163    i.Freeze_Pddata     money.o
    0x00006f68   0x0000006c   Code   RO         2164    i.Freeze_Usedl      money.o
    0x00006fd4   0x00000028   Code   RO         3237    i.Fwdl_Verify       verify.o
    0x00006ffc   0x00000070   Code   RO          422    i.GPIO_Get_InitParam  fm32l0xx_gpio.o
    0x0000706c   0x00000060   Code   RO          423    i.GPIO_Init         fm32l0xx_gpio.o
    0x000070cc   0x00000004   Code   RO          428    i.GPIO_ResetBits    fm32l0xx_gpio.o
    0x000070d0   0x00000004   Code   RO          429    i.GPIO_SetBits      fm32l0xx_gpio.o
    0x000070d4   0x000001ec   Code   RO         3578    i.Gain_Adjust       uenergy-at.o
    0x000072c0   0x00000054   Code   RO         1431    i.GetADCResult      init.o
    0x00007314   0x0000002a   Code   RO         3238    i.GetBps            verify.o
    0x0000733e   0x0000000e   Code   RO         2626    i.GetKey            u7816.o
    0x0000734c   0x0000001c   Code   RO         2627    i.GetKeyStatus      u7816.o
    0x00007368   0x000000e4   Code   RO         2872    i.GetLcdNo          uartx.o
    0x0000744c   0x00000054   Code   RO         2628    i.GetPswBit         u7816.o
    0x000074a0   0x00000188   Code   RO         1212    i.GetRecAddr        i2c.o
    0x00007628   0x0000011c   Code   RO         1213    i.GetRecNum         i2c.o
    0x00007744   0x0000007c   Code   RO         1432    i.GetRtcRTrimVal    init.o
    0x000077c0   0x00000034   Code   RO         2629    i.GetSetBitNum      u7816.o
    0x000077f4   0x00000014   Code   RO         1214    i.GetValtimes       i2c.o
    0x00007808   0x0000005c   Code   RO         2630    i.Get_7816_Char     u7816.o
    0x00007864   0x000000a4   Code   RO         3579    i.Get_Err_Data      uenergy-at.o
    0x00007908   0x00000028   Code   RO         1583    i.Get_Keep_Timer    interrupt.o
    0x00007930   0x00000050   Code   RO         2873    i.Get_Money_File    uartx.o
    0x00007980   0x000000b0   Code   RO         2874    i.Get_RTCTop_Proc   uartx.o
    0x00007a30   0x0000001c   Code   RO         1584    i.HardFault_Handler  interrupt.o
    0x00007a4c   0x00000078   Code   RO         2358    i.Hex2Bcd           rtc.o
    0x00007ac4   0x00000090   Code   RO         2165    i.Hex2Bcd_Dl        money.o
    0x00007b54   0x00000062   Code   RO         2166    i.Hex2Bcd_Dl_G      money.o
    0x00007bb6   0x00000022   Code   RO         2359    i.Hex2Bcd_SS        rtc.o
    0x00007bd8   0x00000010   Code   RO         2360    i.Hex_To_Bcd        rtc.o
    0x00007be8   0x00000198   Code   RO         2167    i.Histroy_Freeze_Dl  money.o
    0x00007d80   0x00000040   Code   RO         2168    i.Hour_Freeze_Dl    money.o
    0x00007dc0   0x00000094   Code   RO         1215    i.I2C_Read_Bottom   i2c.o
    0x00007e54   0x00000082   Code   RO         1216    i.I2C_Read_Eeprom   i2c.o
    0x00007ed6   0x0000002e   Code   RO         1217    i.I2C_Read_Eeprom44  i2c.o
    0x00007f04   0x00000068   Code   RO         1218    i.I2C_Write_Bottom  i2c.o
    0x00007f6c   0x00000086   Code   RO         1219    i.I2C_Write_Eeprom  i2c.o
    0x00007ff2   0x0000002e   Code   RO         1220    i.I2C_Write_Eeprom44  i2c.o
    0x00008020   0x00000034   Code   RO         1221    i.I2c_Receive_Byte  i2c.o
    0x00008054   0x00000034   Code   RO         1222    i.I2c_Send_Bit      i2c.o
    0x00008088   0x00000034   Code   RO         1223    i.I2c_Send_Byte     i2c.o
    0x000080bc   0x00000018   Code   RO         1433    i.I2c_Wait_5ms      init.o
    0x000080d4   0x00000024   Code   RO         1434    i.IWDT_Init         init.o
    0x000080f8   0x0000004c   Code   RO         3580    i.Ib_K              uenergy-at.o
    0x00008144   0x00000028   Code   RO         2169    i.InitVolSts        money.o
    0x0000816c   0x00000002   Code   RO         1435    i.Init_Arm0         init.o
    0x0000816e   0x00000002   PAD
    0x00008170   0x0000004c   Code   RO         3581    i.Init_Meter_Chip   uenergy-at.o
    0x000081bc   0x00000048   Code   RO         2170    i.Init_Metererrstatus  money.o
    0x00008204   0x0000002c   Code   RO         1436    i.Init_Pad_Io       init.o
    0x00008230   0x00000038   Code   RO         1437    i.Init_RCHF_Trim    init.o
    0x00008268   0x00000050   Code   RO         1438    i.Init_Relay        init.o
    0x000082b8   0x00000334   Code   RO         1439    i.Init_System       init.o
    0x000085ec   0x0000006e   Code   RO         3239    i.InputtIO          verify.o
    0x0000865a   0x00000010   Code   RO         2361    i.Int2Byte          rtc.o
    0x0000866a   0x00000020   Code   RO         1008    i.Inverse           event.o
    0x0000868a   0x00000018   Code   RO         2875    i.IsBCD             uartx.o
    0x000086a2   0x00000020   Code   RO         1224    i.IsFlashRec        i2c.o
    0x000086c2   0x00000024   Code   RO         2876    i.IsMultiBcd        uartx.o
    0x000086e6   0x00000002   PAD
    0x000086e8   0x00000080   Code   RO         3582    i.IxRMSOS_Adjust    uenergy-at.o
    0x00008768   0x00000068   Code   RO         2877    i.JTRecord          uartx.o
    0x000087d0   0x0000000c   Code   RO         2362    i.JudgeClockNoWeek  rtc.o
    0x000087dc   0x00000030   Code   RO         2878    i.JudgeEndClock     uartx.o
    0x0000880c   0x00000056   Code   RO         2879    i.JudgeSwitch       uartx.o
    0x00008862   0x00000002   PAD
    0x00008864   0x00000044   Code   RO         2880    i.JudgeSwitch2      uartx.o
    0x000088a8   0x00000030   Code   RO         2522    i.JudgeYearClock    tariff.o
    0x000088d8   0x000001b4   Code   RO         1585    i.Judge_645_Frame   interrupt.o
    0x00008a8c   0x000000e4   Code   RO         2363    i.Judge_Clock       rtc.o
    0x00008b70   0x0000002c   Code   RO         2632    i.Judge_Edge        u7816.o
    0x00008b9c   0x00000044   Code   RO         1586    i.Judge_Io_Status   interrupt.o
    0x00008be0   0x0000012c   Code   RO         1587    i.Judge_MeterId     interrupt.o
    0x00008d0c   0x0000005c   Code   RO         2881    i.Judge_Min_Space   uartx.o
    0x00008d68   0x00000054   Code   RO         2171    i.Judge_Relay_Delay  money.o
    0x00008dbc   0x00000748   Code   RO         3583    i.Judge_Uip_Data    uenergy-at.o
    0x00009504   0x000004f6   Code   RO         1892    i.LCD_Num_Data      lcd.o
    0x000099fa   0x00000002   PAD
    0x000099fc   0x0000002c   Code   RO         1893    i.LCD_Table         lcd.o
    0x00009a28   0x00000018   Code   RO         2523    i.Ladderdata_Check  tariff.o
    0x00009a40   0x0000000e   Code   RO         1589    i.Lcd_Disp_On       interrupt.o
    0x00009a4e   0x00000002   PAD
    0x00009a50   0x00000070   Code   RO         1894    i.Lcd_Disp_Zedl     lcd.o
    0x00009ac0   0x00000858   Code   RO         1895    i.Lcd_Display       lcd.o
    0x0000a318   0x00000010   Code   RO         1896    i.Lcd_LCDEN_Off     lcd.o
    0x0000a328   0x00000010   Code   RO         1897    i.Lcd_LCDEN_On      lcd.o
    0x0000a338   0x000000dc   Code   RO         1898    i.Lcd_Show_N        lcd.o
    0x0000a414   0x00000024   Code   RO         1899    i.Lcd_Show_ZF       lcd.o
    0x0000a438   0x00000128   Code   RO         1590    i.Lcdled_Control    interrupt.o
    0x0000a560   0x000001b8   Code   RO         1009    i.Load_Judge        event.o
    0x0000a718   0x0000002c   Code   RO         2882    i.LoopExchange      uartx.o
    0x0000a744   0x00000022   Code   RO         2883    i.LoopInverse       uartx.o
    0x0000a766   0x00000018   Code   RO         2884    i.MacExchange       uartx.o
    0x0000a77e   0x00000002   PAD
    0x0000a780   0x0000002c   Code   RO         2633    i.Mac_Err_Proc      u7816.o
    0x0000a7ac   0x0000001c   Code   RO         3240    i.MeterIC_RST0      verify.o
    0x0000a7c8   0x0000001c   Code   RO         3241    i.MeterIC_RST1      verify.o
    0x0000a7e4   0x00000024   Code   RO         3242    i.Meter_Const_Verify  verify.o
    0x0000a808   0x000000b0   Code   RO         3243    i.Mode_Verify       verify.o
    0x0000a8b8   0x00000068   Code   RO         2172    i.Mt_Alarmstatus_Judge  money.o
    0x0000a920   0x00000014   Code   RO         1591    i.NMI_Handler       interrupt.o
    0x0000a934   0x00000018   Code   RO         1440    i.NVIC_ClearPendingIRQ  init.o
    0x0000a94c   0x00000018   Code   RO         1592    i.NVIC_ClearPendingIRQ  interrupt.o
    0x0000a964   0x00000018   Code   RO         1441    i.NVIC_DisableIRQ   init.o
    0x0000a97c   0x00000018   Code   RO         1593    i.NVIC_DisableIRQ   interrupt.o
    0x0000a994   0x00000018   Code   RO         3244    i.NVIC_DisableIRQ   verify.o
    0x0000a9ac   0x00000018   Code   RO         1442    i.NVIC_EnableIRQ    init.o
    0x0000a9c4   0x00000018   Code   RO         1594    i.NVIC_EnableIRQ    interrupt.o
    0x0000a9dc   0x00000018   Code   RO         3245    i.NVIC_EnableIRQ    verify.o
    0x0000a9f4   0x00000044   Code   RO         1595    i.NVIC_SetPriority  interrupt.o
    0x0000aa38   0x00000044   Code   RO         3246    i.NVIC_SetPriority  verify.o
    0x0000aa7c   0x00000080   Code   RO         1010    i.Note_Relay_Event  event.o
    0x0000aafc   0x00000280   Code   RO         1443    i.Note_Reset_Number  init.o
    0x0000ad7c   0x0000018c   Code   RO         1011    i.Note_Run_Event    event.o
    0x0000af08   0x00000030   Code   RO         1012    i.Number_Add1       event.o
    0x0000af38   0x00000030   Code   RO         1444    i.Nvram_Judge       init.o
    0x0000af68   0x00000208   Code   RO         3584    i.Offset_Adjust     uenergy-at.o
    0x0000b170   0x0000007c   Code   RO         1225    i.OpenFlash         i2c.o
    0x0000b1ec   0x00000098   Code   RO         2173    i.Openrelay         money.o
    0x0000b284   0x00000054   Code   RO         2174    i.Openrelay1        money.o
    0x0000b2d8   0x00000074   Code   RO         3247    i.OutputIO          verify.o
    0x0000b34c   0x00000064   Code   RO         3585    i.PH_Adjust         uenergy-at.o
    0x0000b3b0   0x00000120   Code   RO         1596    i.Pd_Adc_Calculate  interrupt.o
    0x0000b4d0   0x00000260   Code   RO         2175    i.Pd_Calculate_Judge  money.o
    0x0000b730   0x000001b4   Code   RO         2176    i.Pd_Histroyfreeze_Judge  money.o
    0x0000b8e4   0x000001d8   Code   RO         2177    i.Pd_Hourfreeze_Judge  money.o
    0x0000babc   0x00000068   Code   RO         1597    i.PowerError_Check  interrupt.o
    0x0000bb24   0x00000364   Code   RO         1445    i.Powerd_Data_Process  init.o
    0x0000be88   0x0000018c   Code   RO         2524    i.Price_Judge       tariff.o
    0x0000c014   0x00000090   Code   RO         2178    i.Process_Usedl     money.o
    0x0000c0a4   0x00000054   Code   RO         2885    i.ProgramRecord     uartx.o
    0x0000c0f8   0x000000fc   Code   RO         1598    i.RTC_IRQHandler    interrupt.o
    0x0000c1f4   0x00000462   Code   RO         2886    i.RdHisEvent        uartx.o
    0x0000c656   0x000000c6   Code   RO         2887    i.RdHisPd           uartx.o
    0x0000c71c   0x00000020   Code   RO         1013    i.RdRecTimes        event.o
    0x0000c73c   0x000007c4   Code   RO         2888    i.Rd_Relay_Buy_Rec  uartx.o
    0x0000cf00   0x00000020   Code   RO         2634    i.ReadBinFile       u7816.o
    0x0000cf20   0x000000d8   Code   RO         2635    i.ReadBinWithMac    u7816.o
    0x0000cff8   0x0000002a   Code   RO         1226    i.ReadE2WithBackup  i2c.o
    0x0000d022   0x00000012   Code   RO         2525    i.ReadE2WithJieti   tariff.o
    0x0000d034   0x0000035c   Code   RO         2889    i.ReadFreezedRec    uartx.o
    0x0000d390   0x0000059c   Code   RO         1014    i.ReadLoadRec       event.o
    0x0000d92c   0x0000003c   Code   RO         2636    i.ReadRandom        u7816.o
    0x0000d968   0x0000001e   Code   RO         2637    i.ReadRecFile       u7816.o
    0x0000d986   0x0000003c   Code   RO         1015    i.Read_Event_Number  event.o
    0x0000d9c2   0x00000002   PAD
    0x0000d9c4   0x00000054   Code   RO         1016    i.Read_Event_Point  event.o
    0x0000da18   0x00000020   Code   RO         2638    i.Read_Kx           u7816.o
    0x0000da38   0x0000009c   Code   RO         2364    i.Read_Rtc          rtc.o
    0x0000dad4   0x00000614   Code   RO         2365    i.Read_Sysclock     rtc.o
    0x0000e0e8   0x00000558   Code   RO         3586    i.Read_UIP          uenergy-at.o
    0x0000e640   0x0000006c   Code   RO         3587    i.Read_UIPF         uenergy-at.o
    0x0000e6ac   0x0000007c   Code   RO         1018    i.Read_Uip_Data     event.o
    0x0000e728   0x0000009c   Code   RO         2890    i.Ready_Reportdata  uartx.o
    0x0000e7c4   0x0000001c   Code   RO         2526    i.RefreshPrice      tariff.o
    0x0000e7e0   0x00000164   Code   RO         2891    i.Relay_Ctrl        uartx.o
    0x0000e944   0x00000224   Code   RO         1839    i.Relaystatus_Check  iokey.o
    0x0000eb68   0x00000068   Code   RO         2892    i.ReportEvent       uartx.o
    0x0000ebd0   0x000001e0   Code   RO         2893    i.ReportProc        uartx.o
    0x0000edb0   0x0000014c   Code   RO         2894    i.Report_Response   uartx.o
    0x0000eefc   0x00000064   Code   RO         1599    i.Reset             interrupt.o
    0x0000ef60   0x00000034   Code   RO         3248    i.Rpdl_Verify       verify.o
    0x0000ef94   0x00000018   Code   RO         2639    i.RxTxCommhead      u7816.o
    0x0000efac   0x000000ac   Code   RO         1600    i.SCover_Check      interrupt.o
    0x0000f058   0x0000002c   Code   RO         1227    i.SPI_Rx_Byte       i2c.o
    0x0000f084   0x00000028   Code   RO         1228    i.SPI_Tx_Byte       i2c.o
    0x0000f0ac   0x00000010   Code   RO          601    i.SVD_Disable       fm32l0xx_anac.o
    0x0000f0bc   0x00000010   Code   RO          602    i.SVD_Enable        fm32l0xx_anac.o
    0x0000f0cc   0x00000010   Code   RO         1601    i.SVD_IRQHandler    interrupt.o
    0x0000f0dc   0x00000024   Code   RO          606    i.SVD_Init          fm32l0xx_anac.o
    0x0000f100   0x00000074   Code   RO         1602    i.Save_Keep_Timer   interrupt.o
    0x0000f174   0x00000098   Code   RO         1970    i.Sclock_Event_Proc  mainproc.o
    0x0000f20c   0x00000030   Code   RO         2640    i.SelectFile        u7816.o
    0x0000f23c   0x00000088   Code   RO         1229    i.Sendaddr          i2c.o
    0x0000f2c4   0x00000066   Code   RO         2527    i.Sequence          tariff.o
    0x0000f32a   0x00000012   Code   RO         2641    i.SetKey            u7816.o
    0x0000f33c   0x00000098   Code   RO         2895    i.Set_Comm_Rate     uartx.o
    0x0000f3d4   0x000000d4   Code   RO         2896    i.Set_Reportdata    uartx.o
    0x0000f4a8   0x00000078   Code   RO         2366    i.Set_Rtc           rtc.o
    0x0000f520   0x000000d4   Code   RO         2897    i.ShiquRecord       uartx.o
    0x0000f5f4   0x00000008   Code   RO         2367    i.Short2Byte        rtc.o
    0x0000f5fc   0x00000530   Code   RO         1603    i.Sleep             interrupt.o
    0x0000fb2c   0x00000058   Code   RO         2642    i.Snd_7816_Byte     u7816.o
    0x0000fb84   0x00000014   Code   RO         3249    i.Starttimer_Verify  verify.o
    0x0000fb98   0x000001f8   Code   RO         1604    i.Store_Data        interrupt.o
    0x0000fd90   0x00000020   Code   RO         1840    i.Store_Meterstatus  iokey.o
    0x0000fdb0   0x00000244   Code   RO         1230    i.SynEeprom         i2c.o
    0x0000fff4   0x00000144   Code   RO         1231    i.SynFlashRec       i2c.o
    0x00010138   0x00000024   Code   RO         2369    i.Syn_Clock         rtc.o
    0x0001015c   0x00000064   Code   RO          931    i.SystemInit        system_fm32l0xx3.o
    0x000101c0   0x00000010   Code   RO         1816    i.SystemTicksInterval  interrupt.o
    0x000101d0   0x00000060   Code   RO         3250    i.Temperpara_Verify  verify.o
    0x00010230   0x00000020   Code   RO          932    i.TicksDelay        system_fm32l0xx3.o
    0x00010250   0x00000024   Code   RO          933    i.TicksDelayMs      system_fm32l0xx3.o
    0x00010274   0x00000018   Code   RO          934    i.TicksDelayUs      system_fm32l0xx3.o
    0x0001028c   0x000001c0   Code   RO         2528    i.Timezone_Judge    tariff.o
    0x0001044c   0x000000b8   Code   RO         1605    i.Tx_645_Frame      interrupt.o
    0x00010504   0x00000038   Code   RO         1606    i.UART0_IRQHandler  interrupt.o
    0x0001053c   0x00000038   Code   RO         1607    i.UART1_IRQHandler  interrupt.o
    0x00010574   0x0000003c   Code   RO         1608    i.UART2_IRQHandler  interrupt.o
    0x000105b0   0x00000040   Code   RO         1609    i.UART5_IRQHandler  interrupt.o
    0x000105f0   0x00000080   Code   RO         3588    i.UIP_K             uenergy-at.o
    0x00010670   0x00000044   Code   RO         3589    i.UartReadByte      uenergy-at.o
    0x000106b4   0x0000003c   Code   RO         3590    i.UartWriteByte     uenergy-at.o
    0x000106f0   0x00000034   Code   RO         1610    i.Uart_IE_Disable_Proc  interrupt.o
    0x00010724   0x00005460   Code   RO         2898    i.Uart_Proc         uartx.o
    0x00015b84   0x0000004c   Code   RO         1611    i.Uart_RXErr_Proc   interrupt.o
    0x00015bd0   0x00000080   Code   RO         2643    i.UpdataRunFile     u7816.o
    0x00015c50   0x00000034   Code   RO         2644    i.UpdateBinFile     u7816.o
    0x00015c84   0x000001c0   Code   RO         2645    i.UpdateEepromKey   u7816.o
    0x00015e44   0x00000168   Code   RO         2646    i.UpdateEsamKey     u7816.o
    0x00015fac   0x000000ec   Code   RO         2899    i.UpdateSysPara     uartx.o
    0x00016098   0x00000040   Code   RO         2647    i.Update_ESAM_Bin_Mac  u7816.o
    0x000160d8   0x00000094   Code   RO         1971    i.Vector_Event_Proc  mainproc.o
    0x0001616c   0x00000070   Code   RO         3251    i.Veri_Btmr1        verify.o
    0x000161dc   0x0000003c   Code   RO         3252    i.Veri_Btmr1_Pcount  verify.o
    0x00016218   0x00000070   Code   RO         3253    i.Veri_Btmr2        verify.o
    0x00016288   0x00000038   Code   RO         3254    i.Veri_Btmr2_Pcount  verify.o
    0x000162c0   0x000000d8   Code   RO         3255    i.Veri_Clk_Gen      verify.o
    0x00016398   0x0000011c   Code   RO         3256    i.Veri_Disp         verify.o
    0x000164b4   0x0000008c   Code   RO         3257    i.Veri_Etmr2        verify.o
    0x00016540   0x0000007c   Code   RO         3258    i.Veri_Etmr4        verify.o
    0x000165bc   0x0000001c   Code   RO         3259    i.Veri_I2c          verify.o
    0x000165d8   0x00000354   Code   RO         3260    i.Veri_Pad          verify.o
    0x0001692c   0x0000005c   Code   RO         2900    i.Veri_Psw          uartx.o
    0x00016988   0x00000094   Code   RO         3261    i.Veri_Rtc          verify.o
    0x00016a1c   0x0000005c   Code   RO         3262    i.Veri_SVD_Ctrl     verify.o
    0x00016a78   0x00000054   Code   RO         3264    i.Veri_Sys_Reg      verify.o
    0x00016acc   0x00000094   Code   RO         3265    i.Veri_U7816        verify.o
    0x00016b60   0x000002a0   Code   RO         3266    i.Veri_Uart_All     verify.o
    0x00016e00   0x0000002c   Code   RO         3267    i.Veri_Wwdt         verify.o
    0x00016e2c   0x0000006a   Code   RO         3268    i.Verify_Dl         verify.o
    0x00016e96   0x0000004c   Code   RO         3269    i.Verify_para       verify.o
    0x00016ee2   0x00000002   PAD
    0x00016ee4   0x00000164   Code   RO         2179    i.VolPassRate       money.o
    0x00017048   0x00000014   Code   RO         1612    i.WWDT_IRQHandler   interrupt.o
    0x0001705c   0x00000010   Code   RO         1446    i.WWDT_Init         init.o
    0x0001706c   0x00000048   Code   RO         1232    i.Wait_for_end      i2c.o
    0x000170b4   0x00000028   Code   RO         3270    i.Week_Holiday_Verify  verify.o
    0x000170dc   0x00000154   Code   RO         1613    i.Wr_Powerdown_Data  interrupt.o
    0x00017230   0x00000002   Code   RO         2180    i.Wr_Pretime_Dayfreeze  money.o
    0x00017232   0x00000002   PAD
    0x00017234   0x00000030   Code   RO         2181    i.Wr_Pretime_Hisfreeze  money.o
    0x00017264   0x0000006c   Code   RO         2648    i.WriteBinWithMac   u7816.o
    0x000172d0   0x00000036   Code   RO         1233    i.WriteE2WithBackup  i2c.o
    0x00017306   0x00000020   Code   RO         2529    i.WriteE2WithJieti  tariff.o
    0x00017326   0x00000002   PAD
    0x00017328   0x000000c0   Code   RO         1019    i.Write_Event_Point  event.o
    0x000173e8   0x00000080   Code   RO         1020    i.Write_Load_Point  event.o
    0x00017468   0x00000018   Code   RO         2901    i.Xor_Data          uartx.o
    0x00017480   0x000000ac   Code   RO         2902    i.Yc_Auth           uartx.o
    0x0001752c   0x000000d0   Code   RO         2530    i.Year_Ladder_Judge  tariff.o
    0x000175fc   0x0000002e   Code   RO         3839    i.__ARM_clz         mf_p.l(depilogue.o)
    0x0001762a   0x00000030   Code   RO         2324    i.__ARM_common_ll_mulss  money.o
    0x0001765a   0x00000030   Code   RO         3200    i.__ARM_common_ll_muluu  uartx.o
    0x0001768a   0x0000001a   Code   RO          294    i.__ARM_common_switch8  fm32l0xx_rcc.o
    0x000176a4   0x0000000e   Code   RO         3845    i.__scatterload_copy  mc_p.l(handlers.o)
    0x000176b2   0x00000002   Code   RO         3846    i.__scatterload_null  mc_p.l(handlers.o)
    0x000176b4   0x0000000e   Code   RO         3847    i.__scatterload_zeroinit  mc_p.l(handlers.o)
    0x000176c2   0x00000002   PAD
    0x000176c4   0x00000028   Code   RO         3271    i.feik_Num_Verify   verify.o
    0x000176ec   0x0000001c   Code   RO         1447    i.isPowerOff        init.o
    0x00017708   0x0000002c   Code   RO         1972    i.main              mainproc.o
    0x00017734   0x000001c0   Data   RO         1021    .constdata          event.o
    0x000178f4   0x00000068   Data   RO         1234    .constdata          i2c.o
    0x0001795c   0x00000012   Data   RO         2002    .constdata          mainproc.o
    0x0001796e   0x00000002   PAD
    0x00017970   0x00000050   Data   RO         2370    .constdata          rtc.o
    0x000179c0   0x0000000c   Data   RO         2649    .constdata          u7816.o
    0x000179cc   0x00000048   Data   RO         3592    .constdata          uenergy-at.o
    0x00017a14   0x00000030   Data   RO         3843    Region$$Table       anon$$obj.o


    Execution Region RW_IRAM1 (Base: 0x20000200, Size: 0x000022a4, Max: 0x00004c00, ABSOLUTE, COMPRESSED[0x00000008])

    Base Addr    Size         Type   Attr      Idx    E Section Name        Object

    0x20000200   0x00000004   Data   RW          935    .data               system_fm32l0xx3.o
    0x20000204   0x00000001   Data   RW         2003    .data               mainproc.o
    0x20000205   0x00000001   Data   RW         2004    .data               mainproc.o
    0x20000206   0x00000001   Data   RW         2005    .data               mainproc.o
    0x20000207   0x00000001   Data   RW         2006    .data               mainproc.o
    0x20000208   0x00000001   Data   RW         2007    .data               mainproc.o
    0x20000209   0x00000001   Data   RW         2008    .data               mainproc.o
    0x2000020a   0x00000002   PAD
    0x2000020c   0x0000000c   Data   RW         2009    .data               mainproc.o
    0x20000218   0x00000001   Data   RW         2010    .data               mainproc.o
    0x20000219   0x00000001   Data   RW         2011    .data               mainproc.o
    0x2000021a   0x00000001   Data   RW         2012    .data               mainproc.o
    0x2000021b   0x00000001   Data   RW         2013    .data               mainproc.o
    0x2000021c   0x00000001   Data   RW         2014    .data               mainproc.o
    0x2000021d   0x00000001   Data   RW         2015    .data               mainproc.o
    0x2000021e   0x00000001   Data   RW         2016    .data               mainproc.o
    0x2000021f   0x00000001   Data   RW         2017    .data               mainproc.o
    0x20000220   0x00000001   Data   RW         2018    .data               mainproc.o
    0x20000221   0x00000001   Data   RW         2019    .data               mainproc.o
    0x20000222   0x00000002   Data   RW         2020    .data               mainproc.o
    0x20000224   0x00000002   Data   RW         2021    .data               mainproc.o
    0x20000226   0x00000002   PAD
    0x20000228   0x00000004   Data   RW         2022    .data               mainproc.o
    0x2000022c   0x00000004   Data   RW         2023    .data               mainproc.o
    0x20000230   0x00000004   Data   RW         2024    .data               mainproc.o
    0x20000234   0x00000004   Data   RW         2025    .data               mainproc.o
    0x20000238   0x00000001   Data   RW         2026    .data               mainproc.o
    0x20000239   0x00000001   Data   RW         2027    .data               mainproc.o
    0x2000023a   0x00000001   Data   RW         2028    .data               mainproc.o
    0x2000023b   0x00000001   Data   RW         2029    .data               mainproc.o
    0x2000023c   0x00000001   Data   RW         2030    .data               mainproc.o
    0x2000023d   0x00000001   PAD
    0x2000023e   0x00000002   Data   RW         2032    .data               mainproc.o
    0x20000240   0x00000001   Data   RW         2033    .data               mainproc.o
    0x20000241   0x00000001   PAD
    0x20000242   0x00000002   Data   RW         2034    .data               mainproc.o
    0x20000244   0x00000004   Data   RW         2035    .data               mainproc.o
    0x20000248   0x00000004   Data   RW         2036    .data               mainproc.o
    0x2000024c   0x00000001   Data   RW         2037    .data               mainproc.o
    0x2000024d   0x00000003   PAD
    0x20000250   0x00000004   Data   RW         2038    .data               mainproc.o
    0x20000254   0x00000002   Data   RW         2039    .data               mainproc.o
    0x20000256   0x00000001   Data   RW         2040    .data               mainproc.o
    0x20000257   0x00000001   Data   RW         2041    .data               mainproc.o
    0x20000258   0x00000001   Data   RW         2042    .data               mainproc.o
    0x20000259   0x00000001   Data   RW         2043    .data               mainproc.o
    0x2000025a   0x00000001   Data   RW         2044    .data               mainproc.o
    0x2000025b   0x00000001   Data   RW         2045    .data               mainproc.o
    0x2000025c   0x00000001   Data   RW         2046    .data               mainproc.o
    0x2000025d   0x00000001   Data   RW         2047    .data               mainproc.o
    0x2000025e   0x00000001   Data   RW         2048    .data               mainproc.o
    0x2000025f   0x00000001   Data   RW         2049    .data               mainproc.o
    0x20000260   0x00000001   Data   RW         2050    .data               mainproc.o
    0x20000261   0x00000001   Data   RW         2051    .data               mainproc.o
    0x20000262   0x00000002   Data   RW         2052    .data               mainproc.o
    0x20000264   0x00000002   Data   RW         2053    .data               mainproc.o
    0x20000266   0x00000001   Data   RW         2054    .data               mainproc.o
    0x20000267   0x00000001   Data   RW         2056    .data               mainproc.o
    0x20000268   0x00000001   Data   RW         2057    .data               mainproc.o
    0x20000269   0x00000002   Data   RW         2058    .data               mainproc.o
    0x2000026b   0x00000002   Data   RW         2059    .data               mainproc.o
    0x2000026d   0x00000001   Data   RW         2060    .data               mainproc.o
    0x2000026e   0x00000002   PAD
    0x20000270   0x00000004   Data   RW         2061    .data               mainproc.o
    0x20000274   0x00000004   Data   RW         2062    .data               mainproc.o
    0x20000278   0x00000001   Data   RW         2063    .data               mainproc.o
    0x20000279   0x00000001   PAD
    0x2000027a   0x00000002   Data   RW         2064    .data               mainproc.o
    0x2000027c   0x00000001   Data   RW         2065    .data               mainproc.o
    0x2000027d   0x00000001   PAD
    0x2000027e   0x00000002   Data   RW         2066    .data               mainproc.o
    0x20000280   0x00000001   Data   RW         2067    .data               mainproc.o
    0x20000281   0x00000001   Data   RW         2068    .data               mainproc.o
    0x20000282   0x00000001   Data   RW         2069    .data               mainproc.o
    0x20000283   0x00000001   PAD
    0x20000284   0x00000004   Data   RW         2070    .data               mainproc.o
    0x20000288   0x00000001   Data   RW         2071    .data               mainproc.o
    0x20000289   0x00000001   Data   RW         2072    .data               mainproc.o
    0x2000028a   0x00000001   Data   RW         2073    .data               mainproc.o
    0x2000028b   0x00000001   Data   RW         2074    .data               mainproc.o
    0x2000028c   0x00000001   Data   RW         2075    .data               mainproc.o
    0x2000028d   0x00000001   Data   RW         2076    .data               mainproc.o
    0x2000028e   0x00000008   Data   RW         2077    .data               mainproc.o
    0x20000296   0x00000001   Data   RW         2078    .data               mainproc.o
    0x20000297   0x00000001   PAD
    0x20000298   0x00000002   Data   RW         2080    .data               mainproc.o
    0x2000029a   0x00000001   Data   RW         2081    .data               mainproc.o
    0x2000029b   0x00000008   Data   RW         2082    .data               mainproc.o
    0x200002a3   0x00000001   PAD
    0x200002a4   0x00000002   Data   RW         2083    .data               mainproc.o
    0x200002a6   0x00000001   Data   RW         2084    .data               mainproc.o
    0x200002a7   0x00000008   Data   RW         2085    .data               mainproc.o
    0x200002af   0x00000003   Data   RW         2086    .data               mainproc.o
    0x200002b2   0x00000003   Data   RW         2087    .data               mainproc.o
    0x200002b5   0x00000007   Data   RW         2088    .data               mainproc.o
    0x200002bc   0x00000001   Data   RW         2089    .data               mainproc.o
    0x200002bd   0x00000002   Data   RW         2091    .data               mainproc.o
    0x200002bf   0x00000008   Data   RW         2092    .data               mainproc.o
    0x200002c7   0x00000008   Data   RW         2093    .data               mainproc.o
    0x200002cf   0x00000008   Data   RW         2094    .data               mainproc.o
    0x200002d7   0x00000008   Data   RW         2095    .data               mainproc.o
    0x200002df   0x00000001   Data   RW         2096    .data               mainproc.o
    0x200002e0   0x00000008   Data   RW         2097    .data               mainproc.o
    0x200002e8   0x00000004   Data   RW         2098    .data               mainproc.o
    0x200002ec   0x00000008   Data   RW         2099    .data               mainproc.o
    0x200002f4   0x00000038   Data   RW         3593    .data               uenergy-at.o
    0x2000032c   0x0000000e   Zero   RW         1974    .bss                mainproc.o
    0x2000033a   0x00000088   Zero   RW         1975    .bss                mainproc.o
    0x200003c2   0x00000002   PAD
    0x200003c4   0x00000028   Zero   RW         1976    .bss                mainproc.o
    0x200003ec   0x00000061   Zero   RW         1977    .bss                mainproc.o
    0x2000044d   0x0000001c   Zero   RW         1978    .bss                mainproc.o
    0x20000469   0x00000020   Zero   RW         1979    .bss                mainproc.o
    0x20000489   0x00000016   Zero   RW         1980    .bss                mainproc.o
    0x2000049f   0x00000001   PAD
    0x200004a0   0x00000018   Zero   RW         1981    .bss                mainproc.o
    0x200004b8   0x00000055   Zero   RW         1982    .bss                mainproc.o
    0x2000050d   0x00000032   Zero   RW         1983    .bss                mainproc.o
    0x2000053f   0x00000001   PAD
    0x20000540   0x00000190   Zero   RW         1984    .bss                mainproc.o
    0x200006d0   0x00000038   Zero   RW         1985    .bss                mainproc.o
    0x20000708   0x0000000c   Zero   RW         1986    .bss                mainproc.o
    0x20000714   0x00000181   Zero   RW         1987    .bss                mainproc.o
    0x20000895   0x00000001   PAD
    0x20000896   0x000017c8   Zero   RW         1988    .bss                mainproc.o
    0x2000205e   0x0000001d   Zero   RW         1989    .bss                mainproc.o
    0x2000207b   0x0000000d   Zero   RW         1990    .bss                mainproc.o
    0x20002088   0x00000026   Zero   RW         1991    .bss                mainproc.o
    0x200020ae   0x00000042   Zero   RW         1992    .bss                mainproc.o
    0x200020f0   0x00000060   Zero   RW         1993    .bss                mainproc.o
    0x20002150   0x0000000a   Zero   RW         1994    .bss                mainproc.o
    0x2000215a   0x00000002   PAD
    0x2000215c   0x00000030   Zero   RW         1995    .bss                mainproc.o
    0x2000218c   0x0000001c   Zero   RW         1996    .bss                mainproc.o
    0x200021a8   0x00000038   Zero   RW         1997    .bss                mainproc.o
    0x200021e0   0x0000002d   Zero   RW         1998    .bss                mainproc.o
    0x2000220d   0x000000fa   Zero   RW         1999    .bss                mainproc.o
    0x20002307   0x000000fa   Zero   RW         2000    .bss                mainproc.o
    0x20002401   0x00000003   PAD
    0x20002404   0x00000020   Zero   RW         2001    .bss                mainproc.o
    0x20002424   0x00000080   Zero   RW         3591    .bss                uenergy-at.o


    Execution Region RW_IRAM2 (Base: 0x20004e00, Size: 0x00001000, Max: 0x00001200, ABSOLUTE)

    Base Addr    Size         Type   Attr      Idx    E Section Name        Object

    0x20004e00   0x00001000   Zero   RW          986    STACK               startup_fm32l0xx.o



  Load Region LR_IROM3 (Base: 0x0003f800, Size: 0x00000484, Max: 0x00000800, ABSOLUTE)

    Execution Region PROTECT_ROM2 (Base: 0x0003f800, Size: 0x00000484, Max: 0x00000800, ABSOLUTE)

    Base Addr    Size         Type   Attr      Idx    E Section Name        Object

    0x0003f800   0x00000484   Data   RO         1181    Protected           factory.o



  Load Region LR$$.ARM.__AT_0x20000000 (Base: 0x20000000, Size: 0x00000000, Max: 0x000001f0, ABSOLUTE)

    Execution Region ER$$.ARM.__AT_0x20000000 (Base: 0x20000000, Size: 0x000001f0, Max: 0x000001f0, ABSOLUTE, UNINIT)

    Base Addr    Size         Type   Attr      Idx    E Section Name        Object

    0x20000000   0x000001f0   Zero   RW         1973    .ARM.__AT_0x20000000  mainproc.o


==============================================================================

Image component sizes


      Code (inc. data)   RO Data    RW Data    ZI Data      Debug   Object Name

      5528        448        448          0          0      47451   event.o
         0          0       1156          0          0       7596   factory.o
       240         60          0          0          0       7255   fm32l0xx_anac.o
       216          0          0          0          0       3229   fm32l0xx_gpio.o
        26          0          0          0          0         72   fm32l0xx_rcc.o
         0          0          0          0          0      25912   fm32l0xx_spi.o
         0          0          0          0          0       1444   fm32l0xx_uart.o
      4020        222        104          0          0      29000   i2c.o
      6450        828          0          0          0      25809   init.o
      7878        978          0          0          0      36716   interrupt.o
      1296        226          0          0          0       5799   iokey.o
      4166        290          0          0          0      12471   lcd.o
       520         34         18        224       8926       9710   mainproc.o
      5524        432          0          0          0      22020   money.o
      2714        288         80          0          0      16656   rtc.o
        28          8        192          0       4096        688   startup_fm32l0xx.o
       192         54          0          4          0      13097   system_fm32l0xx3.o
      2256        190          0          0          0      10679   tariff.o
      4496        494         12          0          0      26352   u7816.o
     32682       2360          0          0          0      70948   uartx.o
      8332        754         72         56        128      27394   uenergy-at.o
      6198        596          0          0          0      42289   verify.o

    ----------------------------------------------------------------------
     92802       8262       2132        300      13160     442587   Object Totals
         0          0         48          0          0          0   (incl. Generated)
        40          0          2         16         10          0   (incl. Padding)

    ----------------------------------------------------------------------

      Code (inc. data)   RO Data    RW Data    ZI Data      Debug   Library Member Name

        58          0          0          0          0          0   __dczerorl.o
         0          0          0          0          0          0   entry.o
         0          0          0          0          0          0   entry10a.o
         0          0          0          0          0          0   entry11a.o
         8          4          0          0          0          0   entry2.o
         4          0          0          0          0          0   entry5.o
         0          0          0          0          0          0   entry7b.o
         0          0          0          0          0          0   entry8b.o
         8          4          0          0          0          0   entry9a.o
        30          0          0          0          0          0   handlers.o
        40          0          0          0          0         72   idiv.o
        36          8          0          0          0         68   init.o
         0          0          0          0          0          0   iusefp.o
        76          0          0          0          0         76   ldiv.o
       122          0          0          0          0         84   llmul.o
        32          0          0          0          0         68   llshl.o
        38          0          0          0          0         68   llsshr.o
        34          0          0          0          0         68   llushr.o
        36          0          0          0          0         60   memcpya.o
        36          0          0          0          0        100   memseta.o
        44          0          0          0          0         72   uidiv.o
        96          0          0          0          0         84   uldiv.o
        40          2          0          0          0         68   cdcmple.o
        20          0          0          0          0         68   cfcmple.o
        20          0          0          0          0         68   cfrcmple.o
        56          0          0          0          0         68   d2f.o
       356          4          0          0          0        140   dadd.o
       240          6          0          0          0         84   ddiv.o
       236          0          0          0          0        216   depilogue.o
        72         10          0          0          0         72   dfixi.o
        80          8          0          0          0         72   dfixl.o
        60         10          0          0          0         68   dfixui.o
        64         10          0          0          0         68   dfixul.o
        40          6          0          0          0         68   dflti.o
        44          6          0          0          0         72   dfltl.o
        28          4          0          0          0         68   dfltui.o
       208          6          0          0          0         88   dmul.o
        44          0          0          0          0         72   dscalb.o
        40          0          0          0          0         60   f2d.o
       178          0          0          0          0        108   fadd.o
       124          0          0          0          0         72   fdiv.o
       130          0          0          0          0        144   fepilogue.o
        50          0          0          0          0         60   ffixi.o
        40          0          0          0          0         60   ffixui.o
        22          0          0          0          0         68   fflti.o
        14          0          0          0          0         68   ffltui.o
       122          0          0          0          0         72   fmul.o
        24          0          0          0          0         60   fscalb.o

    ----------------------------------------------------------------------
      3058         88          0          0          0       2952   Library Totals
         8          0          0          0          0          0   (incl. Padding)

    ----------------------------------------------------------------------

      Code (inc. data)   RO Data    RW Data    ZI Data      Debug   Library Name

       698         16          0          0          0        820   mc_p.l
      2352         72          0          0          0       2132   mf_p.l

    ----------------------------------------------------------------------
      3058         88          0          0          0       2952   Library Totals

    ----------------------------------------------------------------------

==============================================================================


      Code (inc. data)   RO Data    RW Data    ZI Data      Debug   

     95860       8350       2132        300      13160     426379   Grand Totals
     95860       8350       2132          8      13160     426379   ELF Image Totals (compressed)
     95860       8350       2132          8          0          0   ROM Totals

==============================================================================

    Total RO  Size (Code + RO Data)                97992 (  95.70kB)
    Total RW  Size (RW Data + ZI Data)             13460 (  13.14kB)
    Total ROM Size (Code + RO Data + RW Data)      98000 (  95.70kB)

==============================================================================

