LX51 LINKER/LOCATER V4.66.41.0                                                          11/18/2021  18:51:21  PAGE 1


LX51 LINKER/LOCATER V4.66.41.0, INVOKED BY:
C:\PROGRAM FILES (X86)\KEIL_V5 FMSH\C51\BIN\LX51.EXE BANK2 {.\AppComm.obj}, BANK2 {.\AppDLT645.obj}, BANK2 {.\AppVirtual
>> Esam.obj}, BANK2 {.\AppDisplay.obj}, BANK1 {.\AppMonitor.obj}, BANK1 {.\AppPowerOn.obj}, BANK1 {.\AppPowerOff.obj}, B
>> ANK1 {.\AppEMU7021A.obj}, BANK1 {.\AppEMUAtt7036.obj}, BANK1 {.\AppMeasure.obj}, BANK1 {.\AppMoney.obj}, BANK1 {.\App
>> RelayControl.obj}, BANK1 {.\AppEvent.obj}, COMMON {.\MainPro.obj}, COMMON {.\LibPublic.obj}, COMMON {.\Interrupt.obj}
>> , COMMON {.\RamDefine.obj}, COMMON {.\LibEepromLayout.obj}, COMMON {.\BLEDrv.obj}, COMMON {.\IICDrv.obj}, COMMON {.\I
>> nternalE2Drv.obj}, COMMON {.\KeyDrv.obj}, COMMON {.\LCDDrv.obj}, COMMON {.\RelayDrv.obj}, COMMON {.\SPIDrv.obj}, COMM
>> ON {.\L51_BANK.obj}, COMMON {.\STARTUP.obj}, COMMON {.\TripleDES.obj} TO DDSYU666-2019 BANKAREA (0X008000, 0X00FFFF)


CPU MODE:     8051 MODE
MEMORY MODEL: LARGE WITH FLOATING POINT ARITHMETIC


INPUT MODULES INCLUDED:
  .\AppComm.obj (APPCOMM)
         COMMENT TYPE 0: C51 V9.54
  .\AppDLT645.obj (APPDLT645)
         COMMENT TYPE 0: C51 V9.54
  .\AppVirtualEsam.obj (APPVIRTUALESAM)
         COMMENT TYPE 0: C51 V9.54
  .\AppDisplay.obj (APPDISPLAY)
         COMMENT TYPE 0: C51 V9.54
  .\AppMonitor.obj (APPMONITOR)
         COMMENT TYPE 0: C51 V9.54
  .\AppPowerOn.obj (APPPOWERON)
         COMMENT TYPE 0: C51 V9.54
  .\AppPowerOff.obj (APPPOWEROFF)
         COMMENT TYPE 0: C51 V9.54
  .\AppEMU7021A.obj (APPEMU7021A)
         COMMENT TYPE 0: C51 V9.54
  .\AppEMUAtt7036.obj (APPEMUATT7036)
         COMMENT TYPE 0: C51 V9.54
  .\AppMeasure.obj (APPMEASURE)
         COMMENT TYPE 0: C51 V9.54
  .\AppMoney.obj (APPMONEY)
         COMMENT TYPE 0: C51 V9.54
  .\AppRelayControl.obj (APPRELAYCONTROL)
         COMMENT TYPE 0: C51 V9.54
  .\AppEvent.obj (APPEVENT)
         COMMENT TYPE 0: C51 V9.54
  .\MainPro.obj (MAINPRO)
         COMMENT TYPE 0: C51 V9.54
  .\LibPublic.obj (LIBPUBLIC)
         COMMENT TYPE 0: C51 V9.54
  .\Interrupt.obj (INTERRUPT)
         COMMENT TYPE 0: C51 V9.54
  .\RamDefine.obj (RAMDEFINE)
         COMMENT TYPE 0: C51 V9.54
  .\LibEepromLayout.obj (LIBEEPROMLAYOUT)
         COMMENT TYPE 0: C51 V9.54
  .\BLEDrv.obj (BLEDRV)
         COMMENT TYPE 0: C51 V9.54
  .\IICDrv.obj (IICDRV)
         COMMENT TYPE 0: C51 V9.54
  .\InternalE2Drv.obj (INTERNALE2DRV)
         COMMENT TYPE 0: C51 V9.54
  .\KeyDrv.obj (KEYDRV)
         COMMENT TYPE 0: C51 V9.54
  .\LCDDrv.obj (LCDDRV)
         COMMENT TYPE 0: C51 V9.54
  .\RelayDrv.obj (RELAYDRV)
         COMMENT TYPE 0: C51 V9.54
  .\SPIDrv.obj (SPIDRV)
         COMMENT TYPE 0: C51 V9.54
  .\L51_BANK.obj (?BANK?SWITCHING)
LX51 LINKER/LOCATER V4.66.41.0                                                        11/18/2021  18:51:21  PAGE 2


         COMMENT TYPE 1: A51 / ASM51 Assembler
  .\STARTUP.obj (?C_STARTUP)
         COMMENT TYPE 1: A51 / ASM51 Assembler
  .\TripleDES.obj (TRIPLEDES)
         COMMENT TYPE 0: C51 V9.54
  C:\PROGRAM FILES (X86)\KEIL_V5 FMSH\C51\LIB\C51FPL.LIB (?C?FPADD)
         COMMENT TYPE 1: A51 / ASM51 Assembler
  C:\PROGRAM FILES (X86)\KEIL_V5 FMSH\C51\LIB\C51FPL.LIB (?C?FPMUL)
         COMMENT TYPE 1: A51 / ASM51 Assembler
  C:\PROGRAM FILES (X86)\KEIL_V5 FMSH\C51\LIB\C51FPL.LIB (?C?FPDIV)
         COMMENT TYPE 1: A51 / ASM51 Assembler
  C:\PROGRAM FILES (X86)\KEIL_V5 FMSH\C51\LIB\C51FPL.LIB (?C?FCAST)
         COMMENT TYPE 1: A51 / ASM51 Assembler
  C:\PROGRAM FILES (X86)\KEIL_V5 FMSH\C51\LIB\C51FPL.LIB (?C?CASTF)
         COMMENT TYPE 1: A51 / ASM51 Assembler
  C:\PROGRAM FILES (X86)\KEIL_V5 FMSH\C51\LIB\C51FPL.LIB (SQRT)
         COMMENT TYPE 1: A51 / ASM51 Assembler
  C:\PROGRAM FILES (X86)\KEIL_V5 FMSH\C51\LIB\C51FPL.LIB (?C?FPGETOPN)
         COMMENT TYPE 1: A51 / ASM51 Assembler
  C:\PROGRAM FILES (X86)\KEIL_V5 FMSH\C51\LIB\C51L.LIB (?C_INIT)
         COMMENT TYPE 1: A51 / ASM51 Assembler
  C:\PROGRAM FILES (X86)\KEIL_V5 FMSH\C51\LIB\C51L.LIB (?C?COPY)
         COMMENT TYPE 1: A51 / ASM51 Assembler
  C:\PROGRAM FILES (X86)\KEIL_V5 FMSH\C51\LIB\C51L.LIB (?C?CLDPTR)
         COMMENT TYPE 1: A51 / ASM51 Assembler
  C:\PROGRAM FILES (X86)\KEIL_V5 FMSH\C51\LIB\C51L.LIB (?C?CLDOPTR)
         COMMENT TYPE 1: A51 / ASM51 Assembler
  C:\PROGRAM FILES (X86)\KEIL_V5 FMSH\C51\LIB\C51L.LIB (?C?CILDOPTR)
         COMMENT TYPE 1: A51 / ASM51 Assembler
  C:\PROGRAM FILES (X86)\KEIL_V5 FMSH\C51\LIB\C51L.LIB (?C?CSTPTR)
         COMMENT TYPE 1: A51 / ASM51 Assembler
  C:\PROGRAM FILES (X86)\KEIL_V5 FMSH\C51\LIB\C51L.LIB (?C?CSTOPTR)
         COMMENT TYPE 1: A51 / ASM51 Assembler
  C:\PROGRAM FILES (X86)\KEIL_V5 FMSH\C51\LIB\C51L.LIB (?C?IMUL)
         COMMENT TYPE 1: A51 / ASM51 Assembler
  C:\PROGRAM FILES (X86)\KEIL_V5 FMSH\C51\LIB\C51L.LIB (?C?UIDIV)
         COMMENT TYPE 1: A51 / ASM51 Assembler
  C:\PROGRAM FILES (X86)\KEIL_V5 FMSH\C51\LIB\C51L.LIB (?C?IILDX)
         COMMENT TYPE 1: A51 / ASM51 Assembler
  C:\PROGRAM FILES (X86)\KEIL_V5 FMSH\C51\LIB\C51L.LIB (?C?ILDIX)
         COMMENT TYPE 1: A51 / ASM51 Assembler
  C:\PROGRAM FILES (X86)\KEIL_V5 FMSH\C51\LIB\C51L.LIB (?C?LMUL)
         COMMENT TYPE 1: A51 / ASM51 Assembler
  C:\PROGRAM FILES (X86)\KEIL_V5 FMSH\C51\LIB\C51L.LIB (?C?ULDIV)
         COMMENT TYPE 1: A51 / ASM51 Assembler
  C:\PROGRAM FILES (X86)\KEIL_V5 FMSH\C51\LIB\C51L.LIB (?C?LNOT)
         COMMENT TYPE 1: A51 / ASM51 Assembler
  C:\PROGRAM FILES (X86)\KEIL_V5 FMSH\C51\LIB\C51L.LIB (?C?LNEG)
         COMMENT TYPE 1: A51 / ASM51 Assembler
  C:\PROGRAM FILES (X86)\KEIL_V5 FMSH\C51\LIB\C51L.LIB (?C?ULCMP)
         COMMENT TYPE 1: A51 / ASM51 Assembler
  C:\PROGRAM FILES (X86)\KEIL_V5 FMSH\C51\LIB\C51L.LIB (?C?ULSHR)
         COMMENT TYPE 1: A51 / ASM51 Assembler
  C:\PROGRAM FILES (X86)\KEIL_V5 FMSH\C51\LIB\C51L.LIB (?C?LSHL)
         COMMENT TYPE 1: A51 / ASM51 Assembler
  C:\PROGRAM FILES (X86)\KEIL_V5 FMSH\C51\LIB\C51L.LIB (?C?LLDXDATA)
         COMMENT TYPE 1: A51 / ASM51 Assembler
  C:\PROGRAM FILES (X86)\KEIL_V5 FMSH\C51\LIB\C51L.LIB (?C?LLDCODE)
         COMMENT TYPE 1: A51 / ASM51 Assembler
  C:\PROGRAM FILES (X86)\KEIL_V5 FMSH\C51\LIB\C51L.LIB (?C?LSTXDATA)
         COMMENT TYPE 1: A51 / ASM51 Assembler
  C:\PROGRAM FILES (X86)\KEIL_V5 FMSH\C51\LIB\C51L.LIB (?C?LSTKXDATA)
         COMMENT TYPE 1: A51 / ASM51 Assembler
  C:\PROGRAM FILES (X86)\KEIL_V5 FMSH\C51\LIB\C51L.LIB (?C?CCASE)
         COMMENT TYPE 1: A51 / ASM51 Assembler
LX51 LINKER/LOCATER V4.66.41.0                                                        11/18/2021  18:51:21  PAGE 3


  C:\PROGRAM FILES (X86)\KEIL_V5 FMSH\C51\LIB\C51L.LIB (?C?LCASE)
         COMMENT TYPE 1: A51 / ASM51 Assembler
  C:\PROGRAM FILES (X86)\KEIL_V5 FMSH\C51\LIB\C51L.LIB (RAND)
         COMMENT TYPE 1: A51 / ASM51 Assembler


ACTIVE MEMORY CLASSES OF MODULE:  DDSYU666-2019 (APPCOMM)

BASE        START       END         USED      MEMORY CLASS
==========================================================
C:000000H   C:000000H   C:00FFFFH   00F598H   CODE
X:000000H   X:000000H   X:00FFFFH   000D4BH   XDATA
C:000000H   C:000000H   C:00FFFFH   000D42H   CONST
I:000000H   I:000000H   I:00007FH   00000AH   DATA
I:000000H   I:000000H   I:0000FFH   000001H   IDATA


MEMORY MAP OF MODULE:  DDSYU666-2019 (APPCOMM)


START     STOP      LENGTH    ALIGN  RELOC    MEMORY CLASS   SEGMENT NAME
=========================================================================

* * * * * * * * * * *   D A T A   M E M O R Y   * * * * * * * * * * * * *
000000H   000007H   000008H   ---    AT..     DATA           "REG BANK 0"
000008H   000008H   000001H   BYTE   UNIT     DATA           ?BANK?DATA
000009H   00001FH   000017H   ---    ---      **GAP**
000020H   000020H   000001H   BYTE   BITADDR  DATA           ?BA?TRIPLEDES
000021H   000021H   000001H   BYTE   UNIT     IDATA          ?STACK

* * * * * * * * * * *   C O D E   M E M O R Y   * * * * * * * * * * * * *

***   CODE BANK 1   ***
008000H   008042H   000043H   BYTE   UNIT     CODE/B1        ?PR?_APIPWON_UART_SENDEN?APPPOWERON
008043H   008084H   000042H   BYTE   UNIT     CODE/B1        ?PR?_APIPWON_MCUUARTXINIT?APPPOWERON
008085H   008094H   000010H   BYTE   UNIT     CODE/B1        ?PR?APIPWON_MCUUARTINIT?APPPOWERON
008095H   0080E8H   000054H   BYTE   UNIT     CODE/B1        ?PR?_APIPWON_MCUUARTXSETBPS?APPPOWERON
0080E9H   00810CH   000024H   BYTE   UNIT     CODE/B1        ?PR?APIPWON_SYSTEMINIT?APPPOWERON
00810DH   00824EH   000142H   BYTE   UNIT     CODE/B1        ?PR?APIPWON_MCURAMINIT?APPPOWERON
00824FH   008451H   000203H   BYTE   UNIT     CODE/B1        ?PR?APIRELAY_SUBTRACTMONEYRELAYJUDGE?APPRELAYCONTROL
008452H   008684H   000233H   BYTE   UNIT     CODE/B1        ?PR?APIPWON_METERINITINFACTORY?APPPOWERON
008685H   0087E0H   00015CH   BYTE   UNIT     CODE/B1        ?PR?APIRELAY_CONTROLPROCESS?APPRELAYCONTROL
0087E1H   ---       000000H   BYTE   UNIT     CODE/B1        ?PR?APIPWON_EMUINIT?APPPOWERON
0087E1H   ---       000000H   BYTE   UNIT     CODE/B1        ?PR?APIMS_INITMETERICPARA?APPMEASURE
0087E1H   0088F0H   000110H   BYTE   UNIT     CODE/B1        ?PR?APIEMU_EMUINIT?APPEMU7021A
0088F1H   008948H   000058H   BYTE   UNIT     CODE/B1        ?PR?_APIEMU_WRITE_ECADR?APPEMU7021A
008949H   0089E8H   0000A0H   BYTE   UNIT     CODE/B1        ?PR?_APIEMU_WRITEEMUREG?APPEMU7021A
0089E9H   008B86H   00019EH   BYTE   UNIT     CODE/B1        ?PR?_APIEMU_COMMSTARTCAL?APPEMU7021A
008B87H   008F3CH   0003B6H   BYTE   UNIT     CODE/B1        ?PR?_APIMS_CALIBRATIONMETERCOMM?APPMEASURE
008F3DH   008F4FH   000013H   BYTE   UNIT     CODE/B1        ?PR?_APIEMU_DISORENABLE?APPEMU7021A
008F50H   008F51H   000002H   BYTE   UNIT     CODE/B1        ?PR?_APIMS_DISORENABLE?APPMEASURE
008F52H   008F55H   000004H   BYTE   UNIT     CODE/B1        ?PR?APIPWOFF_EMUINIT?APPPOWEROFF
008F56H   008F60H   00000BH   BYTE   UNIT     CODE/B1        ?PR?APIPWOFF_CLOSEDEVICES?APPPOWEROFF
008F61H   008F65H   000005H   BYTE   UNIT     CODE/B1        ?PR?APIPWOFF_MCUDISPINIT?APPPOWEROFF
008F66H   008F75H   000010H   BYTE   UNIT     CODE/B1        ?PR?APIPWOFF_ENTERSLEEP?APPPOWEROFF
008F76H   008F76H   000001H   BYTE   UNIT     CODE/B1        ?PR?APIPWOFF_MCUENTERSLEEP?APPPOWEROFF
008F77H   ---       000000H   BYTE   UNIT     CODE/B1        ?PR?APIPWOFF_PERIPHERALINIT?APPPOWEROFF
008F77H   009159H   0001E3H   BYTE   UNIT     CODE/B1        ?PR?APIPWOFF_MCUGPIOINIT?APPPOWEROFF
00915AH   00915EH   000005H   BYTE   UNIT     CODE/B1        ?PR?APIPWON_MCUDISPINIT?APPPOWERON
00915FH   00970FH   0005B1H   BYTE   UNIT     CODE/B1        ?PR?_APIEVENT_WRITERECORD?APPEVENT
009710H   0097A8H   000099H   BYTE   UNIT     CODE/B1        ?PR?_APIEVENT_RECTOTALNUM_ADD?APPEVENT
0097A9H   0097B7H   00000FH   BYTE   UNIT     CODE/B1        ?PR?_APIEMU_READEMUREG?APPEMU7021A
0097B8H   0097F4H   00003DH   BYTE   UNIT     CODE/B1        ?PR?_APIEMU_READ_ECADR?APPEMU7021A
0097F5H   009D66H   000572H   BYTE   UNIT     CODE/B1        ?PR?APIEMU_UPDATEUIP?APPEMU7021A
009D67H   009D8FH   000029H   BYTE   UNIT     CODE/B1        ?PR?APIMS_UPDATEUIP?APPMEASURE
LX51 LINKER/LOCATER V4.66.41.0                                                        11/18/2021  18:51:21  PAGE 4


009D90H   009D93H   000004H   BYTE   UNIT     CODE/B1        ?PR?APIMS_MEASURETASK?APPMEASURE
009D94H   009DC4H   000031H   BYTE   UNIT     CODE/B1        ?PR?APIEMU_CHECKKMSPARACRC?APPEMU7021A
009DC5H   009E2DH   000069H   BYTE   UNIT     CODE/B1        ?PR?APIMS_ENERGYPULSEUPDATE?APPMEASURE
009E2EH   ---       000000H   BYTE   UNIT     CODE/B1        ?PR?APIMS_GETPOWERDIR?APPMEASURE
009E2EH   009E41H   000014H   BYTE   UNIT     CODE/B1        ?PR?APIEMU_GETDIRP?APPEMU7021A
009E42H   009E7BH   00003AH   BYTE   UNIT     CODE/B1        ?PR?APIPWON_ENERGYZSCHECK?APPPOWERON
009E7CH   009F20H   0000A5H   BYTE   UNIT     CODE/B1        ?PR?APIPWON_ENERGYCHECK?APPPOWERON
009F21H   00A052H   000132H   BYTE   UNIT     CODE/B1        ?PR?APIEMU_SETUIPKMS?APPEMU7021A
00A053H   00A19EH   00014CH   BYTE   UNIT     CODE/B1        ?PR?APIEMU_EMUPARACHECK?APPEMU7021A
00A19FH   00A1CFH   000031H   BYTE   UNIT     CODE/B1        ?PR?APIEMU_CHECKCALPARACRC?APPEMU7021A
00A1D0H   00A1D1H   000002H   BYTE   UNIT     CODE/B1        ?PR?APIMS_METERICPARACHECK?APPMEASURE
00A1D2H   00A1D3H   000002H   BYTE   UNIT     CODE/B1        ?PR?APIPWON_EMUPARACHECK?APPPOWERON
00A1D4H   00A44AH   000277H   BYTE   UNIT     CODE/B1        ?PR?APIMNTR_MONITORTASK?APPMONITOR
00A44BH   00A4F5H   0000ABH   BYTE   UNIT     CODE/B1        ?PR?APIPWON_EVENTPOINTCHECK?APPPOWERON
00A4F6H   00A4F8H   000003H   BYTE   UNIT     CODE/B1        ?PR?APIPWON_BLEINIT?APPPOWERON
00A4F9H   00A515H   00001DH   BYTE   UNIT     CODE/B1        ?PR?APIPWON_BLEPARACHK?APPPOWERON
00A516H   00A563H   00004EH   BYTE   UNIT     CODE/B1        ?PR?APIPWON_FUNCONFIGPARACHECK?APPPOWERON
00A564H   00A5D0H   00006DH   BYTE   UNIT     CODE/B1        ?PR?APIPWON_KEYSTATUSCHECK?APPPOWERON
00A5D1H   00A627H   000057H   BYTE   UNIT     CODE/B1        ?PR?APIMONEY_REFRESHPRICE?APPMONEY
00A628H   00A68DH   000066H   BYTE   UNIT     CODE/B1        ?PR?APIMONEY_TIMEINGHOLDMONEY?APPMONEY
00A68EH   00A724H   000097H   BYTE   UNIT     CODE/B1        ?PR?APIPWON_MONEYPARACHECK?APPPOWERON
00A725H   00A7A5H   000081H   BYTE   UNIT     CODE/B1        ?PR?APIEMU_SETSTARTVAL?APPEMU7021A
00A7A6H   00A7E4H   00003FH   BYTE   UNIT     CODE/B1        ?PR?APIPWON_MCUTIMERINIT?APPPOWERON
00A7E5H   00AA01H   00021DH   BYTE   UNIT     CODE/B1        ?PR?APIPWON_METERCLEAR?APPPOWERON
00AA02H   00AB7CH   00017BH   BYTE   UNIT     CODE/B1        ?PR?APIMONEY_REMAINMONEYPROCESS?APPMONEY
00AB7DH   00AE0BH   00028FH   BYTE   UNIT     CODE/B1        ?PR?_APIMS_ENERGYPROCESS?APPMEASURE
00AE0CH   00AEE5H   0000DAH   BYTE   UNIT     CODE/B1        ?PR?_APIPWON_DLXS_READ?APPPOWERON
00AEE6H   00AF9FH   0000BAH   BYTE   UNIT     CODE/B1        ?PR?APIMNTR_PERIPHERALMONITOR?APPMONITOR
00AFA0H   00AFA5H   000006H   BYTE   UNIT     CODE/B1        ?PR?APIPWON_MCURESET?APPPOWERON
00AFA6H   00AFDAH   000035H   BYTE   UNIT     CODE/B1        ?PR?APIPWON_MCULPDINIT?APPPOWERON
00AFDBH   00B026H   00004CH   BYTE   UNIT     CODE/B1        ?PR?APIPWON_SYSCLKINIT?APPPOWERON
00B027H   00B20CH   0001E6H   BYTE   UNIT     CODE/B1        ?PR?APIPWON_MCUGPIOINIT?APPPOWERON
00B20DH   00B20DH   000001H   BYTE   UNIT     CODE/B1        ?PR?APIPWON_MCUINTERRUPTINIT?APPPOWERON
00B20EH   00B309H   0000FCH   BYTE   UNIT     CODE/B1        ?PR?APIPWON_METERINFOPARACHECK?APPPOWERON
00B30AH   00B401H   0000F8H   BYTE   UNIT     CODE/B1        ?PR?APIPWON_DISPLAYPARACHECK?APPPOWERON
00B402H   00B41CH   00001BH   BYTE   UNIT     CODE/B1        ?PR?APIPWON_POWERCHK?APPPOWERON
00B41DH   00B47EH   000062H   BYTE   UNIT     CODE/B1        ?PR?APIPWOFF_POWEROFFTASK?APPPOWEROFF
00B47FH   00B4CCH   00004EH   BYTE   UNIT     CODE/B1        ?PR?APIPWOFF_DATASAVE?APPPOWEROFF
00B4CDH   00B728H   00025CH   BYTE   UNIT     CODE/B1        ?PR?APIPWON_REMAINMONEYCHECK?APPPOWERON
00B729H   00B74BH   000023H   BYTE   UNIT     CODE/B1        ?PR?APIPWOFF_MCULPDINIT?APPPOWEROFF
00B74CH   00B74CH   000001H   BYTE   UNIT     CODE/B1        ?PR?APIPWOFF_DATAPROCESS?APPPOWEROFF
00B74DH   00B74DH   000001H   BYTE   UNIT     CODE/B1        ?PR?APIPWOFF_DISPLAY?APPPOWEROFF
00B74EH   00B74EH   000001H   BYTE   UNIT     CODE/B1        ?PR?APIPWOFF_SYSCLKINIT?APPPOWEROFF
00B74FH   00B759H   00000BH   BYTE   UNIT     CODE/B1        ?PR?APIPWOFF_BLEPOWERINIT?APPPOWEROFF
00B75AH   00B768H   00000FH   BYTE   UNIT     CODE/B1        ?PR?APIPWOFF_MCUTIMERINIT?APPPOWEROFF
00B769H   00B775H   00000DH   BYTE   UNIT     CODE/B1        ?PR?APIPWOFF_MCUUARTINIT?APPPOWEROFF
00B776H   00B77BH   000006H   BYTE   UNIT     CODE/B1        ?PR?_APIEMU_COMMENDCAL?APPEMU7021A
00B77CH   00B93BH   0001C0H   BYTE   UNIT     CODE/B1        ?PR?_APIEMU_COMMERRCAL?APPEMU7021A
00B93CH   00B9E2H   0000A7H   BYTE   UNIT     CODE/B1        ?PR?API_POWERLOADLIMITEDCHECK?APPRELAYCONTROL
00B9E3H   00C037H   000655H   BYTE   UNIT     CODE/B1        ?PR?_READEVENTRECORDDATA?APPEVENT

***   CODE BANK 2   ***
008000H   00802EH   00002FH   BYTE   UNIT     CODE/B2        ?PR?APICOMM_COMMTASK?APPCOMM
00802FH   00829AH   00026CH   BYTE   UNIT     CODE/B2        ?PR?_APICOMM_CHANNELPROCESS?APPCOMM
00829BH   0082C9H   00002FH   BYTE   UNIT     CODE/B2        ?PR?_APICOMM_PROTOCOLPROCESS?APPCOMM
0082CAH   00840CH   000143H   BYTE   UNIT     CODE/B2        ?PR?_APICOMM_COMMPARAINIT?APPCOMM
00840DH   0086A3H   000297H   BYTE   UNIT     CODE/B2        ?PR?_APIDLT645_UARTRECEIVEDATAJUDGE0?APPDLT645
0086A4H   0089B2H   00030FH   BYTE   UNIT     CODE/B2        ?PR?_APIDLT645_UARTRECEIVEDATAJUDGE1?APPDLT645
0089B3H   00926CH   0008BAH   BYTE   UNIT     CODE/B2        ?PR?_APIDLT645_FRAMEANALYSIS?APPDLT645
00926DH   0092D8H   00006CH   BYTE   UNIT     CODE/B2        ?PR?_APIDLT645_READMETERADDRESS?APPDLT645
0092D9H   009386H   0000AEH   BYTE   UNIT     CODE/B2        ?PR?_APIDLT645_WRITEMETERADDRESS?APPDLT645
009387H   0093DBH   000055H   BYTE   UNIT     CODE/B2        ?PR?_PREPAYMENTMODULE_GETCHALLENGE?APPVIRTUALESAM
0093DCH   0093E8H   00000DH   BYTE   UNIT     CODE/B2        ?PR?PREPAYMENTMODULE_COMM_CLRMACERRNUM?APPVIRTUALESAM
0093E9H   0094A8H   0000C0H   BYTE   UNIT     CODE/B2        ?PR?_APIDLT645_ADDRTYPECHECK?APPDLT645
0094A9H   0095A5H   0000FDH   BYTE   UNIT     CODE/B2        ?PR?_PREPAYMENTMODULE_COMM_HANDBACKMONEY?APPVIRTUALESAM
LX51 LINKER/LOCATER V4.66.41.0                                                        11/18/2021  18:51:21  PAGE 5


0095A6H   0095B2H   00000DH   BYTE   UNIT     CODE/B2        ?L?COM0026
0095B3H   009651H   00009FH   BYTE   UNIT     CODE/B2        ?PR?_APIDLT645_METERCLEAR?APPDLT645
009652H   00968AH   000039H   BYTE   UNIT     CODE/B2        ?PR?_APIDLT645_WRITEEMUREG?APPDLT645
00968BH   009692H   000008H   BYTE   UNIT     CODE/B2        ?L?COM0034
009693H   0097CBH   000139H   BYTE   UNIT     CODE/B2        ?PR?_APIDLT645_READEMUREG?APPDLT645
0097CCH   00A37AH   000BAFH   BYTE   UNIT     CODE/B2        ?PR?_APIDLT645_READDATA07?APPDLT645
00A37BH   00B3A7H   00102DH   BYTE   UNIT     CODE/B2        ?PR?_APIDLT645_WRITEDATA?APPDLT645
00B3A8H   00C067H   000CC0H   BYTE   UNIT     CODE/B2        ?PR?_MULTIDATAWRITE_DEAL?APPDLT645
00C068H   00C266H   0001FFH   BYTE   UNIT     CODE/B2        ?PR?_APIDLT645_RELAYCONTROL?APPDLT645
00C267H   00C3FAH   000194H   BYTE   UNIT     CODE/B2        ?PR?_PREPAYMENTMODULE_DATADECRIPTION?APPVIRTUALESAM
00C3FBH   00C477H   00007DH   BYTE   UNIT     CODE/B2        ?PR?_PREPAYMENTMODULE_GETWORKKEY?APPVIRTUALESAM
00C478H   00C57CH   000105H   BYTE   UNIT     CODE/B2        ?PR?_PREPAYMENTMODULE_COMMWRITEESAMBINARYMAC?APPVIRTUALESA
                                                             -M
00C57DH   00C5ACH   000030H   BYTE   UNIT     CODE/B2        ?PR?PREPAYMENTMODULE_COMM_MACERRNUM?APPVIRTUALESAM
00C5ADH   00C5C5H   000019H   BYTE   UNIT     CODE/B2        ?PR?PREPAYMENTMODULE_INVALIDATION?APPVIRTUALESAM
00C5C6H   00C696H   0000D1H   BYTE   UNIT     CODE/B2        ?PR?_PREPAYMENTMODULE_COMM_INTAUTH_INVALIDATION?APPVIRTUAL
                                                             -ESAM
00C697H   00D340H   000CAAH   BYTE   UNIT     CODE/B2        ?PR?_APIDLT645_FACTORYCOMMAND?APPDLT645
00D341H   00D640H   000300H   BYTE   UNIT     CODE/B2        ?PR?_APIDLT645_SAFECERTIFICATION?APPDLT645
00D641H   00D7F5H   0001B5H   BYTE   UNIT     CODE/B2        ?PR?_PREPAYMENTMODULE_COMM_TIMEAVAILABLEIN?APPVIRTUALESAM
00D7F6H   00DC9BH   0004A6H   BYTE   UNIT     CODE/B2        ?PR?_APIDLT645_ACCOUNTTX?APPDLT645
00DC9CH   00DD13H   000078H   BYTE   UNIT     CODE/B2        ?PR?APIDLT645_GETSTATUSFLAG3?APPDLT645
00DD14H   00DF09H   0001F6H   BYTE   UNIT     CODE/B2        ?PR?_APIDLT645_MODIFYPSW?APPDLT645
00DF0AH   00E228H   00031FH   BYTE   UNIT     CODE/B2        ?PR?_PREPAYMENTMODULE_COMM_INTAUTH?APPVIRTUALESAM
00E229H   00E901H   0006D9H   BYTE   UNIT     CODE/B2        ?PR?_PREPAYMENTMODULE_COMM_OPENACCOUT?APPVIRTUALESAM
00E902H   00EC81H   000380H   BYTE   UNIT     CODE/B2        ?PR?_MONEY_RECHARGE?APPVIRTUALESAM
00EC82H   00EE68H   0001E7H   BYTE   UNIT     CODE/B2        ?PR?_PREPAYMENTMODULE_COMM_MODIFYKEY?APPVIRTUALESAM
00EE69H   00EF12H   0000AAH   BYTE   UNIT     CODE/B2        ?PR?_APIGET_LCD_NUM?APPDISPLAY
00EF13H   00EF4AH   000038H   BYTE   UNIT     CODE/B2        ?PR?_APIGET_LCD_ID?APPDISPLAY
00EF4BH   00F026H   0000DCH   BYTE   UNIT     CODE/B2        ?PR?_APIDISPLAY_NUMDATA?APPDISPLAY
00F027H   00F15AH   000134H   BYTE   UNIT     CODE/B2        ?PR?_APIDISP_SHOWNUM?APPDISPLAY
00F15BH   00F387H   00022DH   BYTE   UNIT     CODE/B2        ?PR?_APIDISP_CONST?APPDISPLAY
00F388H   00F4AAH   000123H   BYTE   UNIT     CODE/B2        ?PR?APIDISP_DISPLAYTASK?APPDISPLAY
00F4ABH   00F57DH   0000D3H   BYTE   UNIT     CODE/B2        ?PR?APIDISP_DYNAMIC?APPDISPLAY
00F57EH   00F5D8H   00005BH   BYTE   UNIT     CODE/B2        ?PR?APIDISP_LCDLEDCONTROL?APPDISPLAY

***   COMMON AREA   ***
000000H   000002H   000003H   ---    OFFS..   CODE           ?CO??C_STARTUP?0
000003H   000005H   000003H   BYTE   OFFS..   CODE           ?INTERRUPT?00003
000006H   000006H   000001H   BYTE   UNIT     CODE           ?PR?LIBPUB_DELAY2US?LIBPUBLIC
000007H   000007H   000001H   BYTE   UNIT     CODE           ?PR?DRVE2P_I2CDELAY_2US?IICDRV
000008H   00000AH   000003H   BYTE   UNIT     CODE           ?PR?DRVKEY_FACTORYKEYINIT?KEYDRV
00000BH   00000DH   000003H   BYTE   OFFS..   CODE           ?INTERRUPT?0000B
00000EH   000019H   00000CH   BYTE   UNIT     CODE           ?BANK?SELECT
00001AH   00001AH   000001H   ---    ---      **GAP**
00001BH   00001DH   000003H   BYTE   OFFS..   CODE           ?INTERRUPT?0001B
00001EH   000022H   000005H   ---    ---      **GAP**
000023H   000025H   000003H   BYTE   OFFS..   CODE           ?INTERRUPT?00023
000026H   00002AH   000005H   ---    ---      **GAP**
00002BH   00002DH   000003H   BYTE   OFFS..   CODE           ?INTERRUPT?0002B
00002EH   000032H   000005H   ---    ---      **GAP**
000033H   000035H   000003H   BYTE   OFFS..   CODE           ?INTERRUPT?00033
000036H   00003AH   000005H   ---    ---      **GAP**
00003BH   00003DH   000003H   BYTE   OFFS..   CODE           ?INTERRUPT?0003B
00003EH   000042H   000005H   ---    ---      **GAP**
000043H   000045H   000003H   BYTE   OFFS..   CODE           ?INTERRUPT?00043
000046H   00004AH   000005H   ---    ---      **GAP**
00004BH   00004DH   000003H   BYTE   OFFS..   CODE           ?INTERRUPT?0004B
00004EH   00005BH   00000EH   BYTE   UNIT     CONST          ?CO?APPPOWERON
00005CH   000061H   000006H   BYTE   UNIT     CODE           ?PR?BLEDRV_GETBLESTAT?BLEDRV
000062H   000062H   000001H   ---    ---      **GAP**
000063H   000065H   000003H   BYTE   OFFS..   CODE           ?INTERRUPT?00063
000066H   000070H   00000BH   BYTE   UNIT     CODE           ?PR?BLEDRV_INITPWN?BLEDRV
000071H   000072H   000002H   ---    ---      **GAP**
000073H   000075H   000003H   BYTE   OFFS..   CODE           ?INTERRUPT?00073
LX51 LINKER/LOCATER V4.66.41.0                                                        11/18/2021  18:51:21  PAGE 6


000076H   0000C2H   00004DH   BYTE   UNIT     CODE           ?PR?RAND?RAND
0000C3H   0000EBH   000029H   BYTE   UNIT     CONST          ?CO?APPEVENT
0000ECH   0000FCH   000011H   BYTE   UNIT     CODE           ?PR?DRVE2P_I2CDELAY_5US?IICDRV
0000FDH   0000FFH   000003H   ---    ---      **GAP**
000100H   0001FAH   0000FBH   PAGE   INBLOCK  CODE           ?BANK?SWITCH
0001FBH   0009B5H   0007BBH   BYTE   UNIT     CODE           ?C?LIB_CODE
0009B6H   000AD0H   00011BH   BYTE   UNIT     CODE           ?C_INITSEG
000AD1H   000B7CH   0000ACH   BYTE   UNIT     CODE           ?PR?SQRT?SQRT
000B7DH   000C0BH   00008FH   BYTE   UNIT     CODE           ?C_C51STARTUP
000C0CH   000F8BH   000380H   BYTE   UNIT     CONST          ?CO?TRIPLEDES
000F8CH   001290H   000305H   BYTE   UNIT     CONST          ?CO?APPDLT645
001291H   0014E6H   000256H   BYTE   UNIT     CONST          ?CO?BLEDRV
0014E7H   0016E6H   000200H   BYTE   UNIT     CONST          ?CO?LIBPUBLIC
0016E7H   001838H   000152H   BYTE   UNIT     CONST          ?CO?APPDISPLAY
001839H   001916H   0000DEH   BYTE   UNIT     CONST          ?CO?APPEMU7021A
001917H   001951H   00003BH   BYTE   UNIT     CODE           ?PR?MAIN?MAINPRO
001952H   001A16H   0000C5H   BYTE   UNIT     CODE           ?PR?LIBPUB_GETTIMERBEAT?LIBPUBLIC
001A17H   001C4FH   000239H   BYTE   UNIT     CODE           ?PR?_LIBPUB_WRITEDATATOE2PROM?LIBPUBLIC
001C50H   001CE8H   000099H   BYTE   UNIT     CODE           ?PR?_LIBPUB_CRC16_CCITT?LIBPUBLIC
001CE9H   001E02H   00011AH   BYTE   UNIT     CODE           ?PR?_DRVE2P_READDATA?IICDRV
001E03H   001E6BH   000069H   BYTE   UNIT     CODE           ?PR?DRVE2P_I2CSTOP?IICDRV
001E6CH   001F04H   000099H   BYTE   UNIT     CODE           ?PR?_DRVE2P_WRITEONEBYTE?IICDRV
001F05H   002154H   000250H   BYTE   UNIT     CODE           ?PR?_LIBPUB_READDATAFROME2PROM?LIBPUBLIC
002155H   0021B1H   00005DH   BYTE   UNIT     CODE           ?PR?_LIBPUB_MEMCOPYBYTES?LIBPUBLIC
0021B2H   002292H   0000E1H   BYTE   UNIT     CODE           ?PR?_LIBPUB_COMPARENBUFS?LIBPUBLIC
002293H   0023A4H   000112H   BYTE   UNIT     CODE           ?PR?_DES_DEORENCRYPTION?TRIPLEDES
0023A5H   00243FH   00009BH   BYTE   UNIT     CODE           ?PR?_DES_IP_1?TRIPLEDES
002440H   00249EH   00005FH   BYTE   UNIT     CODE           ?PR?_TRIPLEDES_DEORENCRYPTION?TRIPLEDES
00249FH   00266CH   0001CEH   BYTE   UNIT     CODE           ?PR?_DATA_MAC?TRIPLEDES
00266DH   0026CDH   000061H   BYTE   UNIT     CODE           ?PR?_LIBPUB_MEMSETBYTES?LIBPUBLIC
0026CEH   002745H   000078H   BYTE   UNIT     CODE           ?PR?_DES_IP?TRIPLEDES
002746H   0027C1H   00007CH   BYTE   UNIT     CODE           ?PR?BLEDRV_SETBLERUNPARA?BLEDRV
0027C2H   002830H   00006FH   BYTE   UNIT     CODE           ?PR?BLEDRV_SETBLESTAT?BLEDRV
002831H   002B4FH   00031FH   BYTE   UNIT     CODE           ?PR?_BLEDRV_BLECOMM?BLEDRV
002B50H   002B97H   000048H   BYTE   UNIT     CODE           ?PR?_LIBPUB_CRCCHECK?LIBPUBLIC
002B98H   002BC7H   000030H   BYTE   UNIT     CODE           ?PR?_LIBPUB_ZEROCHECK?LIBPUBLIC
002BC8H   002C15H   00004EH   BYTE   UNIT     CODE           ?PR?_BLEDRV_BLEPARACHK?BLEDRV
002C16H   002CEBH   0000D6H   BYTE   UNIT     CODE           ?PR?BLEDRV_BLESTATUCHK?BLEDRV
002CECH   002D12H   000027H   BYTE   UNIT     CODE           ?PR?BLEDRV_BLERESET?BLEDRV
002D13H   002D69H   000057H   BYTE   UNIT     CODE           ?PR?_LIBPUB_DELAYNMS?LIBPUBLIC
002D6AH   002DBEH   000055H   BYTE   UNIT     CODE           ?PR?BLEDRV_INITBLERUNPARA?BLEDRV
002DBFH   002DC4H   000006H   BYTE   UNIT     CODE           ?PR?LIBPUB_DELAY10US?LIBPUBLIC
002DC5H   002DCDH   000009H   BYTE   UNIT     CODE           ?PR?LIBPUB_DELAY5US?LIBPUBLIC
002DCEH   002DE5H   000018H   BYTE   UNIT     CODE           ?PR?_LIBPUB_DELAY10XUS?LIBPUBLIC
002DE6H   002E57H   000072H   BYTE   UNIT     CODE           ?PR?_BLEDRV_GETBLEPARA?BLEDRV
002E58H   002F0BH   0000B4H   BYTE   UNIT     CODE           ?PR?_LIBPUB_HEXTOASCII?LIBPUBLIC
002F0CH   002F3CH   000031H   BYTE   UNIT     CODE           ?PR?_LIBPUB_0XFFCHECKINT?LIBPUBLIC
002F3DH   002F42H   000006H   BYTE   UNIT     CODE           ?PR?_BLEDRV_GETBLEMAC?BLEDRV
002F43H   002F49H   000007H   BYTE   UNIT     CODE           ?PR?_BLEDRV_COMMGETBLEPARA?BLEDRV
002F4AH   002F52H   000009H   BYTE   UNIT     CODE           ?PR?_BLEDRV_GETBLETPL?BLEDRV
002F53H   002F65H   000013H   BYTE   UNIT     CODE           ?PR?BLEDRV_GETBLEUARTSTA?BLEDRV
002F66H   002FAAH   000045H   BYTE   UNIT     CODE           ?PR?_LIBPUB_CALSUM?LIBPUBLIC
002FABH   002FD9H   00002FH   BYTE   UNIT     CODE           ?PR?_LIBPUB_1HEX_2_1BCD?LIBPUBLIC
002FDAH   002FECH   000013H   BYTE   UNIT     CODE           ?PR?_LIBPUB_1BCD_2_1HEX?LIBPUBLIC
002FEDH   003015H   000029H   BYTE   UNIT     CODE           ?PR?_LIBPUB_1BTYEBCDADD?LIBPUBLIC
003016H   0030B0H   00009BH   BYTE   UNIT     CODE           ?PR?_LIBPUB_NBTYESBCDADD?LIBPUBLIC
0030B1H   00315DH   0000ADH   BYTE   UNIT     CODE           ?PR?LIBPUB_GETTIMERBEATINT0?LIBPUBLIC
00315EH   003208H   0000ABH   BYTE   UNIT     CODE           ?PR?INTER_EUART0?INTERRUPT
003209H   0032B5H   0000ADH   BYTE   UNIT     CODE           ?PR?LIBPUB_GETTIMERBEATINT1?LIBPUBLIC
0032B6H   003360H   0000ABH   BYTE   UNIT     CODE           ?PR?INTER_EUART1?INTERRUPT
003361H   003422H   0000C2H   BYTE   UNIT     CODE           ?PR?_LIBPUB_GETDIFFTIME?LIBPUBLIC
003423H   003497H   000075H   BYTE   UNIT     CODE           ?PR?_LIBPUB_MEMEXCHANGEBYTES?LIBPUBLIC
003498H   0034D4H   00003DH   BYTE   UNIT     CODE           ?PR?_LIBPUB_ISBCD?LIBPUBLIC
0034D5H   003591H   0000BDH   BYTE   UNIT     CODE           ?PR?_LIBPUB_INVERSE?LIBPUBLIC
003592H   0036A3H   000112H   BYTE   UNIT     CODE           ?PR?_LIBPUB_CHECKPASSWORD?LIBPUBLIC
LX51 LINKER/LOCATER V4.66.41.0                                                        11/18/2021  18:51:21  PAGE 7


0036A4H   003810H   00016DH   BYTE   UNIT     CODE           ?PR?_LIBPUB_COMPAREDATA?LIBPUBLIC
003811H   00383FH   00002FH   BYTE   UNIT     CODE           ?PR?_LIBPUB_BUFFER2TOUSHORT16?LIBPUBLIC
003840H   0038DCH   00009DH   BYTE   UNIT     CODE           ?PR?_LIBPUB_BUFFER4TOULONG32?LIBPUBLIC
0038DDH   0039D0H   0000F4H   BYTE   UNIT     CODE           ?PR?_LIBPUB_NBYTESBCDSUB?LIBPUBLIC
0039D1H   003B37H   000167H   BYTE   UNIT     CODE           ?PR?_LIBPUB_DECTOHEXBYTES?LIBPUBLIC
003B38H   003C28H   0000F1H   BYTE   UNIT     CODE           ?PR?_LIBPUB_HEXTOBCDBYTES?LIBPUBLIC
003C29H   003C55H   00002DH   BYTE   UNIT     CODE           ?PR?INTER_INT4?INTERRUPT
003C56H   003C82H   00002DH   BYTE   UNIT     CODE           ?PR?INTER_TIMER1?INTERRUPT
003C83H   003D48H   0000C6H   BYTE   UNIT     CODE           ?PR?INTER_TIMER0?INTERRUPT
003D49H   003D75H   00002DH   BYTE   UNIT     CODE           ?PR?INTER_TIMER2?INTERRUPT
003D76H   003DA2H   00002DH   BYTE   UNIT     CODE           ?PR?INTER_ADC_TPS?INTERRUPT
003DA3H   003DFFH   00005DH   BYTE   UNIT     CODE           ?PR?INTER_EMU?INTERRUPT
003E00H   003E3DH   00003EH   BYTE   UNIT     CODE           ?PR?INTER_RTC?INTERRUPT
003E3EH   003E6AH   00002DH   BYTE   UNIT     CODE           ?PR?INTER_LPD?INTERRUPT
003E6BH   003EAFH   000045H   BYTE   UNIT     CODE           ?PR?INTER_EUART3?INTERRUPT
003EB0H   003F25H   000076H   BYTE   UNIT     CODE           ?PR?_BLEDRV_SETBLEPARA?BLEDRV
003F26H   003F2FH   00000AH   BYTE   UNIT     CODE           ?PR?_BLEDRV_SETBLEMAC?BLEDRV
003F30H   003F83H   000054H   BYTE   UNIT     CODE           ?PR?_BLEDRV_SETBLETPL?BLEDRV
003F84H   003FDEH   00005BH   BYTE   UNIT     CODE           ?PR?_BLEDRV_COMMSETBLEPARA?BLEDRV
003FDFH   004037H   000059H   BYTE   UNIT     CODE           ?PR?_BLEDRV_GETBLENAME?BLEDRV
004038H   00403EH   000007H   BYTE   UNIT     CODE           ?PR?DRVE2P_I2CDELAY_3US?IICDRV
00403FH   0040CAH   00008CH   BYTE   UNIT     CODE           ?PR?DRVE2P_READONEBYTENOACK?IICDRV
0040CBH   004164H   00009AH   BYTE   UNIT     CODE           ?PR?DRVE2P_READONEBYTEACK?IICDRV
004165H   004183H   00001FH   BYTE   UNIT     CODE           ?PR?DRVI2C_INIT?IICDRV
004184H   0041B4H   000031H   BYTE   UNIT     CODE           ?PR?DRVE2P_I2CSTART?IICDRV
0041B5H   0042FFH   00014BH   BYTE   UNIT     CODE           ?PR?_DRVE2P_WRDATATEMP?IICDRV
004300H   00432FH   000030H   BYTE   UNIT     CODE           ?PR?DRVE2P_CHKBUSBUSY?IICDRV
004330H   004418H   0000E9H   BYTE   UNIT     CODE           ?PR?_DRVE2P_WRITEDATA?IICDRV
004419H   004476H   00005EH   BYTE   UNIT     CODE           ?PR?_HAL_WRITEFLASH_BYTE?INTERNALE2DRV
004477H   004519H   0000A3H   BYTE   UNIT     CODE           ?PR?_HAL_WRITEEEPROM?INTERNALE2DRV
00451AH   004531H   000018H   BYTE   UNIT     CODE           ?PR?_HAL_READFLASH_BYTE?INTERNALE2DRV
004532H   0045CEH   00009DH   BYTE   UNIT     CODE           ?PR?_HAL_READEEPROM?INTERNALE2DRV
0045CFH   00464CH   00007EH   BYTE   UNIT     CODE           ?PR?_HAL_ERASEFLASHSECTOR?INTERNALE2DRV
00464DH   00465BH   00000FH   BYTE   UNIT     CODE           ?PR?DRVKEY_DISPLAYKEYINIT?KEYDRV
00465CH   0046FBH   0000A0H   BYTE   UNIT     CODE           ?PR?DRVKEY_DISPLAYKEYMONITOR?KEYDRV
0046FCH   004706H   00000BH   BYTE   UNIT     CODE           ?PR?DRVKEY_FACTORYKEYMONITOR?KEYDRV
004707H   00472FH   000029H   BYTE   UNIT     CODE           ?PR?_LCDDRV_INIT?LCDDRV
004730H   004742H   000013H   BYTE   UNIT     CODE           ?PR?_LCDDRV_SETLCDBUFF?LCDDRV
004743H   004770H   00002EH   BYTE   UNIT     CODE           ?PR?LCDDRV_DISPRAMUPDATA?LCDDRV
004771H   00478EH   00001EH   BYTE   UNIT     CODE           ?PR?LCDDRV_SGECOMCONFIG?LCDDRV
00478FH   0047B9H   00002BH   BYTE   UNIT     CODE           ?PR?LCDDRV_PWONREGCFG?LCDDRV
0047BAH   0047C2H   000009H   BYTE   UNIT     CODE           ?PR?RELAYDRV_CLOSERELAY?RELAYDRV
0047C3H   0047CBH   000009H   BYTE   UNIT     CODE           ?PR?RELAYDRV_OPENRELAY?RELAYDRV
0047CCH   0047D3H   000008H   BYTE   UNIT     CODE           ?PR?RELAYDRV_RELAYNORMAL?RELAYDRV
0047D4H   0047EBH   000018H   BYTE   UNIT     CODE           ?PR?RELAYDRV_DELAYTIMEMONITOR?RELAYDRV
0047ECH   004818H   00002DH   BYTE   UNIT     CODE           ?PR?_DES_REPLACEMENT?TRIPLEDES
004819H   004836H   00001EH   BYTE   UNIT     CODE           ?PR?_DES_PC_1?TRIPLEDES
004837H   004909H   0000D3H   BYTE   UNIT     CODE           ?PR?_DES_TRANSPOSITION?TRIPLEDES
00490AH   004B51H   000248H   BYTE   UNIT     CODE           ?PR?_DES_F?TRIPLEDES
004B52H   004CEDH   00019CH   BYTE   UNIT     CODE           ?PR?_DES_CYCLRSHIFTING?TRIPLEDES

* * * * * * * * * * *  X D A T A   M E M O R Y  * * * * * * * * * * * * *
000000H   0005EEH   0005EFH   BYTE   UNIT     XDATA          ?XD?RAMDEFINE
0005EFH   0009D7H   0003E9H   BYTE   UNIT     XDATA          _XDATA_GROUP_
0009D8H   000AE9H   000112H   BYTE   UNIT     XDATA          ?XD?TRIPLEDES
000AEAH   000BC9H   0000E0H   BYTE   UNIT     XDATA          ?XD?LIBEEPROMLAYOUT
000BCAH   000C12H   000049H   BYTE   UNIT     XDATA          ?XD?APPVIRTUALESAM
000C13H   000C5AH   000048H   BYTE   UNIT     XDATA          ?XD?APPEVENT
000C5BH   000C85H   00002BH   BYTE   UNIT     XDATA          ?XD?APPEMU7021A
000C86H   000CADH   000028H   BYTE   UNIT     XDATA          ?XD?APPDISPLAY
000CAEH   000CB9H   00000CH   BYTE   UNIT     XDATA          ?XD?_DRVE2P_WRDATATEMP?IICDRV
000CBAH   000CC4H   00000BH   BYTE   UNIT     XDATA          ?XD?_DRVE2P_READDATA?IICDRV
000CC5H   000CCEH   00000AH   BYTE   UNIT     XDATA          ?XD?_DRVE2P_WRITEDATA?IICDRV
000CCFH   000CD2H   000004H   BYTE   UNIT     XDATA          ?XD?_HAL_WRITEFLASH_BYTE?INTERNALE2DRV
000CD3H   000CD6H   000004H   BYTE   UNIT     XDATA          ?XD?_HAL_ERASEFLASHSECTOR?INTERNALE2DRV
LX51 LINKER/LOCATER V4.66.41.0                                                        11/18/2021  18:51:21  PAGE 8


000CD7H   000CDAH   000004H   BYTE   UNIT     XDATA          ?XD?RAND?RAND
000CDBH   000CDDH   000003H   BYTE   UNIT     XDATA          ?XD?_DRVE2P_WRITEONEBYTE?IICDRV
000CDEH   000CDFH   000002H   BYTE   UNIT     XDATA          ?XD?APPDLT645
000CE0H   000CE1H   000002H   BYTE   UNIT     XDATA          ?XD?DRVE2P_CHKBUSBUSY?IICDRV
000CE2H   000CE3H   000002H   BYTE   UNIT     XDATA          ?XD?DRVE2P_READONEBYTEACK?IICDRV
000CE4H   000CE5H   000002H   BYTE   UNIT     XDATA          ?XD?DRVE2P_READONEBYTENOACK?IICDRV
000CE6H   000CE6H   000001H   BYTE   UNIT     XDATA          ?XD?_APICOMM_COMMPARAINIT?APPCOMM
000CE7H   000CE7H   000001H   BYTE   UNIT     XDATA          ?XD?DRVE2P_I2CDELAY_5US?IICDRV
000CE8H   000CE8H   000001H   BYTE   UNIT     XDATA          ?XD?DRVE2P_I2CDELAY_3US?IICDRV
000CE9H   000CE9H   000001H   BYTE   UNIT     XDATA          ?XD?DRVE2P_I2CSTOP?IICDRV
000CEAH   00FF7FH   00F296H   ---    ---      **GAP**
00FF80H   00FF80H   000001H   BYTE   OFFS..   XDATA          ?XD?MAINPRO?36
00FF81H   00FF81H   000001H   BYTE   OFFS..   XDATA          ?XD?MAINPRO?38
00FF82H   00FF82H   000001H   BYTE   OFFS..   XDATA          ?XD?MAINPRO?39
00FF83H   00FF83H   000001H   BYTE   OFFS..   XDATA          ?XD?MAINPRO?40
00FF84H   00FF84H   000001H   BYTE   OFFS..   XDATA          ?XD?MAINPRO?41
00FF85H   00FF85H   000001H   BYTE   OFFS..   XDATA          ?XD?MAINPRO?42
00FF86H   00FF87H   000002H   ---    ---      **GAP**
00FF88H   00FF88H   000001H   BYTE   OFFS..   XDATA          ?XD?MAINPRO?31
00FF89H   00FF89H   000001H   BYTE   OFFS..   XDATA          ?XD?MAINPRO?32
00FF8AH   00FF8AH   000001H   BYTE   OFFS..   XDATA          ?XD?MAINPRO?33
00FF8BH   00FF8BH   000001H   BYTE   OFFS..   XDATA          ?XD?MAINPRO?43
00FF8CH   00FF8CH   000001H   BYTE   OFFS..   XDATA          ?XD?MAINPRO?48
00FF8DH   00FF8DH   000001H   BYTE   OFFS..   XDATA          ?XD?MAINPRO?45
00FF8EH   00FF8EH   000001H   BYTE   OFFS..   XDATA          ?XD?MAINPRO?76
00FF8FH   00FF8FH   000001H   BYTE   OFFS..   XDATA          ?XD?MAINPRO?83
00FF90H   00FF90H   000001H   BYTE   OFFS..   XDATA          ?XD?MAINPRO?59
00FF91H   00FF91H   000001H   BYTE   OFFS..   XDATA          ?XD?MAINPRO?35
00FF92H   00FF92H   000001H   BYTE   OFFS..   XDATA          ?XD?MAINPRO?8
00FF93H   00FF93H   000001H   BYTE   OFFS..   XDATA          ?XD?MAINPRO?1
00FF94H   00FF94H   000001H   BYTE   OFFS..   XDATA          ?XD?MAINPRO?11
00FF95H   00FF95H   000001H   BYTE   OFFS..   XDATA          ?XD?MAINPRO?3
00FF96H   00FF96H   000001H   BYTE   OFFS..   XDATA          ?XD?MAINPRO?12
00FF97H   00FF97H   000001H   BYTE   OFFS..   XDATA          ?XD?MAINPRO?4
00FF98H   00FF99H   000002H   ---    ---      **GAP**
00FF9AH   00FF9AH   000001H   BYTE   OFFS..   XDATA          ?XD?MAINPRO?53
00FF9BH   00FF9BH   000001H   BYTE   OFFS..   XDATA          ?XD?MAINPRO?68
00FF9CH   00FF9CH   000001H   BYTE   OFFS..   XDATA          ?XD?MAINPRO?72
00FF9DH   00FF9DH   000001H   BYTE   OFFS..   XDATA          ?XD?MAINPRO?75
00FF9EH   00FF9EH   000001H   BYTE   OFFS..   XDATA          ?XD?MAINPRO?78
00FF9FH   00FF9FH   000001H   BYTE   OFFS..   XDATA          ?XD?MAINPRO?82
00FFA0H   00FFA0H   000001H   BYTE   OFFS..   XDATA          ?XD?MAINPRO?37
00FFA1H   00FFA1H   000001H   BYTE   OFFS..   XDATA          ?XD?MAINPRO?62
00FFA2H   00FFA2H   000001H   BYTE   OFFS..   XDATA          ?XD?MAINPRO?69
00FFA3H   00FFA3H   000001H   BYTE   OFFS..   XDATA          ?XD?MAINPRO?20
00FFA4H   00FFA4H   000001H   BYTE   OFFS..   XDATA          ?XD?MAINPRO?65
00FFA5H   00FFA5H   000001H   BYTE   OFFS..   XDATA          ?XD?MAINPRO?85
00FFA6H   00FFA6H   000001H   BYTE   OFFS..   XDATA          ?XD?MAINPRO?34
00FFA7H   00FFA7H   000001H   BYTE   OFFS..   XDATA          ?XD?MAINPRO?88
00FFA8H   00FFA8H   000001H   BYTE   OFFS..   XDATA          ?XD?MAINPRO?10
00FFA9H   00FFA9H   000001H   BYTE   OFFS..   XDATA          ?XD?MAINPRO?13
00FFAAH   00FFAAH   000001H   BYTE   OFFS..   XDATA          ?XD?MAINPRO?52
00FFABH   00FFABH   000001H   BYTE   OFFS..   XDATA          ?XD?MAINPRO?55
00FFACH   00FFACH   000001H   BYTE   OFFS..   XDATA          ?XD?MAINPRO?60
00FFADH   00FFADH   000001H   BYTE   OFFS..   XDATA          ?XD?MAINPRO?7
00FFAEH   00FFAEH   000001H   BYTE   OFFS..   XDATA          ?XD?MAINPRO?58
00FFAFH   00FFAFH   000001H   BYTE   OFFS..   XDATA          ?XD?MAINPRO?63
00FFB0H   00FFB0H   000001H   BYTE   OFFS..   XDATA          ?XD?MAINPRO?57
00FFB1H   00FFB1H   000001H   BYTE   OFFS..   XDATA          ?XD?MAINPRO?61
00FFB2H   00FFB2H   000001H   BYTE   OFFS..   XDATA          ?XD?MAINPRO?9
00FFB3H   00FFB3H   000001H   BYTE   OFFS..   XDATA          ?XD?MAINPRO?54
00FFB4H   00FFB4H   000001H   BYTE   OFFS..   XDATA          ?XD?MAINPRO?15
00FFB5H   00FFB5H   000001H   BYTE   OFFS..   XDATA          ?XD?MAINPRO?71
00FFB6H   00FFB6H   000001H   BYTE   OFFS..   XDATA          ?XD?MAINPRO?95
00FFB7H   00FFB7H   000001H   BYTE   OFFS..   XDATA          ?XD?MAINPRO?96
LX51 LINKER/LOCATER V4.66.41.0                                                        11/18/2021  18:51:21  PAGE 9


00FFB8H   00FFB8H   000001H   BYTE   OFFS..   XDATA          ?XD?MAINPRO?51
00FFB9H   00FFB9H   000001H   BYTE   OFFS..   XDATA          ?XD?MAINPRO?47
00FFBAH   00FFBAH   000001H   BYTE   OFFS..   XDATA          ?XD?MAINPRO?64
00FFBBH   00FFBFH   000005H   ---    ---      **GAP**
00FFC0H   00FFC0H   000001H   BYTE   OFFS..   XDATA          ?XD?MAINPRO?50
00FFC1H   00FFC1H   000001H   BYTE   OFFS..   XDATA          ?XD?MAINPRO?6
00FFC2H   00FFC2H   000001H   BYTE   OFFS..   XDATA          ?XD?MAINPRO?56
00FFC3H   00FFC3H   000001H   BYTE   OFFS..   XDATA          ?XD?MAINPRO?26
00FFC4H   00FFC4H   000001H   BYTE   OFFS..   XDATA          ?XD?MAINPRO?29
00FFC5H   00FFC5H   000001H   BYTE   OFFS..   XDATA          ?XD?MAINPRO?87
00FFC6H   00FFC6H   000001H   BYTE   OFFS..   XDATA          ?XD?MAINPRO?67
00FFC7H   00FFC7H   000001H   BYTE   OFFS..   XDATA          ?XD?MAINPRO?74
00FFC8H   00FFC8H   000001H   BYTE   OFFS..   XDATA          ?XD?MAINPRO?2
00FFC9H   00FFC9H   000001H   BYTE   OFFS..   XDATA          ?XD?MAINPRO?5
00FFCAH   00FFCAH   000001H   BYTE   OFFS..   XDATA          ?XD?MAINPRO?46
00FFCBH   00FFCBH   000001H   BYTE   OFFS..   XDATA          ?XD?MAINPRO?14
00FFCCH   00FFCCH   000001H   BYTE   OFFS..   XDATA          ?XD?MAINPRO?0
00FFCDH   00FFCDH   000001H   BYTE   OFFS..   XDATA          ?XD?MAINPRO?66
00FFCEH   00FFCFH   000002H   ---    ---      **GAP**
00FFD0H   00FFD0H   000001H   BYTE   OFFS..   XDATA          ?XD?MAINPRO?79
00FFD1H   00FFD1H   000001H   BYTE   OFFS..   XDATA          ?XD?MAINPRO?70
00FFD2H   00FFD2H   000001H   BYTE   OFFS..   XDATA          ?XD?MAINPRO?30
00FFD3H   00FFD3H   000001H   BYTE   OFFS..   XDATA          ?XD?MAINPRO?28
00FFD4H   00FFD4H   000001H   BYTE   OFFS..   XDATA          ?XD?MAINPRO?44
00FFD5H   00FFD5H   000001H   BYTE   OFFS..   XDATA          ?XD?MAINPRO?49
00FFD6H   00FFDFH   00000AH   ---    ---      **GAP**
00FFE0H   00FFE0H   000001H   BYTE   OFFS..   XDATA          ?XD?MAINPRO?16
00FFE1H   00FFE1H   000001H   BYTE   OFFS..   XDATA          ?XD?MAINPRO?17
00FFE2H   00FFE2H   000001H   BYTE   OFFS..   XDATA          ?XD?MAINPRO?18
00FFE3H   00FFE3H   000001H   BYTE   OFFS..   XDATA          ?XD?MAINPRO?19
00FFE4H   00FFE4H   000001H   BYTE   OFFS..   XDATA          ?XD?MAINPRO?21
00FFE5H   00FFE5H   000001H   BYTE   OFFS..   XDATA          ?XD?MAINPRO?22
00FFE6H   00FFE6H   000001H   BYTE   OFFS..   XDATA          ?XD?MAINPRO?23
00FFE7H   00FFE7H   000001H   BYTE   OFFS..   XDATA          ?XD?MAINPRO?24
00FFE8H   00FFE8H   000001H   BYTE   OFFS..   XDATA          ?XD?MAINPRO?25
00FFE9H   00FFE9H   000001H   BYTE   OFFS..   XDATA          ?XD?MAINPRO?27
00FFEAH   00FFEFH   000006H   ---    ---      **GAP**
00FFF0H   00FFF0H   000001H   BYTE   OFFS..   XDATA          ?XD?MAINPRO?77
00FFF1H   00FFF1H   000001H   BYTE   OFFS..   XDATA          ?XD?MAINPRO?81
00FFF2H   00FFF2H   000001H   BYTE   OFFS..   XDATA          ?XD?MAINPRO?84
00FFF3H   00FFF3H   000001H   BYTE   OFFS..   XDATA          ?XD?MAINPRO?86
00FFF4H   00FFF4H   000001H   BYTE   OFFS..   XDATA          ?XD?MAINPRO?89
00FFF5H   00FFF5H   000001H   BYTE   OFFS..   XDATA          ?XD?MAINPRO?90
00FFF6H   00FFF6H   000001H   BYTE   OFFS..   XDATA          ?XD?MAINPRO?91
00FFF7H   00FFF7H   000001H   BYTE   OFFS..   XDATA          ?XD?MAINPRO?92
00FFF8H   00FFF8H   000001H   BYTE   OFFS..   XDATA          ?XD?MAINPRO?93
00FFF9H   00FFF9H   000001H   BYTE   OFFS..   XDATA          ?XD?MAINPRO?94
00FFFAH   00FFFAH   000001H   BYTE   OFFS..   XDATA          ?XD?MAINPRO?73
00FFFBH   00FFFBH   000001H   BYTE   OFFS..   XDATA          ?XD?MAINPRO?80



OVERLAY MAP OF MODULE:   DDSYU666-2019 (APPCOMM)


FUNCTION/MODULE                               XDATA_GROUP
--> CALLED FUNCTION/MODULE                    START  STOP
=========================================================
INTER_INT4/INTERRUPT                          ----- -----

*** NEW ROOT ********************************

INTER_TIMER1/INTERRUPT                        ----- -----

*** NEW ROOT ********************************
LX51 LINKER/LOCATER V4.66.41.0                                                        11/18/2021  18:51:21  PAGE 10



INTER_TIMER0/INTERRUPT                        05EFH 05F0H

*** NEW ROOT ********************************

INTER_EUART0/INTERRUPT                        05F1H 05F2H
  +--> LIBPUB_GETTIMERBEATINT0/LIBPUBLIC
  +--> _APIDLT645_UARTRECEIVEDATAJUDGE0/APPDLT645

LIBPUB_GETTIMERBEATINT0/LIBPUBLIC             05F5H 05FCH

_APIDLT645_UARTRECEIVEDATAJUDGE0/APPDLT6+     05F3H 05F4H
... 45
  +--> LIBPUB_GETTIMERBEATINT0/LIBPUBLIC

*** NEW ROOT ********************************

INTER_EUART1/INTERRUPT                        05FDH 05FEH
  +--> LIBPUB_GETTIMERBEATINT1/LIBPUBLIC
  +--> _APIDLT645_UARTRECEIVEDATAJUDGE1/APPDLT645

LIBPUB_GETTIMERBEATINT1/LIBPUBLIC             0601H 0608H

_APIDLT645_UARTRECEIVEDATAJUDGE1/APPDLT6+     05FFH 0600H
... 45
  +--> LIBPUB_GETTIMERBEATINT1/LIBPUBLIC
  +--> _LIBPUB_0XFFCHECKINT/LIBPUBLIC

_LIBPUB_0XFFCHECKINT/LIBPUBLIC                0601H 0603H

*** NEW ROOT ********************************

INTER_TIMER2/INTERRUPT                        ----- -----

*** NEW ROOT ********************************

INTER_ADC_TPS/INTERRUPT                       ----- -----

*** NEW ROOT ********************************

INTER_EMU/INTERRUPT                           ----- -----

*** NEW ROOT ********************************

INTER_RTC/INTERRUPT                           ----- -----

*** NEW ROOT ********************************

INTER_LPD/INTERRUPT                           ----- -----

*** NEW ROOT ********************************

INTER_EUART3/INTERRUPT                        ----- -----

*** NEW ROOT ********************************

?C_C51STARTUP                                 ----- -----
  +--> MAIN/MAINPRO
  +--> ?C_INITSEG

MAIN/MAINPRO                                  ----- -----
  +--> APIPWON_SYSTEMINIT/APPPOWERON
  +--> APIPWON_MCURESET/APPPOWERON
  +--> LIBPUB_GETTIMERBEAT/LIBPUBLIC
  +--> APIMS_MEASURETASK/APPMEASURE
LX51 LINKER/LOCATER V4.66.41.0                                                        11/18/2021  18:51:21  PAGE 11


  +--> APICOMM_COMMTASK/APPCOMM
  +--> APIPWOFF_POWEROFFTASK/APPPOWEROFF
  +--> APIDISP_DISPLAYTASK/APPDISPLAY
  +--> APIMNTR_MONITORTASK/APPMONITOR

APIPWON_SYSTEMINIT/APPPOWERON                 ----- -----
  +--> APIPWON_MCULPDINIT/APPPOWERON
  +--> APIPWON_SYSCLKINIT/APPPOWERON
  +--> APIPWON_MCUGPIOINIT/APPPOWERON
  +--> APIPWON_MCURAMINIT/APPPOWERON
  +--> APIPWON_MCUDISPINIT/APPPOWERON
  +--> APIPWON_MCUTIMERINIT/APPPOWERON
  +--> APIPWON_MCUINTERRUPTINIT/APPPOWERON
  +--> APIPWON_MCUUARTINIT/APPPOWERON
  +--> APIPWON_EMUINIT/APPPOWERON

APIPWON_MCULPDINIT/APPPOWERON                 ----- -----
  +--> APIPWON_POWERCHK/APPPOWERON
  +--> APIPWON_MCURESET/APPPOWERON

APIPWON_POWERCHK/APPPOWERON                   ----- -----

APIPWON_MCURESET/APPPOWERON                   ----- -----

APIPWON_SYSCLKINIT/APPPOWERON                 ----- -----

APIPWON_MCUGPIOINIT/APPPOWERON                ----- -----

APIPWON_MCURAMINIT/APPPOWERON                 ----- -----
  +--> _LIBPUB_MEMSETBYTES/LIBPUBLIC
  +--> APIPWON_ENERGYCHECK/APPPOWERON
  +--> APIPWON_REMAINMONEYCHECK/APPPOWERON
  +--> APIPWON_EMUPARACHECK/APPPOWERON
  +--> APIPWON_DISPLAYPARACHECK/APPPOWERON
  +--> APIPWON_METERINFOPARACHECK/APPPOWERON
  +--> APIPWON_MONEYPARACHECK/APPPOWERON
  +--> APIMONEY_REFRESHPRICE/APPMONEY
  +--> APIPWON_FUNCONFIGPARACHECK/APPPOWERON
  +--> APIPWON_KEYSTATUSCHECK/APPPOWERON
  +--> APIPWON_EVENTPOINTCHECK/APPPOWERON
  +--> _LIBPUB_READDATAFROME2PROM/LIBPUBLIC
  +--> APIRELAY_SUBTRACTMONEYRELAYJUDGE/APPRELAYCONTROL

_LIBPUB_MEMSETBYTES/LIBPUBLIC                 098BH 0990H

APIPWON_ENERGYCHECK/APPPOWERON                060AH 060DH
  +--> APIPWON_ENERGYZSCHECK/APPPOWERON
  +--> _APIPWON_DLXS_READ/APPPOWERON
  +--> _LIBPUB_1HEX_2_1BCD/LIBPUBLIC
  +--> _LIBPUB_CRC16_CCITT/LIBPUBLIC
  +--> _LIBPUB_READDATAFROME2PROM/LIBPUBLIC

APIPWON_ENERGYZSCHECK/APPPOWERON              060FH 060FH
  +--> _LIBPUB_CRCCHECK/LIBPUBLIC
  +--> _LIBPUB_READDATAFROME2PROM/LIBPUBLIC

_LIBPUB_CRCCHECK/LIBPUBLIC                    0986H 098BH
  +--> _LIBPUB_ZEROCHECK/LIBPUBLIC
  +--> _LIBPUB_CRC16_CCITT/LIBPUBLIC

_LIBPUB_ZEROCHECK/LIBPUBLIC                   098CH 098EH

_LIBPUB_CRC16_CCITT/LIBPUBLIC                 09D1H 09D7H
  +--> ?CO?LIBPUBLIC

LX51 LINKER/LOCATER V4.66.41.0                                                        11/18/2021  18:51:21  PAGE 12


?CO?LIBPUBLIC                                 ----- -----

_LIBPUB_READDATAFROME2PROM/LIBPUBLIC          0986H 09D0H
  +--> _DRVE2P_READDATA/IICDRV
  +--> _LIBPUB_CRC16_CCITT/LIBPUBLIC
  +--> _LIBPUB_MEMCOPYBYTES/LIBPUBLIC

_DRVE2P_READDATA/IICDRV                       ----- -----
  +--> DRVE2P_I2CSTART/IICDRV
  +--> _DRVE2P_WRITEONEBYTE/IICDRV
  +--> DRVE2P_I2CSTOP/IICDRV
  +--> DRVE2P_READONEBYTEACK/IICDRV
  +--> DRVE2P_READONEBYTENOACK/IICDRV

DRVE2P_I2CSTART/IICDRV                        ----- -----
  +--> DRVI2C_INIT/IICDRV
  +--> DRVE2P_I2CDELAY_5US/IICDRV

DRVI2C_INIT/IICDRV                            ----- -----

DRVE2P_I2CDELAY_5US/IICDRV                    ----- -----

_DRVE2P_WRITEONEBYTE/IICDRV                   ----- -----
  +--> DRVE2P_I2CDELAY_3US/IICDRV
  +--> DRVE2P_I2CDELAY_2US/IICDRV

DRVE2P_I2CDELAY_3US/IICDRV                    ----- -----

DRVE2P_I2CDELAY_2US/IICDRV                    ----- -----

DRVE2P_I2CSTOP/IICDRV                         ----- -----
  +--> DRVE2P_I2CDELAY_5US/IICDRV

DRVE2P_READONEBYTEACK/IICDRV                  ----- -----
  +--> DRVE2P_I2CDELAY_3US/IICDRV
  +--> DRVE2P_I2CDELAY_5US/IICDRV

DRVE2P_READONEBYTENOACK/IICDRV                ----- -----
  +--> DRVE2P_I2CDELAY_3US/IICDRV
  +--> DRVE2P_I2CDELAY_5US/IICDRV

_LIBPUB_MEMCOPYBYTES/LIBPUBLIC                09D1H 09D7H

_APIPWON_DLXS_READ/APPPOWERON                 061AH 062BH
  +--> _LIBPUB_MEMSETBYTES/LIBPUBLIC
  +--> _DRVE2P_READDATA/IICDRV

_LIBPUB_1HEX_2_1BCD/LIBPUBLIC                 ----- -----

APIPWON_REMAINMONEYCHECK/APPPOWERON           060AH 065DH
  +--> _DRVE2P_READDATA/IICDRV
  +--> _LIBPUB_CRC16_CCITT/LIBPUBLIC
  +--> _LIBPUB_MEMCOPYBYTES/LIBPUBLIC
  +--> _LIBPUB_COMPARENBUFS/LIBPUBLIC
  +--> _LIBPUB_ZEROCHECK/LIBPUBLIC
  +--> _LIBPUB_MEMSETBYTES/LIBPUBLIC
  +--> _LIBPUB_WRITEDATATOE2PROM/LIBPUBLIC

_LIBPUB_COMPARENBUFS/LIBPUBLIC                065EH 0668H
  +--> _LIBPUB_MEMCOPYBYTES/LIBPUBLIC
  +--> _LIBPUB_COMPAREDATA/LIBPUBLIC

_LIBPUB_COMPAREDATA/LIBPUBLIC                 0986H 098EH

_LIBPUB_WRITEDATATOE2PROM/LIBPUBLIC           098BH 0994H
LX51 LINKER/LOCATER V4.66.41.0                                                        11/18/2021  18:51:21  PAGE 13


  +--> _LIBPUB_CRC16_CCITT/LIBPUBLIC
  +--> _DRVE2P_WRITEDATA/IICDRV

_DRVE2P_WRITEDATA/IICDRV                      ----- -----
  +--> _DRVE2P_WRDATATEMP/IICDRV

_DRVE2P_WRDATATEMP/IICDRV                     ----- -----
  +--> DRVE2P_I2CSTART/IICDRV
  +--> _DRVE2P_WRITEONEBYTE/IICDRV
  +--> DRVE2P_I2CSTOP/IICDRV
  +--> DRVE2P_CHKBUSBUSY/IICDRV

DRVE2P_CHKBUSBUSY/IICDRV                      ----- -----
  +--> DRVE2P_I2CSTART/IICDRV
  +--> _DRVE2P_WRITEONEBYTE/IICDRV
  +--> DRVE2P_I2CSTOP/IICDRV

APIPWON_EMUPARACHECK/APPPOWERON               ----- -----
  +--> APIMS_METERICPARACHECK/APPMEASURE

APIMS_METERICPARACHECK/APPMEASURE             ----- -----
  +--> APIEMU_EMUPARACHECK/APPEMU7021A

APIEMU_EMUPARACHECK/APPEMU7021A               060AH 0611H
  +--> ?CO?APPEMU7021A
  +--> _APIEMU_READEMUREG/APPEMU7021A
  +--> APIEMU_CHECKCALPARACRC/APPEMU7021A
  +--> APIEMU_EMUINIT/APPEMU7021A
  +--> APIEMU_CHECKKMSPARACRC/APPEMU7021A

?CO?APPEMU7021A                               ----- -----

_APIEMU_READEMUREG/APPEMU7021A                ----- -----
  +--> _APIEMU_READ_ECADR/APPEMU7021A

_APIEMU_READ_ECADR/APPEMU7021A                0644H 0647H
  +--> _LIBPUB_DELAY10XUS/LIBPUBLIC

_LIBPUB_DELAY10XUS/LIBPUBLIC                  ----- -----
  +--> LIBPUB_DELAY10US/LIBPUBLIC

LIBPUB_DELAY10US/LIBPUBLIC                    ----- -----
  +--> LIBPUB_DELAY2US/LIBPUBLIC
  +--> LIBPUB_DELAY5US/LIBPUBLIC

LIBPUB_DELAY2US/LIBPUBLIC                     ----- -----

LIBPUB_DELAY5US/LIBPUBLIC                     ----- -----

APIEMU_CHECKCALPARACRC/APPEMU7021A            ----- -----
  +--> _LIBPUB_CRCCHECK/LIBPUBLIC
  +--> _LIBPUB_READDATAFROME2PROM/LIBPUBLIC

APIEMU_EMUINIT/APPEMU7021A                    0612H 0612H
  +--> _APIEMU_DISORENABLE/APPEMU7021A
  +--> _APIEMU_WRITE_ECADR/APPEMU7021A
  +--> _LIBPUB_DELAYNMS/LIBPUBLIC
  +--> ?CO?APPEMU7021A
  +--> _LIBPUB_READDATAFROME2PROM/LIBPUBLIC

_APIEMU_DISORENABLE/APPEMU7021A               ----- -----

_APIEMU_WRITE_ECADR/APPEMU7021A               064CH 0654H
  +--> _LIBPUB_DELAY10XUS/LIBPUBLIC

LX51 LINKER/LOCATER V4.66.41.0                                                        11/18/2021  18:51:21  PAGE 14


_LIBPUB_DELAYNMS/LIBPUBLIC                    0670H 0675H
  +--> LIBPUB_DELAY10US/LIBPUBLIC

APIEMU_CHECKKMSPARACRC/APPEMU7021A            ----- -----
  +--> _LIBPUB_CRCCHECK/LIBPUBLIC
  +--> _LIBPUB_READDATAFROME2PROM/LIBPUBLIC

APIPWON_DISPLAYPARACHECK/APPPOWERON           060AH 0610H
  +--> ?CO?APPPOWERON
  +--> _LIBPUB_CRCCHECK/LIBPUBLIC
  +--> _LIBPUB_READDATAFROME2PROM/LIBPUBLIC
  +--> _LIBPUB_MEMCOPYBYTES/LIBPUBLIC

?CO?APPPOWERON                                ----- -----

APIPWON_METERINFOPARACHECK/APPPOWERON         ----- -----
  +--> _LIBPUB_CRCCHECK/LIBPUBLIC
  +--> _LIBPUB_READDATAFROME2PROM/LIBPUBLIC
  +--> _LIBPUB_MEMSETBYTES/LIBPUBLIC
  +--> _LIBPUB_WRITEDATATOE2PROM/LIBPUBLIC

APIPWON_MONEYPARACHECK/APPPOWERON             ----- -----
  +--> _LIBPUB_CRCCHECK/LIBPUBLIC
  +--> _LIBPUB_READDATAFROME2PROM/LIBPUBLIC
  +--> _LIBPUB_MEMSETBYTES/LIBPUBLIC

APIMONEY_REFRESHPRICE/APPMONEY                ----- -----
  +--> _LIBPUB_CRCCHECK/LIBPUBLIC
  +--> _LIBPUB_READDATAFROME2PROM/LIBPUBLIC
  +--> _LIBPUB_MEMSETBYTES/LIBPUBLIC
  +--> _LIBPUB_WRITEDATATOE2PROM/LIBPUBLIC

APIPWON_FUNCONFIGPARACHECK/APPPOWERON         ----- -----
  +--> _LIBPUB_CRCCHECK/LIBPUBLIC
  +--> _LIBPUB_READDATAFROME2PROM/LIBPUBLIC
  +--> _LIBPUB_1HEX_2_1BCD/LIBPUBLIC

APIPWON_KEYSTATUSCHECK/APPPOWERON             ----- -----
  +--> _LIBPUB_CRCCHECK/LIBPUBLIC
  +--> _LIBPUB_READDATAFROME2PROM/LIBPUBLIC

APIPWON_EVENTPOINTCHECK/APPPOWERON            ----- -----
  +--> _LIBPUB_CRCCHECK/LIBPUBLIC
  +--> _LIBPUB_READDATAFROME2PROM/LIBPUBLIC
  +--> _LIBPUB_MEMSETBYTES/LIBPUBLIC

APIRELAY_SUBTRACTMONEYRELAYJUDGE/APPRELA+     0766H 0788H
... YCONTROL
  +--> _LIBPUB_READDATAFROME2PROM/LIBPUBLIC
  +--> _LIBPUB_BUFFER4TOULONG32/LIBPUBLIC
  +--> _LIBPUB_WRITEDATATOE2PROM/LIBPUBLIC

_LIBPUB_BUFFER4TOULONG32/LIBPUBLIC            0898H 089FH

APIPWON_MCUDISPINIT/APPPOWERON                ----- -----
  +--> _LCDDRV_INIT/LCDDRV

_LCDDRV_INIT/LCDDRV                           ----- -----
  +--> LCDDRV_PWONREGCFG/LCDDRV
  +--> LCDDRV_SGECOMCONFIG/LCDDRV
  +--> _LCDDRV_SETLCDBUFF/LCDDRV

LCDDRV_PWONREGCFG/LCDDRV                      ----- -----

LCDDRV_SGECOMCONFIG/LCDDRV                    ----- -----
LX51 LINKER/LOCATER V4.66.41.0                                                        11/18/2021  18:51:21  PAGE 15



_LCDDRV_SETLCDBUFF/LCDDRV                     ----- -----
  +--> LCDDRV_DISPRAMUPDATA/LCDDRV

LCDDRV_DISPRAMUPDATA/LCDDRV                   ----- -----

APIPWON_MCUTIMERINIT/APPPOWERON               ----- -----

APIPWON_MCUINTERRUPTINIT/APPPOWERON           ----- -----

APIPWON_MCUUARTINIT/APPPOWERON                ----- -----
  +--> _APIPWON_MCUUARTXINIT/APPPOWERON

_APIPWON_MCUUARTXINIT/APPPOWERON              0610H 0610H
  +--> _APIPWON_MCUUARTXSETBPS/APPPOWERON
  +--> _APICOMM_COMMPARAINIT/APPCOMM

_APIPWON_MCUUARTXSETBPS/APPPOWERON            ----- -----

_APICOMM_COMMPARAINIT/APPCOMM                 ----- -----
  +--> LIBPUB_GETTIMERBEAT/LIBPUBLIC

LIBPUB_GETTIMERBEAT/LIBPUBLIC                 067EH 0685H

APIPWON_EMUINIT/APPPOWERON                    ----- -----
  +--> APIMS_INITMETERICPARA/APPMEASURE

APIMS_INITMETERICPARA/APPMEASURE              ----- -----
  +--> APIEMU_EMUINIT/APPEMU7021A

APIMS_MEASURETASK/APPMEASURE                  ----- -----
  +--> APIMS_ENERGYPULSEUPDATE/APPMEASURE
  +--> APIMS_UPDATEUIP/APPMEASURE

APIMS_ENERGYPULSEUPDATE/APPMEASURE            0609H 060EH
  +--> APIMS_GETPOWERDIR/APPMEASURE
  +--> APIPWON_ENERGYZSCHECK/APPPOWERON
  +--> _APIMS_ENERGYPROCESS/APPMEASURE

APIMS_GETPOWERDIR/APPMEASURE                  ----- -----
  +--> APIEMU_GETDIRP/APPEMU7021A

APIEMU_GETDIRP/APPEMU7021A                    ----- -----
  +--> _APIEMU_READEMUREG/APPEMU7021A

_APIMS_ENERGYPROCESS/APPMEASURE               060FH 0619H
  +--> _LIBPUB_1HEX_2_1BCD/LIBPUBLIC
  +--> _APIPWON_DLXS_READ/APPPOWERON
  +--> _LIBPUB_WRITEDATATOE2PROM/LIBPUBLIC
  +--> APIMONEY_REMAINMONEYPROCESS/APPMONEY
  +--> _LIBPUB_NBTYESBCDADD/LIBPUBLIC
  +--> _LIBPUB_CRC16_CCITT/LIBPUBLIC
  +--> APIRELAY_SUBTRACTMONEYRELAYJUDGE/APPRELAYCONTROL
  +--> APIRELAY_CONTROLPROCESS/APPRELAYCONTROL

APIMONEY_REMAINMONEYPROCESS/APPMONEY          061AH 062BH
  +--> APIPWON_MONEYPARACHECK/APPPOWERON
  +--> _LIBPUB_MEMCOPYBYTES/LIBPUBLIC
  +--> APIMONEY_REFRESHPRICE/APPMONEY
  +--> _LIBPUB_COMPAREDATA/LIBPUBLIC
  +--> _LIBPUB_NBYTESBCDSUB/LIBPUBLIC
  +--> _LIBPUB_MEMSETBYTES/LIBPUBLIC
  +--> _LIBPUB_NBTYESBCDADD/LIBPUBLIC
  +--> _LIBPUB_CRC16_CCITT/LIBPUBLIC
  +--> _LIBPUB_WRITEDATATOE2PROM/LIBPUBLIC
LX51 LINKER/LOCATER V4.66.41.0                                                        11/18/2021  18:51:21  PAGE 16



_LIBPUB_NBYTESBCDSUB/LIBPUBLIC                0781H 0789H

_LIBPUB_NBTYESBCDADD/LIBPUBLIC                098BH 0993H
  +--> _LIBPUB_1BTYEBCDADD/LIBPUBLIC

_LIBPUB_1BTYEBCDADD/LIBPUBLIC                 ----- -----
  +--> _LIBPUB_1BCD_2_1HEX/LIBPUBLIC
  +--> _LIBPUB_1HEX_2_1BCD/LIBPUBLIC

_LIBPUB_1BCD_2_1HEX/LIBPUBLIC                 ----- -----

APIRELAY_CONTROLPROCESS/APPRELAYCONTROL       ----- -----
  +--> RELAYDRV_OPENRELAY/RELAYDRV
  +--> _LIBPUB_MEMSETBYTES/LIBPUBLIC
  +--> _APIEVENT_WRITERECORD/APPEVENT
  +--> RELAYDRV_CLOSERELAY/RELAYDRV
  +--> _LIBPUB_WRITEDATATOE2PROM/LIBPUBLIC

RELAYDRV_OPENRELAY/RELAYDRV                   ----- -----

_APIEVENT_WRITERECORD/APPEVENT                0781H 0985H
  +--> APIPWON_EVENTPOINTCHECK/APPPOWERON
  +--> ?CO?APPEVENT
  +--> _HAL_READEEPROM/INTERNALE2DRV
  +--> _LIBPUB_MEMCOPYBYTES/LIBPUBLIC
  +--> _LIBPUB_COMPAREDATA/LIBPUBLIC
  +--> _LIBPUB_MEMSETBYTES/LIBPUBLIC
  +--> _APIEVENT_RECTOTALNUM_ADD/APPEVENT
  +--> _LIBPUB_CRC16_CCITT/LIBPUBLIC
  +--> _LIBPUB_WRITEDATATOE2PROM/LIBPUBLIC
  +--> _LIBPUB_MEMEXCHANGEBYTES/LIBPUBLIC
  +--> _HAL_ERASEFLASHSECTOR/INTERNALE2DRV
  +--> _HAL_WRITEEEPROM/INTERNALE2DRV

?CO?APPEVENT                                  ----- -----

_HAL_READEEPROM/INTERNALE2DRV                 0986H 098CH
  +--> _HAL_READFLASH_BYTE/INTERNALE2DRV

_HAL_READFLASH_BYTE/INTERNALE2DRV             ----- -----

_APIEVENT_RECTOTALNUM_ADD/APPEVENT            0986H 098AH
  +--> _LIBPUB_MEMSETBYTES/LIBPUBLIC
  +--> _LIBPUB_NBTYESBCDADD/LIBPUBLIC
  +--> _LIBPUB_WRITEDATATOE2PROM/LIBPUBLIC
  +--> _LIBPUB_CRC16_CCITT/LIBPUBLIC

_LIBPUB_MEMEXCHANGEBYTES/LIBPUBLIC            0986H 098DH

_HAL_ERASEFLASHSECTOR/INTERNALE2DRV           ----- -----

_HAL_WRITEEEPROM/INTERNALE2DRV                0986H 098CH
  +--> _HAL_WRITEFLASH_BYTE/INTERNALE2DRV

_HAL_WRITEFLASH_BYTE/INTERNALE2DRV            ----- -----

RELAYDRV_CLOSERELAY/RELAYDRV                  ----- -----

APIMS_UPDATEUIP/APPMEASURE                    ----- -----
  +--> LIBPUB_GETTIMERBEAT/LIBPUBLIC
  +--> _LIBPUB_GETDIFFTIME/LIBPUBLIC
  +--> APIEMU_UPDATEUIP/APPEMU7021A

_LIBPUB_GETDIFFTIME/LIBPUBLIC                 0610H 061BH
LX51 LINKER/LOCATER V4.66.41.0                                                        11/18/2021  18:51:21  PAGE 17



APIEMU_UPDATEUIP/APPEMU7021A                  0609H 0625H
  +--> APIEMU_CHECKKMSPARACRC/APPEMU7021A
  +--> ?CO?APPEMU7021A
  +--> _APIEMU_READEMUREG/APPEMU7021A
  +--> _LIBPUB_HEXTOBCDBYTES/LIBPUBLIC
  +--> _LIBPUB_MEMCOPYBYTES/LIBPUBLIC
  +--> SQRT/SQRT
  +--> APIEMU_GETDIRP/APPEMU7021A
  +--> _LIBPUB_MEMSETBYTES/LIBPUBLIC

_LIBPUB_HEXTOBCDBYTES/LIBPUBLIC               0781H 078DH

SQRT/SQRT                                     0626H 0629H

APICOMM_COMMTASK/APPCOMM                      0609H 0609H
  +--> _APICOMM_CHANNELPROCESS/APPCOMM
  +--> _APICOMM_PROTOCOLPROCESS/APPCOMM

_APICOMM_CHANNELPROCESS/APPCOMM               060AH 060FH
  +--> LIBPUB_GETTIMERBEAT/LIBPUBLIC
  +--> _LIBPUB_GETDIFFTIME/LIBPUBLIC
  +--> _APICOMM_PROTOCOLPROCESS/APPCOMM
  +--> _APIPWON_UART_SENDEN/APPPOWERON
  +--> _APIPWON_MCUUARTXINIT/APPPOWERON

_APICOMM_PROTOCOLPROCESS/APPCOMM              ----- -----
  +--> _APIDLT645_FRAMEANALYSIS/APPDLT645

_APIDLT645_FRAMEANALYSIS/APPDLT645            0610H 0626H
  +--> ?CO?APPDLT645
  +--> _LIBPUB_MEMCOPYBYTES/LIBPUBLIC
  +--> _APIDLT645_ADDRTYPECHECK/APPDLT645
  +--> _LIBPUB_CALSUM/LIBPUBLIC
  +--> _APIDLT645_SAFECERTIFICATION/APPDLT645
  +--> _APIDLT645_READMETERADDRESS/APPDLT645
  +--> _APIDLT645_WRITEMETERADDRESS/APPDLT645
  +--> _APIDLT645_READEMUREG/APPDLT645
  +--> _APIDLT645_WRITEEMUREG/APPDLT645
  +--> _APIDLT645_RELAYCONTROL/APPDLT645
  +--> _APIDLT645_FACTORYCOMMAND/APPDLT645
  +--> _APIDLT645_READDATA07/APPDLT645
  +--> _APIDLT645_WRITEDATA/APPDLT645
  +--> _APIDLT645_METERCLEAR/APPDLT645
  +--> _APIDLT645_MODIFYPSW/APPDLT645
  +--> _APIDLT645_ACCOUNTTX/APPDLT645
  +--> LIBPUB_GETTIMERBEAT/LIBPUBLIC
  +--> _APIEVENT_WRITERECORD/APPEVENT
  +--> _LIBPUB_MEMSETBYTES/LIBPUBLIC
  +--> _LIBPUB_MEMEXCHANGEBYTES/LIBPUBLIC

?CO?APPDLT645                                 ----- -----

_APIDLT645_ADDRTYPECHECK/APPDLT645            ----- -----

_LIBPUB_CALSUM/LIBPUBLIC                      0778H 077AH

_APIDLT645_SAFECERTIFICATION/APPDLT645        0627H 0632H
  +--> _LIBPUB_MEMCOPYBYTES/LIBPUBLIC
  +--> ?CO?APPDLT645
  +--> _PREPAYMENTMODULE_COMM_INTAUTH/APPVIRTUALESAM
  +--> _PREPAYMENTMODULE_COMM_TIMEAVAILABLEIN/APPVIRTUALESAM
  +--> _PREPAYMENTMODULE_COMM_OPENACCOUT/APPVIRTUALESAM
  +--> _PREPAYMENTMODULE_COMM_MODIFYKEY/APPVIRTUALESAM
  +--> _PREPAYMENTMODULE_COMM_INTAUTH_INVALIDATION/APPVIRTUALESAM
LX51 LINKER/LOCATER V4.66.41.0                                                        11/18/2021  18:51:21  PAGE 18



_PREPAYMENTMODULE_COMM_INTAUTH/APPVIRTUA+     0656H 066CH
... LESAM
  +--> _LIBPUB_INVERSE/LIBPUBLIC
  +--> _LIBPUB_COMPAREDATA/LIBPUBLIC
  +--> _LIBPUB_MEMCOPYBYTES/LIBPUBLIC
  +--> _PREPAYMENTMODULE_GETWORKKEY/APPVIRTUALESAM
  +--> _TRIPLEDES_DEORENCRYPTION/TRIPLEDES
  +--> _PREPAYMENTMODULE_GETCHALLENGE/APPVIRTUALESAM
  +--> _LIBPUB_MEMSETBYTES/LIBPUBLIC
  +--> _LIBPUB_MEMEXCHANGEBYTES/LIBPUBLIC
  +--> _LIBPUB_READDATAFROME2PROM/LIBPUBLIC
  +--> _LIBPUB_1BCD_2_1HEX/LIBPUBLIC

_LIBPUB_INVERSE/LIBPUBLIC                     0721H 0726H

_PREPAYMENTMODULE_GETWORKKEY/APPVIRTUALE+     0679H 0679H
... SAM
  +--> _LIBPUB_MEMCOPYBYTES/LIBPUBLIC
  +--> _TRIPLEDES_DEORENCRYPTION/TRIPLEDES

_TRIPLEDES_DEORENCRYPTION/TRIPLEDES           077AH 0780H
  +--> _LIBPUB_READDATAFROME2PROM/LIBPUBLIC
  +--> _DES_DEORENCRYPTION/TRIPLEDES

_DES_DEORENCRYPTION/TRIPLEDES                 0781H 0799H
  +--> _LIBPUB_MEMCOPYBYTES/LIBPUBLIC
  +--> _DES_IP/TRIPLEDES
  +--> _DES_PC_1/TRIPLEDES
  +--> ?CO?TRIPLEDES
  +--> _DES_CYCLRSHIFTING/TRIPLEDES
  +--> _DES_TRANSPOSITION/TRIPLEDES
  +--> _DES_F/TRIPLEDES
  +--> _DES_IP_1/TRIPLEDES

_DES_IP/TRIPLEDES                             079AH 07A6H
  +--> _DES_REPLACEMENT/TRIPLEDES
  +--> _LIBPUB_MEMCOPYBYTES/LIBPUBLIC

_DES_REPLACEMENT/TRIPLEDES                    07A7H 07A7H

_DES_PC_1/TRIPLEDES                           ----- -----
  +--> ?CO?TRIPLEDES
  +--> _DES_TRANSPOSITION/TRIPLEDES

?CO?TRIPLEDES                                 ----- -----

_DES_TRANSPOSITION/TRIPLEDES                  07ADH 07BFH
  +--> _LIBPUB_MEMCOPYBYTES/LIBPUBLIC

_DES_CYCLRSHIFTING/TRIPLEDES                  079AH 07A5H
  +--> _LIBPUB_MEMCOPYBYTES/LIBPUBLIC

_DES_F/TRIPLEDES                              079AH 07ACH
  +--> _LIBPUB_MEMCOPYBYTES/LIBPUBLIC
  +--> ?CO?TRIPLEDES
  +--> _DES_TRANSPOSITION/TRIPLEDES

_DES_IP_1/TRIPLEDES                           079AH 07A6H
  +--> _DES_REPLACEMENT/TRIPLEDES

_PREPAYMENTMODULE_GETCHALLENGE/APPVIRTUA+     067EH 0682H
... LESAM
  +--> RAND/RAND

LX51 LINKER/LOCATER V4.66.41.0                                                        11/18/2021  18:51:21  PAGE 19


RAND/RAND                                     ----- -----

_PREPAYMENTMODULE_COMM_TIMEAVAILABLEIN/A+     0633H 0638H
... PPVIRTUALESAM
  +--> _LIBPUB_INVERSE/LIBPUBLIC
  +--> _LIBPUB_ISBCD/LIBPUBLIC
  +--> _PREPAYMENTMODULE_COMMWRITEESAMBINARYMAC/APPVIRTUALESAM
  +--> _LIBPUB_READDATAFROME2PROM/LIBPUBLIC
  +--> _LIBPUB_WRITEDATATOE2PROM/LIBPUBLIC
  +--> _LIBPUB_1BCD_2_1HEX/LIBPUBLIC
  +--> _LIBPUB_BUFFER2TOUSHORT16/LIBPUBLIC
  +--> _LIBPUB_CRC16_CCITT/LIBPUBLIC
  +--> PREPAYMENTMODULE_COMM_CLRMACERRNUM/APPVIRTUALESAM

_LIBPUB_ISBCD/LIBPUBLIC                       0721H 0723H

_PREPAYMENTMODULE_COMMWRITEESAMBINARYMAC+     0766H 076CH
... /APPVIRTUALESAM
  +--> ?CO?APPDLT645
  +--> _LIBPUB_MEMCOPYBYTES/LIBPUBLIC
  +--> _DATA_MAC/TRIPLEDES
  +--> PREPAYMENTMODULE_COMM_MACERRNUM/APPVIRTUALESAM

_DATA_MAC/TRIPLEDES                           076DH 0779H
  +--> _LIBPUB_MEMCOPYBYTES/LIBPUBLIC
  +--> _LIBPUB_READDATAFROME2PROM/LIBPUBLIC
  +--> _LIBPUB_MEMSETBYTES/LIBPUBLIC
  +--> _DES_DEORENCRYPTION/TRIPLEDES
  +--> _TRIPLEDES_DEORENCRYPTION/TRIPLEDES
  +--> _LIBPUB_COMPAREDATA/LIBPUBLIC

PREPAYMENTMODULE_COMM_MACERRNUM/APPVIRTU+     ----- -----
... ALESAM
  +--> PREPAYMENTMODULE_INVALIDATION/APPVIRTUALESAM

PREPAYMENTMODULE_INVALIDATION/APPVIRTUAL+     ----- -----
... ESAM

_LIBPUB_BUFFER2TOUSHORT16/LIBPUBLIC           0639H 063AH

PREPAYMENTMODULE_COMM_CLRMACERRNUM/APPVI+     ----- -----
... RTUALESAM

_PREPAYMENTMODULE_COMM_OPENACCOUT/APPVIR+     0721H 0765H
... TUALESAM
  +--> _LIBPUB_MEMEXCHANGEBYTES/LIBPUBLIC
  +--> _PREPAYMENTMODULE_COMMWRITEESAMBINARYMAC/APPVIRTUALESAM
  +--> _LIBPUB_COMPAREDATA/LIBPUBLIC
  +--> _LIBPUB_CRCCHECK/LIBPUBLIC
  +--> _LIBPUB_READDATAFROME2PROM/LIBPUBLIC
  +--> _LIBPUB_ZEROCHECK/LIBPUBLIC
  +--> APIRELAY_CONTROLPROCESS/APPRELAYCONTROL
  +--> _LIBPUB_WRITEDATATOE2PROM/LIBPUBLIC
  +--> _LIBPUB_DECTOHEXBYTES/LIBPUBLIC
  +--> _LIBPUB_MEMCOPYBYTES/LIBPUBLIC
  +--> _LIBPUB_BUFFER4TOULONG32/LIBPUBLIC
  +--> _LIBPUB_CRC16_CCITT/LIBPUBLIC
  +--> PREPAYMENTMODULE_COMM_CLRMACERRNUM/APPVIRTUALESAM
  +--> APIRELAY_SUBTRACTMONEYRELAYJUDGE/APPRELAYCONTROL
  +--> _MONEY_RECHARGE/APPVIRTUALESAM

_LIBPUB_DECTOHEXBYTES/LIBPUBLIC               0766H 0772H

_MONEY_RECHARGE/APPVIRTUALESAM                0766H 0780H
  +--> _LIBPUB_HEXTOBCDBYTES/LIBPUBLIC
LX51 LINKER/LOCATER V4.66.41.0                                                        11/18/2021  18:51:21  PAGE 20


  +--> _LIBPUB_MEMCOPYBYTES/LIBPUBLIC
  +--> APIPWON_METERCLEAR/APPPOWERON
  +--> _LIBPUB_MEMSETBYTES/LIBPUBLIC
  +--> _LIBPUB_WRITEDATATOE2PROM/LIBPUBLIC
  +--> _LIBPUB_CRC16_CCITT/LIBPUBLIC
  +--> _LIBPUB_READDATAFROME2PROM/LIBPUBLIC
  +--> _LIBPUB_BUFFER4TOULONG32/LIBPUBLIC
  +--> _APIEVENT_WRITERECORD/APPEVENT
  +--> _LIBPUB_NBTYESBCDADD/LIBPUBLIC
  +--> _LIBPUB_ZEROCHECK/LIBPUBLIC
  +--> _LIBPUB_COMPAREDATA/LIBPUBLIC
  +--> _LIBPUB_NBYTESBCDSUB/LIBPUBLIC

APIPWON_METERCLEAR/APPPOWERON                 0781H 0785H
  +--> _LIBPUB_MEMSETBYTES/LIBPUBLIC
  +--> _LIBPUB_WRITEDATATOE2PROM/LIBPUBLIC
  +--> _LIBPUB_CRC16_CCITT/LIBPUBLIC
  +--> _DRVE2P_WRITEDATA/IICDRV

_PREPAYMENTMODULE_COMM_MODIFYKEY/APPVIRT+     0633H 0645H
... UALESAM
  +--> _LIBPUB_INVERSE/LIBPUBLIC
  +--> _LIBPUB_MEMCOPYBYTES/LIBPUBLIC
  +--> _TRIPLEDES_DEORENCRYPTION/TRIPLEDES
  +--> _LIBPUB_COMPAREDATA/LIBPUBLIC
  +--> _PREPAYMENTMODULE_COMMWRITEESAMBINARYMAC/APPVIRTUALESAM
  +--> _LIBPUB_WRITEDATATOE2PROM/LIBPUBLIC
  +--> _LIBPUB_CRC16_CCITT/LIBPUBLIC

_PREPAYMENTMODULE_COMM_INTAUTH_INVALIDAT+     0633H 0635H
... ION/APPVIRTUALESAM
  +--> _LIBPUB_MEMEXCHANGEBYTES/LIBPUBLIC
  +--> PREPAYMENTMODULE_INVALIDATION/APPVIRTUALESAM

_APIDLT645_READMETERADDRESS/APPDLT645         0627H 0627H
  +--> _LIBPUB_MEMEXCHANGEBYTES/LIBPUBLIC

_APIDLT645_WRITEMETERADDRESS/APPDLT645        0627H 0628H
  +--> _LIBPUB_ISBCD/LIBPUBLIC
  +--> _LIBPUB_READDATAFROME2PROM/LIBPUBLIC
  +--> _LIBPUB_MEMEXCHANGEBYTES/LIBPUBLIC
  +--> _LIBPUB_WRITEDATATOE2PROM/LIBPUBLIC

_APIDLT645_READEMUREG/APPDLT645               0627H 0628H
  +--> _APIMS_CALIBRATIONMETERCOMM/APPMEASURE

_APIMS_CALIBRATIONMETERCOMM/APPMEASURE        0629H 0638H
  +--> _APIEMU_READEMUREG/APPEMU7021A
  +--> _APIEMU_WRITEEMUREG/APPEMU7021A
  +--> _APIEMU_COMMSTARTCAL/APPEMU7021A
  +--> _APIEMU_COMMENDCAL/APPEMU7021A
  +--> _APIEMU_COMMERRCAL/APPEMU7021A

_APIEMU_WRITEEMUREG/APPEMU7021A               0644H 064BH
  +--> _APIEMU_WRITE_ECADR/APPEMU7021A
  +--> ?CO?APPEMU7021A
  +--> _LIBPUB_WRITEDATATOE2PROM/LIBPUBLIC

_APIEMU_COMMSTARTCAL/APPEMU7021A              0639H 063EH
  +--> ?CO?APPEMU7021A
  +--> _APIEMU_WRITEEMUREG/APPEMU7021A
  +--> _LIBPUB_WRITEDATATOE2PROM/LIBPUBLIC

_APIEMU_COMMENDCAL/APPEMU7021A                0639H 0639H

LX51 LINKER/LOCATER V4.66.41.0                                                        11/18/2021  18:51:21  PAGE 21


_APIEMU_COMMERRCAL/APPEMU7021A                0639H 063FH
  +--> ?CO?APPEMU7021A
  +--> _APIEMU_WRITEEMUREG/APPEMU7021A
  +--> APIEMU_SETSTARTVAL/APPEMU7021A
  +--> APIEMU_SETUIPKMS/APPEMU7021A

APIEMU_SETSTARTVAL/APPEMU7021A                0640H 0643H
  +--> _APIEMU_READEMUREG/APPEMU7021A
  +--> _APIEMU_WRITEEMUREG/APPEMU7021A

APIEMU_SETUIPKMS/APPEMU7021A                  0640H 0643H
  +--> _APIEMU_READEMUREG/APPEMU7021A
  +--> _LIBPUB_WRITEDATATOE2PROM/LIBPUBLIC

_APIDLT645_WRITEEMUREG/APPDLT645              0627H 0628H
  +--> _APIMS_CALIBRATIONMETERCOMM/APPMEASURE

_APIDLT645_RELAYCONTROL/APPDLT645             0627H 0629H
  +--> _LIBPUB_INVERSE/LIBPUBLIC
  +--> _PREPAYMENTMODULE_DATADECRIPTION/APPVIRTUALESAM
  +--> _LIBPUB_CHECKPASSWORD/LIBPUBLIC
  +--> APIRELAY_CONTROLPROCESS/APPRELAYCONTROL
  +--> _LIBPUB_WRITEDATATOE2PROM/LIBPUBLIC

_PREPAYMENTMODULE_DATADECRIPTION/APPVIRT+     0670H 0678H
... UALESAM
  +--> _PREPAYMENTMODULE_COMMWRITEESAMBINARYMAC/APPVIRTUALESAM
  +--> _LIBPUB_MEMCOPYBYTES/LIBPUBLIC
  +--> _PREPAYMENTMODULE_GETWORKKEY/APPVIRTUALESAM
  +--> _TRIPLEDES_DEORENCRYPTION/TRIPLEDES

_LIBPUB_CHECKPASSWORD/LIBPUBLIC               0670H 067EH
  +--> _LIBPUB_READDATAFROME2PROM/LIBPUBLIC

_APIDLT645_FACTORYCOMMAND/APPDLT645           0627H 0633H
  +--> _LIBPUB_MEMCOPYBYTES/LIBPUBLIC
  +--> _DRVE2P_READDATA/IICDRV
  +--> _LIBPUB_MEMSETBYTES/LIBPUBLIC
  +--> _HAL_READEEPROM/INTERNALE2DRV
  +--> _LIBPUB_MEMEXCHANGEBYTES/LIBPUBLIC
  +--> _LIBPUB_WRITEDATATOE2PROM/LIBPUBLIC
  +--> _LIBPUB_READDATAFROME2PROM/LIBPUBLIC
  +--> _LIBPUB_CRC16_CCITT/LIBPUBLIC
  +--> _BLEDRV_GETBLEMAC/BLEDRV
  +--> _LIBPUB_INVERSE/LIBPUBLIC
  +--> _BLEDRV_GETBLENAME/BLEDRV
  +--> _BLEDRV_GETBLETPL/BLEDRV
  +--> _BLEDRV_SETBLETPL/BLEDRV
  +--> _BLEDRV_COMMSETBLEPARA/BLEDRV
  +--> _BLEDRV_COMMGETBLEPARA/BLEDRV
  +--> APIPWON_METERINITINFACTORY/APPPOWERON

_BLEDRV_GETBLEMAC/BLEDRV                      ----- -----
  +--> _BLEDRV_GETBLEPARA/BLEDRV

_BLEDRV_GETBLEPARA/BLEDRV                     0670H 06D9H
  +--> ?CO?BLEDRV
  +--> _BLEDRV_BLECOMM/BLEDRV
  +--> _LIBPUB_MEMCOPYBYTES/LIBPUBLIC

?CO?BLEDRV                                    ----- -----

_BLEDRV_BLECOMM/BLEDRV                        06FFH 0777H
  +--> ?CO?BLEDRV
  +--> BLEDRV_GETBLEUARTSTA/BLEDRV
LX51 LINKER/LOCATER V4.66.41.0                                                        11/18/2021  18:51:21  PAGE 22


  +--> _LIBPUB_MEMSETBYTES/LIBPUBLIC
  +--> _LIBPUB_MEMCOPYBYTES/LIBPUBLIC
  +--> _LIBPUB_CALSUM/LIBPUBLIC
  +--> _APIPWON_UART_SENDEN/APPPOWERON
  +--> LIBPUB_DELAY2US/LIBPUBLIC

BLEDRV_GETBLEUARTSTA/BLEDRV                   ----- -----

_APIPWON_UART_SENDEN/APPPOWERON               0778H 0778H
  +--> _APIPWON_MCUUARTXSETBPS/APPPOWERON

_BLEDRV_GETBLENAME/BLEDRV                     0634H 0650H
  +--> ?CO?BLEDRV
  +--> _BLEDRV_GETBLEPARA/BLEDRV
  +--> _LIBPUB_MEMCOPYBYTES/LIBPUBLIC

_BLEDRV_GETBLETPL/BLEDRV                      ----- -----
  +--> _BLEDRV_GETBLEPARA/BLEDRV

_BLEDRV_SETBLETPL/BLEDRV                      0689H 0691H
  +--> ?CO?BLEDRV
  +--> _LIBPUB_MEMCOPYBYTES/LIBPUBLIC
  +--> _BLEDRV_SETBLEPARA/BLEDRV

_BLEDRV_SETBLEPARA/BLEDRV                     0692H 06FEH
  +--> ?CO?BLEDRV
  +--> _LIBPUB_MEMCOPYBYTES/LIBPUBLIC
  +--> _BLEDRV_BLECOMM/BLEDRV

_BLEDRV_COMMSETBLEPARA/BLEDRV                 0634H 065BH
  +--> ?CO?BLEDRV
  +--> _LIBPUB_MEMCOPYBYTES/LIBPUBLIC
  +--> _BLEDRV_SETBLEPARA/BLEDRV

_BLEDRV_COMMGETBLEPARA/BLEDRV                 ----- -----
  +--> _BLEDRV_GETBLEPARA/BLEDRV

APIPWON_METERINITINFACTORY/APPPOWERON         0634H 0643H
  +--> ?CO?APPPOWERON
  +--> APIPWON_METERCLEAR/APPPOWERON
  +--> _LIBPUB_READDATAFROME2PROM/LIBPUBLIC
  +--> _LIBPUB_MEMSETBYTES/LIBPUBLIC
  +--> _LIBPUB_WRITEDATATOE2PROM/LIBPUBLIC
  +--> BLEDRV_INITBLERUNPARA/BLEDRV
  +--> _BLEDRV_SETBLETPL/BLEDRV
  +--> _LIBPUB_CRC16_CCITT/LIBPUBLIC
  +--> _LIBPUB_MEMCOPYBYTES/LIBPUBLIC
  +--> PREPAYMENTMODULE_COMM_CLRMACERRNUM/APPVIRTUALESAM
  +--> APIRELAY_SUBTRACTMONEYRELAYJUDGE/APPRELAYCONTROL
  +--> APIRELAY_CONTROLPROCESS/APPRELAYCONTROL

BLEDRV_INITBLERUNPARA/BLEDRV                  ----- -----
  +--> _LIBPUB_MEMCOPYBYTES/LIBPUBLIC
  +--> _LIBPUB_HEXTOASCII/LIBPUBLIC
  +--> BLEDRV_SETBLERUNPARA/BLEDRV
  +--> _LIBPUB_WRITEDATATOE2PROM/LIBPUBLIC

_LIBPUB_HEXTOASCII/LIBPUBLIC                  06B2H 06BBH
  +--> _LIBPUB_MEMCOPYBYTES/LIBPUBLIC

BLEDRV_SETBLERUNPARA/BLEDRV                   0670H 0688H
  +--> ?CO?BLEDRV
  +--> _LIBPUB_MEMEXCHANGEBYTES/LIBPUBLIC
  +--> _LIBPUB_MEMCOPYBYTES/LIBPUBLIC
  +--> _BLEDRV_SETBLEMAC/BLEDRV
LX51 LINKER/LOCATER V4.66.41.0                                                        11/18/2021  18:51:21  PAGE 23


  +--> _BLEDRV_SETBLETPL/BLEDRV
  +--> BLEDRV_SETBLESTAT/BLEDRV

_BLEDRV_SETBLEMAC/BLEDRV                      ----- -----
  +--> _BLEDRV_SETBLEPARA/BLEDRV

BLEDRV_SETBLESTAT/BLEDRV                      0689H 06B1H
  +--> ?CO?BLEDRV
  +--> _LIBPUB_MEMCOPYBYTES/LIBPUBLIC
  +--> _LIBPUB_HEXTOASCII/LIBPUBLIC
  +--> _BLEDRV_BLECOMM/BLEDRV

_APIDLT645_READDATA07/APPDLT645               0627H 067DH
  +--> _APIGET_LCD_NUM/APPDISPLAY
  +--> _LIBPUB_1HEX_2_1BCD/LIBPUBLIC
  +--> _LIBPUB_MEMEXCHANGEBYTES/LIBPUBLIC
  +--> APIDLT645_GETSTATUSFLAG3/APPDLT645
  +--> _HAL_READEEPROM/INTERNALE2DRV
  +--> _LIBPUB_INVERSE/LIBPUBLIC
  +--> _PREPAYMENTMODULE_GETCHALLENGE/APPVIRTUALESAM
  +--> _LIBPUB_MEMSETBYTES/LIBPUBLIC
  +--> LIBPUB_GETTIMERBEAT/LIBPUBLIC
  +--> _LIBPUB_MEMCOPYBYTES/LIBPUBLIC
  +--> _READEVENTRECORDDATA/APPEVENT
  +--> _LIBPUB_READDATAFROME2PROM/LIBPUBLIC
  +--> ?CO?APPDLT645
  +--> _APIGET_LCD_ID/APPDISPLAY

_APIGET_LCD_NUM/APPDISPLAY                    067EH 0684H
  +--> ?CO?APPDISPLAY

?CO?APPDISPLAY                                ----- -----

APIDLT645_GETSTATUSFLAG3/APPDLT645            ----- -----

_READEVENTRECORDDATA/APPEVENT                 067EH 0897H
  +--> APIPWON_EVENTPOINTCHECK/APPPOWERON
  +--> ?CO?APPEVENT
  +--> _LIBPUB_MEMEXCHANGEBYTES/LIBPUBLIC
  +--> _LIBPUB_BUFFER4TOULONG32/LIBPUBLIC
  +--> _LIBPUB_MEMSETBYTES/LIBPUBLIC
  +--> _HAL_READEEPROM/INTERNALE2DRV
  +--> _LIBPUB_MEMCOPYBYTES/LIBPUBLIC

_APIGET_LCD_ID/APPDISPLAY                     067EH 0681H
  +--> ?CO?APPDISPLAY

_APIDLT645_WRITEDATA/APPDLT645                0627H 066FH
  +--> _MULTIDATAWRITE_DEAL/APPDLT645
  +--> _LIBPUB_ISBCD/LIBPUBLIC
  +--> _LIBPUB_INVERSE/LIBPUBLIC
  +--> _PREPAYMENTMODULE_COMMWRITEESAMBINARYMAC/APPVIRTUALESAM
  +--> _PREPAYMENTMODULE_DATADECRIPTION/APPVIRTUALESAM
  +--> _PREPAYMENTMODULE_COMM_HANDBACKMONEY/APPVIRTUALESAM
  +--> _LIBPUB_MEMEXCHANGEBYTES/LIBPUBLIC
  +--> APIDLT645_GETSTATUSFLAG3/APPDLT645
  +--> _LIBPUB_MEMCOPYBYTES/LIBPUBLIC
  +--> _LIBPUB_CHECKPASSWORD/LIBPUBLIC
  +--> _LIBPUB_READDATAFROME2PROM/LIBPUBLIC
  +--> ?CO?APPDLT645
  +--> _APIGET_LCD_NUM/APPDISPLAY
  +--> _LIBPUB_WRITEDATATOE2PROM/LIBPUBLIC
  +--> _LIBPUB_1BCD_2_1HEX/LIBPUBLIC
  +--> _LIBPUB_COMPAREDATA/LIBPUBLIC
  +--> APIRELAY_SUBTRACTMONEYRELAYJUDGE/APPRELAYCONTROL
LX51 LINKER/LOCATER V4.66.41.0                                                        11/18/2021  18:51:21  PAGE 24


  +--> APIRELAY_CONTROLPROCESS/APPRELAYCONTROL

_MULTIDATAWRITE_DEAL/APPDLT645                0670H 0720H
  +--> ?CO?APPDLT645
  +--> _LIBPUB_ISBCD/LIBPUBLIC
  +--> _LIBPUB_MEMEXCHANGEBYTES/LIBPUBLIC
  +--> _LIBPUB_COMPAREDATA/LIBPUBLIC
  +--> _LIBPUB_MEMCOPYBYTES/LIBPUBLIC
  +--> _PREPAYMENTMODULE_COMM_OPENACCOUT/APPVIRTUALESAM
  +--> _LIBPUB_INVERSE/LIBPUBLIC
  +--> _PREPAYMENTMODULE_COMMWRITEESAMBINARYMAC/APPVIRTUALESAM
  +--> _LIBPUB_READDATAFROME2PROM/LIBPUBLIC
  +--> _LIBPUB_WRITEDATATOE2PROM/LIBPUBLIC
  +--> APIDLT645_GETSTATUSFLAG3/APPDLT645

_PREPAYMENTMODULE_COMM_HANDBACKMONEY/APP+     0670H 067AH
... VIRTUALESAM
  +--> _LIBPUB_INVERSE/LIBPUBLIC
  +--> _LIBPUB_BUFFER4TOULONG32/LIBPUBLIC
  +--> _LIBPUB_MEMCOPYBYTES/LIBPUBLIC
  +--> _LIBPUB_NBYTESBCDSUB/LIBPUBLIC
  +--> _LIBPUB_CRC16_CCITT/LIBPUBLIC
  +--> _LIBPUB_WRITEDATATOE2PROM/LIBPUBLIC
  +--> _APIEVENT_WRITERECORD/APPEVENT
  +--> APIRELAY_SUBTRACTMONEYRELAYJUDGE/APPRELAYCONTROL
  +--> APIRELAY_CONTROLPROCESS/APPRELAYCONTROL

_APIDLT645_METERCLEAR/APPDLT645               0627H 0627H
  +--> _LIBPUB_CHECKPASSWORD/LIBPUBLIC
  +--> APIPWON_METERCLEAR/APPPOWERON
  +--> APIRELAY_SUBTRACTMONEYRELAYJUDGE/APPRELAYCONTROL
  +--> APIRELAY_CONTROLPROCESS/APPRELAYCONTROL

_APIDLT645_MODIFYPSW/APPDLT645                0627H 0637H
  +--> ?CO?APPDLT645
  +--> _LIBPUB_CHECKPASSWORD/LIBPUBLIC
  +--> _LIBPUB_READDATAFROME2PROM/LIBPUBLIC
  +--> _LIBPUB_MEMCOPYBYTES/LIBPUBLIC
  +--> _LIBPUB_WRITEDATATOE2PROM/LIBPUBLIC

_APIDLT645_ACCOUNTTX/APPDLT645                0627H 0655H
  +--> _LIBPUB_MEMCOPYBYTES/LIBPUBLIC
  +--> _PREPAYMENTMODULE_COMM_INTAUTH/APPVIRTUALESAM
  +--> _HAL_READEEPROM/INTERNALE2DRV
  +--> _LIBPUB_INVERSE/LIBPUBLIC
  +--> _LIBPUB_MEMEXCHANGEBYTES/LIBPUBLIC
  +--> APIDLT645_GETSTATUSFLAG3/APPDLT645
  +--> LIBPUB_GETTIMERBEAT/LIBPUBLIC
  +--> _PREPAYMENTMODULE_COMM_OPENACCOUT/APPVIRTUALESAM

APIPWOFF_POWEROFFTASK/APPPOWEROFF             0609H 0609H
  +--> APIPWOFF_CLOSEDEVICES/APPPOWEROFF
  +--> APIPWOFF_DATASAVE/APPPOWEROFF
  +--> _LIBPUB_DELAYNMS/LIBPUBLIC
  +--> APIPWON_POWERCHK/APPPOWERON
  +--> APIPWOFF_ENTERSLEEP/APPPOWEROFF
  +--> APIPWON_SYSTEMINIT/APPPOWERON

APIPWOFF_CLOSEDEVICES/APPPOWEROFF             ----- -----
  +--> APIPWOFF_BLEPOWERINIT/APPPOWEROFF
  +--> APIPWOFF_MCUTIMERINIT/APPPOWEROFF
  +--> APIPWOFF_MCUUARTINIT/APPPOWEROFF
  +--> APIPWOFF_EMUINIT/APPPOWEROFF
  +--> APIPWOFF_MCUDISPINIT/APPPOWEROFF

LX51 LINKER/LOCATER V4.66.41.0                                                        11/18/2021  18:51:21  PAGE 25


APIPWOFF_BLEPOWERINIT/APPPOWEROFF             ----- -----

APIPWOFF_MCUTIMERINIT/APPPOWEROFF             ----- -----

APIPWOFF_MCUUARTINIT/APPPOWEROFF              ----- -----

APIPWOFF_EMUINIT/APPPOWEROFF                  ----- -----
  +--> _APIMS_DISORENABLE/APPMEASURE

_APIMS_DISORENABLE/APPMEASURE                 ----- -----
  +--> _APIEMU_DISORENABLE/APPEMU7021A

APIPWOFF_MCUDISPINIT/APPPOWEROFF              ----- -----
  +--> _LCDDRV_INIT/LCDDRV

APIPWOFF_DATASAVE/APPPOWEROFF                 060AH 060DH
  +--> _LIBPUB_CRC16_CCITT/LIBPUBLIC
  +--> _DRVE2P_WRITEDATA/IICDRV
  +--> _LIBPUB_WRITEDATATOE2PROM/LIBPUBLIC

APIPWOFF_ENTERSLEEP/APPPOWEROFF               ----- -----
  +--> APIPWOFF_PERIPHERALINIT/APPPOWEROFF
  +--> APIPWOFF_CLOSEDEVICES/APPPOWEROFF
  +--> APIPWOFF_DATAPROCESS/APPPOWEROFF
  +--> APIPWOFF_MCULPDINIT/APPPOWEROFF
  +--> APIPWOFF_DISPLAY/APPPOWEROFF
  +--> APIPWOFF_SYSCLKINIT/APPPOWEROFF
  +--> APIPWOFF_MCUENTERSLEEP/APPPOWEROFF

APIPWOFF_PERIPHERALINIT/APPPOWEROFF           ----- -----
  +--> APIPWOFF_MCUGPIOINIT/APPPOWEROFF

APIPWOFF_MCUGPIOINIT/APPPOWEROFF              ----- -----

APIPWOFF_DATAPROCESS/APPPOWEROFF              ----- -----

APIPWOFF_MCULPDINIT/APPPOWEROFF               ----- -----

APIPWOFF_DISPLAY/APPPOWEROFF                  ----- -----

APIPWOFF_SYSCLKINIT/APPPOWEROFF               ----- -----

APIPWOFF_MCUENTERSLEEP/APPPOWEROFF            ----- -----

APIDISP_DISPLAYTASK/APPDISPLAY                0609H 0609H
  +--> LIBPUB_GETTIMERBEAT/LIBPUBLIC
  +--> _LIBPUB_GETDIFFTIME/LIBPUBLIC
  +--> _LCDDRV_SETLCDBUFF/LCDDRV
  +--> _APIDISP_CONST/APPDISPLAY
  +--> APIDISP_DYNAMIC/APPDISPLAY
  +--> LCDDRV_DISPRAMUPDATA/LCDDRV

_APIDISP_CONST/APPDISPLAY                     060AH 060BH
  +--> _LIBPUB_MEMSETBYTES/LIBPUBLIC
  +--> _APIDISPLAY_NUMDATA/APPDISPLAY
  +--> ?CO?APPDISPLAY
  +--> _APIDISP_SHOWNUM/APPDISPLAY

_APIDISPLAY_NUMDATA/APPDISPLAY                0615H 0617H
  +--> ?CO?APPDISPLAY

_APIDISP_SHOWNUM/APPDISPLAY                   060CH 0614H
  +--> _APIDISPLAY_NUMDATA/APPDISPLAY

APIDISP_DYNAMIC/APPDISPLAY                    ----- -----
LX51 LINKER/LOCATER V4.66.41.0                                                        11/18/2021  18:51:21  PAGE 26


  +--> LIBPUB_GETTIMERBEAT/LIBPUBLIC
  +--> _LIBPUB_GETDIFFTIME/LIBPUBLIC

APIMNTR_MONITORTASK/APPMONITOR                0609H 0609H
  +--> APIMNTR_PERIPHERALMONITOR/APPMONITOR
  +--> APIPWON_SYSCLKINIT/APPPOWERON
  +--> APIPWON_MCUTIMERINIT/APPPOWERON
  +--> LIBPUB_GETTIMERBEAT/LIBPUBLIC
  +--> _LIBPUB_GETDIFFTIME/LIBPUBLIC
  +--> APIPWON_BLEINIT/APPPOWERON
  +--> APIDISP_LCDLEDCONTROL/APPDISPLAY
  +--> APIRELAY_CONTROLPROCESS/APPRELAYCONTROL
  +--> API_POWERLOADLIMITEDCHECK/APPRELAYCONTROL
  +--> BLEDRV_BLERESET/BLEDRV
  +--> BLEDRV_INITBLERUNPARA/BLEDRV
  +--> BLEDRV_SETBLESTAT/BLEDRV
  +--> _PREPAYMENTMODULE_GETCHALLENGE/APPVIRTUALESAM
  +--> _LIBPUB_MEMSETBYTES/LIBPUBLIC
  +--> APIPWON_EMUPARACHECK/APPPOWERON
  +--> APIPWON_METERINFOPARACHECK/APPPOWERON
  +--> APIPWON_DISPLAYPARACHECK/APPPOWERON
  +--> APIPWON_MONEYPARACHECK/APPPOWERON
  +--> APIMONEY_REFRESHPRICE/APPMONEY
  +--> APIPWON_FUNCONFIGPARACHECK/APPPOWERON
  +--> APIPWON_KEYSTATUSCHECK/APPPOWERON
  +--> APIPWON_BLEPARACHK/APPPOWERON
  +--> APIPWON_EVENTPOINTCHECK/APPPOWERON
  +--> APIMONEY_TIMEINGHOLDMONEY/APPMONEY
  +--> PREPAYMENTMODULE_COMM_CLRMACERRNUM/APPVIRTUALESAM
  +--> _LIBPUB_WRITEDATATOE2PROM/LIBPUBLIC

APIMNTR_PERIPHERALMONITOR/APPMONITOR          ----- -----
  +--> LIBPUB_GETTIMERBEAT/LIBPUBLIC
  +--> _LIBPUB_GETDIFFTIME/LIBPUBLIC
  +--> DRVKEY_FACTORYKEYMONITOR/KEYDRV
  +--> DRVKEY_DISPLAYKEYMONITOR/KEYDRV
  +--> RELAYDRV_DELAYTIMEMONITOR/RELAYDRV
  +--> DRVKEY_DISPLAYKEYINIT/KEYDRV
  +--> _LIBPUB_MEMSETBYTES/LIBPUBLIC
  +--> APIRELAY_CONTROLPROCESS/APPRELAYCONTROL
  +--> _LIBPUB_WRITEDATATOE2PROM/LIBPUBLIC

DRVKEY_FACTORYKEYMONITOR/KEYDRV               ----- -----
  +--> DRVKEY_FACTORYKEYINIT/KEYDRV

DRVKEY_FACTORYKEYINIT/KEYDRV                  ----- -----

DRVKEY_DISPLAYKEYMONITOR/KEYDRV               ----- -----
  +--> DRVKEY_DISPLAYKEYINIT/KEYDRV

DRVKEY_DISPLAYKEYINIT/KEYDRV                  ----- -----

RELAYDRV_DELAYTIMEMONITOR/RELAYDRV            ----- -----
  +--> RELAYDRV_RELAYNORMAL/RELAYDRV

RELAYDRV_RELAYNORMAL/RELAYDRV                 ----- -----

APIPWON_BLEINIT/APPPOWERON                    ----- -----
  +--> BLEDRV_INITPWN/BLEDRV

BLEDRV_INITPWN/BLEDRV                         ----- -----
  +--> _BLEDRV_BLEPARACHK/BLEDRV
  +--> BLEDRV_SETBLERUNPARA/BLEDRV
  +--> BLEDRV_BLESTATUCHK/BLEDRV

LX51 LINKER/LOCATER V4.66.41.0                                                        11/18/2021  18:51:21  PAGE 27


_BLEDRV_BLEPARACHK/BLEDRV                     060AH 060BH
  +--> _LIBPUB_CRCCHECK/LIBPUBLIC
  +--> _LIBPUB_READDATAFROME2PROM/LIBPUBLIC
  +--> BLEDRV_BLERESET/BLEDRV
  +--> BLEDRV_INITBLERUNPARA/BLEDRV
  +--> BLEDRV_SETBLESTAT/BLEDRV

BLEDRV_BLERESET/BLEDRV                        ----- -----
  +--> _LIBPUB_DELAYNMS/LIBPUBLIC

BLEDRV_BLESTATUCHK/BLEDRV                     060AH 066FH
  +--> ?CO?BLEDRV
  +--> BLEDRV_GETBLESTAT/BLEDRV
  +--> BLEDRV_SETBLERUNPARA/BLEDRV
  +--> _BLEDRV_GETBLEPARA/BLEDRV
  +--> BLEDRV_BLERESET/BLEDRV
  +--> BLEDRV_INITBLERUNPARA/BLEDRV
  +--> BLEDRV_SETBLESTAT/BLEDRV

BLEDRV_GETBLESTAT/BLEDRV                      ----- -----

APIDISP_LCDLEDCONTROL/APPDISPLAY              ----- -----

API_POWERLOADLIMITEDCHECK/APPRELAYCONTRO+     060AH 060DH
... L
  +--> _LIBPUB_ZEROCHECK/LIBPUBLIC
  +--> _LIBPUB_MEMCOPYBYTES/LIBPUBLIC
  +--> _LIBPUB_DECTOHEXBYTES/LIBPUBLIC
  +--> APIRELAY_CONTROLPROCESS/APPRELAYCONTROL
  +--> LIBPUB_GETTIMERBEAT/LIBPUBLIC

APIPWON_BLEPARACHK/APPPOWERON                 ----- -----
  +--> _BLEDRV_BLEPARACHK/BLEDRV
  +--> BLEDRV_GETBLEUARTSTA/BLEDRV
  +--> BLEDRV_BLESTATUCHK/BLEDRV

APIMONEY_TIMEINGHOLDMONEY/APPMONEY            060AH 0619H
  +--> _LIBPUB_CRC16_CCITT/LIBPUBLIC
  +--> _LIBPUB_MEMCOPYBYTES/LIBPUBLIC
  +--> _DRVE2P_WRITEDATA/IICDRV

?C_INITSEG                                    ----- -----



INTERBANK CALL TABLE OF MODULE:  DDSYU666-2019 (APPCOMM)

ADDRESS     FUNCTION NAME
-------------------------
C:00018CH   ApiComm_CommTask
C:000191H   _ApiComm_CommParaInit
C:000196H   _ApiDLT645_UARTReceiveDataJudge0
C:00019BH   _ApiDLT645_UARTReceiveDataJudge1
C:0001A0H   PrepaymentModule_Comm_ClrMACErrNum
C:0001A5H   _PrepaymentModule_GetChallenge
C:0001AAH   APiDisp_LcdledControl
C:0001AFH   ApiDisp_DisplayTask
C:0001B4H   ApiMntr_MonitorTask
C:0001B9H   ApiPwOn_SysTemInit
C:0001BEH   ApiPwOn_McuReset
C:0001C3H   _ApiPwOn_McuUartXInit
C:0001C8H   _ApiPwOn_UART_SendEn
C:0001CDH   ApiPwOn_MeterInitInFactory
C:0001D2H   ApiPwOn_MeterClear
C:0001D7H   ApiPwOff_PowerOffTask
LX51 LINKER/LOCATER V4.66.41.0                                                        11/18/2021  18:51:21  PAGE 28


C:0001DCH   ApiMS_MeasureTask
C:0001E1H   _ApiMS_CalibrationMeterComm
C:0001E6H   ApiRelay_ControlProcess
C:0001EBH   ApiRelay_SubtractMoneyRelayJudge
C:0001F0H   _ApiEvent_WriteRecord
C:0001F5H   _ReadEventRecordData



PUBLIC SYMBOLS OF MODULE:  DDSYU666-2019 (APPCOMM)


      VALUE       CLASS    TYPE      PUBLIC SYMBOL NAME
      =================================================
      02000644H   XDATA    BYTE      ?_ApiEMU_WriteEmuReg?BYTE
      0200067EH   XDATA    BYTE      ?_ApiGet_Lcd_Num?BYTE
      0200076DH   XDATA    BYTE      ?_Data_MAC?BYTE
      02000781H   XDATA    BYTE      ?_DES_DeOrEncryption?BYTE
      0200079AH   XDATA    BYTE      ?_DES_F?BYTE
      020007ADH   XDATA    BYTE      ?_DES_Transposition?BYTE
      02000CBAH   XDATA    BYTE      ?_DrvE2p_ReadData?BYTE
      02000CC5H   XDATA    BYTE      ?_DrvE2p_WriteData?BYTE
      02000986H   XDATA    BYTE      ?_Hal_ReadEEPROM?BYTE
      02000986H   XDATA    BYTE      ?_Hal_WriteEEPROM?BYTE
      02000986H   XDATA    BYTE      ?_LibPub_CompareData?BYTE
      0200065EH   XDATA    BYTE      ?_LibPub_CompareNBufs?BYTE
      02000986H   XDATA    BYTE      ?_LibPub_CrcCheck?BYTE
      02000610H   XDATA    BYTE      ?_LibPub_GetDiffTime?BYTE
      020006B2H   XDATA    BYTE      ?_LibPub_HEXtoAscii?BYTE
      02000781H   XDATA    BYTE      ?_LibPub_HEXtoBCDBytes?BYTE
      020009D1H   XDATA    BYTE      ?_LibPub_MemCopyBytes?BYTE
      02000986H   XDATA    BYTE      ?_LibPub_MemExchangeBytes?BYTE
      0200098BH   XDATA    BYTE      ?_LibPub_MemSetBytes?BYTE
      0200098BH   XDATA    BYTE      ?_LibPub_NBtyesBcdAdd?BYTE
      02000781H   XDATA    BYTE      ?_LibPub_NBytesBCDSub?BYTE
      02000766H   XDATA    BYTE      ?_PrepaymentModule_CommWriteESAMBinaryMAC?BYTE
      02000670H   XDATA    BYTE      ?_PrepaymentModule_DataDecription?BYTE
      0200067EH   XDATA    BYTE      ?_ReadEventRecordData?BYTE
      0200077AH   XDATA    BYTE      ?_TripleDES_DeOrEncryption?BYTE
      01000100H   CODE     ---       ?B_BANK0
      01000123H   CODE     ---       ?B_BANK1
      01000146H   CODE     ---       ?B_BANK2
      01000169H   CODE     ---       ?B_BANK3
      00000008H   DATA     ---       ?B_CURRENTBANK
      00000000H   NUMBER   ---       ?B_FACTOR
      00000003H   NUMBER   ---       ?B_MASK
      00000004H   NUMBER   ---       ?B_MODE
      00000004H   NUMBER   ---       ?B_NBANKS
      000000FFH   NUMBER   ---       ?B_RST_BANK
      0100010AH   CODE     ---       ?B_SWITCH0
      0100012DH   CODE     ---       ?B_SWITCH1
      01000150H   CODE     ---       ?B_SWITCH2
      01000173H   CODE     ---       ?B_SWITCH3
      010004D7H   CODE     ---       ?C?CASTF
      01000956H   CODE     ---       ?C?CCASE
      01000694H   CODE     ---       ?C?CILDOPTR
      01000667H   CODE     ---       ?C?CLDOPTR
      0100064EH   CODE     ---       ?C?CLDPTR
      00000000H   NUMBER   ---       ?C?CODESEG
      01000628H   CODE     ---       ?C?COPY
      010006D9H   CODE     ---       ?C?CSTOPTR
      010006C7H   CODE     ---       ?C?CSTPTR
      010004A3H   CODE     ---       ?C?FCASTC
      0100049EH   CODE     ---       ?C?FCASTI
      01000499H   CODE     ---       ?C?FCASTL
LX51 LINKER/LOCATER V4.66.41.0                                                        11/18/2021  18:51:21  PAGE 29


      01000202H   CODE     ---       ?C?FPADD
      010003FCH   CODE     ---       ?C?FPDIV
      0100050EH   CODE     ---       ?C?FPGETOPN2
      010002F3H   CODE     ---       ?C?FPMUL
      01000543H   CODE     ---       ?C?FPNANRESULT
      0100054DH   CODE     ---       ?C?FPOVERFLOW
      01000525H   CODE     ---       ?C?FPRESULT
      01000539H   CODE     ---       ?C?FPRESULT2
      010001FEH   CODE     ---       ?C?FPSUB
      0100054AH   CODE     ---       ?C?FPUNDERFLOW
      01000762H   CODE     ---       ?C?IILDX
      01000778H   CODE     ---       ?C?ILDIX
      010006FBH   CODE     ---       ?C?IMUL
      0100097CH   CODE     ---       ?C?LCASE
      01000909H   CODE     ---       ?C?LLDCODE
      010008FDH   CODE     ---       ?C?LLDXDATA
      0100078EH   CODE     ---       ?C?LMUL
      010008B8H   CODE     ---       ?C?LNEG
      010008ABH   CODE     ---       ?C?LNOT
      010008EAH   CODE     ---       ?C?LSHL
      01000925H   CODE     ---       ?C?LSTKXDATA
      01000919H   CODE     ---       ?C?LSTXDATA
      0100070DH   CODE     ---       ?C?UIDIV
      010008C6H   CODE     ---       ?C?ULCMP
      01000819H   CODE     ---       ?C?ULDIV
      010008D7H   CODE     ---       ?C?ULSHR
      00000000H   NUMBER   ---       ?C?XDATASEG
      01000BC7H   CODE     ---       ?C_START
      01000000H   CODE     ---       ?C_STARTUP
      02000CD7H   XDATA    ---       ?SRAND?BYTE
      008282CAH   CODE/B2  ---       _ApiComm_CommParaInit
      0082F15BH   CODE/B2  ---       _APiDisp_Const
      0082F027H   CODE/B2  ---       _ApiDisp_ShowNum
      0082EF5CH   CODE/B2  ---       _ApiDisplay_NumData
      0082D7F6H   CODE/B2  ---       _ApiDLT645_AccountTx
      008293E9H   CODE/B2  ---       _ApiDLT645_AddrTypeCheck
      008289B3H   CODE/B2  ---       _ApiDLT645_FrameAnalysis
      008295B3H   CODE/B2  ---       _ApiDLT645_MeterClear
      0082DD14H   CODE/B2  ---       _ApiDLT645_ModifyPsw
      0082C068H   CODE/B2  ---       _ApiDLT645_RelayControl
      0082D341H   CODE/B2  ---       _ApiDLT645_SafeCertification
      0082840DH   CODE/B2  ---       _ApiDLT645_UARTReceiveDataJudge0
      008286A4H   CODE/B2  ---       _ApiDLT645_UARTReceiveDataJudge1
      0081B776H   CODE/B1  ---       _ApiEMU_CommEndCal
      0081B77CH   CODE/B1  ---       _ApiEMU_CommErrCal
      008189E9H   CODE/B1  ---       _ApiEMU_CommStartCal
      00818F3DH   CODE/B1  ---       _ApiEMU_DisOrEnable
      008197B8H   CODE/B1  ---       _ApiEMU_Read_ECADR
      008197B8H   CODE/B1  ---       _ApiEMU_ReadEmuReg
      008188F1H   CODE/B1  ---       _ApiEMU_Write_ECADR
      00818949H   CODE/B1  ---       _ApiEMU_WriteEmuReg
      00819715H   CODE/B1  ---       _ApiEvent_RecTotalNum_Add
      0081917EH   CODE/B1  ---       _ApiEvent_WriteRecord
      0082EF13H   CODE/B2  ---       _ApiGet_Lcd_ID
      0082EE69H   CODE/B2  ---       _ApiGet_Lcd_Num
      00818B87H   CODE/B1  ---       _ApiMS_CalibrationMeterComm
      00818F50H   CODE/B1  ---       _ApiMS_DisOrEnable
      0081AB7DH   CODE/B1  ---       _ApiMS_EnergyProcess
      0081AE0CH   CODE/B1  ---       _ApiPwOn_DLXS_READ
      00818043H   CODE/B1  ---       _ApiPwOn_McuUartXInit
      00818095H   CODE/B1  ---       _ApiPwOn_McuUartXSetBps
      00818000H   CODE/B1  ---       _ApiPwOn_UART_SendEn
      01002831H   CODE     ---       _BleDrv_BleComm
      01002BC8H   CODE     ---       _BleDrv_BleParaChk
      01002F43H   CODE     ---       _BleDrv_CommGetBlePara
LX51 LINKER/LOCATER V4.66.41.0                                                        11/18/2021  18:51:21  PAGE 30


      01003F84H   CODE     ---       _BleDrv_CommSetBlePara
      01002F41H   CODE     ---       _BleDrv_GetBleMac
      01003FDFH   CODE     ---       _BleDrv_GetBleName
      01002DEEH   CODE     ---       _BleDrv_GetBlePara
      01002F4AH   CODE     ---       _BleDrv_GetBleTPL
      01003F26H   CODE     ---       _BleDrv_SetBleMac
      01003EB0H   CODE     ---       _BleDrv_SetBlePara
      01003F30H   CODE     ---       _BleDrv_SetBleTPL
      0100249FH   CODE     ---       _Data_MAC
      01004B52H   CODE     ---       _DES_CycLRShifting
      010022B4H   CODE     ---       _DES_DeOrEncryption
      0100490AH   CODE     ---       _DES_F
      010026CEH   CODE     ---       _DES_IP
      010023A5H   CODE     ---       _DES_IP_1
      01004819H   CODE     ---       _DES_PC_1
      010047F1H   CODE     ---       _DES_ReplaceMent
      01004837H   CODE     ---       _DES_Transposition
      01001CE9H   CODE     ---       _DrvE2p_ReadData
      010041B5H   CODE     ---       _DrvE2p_WRDataTemp
      01004336H   CODE     ---       _DrvE2p_WriteData
      010045D8H   CODE     ---       _Hal_EraseFlashSector
      01004550H   CODE     ---       _Hal_ReadEEPROM
      0100451AH   CODE     ---       _Hal_ReadFlash_byte
      01004477H   CODE     ---       _Hal_WriteEEPROM
      01004419H   CODE     ---       _Hal_WriteFlash_byte
      01004707H   CODE     ---       _LCDDrv_Init
      01004730H   CODE     ---       _LCDDrv_SetLcdBuff
      01002F0CH   CODE     ---       _LibPub_0xFFCheckInt
      01002FDEH   CODE     ---       _LibPub_1BCD_2_1HEX
      01002FEDH   CODE     ---       _LibPub_1BtyeBcdAdd
      01002FBEH   CODE     ---       _LibPub_1Hex_2_1BCD
      01003811H   CODE     ---       _LibPub_Buffer2ToUshort16
      0100384EH   CODE     ---       _LibPub_Buffer4ToUlong32
      01002F7FH   CODE     ---       _LibPub_CalSum
      010035AAH   CODE     ---       _LibPub_CheckPassword
      010036EAH   CODE     ---       _LibPub_CompareData
      010021B2H   CODE     ---       _LibPub_CompareNBufs
      01001C7AH   CODE     ---       _LibPub_CRC16_CCITT
      01002B5EH   CODE     ---       _LibPub_CrcCheck
      010039D1H   CODE     ---       _LibPub_DECtoHEXBytes
      01002DCEH   CODE     ---       _LibPub_Delay10xus
      01002D13H   CODE     ---       _LibPub_DelayNms
      0100336CH   CODE     ---       _LibPub_GetDiffTime
      01002E58H   CODE     ---       _LibPub_HEXtoAscii
      01003B38H   CODE     ---       _LibPub_HEXtoBCDBytes
      010034FAH   CODE     ---       _LibPub_Inverse
      01003498H   CODE     ---       _LibPub_IsBCD
      0100216FH   CODE     ---       _LibPub_MemCopyBytes
      01003434H   CODE     ---       _LibPub_MemExchangeBytes
      01002690H   CODE     ---       _LibPub_MemSetBytes
      01003016H   CODE     ---       _LibPub_NBtyesBcdAdd
      010038DDH   CODE     ---       _LibPub_NBytesBCDSub
      01001F26H   CODE     ---       _LibPub_ReadDataFromE2prom
      01001A57H   CODE     ---       _LibPub_WriteDataToE2prom
      01002B98H   CODE     ---       _LibPub_ZeroCheck
      0082E902H   CODE/B2  ---       _Money_Recharge
      008294A9H   CODE/B2  ---       _PrepaymentModule_Comm_HandBackMoney
      0082DF22H   CODE/B2  ---       _PrepaymentModule_Comm_INTAUTH
      0082C5C6H   CODE/B2  ---       _PrepaymentModule_Comm_INTAUTH_Invalidation
      0082EC82H   CODE/B2  ---       _PrepaymentModule_Comm_ModifyKey
      0082E23CH   CODE/B2  ---       _PrepaymentModule_Comm_OpenAccout
      0082D641H   CODE/B2  ---       _PrepaymentModule_Comm_TimeAvailableIn
      0082C4D4H   CODE/B2  ---       _PrepaymentModule_CommWriteESAMBinaryMAC
      0082C267H   CODE/B2  ---       _PrepaymentModule_DataDecription
      00829387H   CODE/B2  ---       _PrepaymentModule_GetChallenge
LX51 LINKER/LOCATER V4.66.41.0                                                        11/18/2021  18:51:21  PAGE 31


      0082C400H   CODE/B2  ---       _PrepaymentModule_GetWorkkey
      0081B9E3H   CODE/B1  ---       _ReadEventRecordData
      01000AD5H   CODE     ---       _SQRT
      010000B4H   CODE     ---       _SRAND
      0100000EH   CODE     ---       _SWITCHBANK
      01002448H   CODE     ---       _TripleDES_DeOrEncryption
      0200FFAEH   XDATA    BYTE      A0DAY
      0200FFAFH   XDATA    BYTE      A0DOW
      0200FFADH   XDATA    BYTE      A0HR
      0200FFACH   XDATA    BYTE      A0MIN
      0200FFABH   XDATA    BYTE      A0SEC
      0200FFB2H   XDATA    BYTE      A1HR
      0200FFB1H   XDATA    BYTE      A1MIN
      0200FFB0H   XDATA    BYTE      A1SEC
*SFR* 000000D0H.6 DATA     BIT       AC
*SFR* 000000E0H   DATA     BYTE      ACC
*SFR* 000000C5H   DATA     BYTE      ADCDH
*SFR* 000000C4H   DATA     BYTE      ADCDL
*SFR* 000000C3H   DATA     BYTE      ADCH
*SFR* 000000C1H   DATA     BYTE      ADCON
*SFR* 000000C2H   DATA     BYTE      ADT
      0081B93CH   CODE/B1  ---       Api_PowerLoadLimitedCheck
      00828000H   CODE/B2  ---       ApiComm_CommTask
      0082F388H   CODE/B2  ---       ApiDisp_DisplayTask
      0082F4ABH   CODE/B2  ---       APiDisp_Dynamic
      0082F57EH   CODE/B2  ---       APiDisp_LcdledControl
      0082DCAAH   CODE/B2  ---       ApiDLT645_GetStatusFlag3
      008187E1H   CODE/B1  ---       ApiEMU_EMUInit
      0081A053H   CODE/B1  ---       ApiEMU_EMUParaCheck
      00819E2EH   CODE/B1  ---       ApiEMU_GetDirP
      008197F5H   CODE/B1  ---       ApiEMU_UpdateUIP
      0081A1D4H   CODE/B1  ---       ApiMntr_MonitorTask
      0081AEE6H   CODE/B1  ---       ApiMntr_PeripheralMonitor
      0081A5D1H   CODE/B1  ---       ApiMoney_RefreshPrice
      0081AA02H   CODE/B1  ---       ApiMoney_RemainMoneyProcess
      0081A628H   CODE/B1  ---       ApiMoney_TimeingHoldMoney
      00819DC5H   CODE/B1  ---       ApiMS_EnergyPulseUpdate
      00819E2EH   CODE/B1  ---       ApiMS_GetPowerDir
      008187E1H   CODE/B1  ---       ApiMS_InitMeterICPara
      00819D90H   CODE/B1  ---       ApiMS_MeasureTask
      0081A1D0H   CODE/B1  ---       ApiMS_MeterICParaCheck
      00819D67H   CODE/B1  ---       ApiMS_UpdateUIP
      00818F77H   CODE/B1  ---       ApiPwOff_McuGpioInit
      0081B41DH   CODE/B1  ---       ApiPwOff_PowerOffTask
      0081A4F6H   CODE/B1  ---       ApiPwOn_BleInit
      0081A4F9H   CODE/B1  ---       ApiPwOn_BleParaChk
      0081B30AH   CODE/B1  ---       ApiPwOn_DisplayParaCheck
      0081A1D2H   CODE/B1  ---       ApiPwOn_EmuParaCheck
      00819E7CH   CODE/B1  ---       ApiPwOn_EnergyCheck
      00819E42H   CODE/B1  ---       ApiPwOn_EnergyZSCheck
      0081A44BH   CODE/B1  ---       ApiPwOn_EventPointCheck
      0081A516H   CODE/B1  ---       ApiPwOn_FunConfigParaCheck
      0081A56AH   CODE/B1  ---       ApiPwOn_KeyStatusCheck
      0081915AH   CODE/B1  ---       ApiPwOn_McuDispInit
      0081B027H   CODE/B1  ---       ApiPwOn_McuGpioInit
      0081AFA6H   CODE/B1  ---       ApiPwOn_McuLPDInit
      0081810DH   CODE/B1  ---       ApiPwOn_McuRamInit
      0081AFA0H   CODE/B1  ---       ApiPwOn_McuReset
      0081A7A6H   CODE/B1  ---       ApiPwOn_McuTimerInit
      00818085H   CODE/B1  ---       ApiPwOn_McuUartInit
      0081A7E5H   CODE/B1  ---       ApiPwOn_MeterClear
      0081B20EH   CODE/B1  ---       ApiPwOn_MeterInfoParaCheck
      00818452H   CODE/B1  ---       ApiPwOn_MeterInitInFactory
      0081A68EH   CODE/B1  ---       ApiPwOn_MoneyParaCheck
      0081B402H   CODE/B1  ---       ApiPwOn_PowerChk
LX51 LINKER/LOCATER V4.66.41.0                                                        11/18/2021  18:51:21  PAGE 32


      0081B4CDH   CODE/B1  ---       ApiPwOn_RemainMoneyCheck
      0081AFDBH   CODE/B1  ---       ApiPwOn_SysClkInit
      008180E9H   CODE/B1  ---       ApiPwOn_SysTemInit
      00818685H   CODE/B1  ---       ApiRelay_ControlProcess
      0081824FH   CODE/B1  ---       ApiRelay_SubtractMoneyRelayJudge
*SFR* 000000F1H   DATA     BYTE      AUXC
*SFR* 000000F0H   DATA     BYTE      B
      01002CECH   CODE     ---       BleDrv_BleReset
      01002C16H   CODE     ---       BleDrv_BleStatuChk
      0100005CH   CODE     ---       BleDrv_GetBleStat
      01002F53H   CODE     ---       BleDrv_GetBleUartSta
      01002D6AH   CODE     ---       BleDrv_InitBleRunPara
      01000066H   CODE     ---       BleDrv_InitPwn
      01002746H   CODE     ---       BleDrv_SetBleRunPara
      010027C2H   CODE     ---       BleDrv_SetBleStat
      01000FAEH   CONST    ---       C_cBleComm_Head
      01001291H   CONST    ---       C_cBlePayload_Head
      010012A4H   CONST    ---       C_StrBle_MAP_TAB
*SFR* 000000C8H.1 DATA     BIT       C_T2
      02000C7FH   XDATA    ---       C_ucCurrentTab
      0100190CH   CONST    ---       C_ucUIPREG_TAB
      010011E1H   CONST    ---       C_ulaSafeCertification_Code
      010011FDH   CONST    ---       C_ulaSafeCertification_Len
      01001204H   CONST    ---       C_ulaSafeCertification_ReturnLen
      0100120BH   CONST    ---       C_ulaSafeCertification_ReturnType
      01001911H   CONST    ---       C_usUIP_KMS_DEF_VAL_TAB
*SFR* 000000B2H   DATA     BYTE      CLKCON
*SFR* 000000C8H   DATA     BIT       CP_RL2
*SFR* 000000D0H.7 DATA     BIT       CY
      0200FFA4H   XDATA    BYTE      DAY
      0200FFA7H   XDATA    BYTE      DOW
*SFR* 00000083H   DATA     BYTE      DPH
*SFR* 00000085H   DATA     BYTE      DPH1
*SFR* 00000082H   DATA     BYTE      DPL
*SFR* 00000084H   DATA     BYTE      DPL1
      01004300H   CODE     ---       DrvE2p_ChkBusBusy
      01004165H   CODE     ---       DrvI2C_Init
      0100464DH   CODE     ---       DrvKey_DisplayKeyInit
      0100465CH   CODE     ---       DrvKey_DisplayKeyMonitor
      01000008H   CODE     ---       DrvKey_FactoryKeyInit
      010046FCH   CODE     ---       DrvKey_FactoryKeyMonitor
*SFR* 000000A8H.2 DATA     BIT       E7816
*SFR* 000000A8H.7 DATA     BIT       EA
*SFR* 00000091H   DATA     BYTE      EADR
*SFR* 000000A8H.6 DATA     BIT       EADTP
*SFR* 00000092H   DATA     BYTE      EDTAH
*SFR* 00000094H   DATA     BYTE      EDTAL
*SFR* 00000093H   DATA     BYTE      EDTAM
      02000AEAH   XDATA    ---       EEPROM_MAP_TAB
      0200FFCDH   XDATA    BYTE      EGTRSEND
      0200FFC2H   XDATA    BYTE      EGTSET
      010018D9H   CONST    ---       EMU_CALPARA_DEF_TAB
      010018F2H   CONST    ---       EMU_CFG0_3_DEF_TAB
      01001906H   CONST    ---       EMU_COMM_EMUC_TAB
      01001839H   CONST    ---       EMU_EPADR_INIT_TAB
*SFR* 00000096H   DATA     BYTE      EMUIE
*SFR* 00000097H   DATA     BYTE      EMUIF
*SFR* 00000095H   DATA     BYTE      EMUSR
*SFR* 000000A8H.4 DATA     BIT       ES0
*SFR* 000000A8H.1 DATA     BIT       ET0
*SFR* 000000A8H.3 DATA     BIT       ET1
*SFR* 000000A8H.5 DATA     BIT       ET2
*SFR* 000000A8H   DATA     BIT       EX4
*SFR* 000000ABH   DATA     BYTE      EXCON1
*SFR* 000000ACH   DATA     BYTE      EXCON2
LX51 LINKER/LOCATER V4.66.41.0                                                        11/18/2021  18:51:21  PAGE 33


*SFR* 000000C8H.3 DATA     BIT       EXEN2
*SFR* 000000E8H   DATA     BYTE      EXF0
*SFR* 000000C8H.6 DATA     BIT       EXF2
*SFR* 000000D0H.5 DATA     BIT       F0
*SFR* 000000D0H.1 DATA     BIT       F1
      010014E7H   CONST    ---       fcstab
*SFR* 000000A7H   DATA     BYTE      FLASHCON
      020009D8H   XDATA    ---       GA_uc7816CommBuffer
      02000AD2H   XDATA    ---       GA_ucDesKey
      02000AE2H   XDATA    ---       GA_ucDesTata
      02000C4FH   XDATA    ---       GA_ucDICode
      02000BCBH   XDATA    ---       GA_ucDisperFactor
      02000C13H   XDATA    ---       GA_ucEventRecordBuff
      02000C53H   XDATA    ---       GA_ucOperCode
      02000C57H   XDATA    ---       GA_ucRelayOperCode
      020004F1H   XDATA    ---       GStr_AVAIL
      02000489H   XDATA    ---       GStr_BLEGroup
      020004A3H   XDATA    ---       GStr_Counter
      02000408H   XDATA    ---       GStr_DisplayPara
      020004E7H   XDATA    ---       GStr_Energy
      020005BBH   XDATA    ---       GStr_ENERGYDEC
      02000000H   XDATA    ---       GStr_EnergyPulseBk
      02000008H   XDATA    ---       GStr_EnergyPulseFw
      02000010H   XDATA    ---       GStr_EventNumPiont
      020005D5H   XDATA    ---       GStr_EventRecordNum
      0200057CH   XDATA    ---       GStr_EventValidPiont
      02000528H   XDATA    ---       GStr_Flag
      02000592H   XDATA    ---       GStr_FunConfigPara
      020003EDH   XDATA    ---       GStr_MeterIFO
      02000584H   XDATA    ---       GStr_Money
      020005A2H   XDATA    ---       GStr_MoneyPara
      020004ACH   XDATA    ---       GStr_Monitor
      0200051AH   XDATA    ---       GStr_PRICE
      0200009FH   XDATA    ---       Gstr_UartComm
      02000018H   XDATA    ---       GStr_UIPDisplay
      02000538H   XDATA    ---       GStr_UIPGroup
      02000BD3H   XDATA    ---       GStr_VirtualEsamPara
      01000F8CH   CONST    ---       GT_ucaFactoryVerNo
      01000F94H   CONST    ---       GT_ucaMaterType
      01000F9EH   CONST    ---       GT_ucaProtocolVer
      010000E6H   CONST    ---       GT_ucBuyMoneyRecLen
      010000E1H   CONST    ---       GT_ucBuyMoneyRecOffset
      01000D1CH   CONST    ---       GT_ucEBoxLocation
      01000CECH   CONST    ---       GT_ucEBoxValue
      01000D6CH   CONST    ---       GT_ucPBoxLocation
      01000D4CH   CONST    ---       GT_ucPBoxValue
      01000C0CH   CONST    ---       GT_ucPC_1Location
      01000C44H   CONST    ---       GT_ucPC_1Value
      01000C7CH   CONST    ---       GT_ucPC_2Location
      01000CACH   CONST    ---       GT_ucPC_2Value
      01000D8CH   CONST    ---       GT_ucSBox
      01000CDCH   CONST    ---       GT_ucShiftTable
      01001212H   CONST    ---       GT_ucVirtualEsam
      02000CDEH   XDATA    ---       GU_SecurityErr
      00000020H   DATA     BYTE      GV_bDesRepbit
      02000BCAH   XDATA    BYTE      GV_ucMACErrNum
      0200FFA3H   XDATA    BYTE      HR
*SFR* 000000F2H   DATA     BYTE      IB_CON1
*SFR* 000000F3H   DATA     BYTE      IB_CON2
*SFR* 000000F4H   DATA     BYTE      IB_CON3
*SFR* 000000F5H   DATA     BYTE      IB_CON4
*SFR* 000000F6H   DATA     BYTE      IB_CON5
*SFR* 000000EFH   DATA     BYTE      IB_DATA
*SFR* 000000EEH   DATA     BYTE      IB_OFFSET
*SFR* 000000A8H   DATA     BYTE      IEN0
LX51 LINKER/LOCATER V4.66.41.0                                                        11/18/2021  18:51:21  PAGE 34


*SFR* 000000A9H   DATA     BYTE      IEN1
*SFR* 000000AAH   DATA     BYTE      IENX
*SFR* 00000086H   DATA     BYTE      INSCON
      01003D76H   CODE     ---       Inter_ADC_TPS
      01003DA3H   CODE     ---       Inter_EMU
      0100315EH   CODE     ---       Inter_EUART0
      010032B6H   CODE     ---       Inter_EUART1
      01003E6BH   CODE     ---       Inter_EUART3
      01003C29H   CODE     ---       Inter_INT4
      01003E3EH   CODE     ---       Inter_LPD
      01003E00H   CODE     ---       Inter_RTC
      01003C83H   CODE     ---       Inter_Timer0
      01003C56H   CODE     ---       Inter_Timer1
      01003D49H   CODE     ---       Inter_Timer2
*SFR* 000000BAH   DATA     BYTE      IPH0
*SFR* 000000BBH   DATA     BYTE      IPH1
*SFR* 000000B8H   DATA     BYTE      IPL0
*SFR* 000000B9H   DATA     BYTE      IPL1
*SFR* 000000ADH   DATA     BYTE      IRCON1
*SFR* 000000AFH   DATA     BYTE      IRCON2
*SFR* 000000AEH   DATA     BYTE      IRDAT
      02000C86H   XDATA    ---       LCD_Char_Table
      01001718H   CONST    ---       LCD_COM_CHAR_NUM1
      010016E7H   CONST    ---       LCD_SEG_CHAR_NUM1
*SFR* 000000D1H   DATA     BYTE      LCDCON1
*SFR* 000000D2H   DATA     BYTE      LCDCON2
      01004743H   CODE     ---       LCDDrv_DispRamUpdata
      0100478FH   CODE     ---       LCDDrv_PwOnRegCfg
      01004776H   CODE     ---       LCDDrv_SgeComConfig
*SFR* 000000B5H   DATA     BYTE      LDOCON
      01002DBFH   CODE     ---       LibPub_Delay10us
      01000006H   CODE     ---       LibPub_Delay2us
      01002DC5H   CODE     ---       LibPub_Delay5us
      0100196AH   CODE     ---       LibPub_GetTimerBeat
      010030B1H   CODE     ---       LibPub_GetTimerBeatInt0
      01003209H   CODE     ---       LibPub_GetTimerBeatInt1
*SFR* 000000C6H   DATA     BYTE      LPDCON1
*SFR* 000000C7H   DATA     BYTE      LPDCON2
      01001917H   CODE     ---       main
      0200FFA2H   XDATA    BYTE      MIN
      0200FFA5H   XDATA    BYTE      MTH
*SFR* 000000FEH   DATA     BYTE      OSCLO
*SFR* 000000D0H.2 DATA     BIT       OV
*SFR* 000000D0H   DATA     BIT       P
*SFR* 00000080H   DATA     BYTE      P0
*SFR* 00000080H   DATA     BIT       P0_0
*SFR* 00000080H.1 DATA     BIT       P0_1
*SFR* 00000080H.2 DATA     BIT       P0_2
*SFR* 00000080H.3 DATA     BIT       P0_3
*SFR* 00000080H.4 DATA     BIT       P0_4
*SFR* 00000080H.5 DATA     BIT       P0_5
*SFR* 00000080H.6 DATA     BIT       P0_6
*SFR* 00000080H.7 DATA     BIT       P0_7
      0200FFE0H   XDATA    BYTE      P0CR
      0200FF8BH   XDATA    BYTE      P0DRVH
      0200FFFAH   XDATA    BYTE      P0INM
      0200FF88H   XDATA    BYTE      P0OS
      0200FFF0H   XDATA    BYTE      P0PCR
      0200FF8EH   XDATA    BYTE      P0PHM
*SFR* 00000090H   DATA     BYTE      P1
*SFR* 00000090H   DATA     BIT       P1_0
*SFR* 00000090H.1 DATA     BIT       P1_1
*SFR* 00000090H.2 DATA     BIT       P1_2
*SFR* 00000090H.3 DATA     BIT       P1_3
*SFR* 00000090H.4 DATA     BIT       P1_4
LX51 LINKER/LOCATER V4.66.41.0                                                        11/18/2021  18:51:21  PAGE 35


*SFR* 00000090H.5 DATA     BIT       P1_5
*SFR* 00000090H.6 DATA     BIT       P1_6
*SFR* 00000090H.7 DATA     BIT       P1_7
      0200FFE1H   XDATA    BYTE      P1CR
      0200FF8CH   XDATA    BYTE      P1DRVL
      0200FFF1H   XDATA    BYTE      P1PCR
*SFR* 000000A0H   DATA     BYTE      P2
*SFR* 000000A0H   DATA     BIT       P2_0
*SFR* 000000A0H.1 DATA     BIT       P2_1
*SFR* 000000A0H.2 DATA     BIT       P2_2
*SFR* 000000A0H.3 DATA     BIT       P2_3
*SFR* 000000A0H.4 DATA     BIT       P2_4
*SFR* 000000A0H.5 DATA     BIT       P2_5
*SFR* 000000A0H.6 DATA     BIT       P2_6
*SFR* 000000A0H.7 DATA     BIT       P2_7
      0200FFE2H   XDATA    BYTE      P2CR
      0200FF8DH   XDATA    BYTE      P2DRVH
      0200FFFBH   XDATA    BYTE      P2INM
      0200FF89H   XDATA    BYTE      P2OS
      0200FFF2H   XDATA    BYTE      P2PCR
      0200FF8FH   XDATA    BYTE      P2PHM
*SFR* 000000B0H   DATA     BYTE      P3
*SFR* 000000B0H   DATA     BIT       P3_0
*SFR* 000000B0H.1 DATA     BIT       P3_1
*SFR* 000000B0H.2 DATA     BIT       P3_2
*SFR* 000000B0H.3 DATA     BIT       P3_3
*SFR* 000000B0H.4 DATA     BIT       P3_4
*SFR* 000000B0H.5 DATA     BIT       P3_5
*SFR* 000000B0H.6 DATA     BIT       P3_6
*SFR* 000000B0H.7 DATA     BIT       P3_7
      0200FFE3H   XDATA    BYTE      P3CR
      0200FF8AH   XDATA    BYTE      P3OS
      0200FFF3H   XDATA    BYTE      P3PCR
*SFR* 000000C0H   DATA     BYTE      P4
*SFR* 000000C0H   DATA     BIT       P4_0
*SFR* 000000C0H.1 DATA     BIT       P4_1
*SFR* 000000C0H.2 DATA     BIT       P4_2
*SFR* 000000C0H.3 DATA     BIT       P4_3
*SFR* 000000C0H.4 DATA     BIT       P4_4
*SFR* 000000C0H.5 DATA     BIT       P4_5
*SFR* 000000C0H.6 DATA     BIT       P4_6
*SFR* 000000C0H.7 DATA     BIT       P4_7
      0200FFE4H   XDATA    BYTE      P4CR
      0200FFF4H   XDATA    BYTE      P4PCR
      0200FF80H   XDATA    BYTE      P4SS
*SFR* 000000E9H   DATA     BYTE      P5
      0200FFE5H   XDATA    BYTE      P5CR
      0200FFF5H   XDATA    BYTE      P5PCR
      0200FF81H   XDATA    BYTE      P5SS
*SFR* 000000EAH   DATA     BYTE      P6
      0200FFE6H   XDATA    BYTE      P6CR
      0200FFF6H   XDATA    BYTE      P6PCR
      0200FF82H   XDATA    BYTE      P6SS
*SFR* 000000EBH   DATA     BYTE      P7
*SFR* 000000B8H.2 DATA     BIT       P7816L
      0200FFE7H   XDATA    BYTE      P7CR
      0200FFF7H   XDATA    BYTE      P7PCR
      0200FF83H   XDATA    BYTE      P7SS
*SFR* 000000ECH   DATA     BYTE      P8
      0200FFE8H   XDATA    BYTE      P8CR
      0200FFF8H   XDATA    BYTE      P8PCR
      0200FF84H   XDATA    BYTE      P8SS
*SFR* 000000EDH   DATA     BYTE      P9
      0200FFE9H   XDATA    BYTE      P9CR
      0200FFF9H   XDATA    BYTE      P9PCR
LX51 LINKER/LOCATER V4.66.41.0                                                        11/18/2021  18:51:21  PAGE 36


      0200FF85H   XDATA    BYTE      P9SS
*SFR* 000000B8H.6 DATA     BIT       PADCL
*SFR* 000000E7H   DATA     BYTE      PASLO
*SFR* 000000B6H   DATA     BYTE      PBANK
*SFR* 000000B7H   DATA     BYTE      PBANKLO
*SFR* 00000087H   DATA     BYTE      PCON
      008293DCH   CODE/B2  ---       PrepaymentModule_Comm_ClrMACErrNum
      0082C57DH   CODE/B2  ---       PrepaymentModule_Comm_MACErrNum
      0082C5ADH   CODE/B2  ---       PrepaymentModule_InValidation
*SFR* 000000B8H.4 DATA     BIT       PS0L
*SFR* 000000D0H   DATA     BYTE      PSW
*SFR* 000000B8H.1 DATA     BIT       PT0L
*SFR* 000000B8H.3 DATA     BIT       PT1L
*SFR* 000000B8H.5 DATA     BIT       PT2L
*SFR* 0000009FH   DATA     BYTE      PWMCON
*SFR* 000000B3H   DATA     BYTE      PWRCON1
*SFR* 000000B4H   DATA     BYTE      PWRCON2
*SFR* 000000B8H   DATA     BIT       PX4L
      01000076H   CODE     ---       RAND
*SFR* 00000098H.2 DATA     BIT       RB8
*SFR* 000000D8H.2 DATA     BIT       RB81
*SFR* 000000CBH   DATA     BYTE      RCAP2H
*SFR* 000000CAH   DATA     BYTE      RCAP2L
      010047BAH   CODE     ---       RelayDrv_Closerelay
      010047D4H   CODE     ---       RelayDrv_DelayTimeMonitor
      010047C3H   CODE     ---       RelayDrv_Openrelay
      010047CCH   CODE     ---       RelayDrv_RelayNormal
*SFR* 00000098H.4 DATA     BIT       REN
*SFR* 000000D8H.4 DATA     BIT       REN1
*SFR* 00000098H   DATA     BIT       RI
*SFR* 000000D8H   DATA     BIT       RI1
*SFR* 000000D0H.3 DATA     BIT       RS0
*SFR* 000000D0H.4 DATA     BIT       RS1
*SFR* 000000B1H   DATA     BYTE      RSTSTAT
      0200FFAAH   XDATA    BYTE      RTCALM
      0200FFB3H   XDATA    BYTE      RTCCON
      0200FFA8H   XDATA    BYTE      RTCDATH
      0200FFA9H   XDATA    BYTE      RTCDATL
      0200FFB9H   XDATA    BYTE      RTCECH
      0200FFB8H   XDATA    BYTE      RTCECL
      0200FFB6H   XDATA    BYTE      RTCIE
      0200FFB7H   XDATA    BYTE      RTCIF
      0200FFB5H   XDATA    BYTE      RTCPSW
      0200FFBAH   XDATA    BYTE      RTCTMR
      0200FFB4H   XDATA    BYTE      RTCWR
      0200FFC8H   XDATA    BYTE      RXBUF
      0200FFC5H   XDATA    BYTE      S7816CLKDIV
      0200FFC1H   XDATA    BYTE      S7816CON
      0200FFC0H   XDATA    BYTE      S7816EN
      0200FFCCH   XDATA    BYTE      S7816ERRSTA
      0200FFC6H   XDATA    BYTE      S7816ETUH
      0200FFC7H   XDATA    BYTE      S7816ETUL
      0200FFCAH   XDATA    BYTE      S7816IE
      0200FFCBH   XDATA    BYTE      S7816STA
      0200FFC3H   XDATA    BYTE      S7816WTH
      0200FFC4H   XDATA    BYTE      S7816WTL
*SFR* 0000009AH   DATA     BYTE      SADDR
*SFR* 000000DAH   DATA     BYTE      SADDR1
*SFR* 000000FAH   DATA     BYTE      SADDR2
      0200FFD2H   XDATA    BYTE      SADDR3
*SFR* 0000009BH   DATA     BYTE      SADEN
*SFR* 000000DBH   DATA     BYTE      SADEN1
*SFR* 000000FBH   DATA     BYTE      SADEN2
      0200FFD3H   XDATA    BYTE      SADEN3
*SFR* 000000DCH   DATA     BYTE      SBRT1H
LX51 LINKER/LOCATER V4.66.41.0                                                        11/18/2021  18:51:21  PAGE 37


*SFR* 000000DDH   DATA     BYTE      SBRT1L
*SFR* 000000FCH   DATA     BYTE      SBRT2H
*SFR* 000000FDH   DATA     BYTE      SBRT2L
      0200FFD4H   XDATA    BYTE      SBRT3H
      0200FFD5H   XDATA    BYTE      SBRT3L
*SFR* 0000009CH   DATA     BYTE      SBRTH
*SFR* 0000009DH   DATA     BYTE      SBRTL
      0200FFA0H   XDATA    BYTE      SBSC
*SFR* 00000099H   DATA     BYTE      SBUF
*SFR* 000000D9H   DATA     BYTE      SBUF1
*SFR* 000000F9H   DATA     BYTE      SBUF2
      0200FFD1H   XDATA    BYTE      SBUF3
*SFR* 00000098H   DATA     BYTE      SCON
*SFR* 000000D8H   DATA     BYTE      SCON1
*SFR* 000000F8H   DATA     BYTE      SCON2
      0200FFD0H   XDATA    BYTE      SCON3
      0200FFA1H   XDATA    BYTE      SEC
*SFR* 0000009EH   DATA     BYTE      SFINE
*SFR* 000000DEH   DATA     BYTE      SFINE2
*SFR* 00000098H.7 DATA     BIT       SM0_FE
*SFR* 000000D8H.7 DATA     BIT       SM10_FE1
*SFR* 000000D8H.6 DATA     BIT       SM11_RXOV1
*SFR* 000000D8H.5 DATA     BIT       SM12_TXCOL1
*SFR* 00000098H.6 DATA     BIT       SM1_RXOV
*SFR* 00000098H.5 DATA     BIT       SM2_TXCOL
*SFR* 00000081H   DATA     BYTE      SP
*SFR* 000000A1H   DATA     BYTE      SPCON
*SFR* 000000A3H   DATA     BYTE      SPDAT
*SFR* 000000A2H   DATA     BYTE      SPSTA
      02000C69H   XDATA    ---       Str_EmuCalPara
      02000C5BH   XDATA    ---       Str_UIPKmsPara
*SFR* 0000008EH   DATA     BYTE      SUSLO
*SFR* 000000C8H   DATA     BYTE      T2CON
*SFR* 000000C9H   DATA     BYTE      T2MOD
*SFR* 00000098H.3 DATA     BIT       TB8
*SFR* 000000D8H.3 DATA     BIT       TB81
*SFR* 00000088H   DATA     BYTE      TCON
*SFR* 0000008FH   DATA     BYTE      TCON1
*SFR* 00000088H.5 DATA     BIT       TF0
*SFR* 00000088H.7 DATA     BIT       TF1
*SFR* 000000C8H.7 DATA     BIT       TF2
*SFR* 0000008CH   DATA     BYTE      TH0
*SFR* 0000008DH   DATA     BYTE      TH1
*SFR* 000000CDH   DATA     BYTE      TH2
*SFR* 00000098H.1 DATA     BIT       TI
*SFR* 000000D8H.1 DATA     BIT       TI1
*SFR* 000000D4H   DATA     BYTE      TK0BASEH
*SFR* 000000D3H   DATA     BYTE      TK0BASEL
*SFR* 000000BCH   DATA     BYTE      TK0DIFH
*SFR* 000000CFH   DATA     BYTE      TK0DIFL
*SFR* 000000E2H   DATA     BYTE      TK0H
*SFR* 000000E1H   DATA     BYTE      TK0L
      0200FF93H   XDATA    BYTE      TK0THRH
      0200FF92H   XDATA    BYTE      TK0THRL
*SFR* 000000D6H   DATA     BYTE      TK1BASEH
*SFR* 000000D5H   DATA     BYTE      TK1BASEL
*SFR* 000000BEH   DATA     BYTE      TK1DIFH
*SFR* 000000BDH   DATA     BYTE      TK1DIFL
*SFR* 000000E4H   DATA     BYTE      TK1H
*SFR* 000000E3H   DATA     BYTE      TK1L
      0200FF95H   XDATA    BYTE      TK1THRH
      0200FF94H   XDATA    BYTE      TK1THRL
*SFR* 000000DFH   DATA     BYTE      TK2BASEH
*SFR* 000000D7H   DATA     BYTE      TK2BASEL
*SFR* 000000A5H   DATA     BYTE      TK2DIFH
LX51 LINKER/LOCATER V4.66.41.0                                                        11/18/2021  18:51:21  PAGE 38


*SFR* 000000BFH   DATA     BYTE      TK2DIFL
*SFR* 000000E6H   DATA     BYTE      TK2H
*SFR* 000000E5H   DATA     BYTE      TK2L
      0200FF97H   XDATA    BYTE      TK2THRH
      0200FF96H   XDATA    BYTE      TK2THRL
      0200FF91H   XDATA    BYTE      TKCH
*SFR* 000000A4H   DATA     BYTE      TKCON
      0200FF9CH   XDATA    BYTE      TKDIV01
      0200FF9DH   XDATA    BYTE      TKDIV02
      0200FF9EH   XDATA    BYTE      TKDIV03
      0200FF9FH   XDATA    BYTE      TKDIV04
*SFR* 000000A6H   DATA     BYTE      TKF0
      0200FF9BH   XDATA    BYTE      TKRANDOM
      0200FF9AH   XDATA    BYTE      TKST
      0200FF90H   XDATA    BYTE      TKVREF
*SFR* 0000008AH   DATA     BYTE      TL0
*SFR* 0000008BH   DATA     BYTE      TL1
*SFR* 000000CCH   DATA     BYTE      TL2
*SFR* 00000089H   DATA     BYTE      TMOD
*SFR* 00000088H.4 DATA     BIT       TR0
*SFR* 00000088H.6 DATA     BIT       TR1
*SFR* 000000C8H.2 DATA     BIT       TR2
      0200FFC9H   XDATA    BYTE      TXBUF
*SFR* 000000F7H   DATA     BYTE      XPAGE
      0200FFA6H   XDATA    BYTE      YR



SYMBOL TABLE OF MODULE:  DDSYU666-2019 (APPCOMM)

      VALUE       REP       CLASS    TYPE      SYMBOL NAME
      ====================================================
      ---         MODULE    ---      ---       APPCOMM
      008282CAH   PUBLIC    CODE/B2  ---       _ApiComm_CommParaInit
      00828000H   PUBLIC    CODE/B2  ---       ApiComm_CommTask
      000000F3H   SFRSYM    DATA     BYTE      IB_CON2
      000000D8H.3 SFRSYM    DATA     BIT       TB81
      00000080H   SFRSYM    DATA     BYTE      P0
      000000F4H   SFRSYM    DATA     BYTE      IB_CON3
      000000A4H   SFRSYM    DATA     BYTE      TKCON
      00000090H   SFRSYM    DATA     BYTE      P1
      000000F5H   SFRSYM    DATA     BYTE      IB_CON4
      000000E7H   SFRSYM    DATA     BYTE      PASLO
      000000A0H   SFRSYM    DATA     BYTE      P2
      000000FEH   SFRSYM    DATA     BYTE      OSCLO
      000000F6H   SFRSYM    DATA     BYTE      IB_CON5
      00000098H.6 SFRSYM    DATA     BIT       SM1_RXOV
      000000B0H   SFRSYM    DATA     BYTE      P3
      000000D0H.6 SFRSYM    DATA     BIT       AC
      000000C0H   SFRSYM    DATA     BYTE      P4
      000000A1H   SFRSYM    DATA     BYTE      SPCON
      0000009CH   SFRSYM    DATA     BYTE      SBRTH
      000000E9H   SFRSYM    DATA     BYTE      P5
      000000A8H.7 SFRSYM    DATA     BIT       EA
      000000EAH   SFRSYM    DATA     BYTE      P6
      000000EBH   SFRSYM    DATA     BYTE      P7
      000000EFH   SFRSYM    DATA     BYTE      IB_DATA
      000000ECH   SFRSYM    DATA     BYTE      P8
      0000009DH   SFRSYM    DATA     BYTE      SBRTL
      000000EDH   SFRSYM    DATA     BYTE      P9
      000000B7H   SFRSYM    DATA     BYTE      PBANKLO
      000000A2H   SFRSYM    DATA     BYTE      SPSTA
      000000A8H   SFRSYM    DATA     BYTE      IEN0
      000000B3H   SFRSYM    DATA     BYTE      PWRCON1
      00000095H   SFRSYM    DATA     BYTE      EMUSR
LX51 LINKER/LOCATER V4.66.41.0                                                        11/18/2021  18:51:21  PAGE 39


      000000A9H   SFRSYM    DATA     BYTE      IEN1
      000000B4H   SFRSYM    DATA     BYTE      PWRCON2
      00000085H   SFRSYM    DATA     BYTE      DPH1
      00000080H   SFRSYM    DATA     BIT       P0_0
      00000090H   SFRSYM    DATA     BIT       P1_0
      00000080H.1 SFRSYM    DATA     BIT       P0_1
      000000C3H   SFRSYM    DATA     BYTE      ADCH
      000000A0H   SFRSYM    DATA     BIT       P2_0
      00000090H.1 SFRSYM    DATA     BIT       P1_1
      00000080H.2 SFRSYM    DATA     BIT       P0_2
      000000BAH   SFRSYM    DATA     BYTE      IPH0
      00000084H   SFRSYM    DATA     BYTE      DPL1
      000000B0H   SFRSYM    DATA     BIT       P3_0
      000000A0H.1 SFRSYM    DATA     BIT       P2_1
      00000090H.2 SFRSYM    DATA     BIT       P1_2
      00000080H.3 SFRSYM    DATA     BIT       P0_3
      000000BBH   SFRSYM    DATA     BYTE      IPH1
      000000C0H   SFRSYM    DATA     BIT       P4_0
      000000B0H.1 SFRSYM    DATA     BIT       P3_1
      000000A0H.2 SFRSYM    DATA     BIT       P2_2
      00000090H.3 SFRSYM    DATA     BIT       P1_3
      00000080H.4 SFRSYM    DATA     BIT       P0_4
      000000E8H   SFRSYM    DATA     BYTE      EXF0
      000000C0H.1 SFRSYM    DATA     BIT       P4_1
      000000B0H.2 SFRSYM    DATA     BIT       P3_2
      000000A0H.3 SFRSYM    DATA     BIT       P2_3
      00000090H.4 SFRSYM    DATA     BIT       P1_4
      00000080H.5 SFRSYM    DATA     BIT       P0_5
      000000C0H.2 SFRSYM    DATA     BIT       P4_2
      000000B0H.3 SFRSYM    DATA     BIT       P3_3
      000000A0H.4 SFRSYM    DATA     BIT       P2_4
      00000090H.5 SFRSYM    DATA     BIT       P1_5
      00000080H.6 SFRSYM    DATA     BIT       P0_6
      000000C8H.6 SFRSYM    DATA     BIT       EXF2
      000000A6H   SFRSYM    DATA     BYTE      TKF0
      000000B8H   SFRSYM    DATA     BYTE      IPL0
      000000C0H.3 SFRSYM    DATA     BIT       P4_3
      000000B0H.4 SFRSYM    DATA     BIT       P3_4
      000000A0H.5 SFRSYM    DATA     BIT       P2_5
      00000090H.6 SFRSYM    DATA     BIT       P1_6
      00000080H.7 SFRSYM    DATA     BIT       P0_7
      000000D8H.4 SFRSYM    DATA     BIT       REN1
      000000B9H   SFRSYM    DATA     BYTE      IPL1
      000000C0H.4 SFRSYM    DATA     BIT       P4_4
      000000B0H.5 SFRSYM    DATA     BIT       P3_5
      000000A0H.6 SFRSYM    DATA     BIT       P2_6
      00000090H.7 SFRSYM    DATA     BIT       P1_7
      000000E2H   SFRSYM    DATA     BYTE      TK0H
      0000008EH   SFRSYM    DATA     BYTE      SUSLO
      000000C0H.5 SFRSYM    DATA     BIT       P4_5
      000000B0H.6 SFRSYM    DATA     BIT       P3_6
      000000A0H.7 SFRSYM    DATA     BIT       P2_7
      000000E4H   SFRSYM    DATA     BYTE      TK1H
      000000C0H.6 SFRSYM    DATA     BIT       P4_6
      000000B0H.7 SFRSYM    DATA     BIT       P3_7
      000000E6H   SFRSYM    DATA     BYTE      TK2H
      000000C0H.7 SFRSYM    DATA     BIT       P4_7
      00000098H   SFRSYM    DATA     BIT       RI
      000000A8H.2 SFRSYM    DATA     BIT       E7816
      000000D0H.7 SFRSYM    DATA     BIT       CY
      000000E1H   SFRSYM    DATA     BYTE      TK0L
      00000098H.1 SFRSYM    DATA     BIT       TI
      00000091H   SFRSYM    DATA     BYTE      EADR
      000000E3H   SFRSYM    DATA     BYTE      TK1L
      000000E5H   SFRSYM    DATA     BYTE      TK2L
LX51 LINKER/LOCATER V4.66.41.0                                                        11/18/2021  18:51:21  PAGE 40


      000000DBH   SFRSYM    DATA     BYTE      SADEN1
      000000D8H.7 SFRSYM    DATA     BIT       SM10_FE1
      000000FBH   SFRSYM    DATA     BYTE      SADEN2
      000000B8H.4 SFRSYM    DATA     BIT       PS0L
      000000B8H.1 SFRSYM    DATA     BIT       PT0L
      000000DAH   SFRSYM    DATA     BYTE      SADDR1
      000000D8H.5 SFRSYM    DATA     BIT       SM12_TXCOL1
      000000B8H.3 SFRSYM    DATA     BIT       PT1L
      000000FAH   SFRSYM    DATA     BYTE      SADDR2
      000000CBH   SFRSYM    DATA     BYTE      RCAP2H
      000000B8H.5 SFRSYM    DATA     BIT       PT2L
      00000081H   SFRSYM    DATA     BYTE      SP
      000000D0H.2 SFRSYM    DATA     BIT       OV
      000000CAH   SFRSYM    DATA     BYTE      RCAP2L
      000000B8H   SFRSYM    DATA     BIT       PX4L
      000000C8H.1 SFRSYM    DATA     BIT       C_T2
      000000DEH   SFRSYM    DATA     BYTE      SFINE2
      000000ADH   SFRSYM    DATA     BYTE      IRCON1
      000000AFH   SFRSYM    DATA     BYTE      IRCON2
      000000ABH   SFRSYM    DATA     BYTE      EXCON1
      00000099H   SFRSYM    DATA     BYTE      SBUF
      000000ACH   SFRSYM    DATA     BYTE      EXCON2
      00000087H   SFRSYM    DATA     BYTE      PCON
      000000F1H   SFRSYM    DATA     BYTE      AUXC
      00000098H   SFRSYM    DATA     BYTE      SCON
      000000D4H   SFRSYM    DATA     BYTE      TK0BASEH
      00000089H   SFRSYM    DATA     BYTE      TMOD
      00000088H   SFRSYM    DATA     BYTE      TCON
      000000AAH   SFRSYM    DATA     BYTE      IENX
      000000EEH   SFRSYM    DATA     BYTE      IB_OFFSET
      000000D6H   SFRSYM    DATA     BYTE      TK1BASEH
      000000DCH   SFRSYM    DATA     BYTE      SBRT1H
      000000DFH   SFRSYM    DATA     BYTE      TK2BASEH
      000000FCH   SFRSYM    DATA     BYTE      SBRT2H
      000000B1H   SFRSYM    DATA     BYTE      RSTSTAT
      000000D3H   SFRSYM    DATA     BYTE      TK0BASEL
      000000D5H   SFRSYM    DATA     BYTE      TK1BASEL
      000000DDH   SFRSYM    DATA     BYTE      SBRT1L
      000000D7H   SFRSYM    DATA     BYTE      TK2BASEL
      000000FDH   SFRSYM    DATA     BYTE      SBRT2L
      00000098H.7 SFRSYM    DATA     BIT       SM0_FE
      000000B2H   SFRSYM    DATA     BYTE      CLKCON
      00000098H.5 SFRSYM    DATA     BIT       SM2_TXCOL
      000000B5H   SFRSYM    DATA     BYTE      LDOCON
      000000F0H   SFRSYM    DATA     BYTE      B
      000000C8H   SFRSYM    DATA     BIT       CP_RL2
      000000E0H   SFRSYM    DATA     BYTE      ACC
      000000A8H.4 SFRSYM    DATA     BIT       ES0
      000000A8H.1 SFRSYM    DATA     BIT       ET0
      000000A8H.3 SFRSYM    DATA     BIT       ET1
      00000088H.5 SFRSYM    DATA     BIT       TF0
      000000A8H.5 SFRSYM    DATA     BIT       ET2
      00000088H.7 SFRSYM    DATA     BIT       TF1
      000000D8H   SFRSYM    DATA     BIT       RI1
      00000098H.2 SFRSYM    DATA     BIT       RB8
      000000C8H.7 SFRSYM    DATA     BIT       TF2
      0000008CH   SFRSYM    DATA     BYTE      TH0
      00000086H   SFRSYM    DATA     BYTE      INSCON
      0000008DH   SFRSYM    DATA     BYTE      TH1
      000000D8H.1 SFRSYM    DATA     BIT       TI1
      00000098H.3 SFRSYM    DATA     BIT       TB8
      000000CDH   SFRSYM    DATA     BYTE      TH2
      000000D0H   SFRSYM    DATA     BIT       P
      0000008AH   SFRSYM    DATA     BYTE      TL0
      000000A8H   SFRSYM    DATA     BIT       EX4
LX51 LINKER/LOCATER V4.66.41.0                                                        11/18/2021  18:51:21  PAGE 41


      0000008BH   SFRSYM    DATA     BYTE      TL1
      000000A7H   SFRSYM    DATA     BYTE      FLASHCON
      000000CCH   SFRSYM    DATA     BYTE      TL2
      000000D0H.3 SFRSYM    DATA     BIT       RS0
      000000C5H   SFRSYM    DATA     BYTE      ADCDH
      00000088H.4 SFRSYM    DATA     BIT       TR0
      000000D0H.4 SFRSYM    DATA     BIT       RS1
      0000009FH   SFRSYM    DATA     BYTE      PWMCON
      00000088H.6 SFRSYM    DATA     BIT       TR1
      000000C8H.2 SFRSYM    DATA     BIT       TR2
      000000C4H   SFRSYM    DATA     BYTE      ADCDL
      000000C2H   SFRSYM    DATA     BYTE      ADT
      00000083H   SFRSYM    DATA     BYTE      DPH
      00000082H   SFRSYM    DATA     BYTE      DPL
      000000D9H   SFRSYM    DATA     BYTE      SBUF1
      000000C8H.3 SFRSYM    DATA     BIT       EXEN2
      000000F9H   SFRSYM    DATA     BYTE      SBUF2
      000000D8H.6 SFRSYM    DATA     BIT       SM11_RXOV1
      000000B8H.6 SFRSYM    DATA     BIT       PADCL
      00000098H.4 SFRSYM    DATA     BIT       REN
      000000D8H   SFRSYM    DATA     BYTE      SCON1
      000000D1H   SFRSYM    DATA     BYTE      LCDCON1
      000000C1H   SFRSYM    DATA     BYTE      ADCON
      000000F8H   SFRSYM    DATA     BYTE      SCON2
      0000008FH   SFRSYM    DATA     BYTE      TCON1
      000000D2H   SFRSYM    DATA     BYTE      LCDCON2
      00000092H   SFRSYM    DATA     BYTE      EDTAH
      000000C9H   SFRSYM    DATA     BYTE      T2MOD
      000000C8H   SFRSYM    DATA     BYTE      T2CON
      00000094H   SFRSYM    DATA     BYTE      EDTAL
      00000093H   SFRSYM    DATA     BYTE      EDTAM
      000000BCH   SFRSYM    DATA     BYTE      TK0DIFH
      0000009BH   SFRSYM    DATA     BYTE      SADEN
      000000BEH   SFRSYM    DATA     BYTE      TK1DIFH
      000000B6H   SFRSYM    DATA     BYTE      PBANK
      000000A5H   SFRSYM    DATA     BYTE      TK2DIFH
      000000A8H.6 SFRSYM    DATA     BIT       EADTP
      0000009AH   SFRSYM    DATA     BYTE      SADDR
      000000CFH   SFRSYM    DATA     BYTE      TK0DIFL
      000000BDH   SFRSYM    DATA     BYTE      TK1DIFL
      000000BFH   SFRSYM    DATA     BYTE      TK2DIFL
      000000B8H.2 SFRSYM    DATA     BIT       P7816L
      000000C6H   SFRSYM    DATA     BYTE      LPDCON1
      000000C7H   SFRSYM    DATA     BYTE      LPDCON2
      000000D0H.5 SFRSYM    DATA     BIT       F0
      000000AEH   SFRSYM    DATA     BYTE      IRDAT
      000000D0H.1 SFRSYM    DATA     BIT       F1
      00000096H   SFRSYM    DATA     BYTE      EMUIE
      0000009EH   SFRSYM    DATA     BYTE      SFINE
      000000F7H   SFRSYM    DATA     BYTE      XPAGE
      00000097H   SFRSYM    DATA     BYTE      EMUIF
      000000D0H   SFRSYM    DATA     BYTE      PSW
      000000D8H.2 SFRSYM    DATA     BIT       RB81
      000000A3H   SFRSYM    DATA     BYTE      SPDAT
      000000F2H   SFRSYM    DATA     BYTE      IB_CON1
      0082802FH   SYMBOL    CODE/B2  ---       _ApiComm_ChannelProcess
      0082829BH   SYMBOL    CODE/B2  ---       _ApiComm_ProtocolProcess

      00828000H   BLOCK     CODE/B2  ---       LVL=0
      00828000H   LINE      ---      ---       #86
      00828000H   LINE      ---      ---       #87
      00828000H   BLOCK     CODE/B2  NEAR LAB  LVL=1
      00828000H   LINE      ---      ---       #90
      00828007H   LINE      ---      ---       #91
      00828007H   LINE      ---      ---       #93
LX51 LINKER/LOCATER V4.66.41.0                                                        11/18/2021  18:51:21  PAGE 42


      00828007H   LINE      ---      ---       #96
      00828016H   LINE      ---      ---       #97
      00828016H   LINE      ---      ---       #98
      00828018H   LINE      ---      ---       #99
      0082801FH   LINE      ---      ---       #100
      00828026H   LINE      ---      ---       #101
      0082802EH   LINE      ---      ---       #102
      02000609H   SYMBOL    XDATA    BYTE      V_ucCnti
      ---         BLOCKEND  CODE/B2  ---       LVL=1
      ---         BLOCKEND  CODE/B2  ---       LVL=0

      0082802FH   BLOCK     CODE/B2  ---       LVL=0
      0082802FH   LINE      ---      ---       #116
      00828034H   LINE      ---      ---       #117
      0200060AH   SYMBOL    XDATA    BYTE      v_ucChID
      00828034H   BLOCK     CODE/B2  NEAR LAB  LVL=1
      00828034H   LINE      ---      ---       #118
      00828038H   LINE      ---      ---       #119
      00828040H   LINE      ---      ---       #121
      00828078H   LINE      ---      ---       #122
      00828078H   LINE      ---      ---       #125
      00828078H   LINE      ---      ---       #126
      00828078H   LINE      ---      ---       #127
      008280C0H   LINE      ---      ---       #128
      008280C0H   LINE      ---      ---       #129
      008280C0H   LINE      ---      ---       #130
      008280C0H   LINE      ---      ---       #132
      008280C2H   LINE      ---      ---       #135
      008280C2H   LINE      ---      ---       #136
      008280C2H   LINE      ---      ---       #137
      008280FCH   LINE      ---      ---       #139
      008280FCH   LINE      ---      ---       #140
      008280FCH   LINE      ---      ---       #141
      008280FCH   LINE      ---      ---       #142
      008280FEH   LINE      ---      ---       #145
      008280FEH   LINE      ---      ---       #146
      008280FEH   LINE      ---      ---       #147
      00828138H   LINE      ---      ---       #149
      00828138H   LINE      ---      ---       #150
      0082813CH   LINE      ---      ---       #151
      0082813CH   LINE      ---      ---       #152
      0082813EH   LINE      ---      ---       #171
      0082813EH   LINE      ---      ---       #172
      0082813EH   LINE      ---      ---       #173
      00828144H   LINE      ---      ---       #175
      008281E2H   LINE      ---      ---       #177
      008281E2H   LINE      ---      ---       #178
      008281E9H   LINE      ---      ---       #179
      008281E9H   LINE      ---      ---       #180
      008281EBH   LINE      ---      ---       #183
      008281EBH   LINE      ---      ---       #184
      008281EBH   LINE      ---      ---       #185
      008281F0H   LINE      ---      ---       #187
      008281FAH   LINE      ---      ---       #188
      008281FAH   LINE      ---      ---       #189
      008281FDH   LINE      ---      ---       #190
      008281FDH   LINE      ---      ---       #191
      008281FFH   LINE      ---      ---       #194
      008281FFH   LINE      ---      ---       #195
      008281FFH   LINE      ---      ---       #196
      0082821AH   LINE      ---      ---       #197
      00828238H   LINE      ---      ---       #200
      0082823BH   LINE      ---      ---       #201
      0082823BH   LINE      ---      ---       #202
      0082823FH   LINE      ---      ---       #203
LX51 LINKER/LOCATER V4.66.41.0                                                        11/18/2021  18:51:21  PAGE 43


      0082824EH   LINE      ---      ---       #204
      00828251H   LINE      ---      ---       #205
      00828251H   LINE      ---      ---       #206
      00828253H   LINE      ---      ---       #207
      00828255H   LINE      ---      ---       #209
      00828255H   LINE      ---      ---       #210
      00828257H   LINE      ---      ---       #211
      00828257H   LINE      ---      ---       #212
      00828259H   LINE      ---      ---       #213
      00828259H   LINE      ---      ---       #215
      00828260H   LINE      ---      ---       #216
      00828260H   LINE      ---      ---       #218
      00828265H   LINE      ---      ---       #219
      00828274H   LINE      ---      ---       #220
      00828277H   LINE      ---      ---       #221
      00828277H   LINE      ---      ---       #222
      00828279H   LINE      ---      ---       #223
      0082827BH   LINE      ---      ---       #225
      0082827BH   LINE      ---      ---       #226
      0082827DH   LINE      ---      ---       #227
      0082827DH   LINE      ---      ---       #228
      0082827FH   LINE      ---      ---       #229
      0082827FH   LINE      ---      ---       #231
      0082827FH   LINE      ---      ---       #233
      0082827FH   LINE      ---      ---       #234
      0082827FH   LINE      ---      ---       #236
      00828285H   LINE      ---      ---       #237
      00828285H   LINE      ---      ---       #239
      0082828BH   LINE      ---      ---       #240
      0082828BH   LINE      ---      ---       #241
      0082828CH   LINE      ---      ---       #242
      0082828EH   LINE      ---      ---       #243
      00828295H   LINE      ---      ---       #244
      00828295H   LINE      ---      ---       #245
      0082829AH   LINE      ---      ---       #246
      0082829AH   LINE      ---      ---       #248
      0082829AH   LINE      ---      ---       #249
      0200060BH   SYMBOL    XDATA    BYTE      V_ucInitUartFlg
      0200060CH   SYMBOL    XDATA    DWORD     V_ulTempData
      ---         BLOCKEND  CODE/B2  ---       LVL=1
      ---         BLOCKEND  CODE/B2  ---       LVL=0

      0082829BH   BLOCK     CODE/B2  ---       LVL=0
      0082829BH   LINE      ---      ---       #262
      0082829BH   LINE      ---      ---       #263
      0082829BH   LINE      ---      ---       #264
      008282B1H   LINE      ---      ---       #265
      008282B1H   LINE      ---      ---       #266
      008282C6H   LINE      ---      ---       #267
      008282C9H   LINE      ---      ---       #268
      008282C9H   LINE      ---      ---       #269
      00000007H   SYMBOL    DATA     BYTE      v_ucChID
      ---         BLOCKEND  ---      ---       LVL=0

      008282CAH   BLOCK     CODE/B2  ---       LVL=0
      008282CAH   LINE      ---      ---       #284
      008282CFH   LINE      ---      ---       #285
      008282CFH   LINE      ---      ---       #315
      008282EBH   LINE      ---      ---       #316
      00828306H   LINE      ---      ---       #317
      00828321H   LINE      ---      ---       #318
      0082833CH   LINE      ---      ---       #319
      00828357H   LINE      ---      ---       #320
      00828376H   LINE      ---      ---       #321
      00828396H   LINE      ---      ---       #322
LX51 LINKER/LOCATER V4.66.41.0                                                        11/18/2021  18:51:21  PAGE 44


      008283B6H   LINE      ---      ---       #323
      008283D6H   LINE      ---      ---       #324
      008283F1H   LINE      ---      ---       #325
      0082840CH   LINE      ---      ---       #326
      02000CE6H   SYMBOL    XDATA    BYTE      v_ucChID
      ---         BLOCKEND  ---      ---       LVL=0

      ---         MODULE    ---      ---       APPDLT645
      02000CDEH   PUBLIC    XDATA    ---       GU_SecurityErr
      01001212H   PUBLIC    CONST    ---       GT_ucVirtualEsam
      0100120BH   PUBLIC    CONST    ---       C_ulaSafeCertification_ReturnType
      01001204H   PUBLIC    CONST    ---       C_ulaSafeCertification_ReturnLen
      010011FDH   PUBLIC    CONST    ---       C_ulaSafeCertification_Len
      010011E1H   PUBLIC    CONST    ---       C_ulaSafeCertification_Code
      01000FAEH   PUBLIC    CONST    ---       C_cBleComm_Head
      01000F9EH   PUBLIC    CONST    ---       GT_ucaProtocolVer
      01000F94H   PUBLIC    CONST    ---       GT_ucaMaterType
      01000F8CH   PUBLIC    CONST    ---       GT_ucaFactoryVerNo
      0082DCAAH   PUBLIC    CODE/B2  ---       ApiDLT645_GetStatusFlag3
      0082DD14H   PUBLIC    CODE/B2  ---       _ApiDLT645_ModifyPsw
      0082D7F6H   PUBLIC    CODE/B2  ---       _ApiDLT645_AccountTx
      008295B3H   PUBLIC    CODE/B2  ---       _ApiDLT645_MeterClear
      0082D341H   PUBLIC    CODE/B2  ---       _ApiDLT645_SafeCertification
      0082C068H   PUBLIC    CODE/B2  ---       _ApiDLT645_RelayControl
      008293E9H   PUBLIC    CODE/B2  ---       _ApiDLT645_AddrTypeCheck
      008289B3H   PUBLIC    CODE/B2  ---       _ApiDLT645_FrameAnalysis
      008286A4H   PUBLIC    CODE/B2  ---       _ApiDLT645_UARTReceiveDataJudge1
      0082840DH   PUBLIC    CODE/B2  ---       _ApiDLT645_UARTReceiveDataJudge0
      000000F3H   SFRSYM    DATA     BYTE      IB_CON2
      000000D8H.3 SFRSYM    DATA     BIT       TB81
      00000080H   SFRSYM    DATA     BYTE      P0
      000000F4H   SFRSYM    DATA     BYTE      IB_CON3
      000000A4H   SFRSYM    DATA     BYTE      TKCON
      00000090H   SFRSYM    DATA     BYTE      P1
      000000F5H   SFRSYM    DATA     BYTE      IB_CON4
      000000E7H   SFRSYM    DATA     BYTE      PASLO
      000000A0H   SFRSYM    DATA     BYTE      P2
      000000FEH   SFRSYM    DATA     BYTE      OSCLO
      000000F6H   SFRSYM    DATA     BYTE      IB_CON5
      00000098H.6 SFRSYM    DATA     BIT       SM1_RXOV
      000000B0H   SFRSYM    DATA     BYTE      P3
      000000D0H.6 SFRSYM    DATA     BIT       AC
      000000C0H   SFRSYM    DATA     BYTE      P4
      000000A1H   SFRSYM    DATA     BYTE      SPCON
      0000009CH   SFRSYM    DATA     BYTE      SBRTH
      000000E9H   SFRSYM    DATA     BYTE      P5
      000000A8H.7 SFRSYM    DATA     BIT       EA
      000000EAH   SFRSYM    DATA     BYTE      P6
      000000EBH   SFRSYM    DATA     BYTE      P7
      000000EFH   SFRSYM    DATA     BYTE      IB_DATA
      000000ECH   SFRSYM    DATA     BYTE      P8
      0000009DH   SFRSYM    DATA     BYTE      SBRTL
      000000EDH   SFRSYM    DATA     BYTE      P9
      000000B7H   SFRSYM    DATA     BYTE      PBANKLO
      000000A2H   SFRSYM    DATA     BYTE      SPSTA
      000000A8H   SFRSYM    DATA     BYTE      IEN0
      000000B3H   SFRSYM    DATA     BYTE      PWRCON1
      00000095H   SFRSYM    DATA     BYTE      EMUSR
      000000A9H   SFRSYM    DATA     BYTE      IEN1
      000000B4H   SFRSYM    DATA     BYTE      PWRCON2
      00000085H   SFRSYM    DATA     BYTE      DPH1
      00000080H   SFRSYM    DATA     BIT       P0_0
      00000090H   SFRSYM    DATA     BIT       P1_0
      00000080H.1 SFRSYM    DATA     BIT       P0_1
      000000C3H   SFRSYM    DATA     BYTE      ADCH
LX51 LINKER/LOCATER V4.66.41.0                                                        11/18/2021  18:51:21  PAGE 45


      000000A0H   SFRSYM    DATA     BIT       P2_0
      00000090H.1 SFRSYM    DATA     BIT       P1_1
      00000080H.2 SFRSYM    DATA     BIT       P0_2
      000000BAH   SFRSYM    DATA     BYTE      IPH0
      00000084H   SFRSYM    DATA     BYTE      DPL1
      000000B0H   SFRSYM    DATA     BIT       P3_0
      000000A0H.1 SFRSYM    DATA     BIT       P2_1
      00000090H.2 SFRSYM    DATA     BIT       P1_2
      00000080H.3 SFRSYM    DATA     BIT       P0_3
      000000BBH   SFRSYM    DATA     BYTE      IPH1
      000000C0H   SFRSYM    DATA     BIT       P4_0
      000000B0H.1 SFRSYM    DATA     BIT       P3_1
      000000A0H.2 SFRSYM    DATA     BIT       P2_2
      00000090H.3 SFRSYM    DATA     BIT       P1_3
      00000080H.4 SFRSYM    DATA     BIT       P0_4
      000000E8H   SFRSYM    DATA     BYTE      EXF0
      000000C0H.1 SFRSYM    DATA     BIT       P4_1
      000000B0H.2 SFRSYM    DATA     BIT       P3_2
      000000A0H.3 SFRSYM    DATA     BIT       P2_3
      00000090H.4 SFRSYM    DATA     BIT       P1_4
      00000080H.5 SFRSYM    DATA     BIT       P0_5
      000000C0H.2 SFRSYM    DATA     BIT       P4_2
      000000B0H.3 SFRSYM    DATA     BIT       P3_3
      000000A0H.4 SFRSYM    DATA     BIT       P2_4
      00000090H.5 SFRSYM    DATA     BIT       P1_5
      00000080H.6 SFRSYM    DATA     BIT       P0_6
      000000C8H.6 SFRSYM    DATA     BIT       EXF2
      000000A6H   SFRSYM    DATA     BYTE      TKF0
      000000B8H   SFRSYM    DATA     BYTE      IPL0
      000000C0H.3 SFRSYM    DATA     BIT       P4_3
      000000B0H.4 SFRSYM    DATA     BIT       P3_4
      000000A0H.5 SFRSYM    DATA     BIT       P2_5
      00000090H.6 SFRSYM    DATA     BIT       P1_6
      00000080H.7 SFRSYM    DATA     BIT       P0_7
      000000D8H.4 SFRSYM    DATA     BIT       REN1
      000000B9H   SFRSYM    DATA     BYTE      IPL1
      000000C0H.4 SFRSYM    DATA     BIT       P4_4
      000000B0H.5 SFRSYM    DATA     BIT       P3_5
      000000A0H.6 SFRSYM    DATA     BIT       P2_6
      00000090H.7 SFRSYM    DATA     BIT       P1_7
      000000E2H   SFRSYM    DATA     BYTE      TK0H
      0000008EH   SFRSYM    DATA     BYTE      SUSLO
      000000C0H.5 SFRSYM    DATA     BIT       P4_5
      000000B0H.6 SFRSYM    DATA     BIT       P3_6
      000000A0H.7 SFRSYM    DATA     BIT       P2_7
      000000E4H   SFRSYM    DATA     BYTE      TK1H
      000000C0H.6 SFRSYM    DATA     BIT       P4_6
      000000B0H.7 SFRSYM    DATA     BIT       P3_7
      000000E6H   SFRSYM    DATA     BYTE      TK2H
      000000C0H.7 SFRSYM    DATA     BIT       P4_7
      00000098H   SFRSYM    DATA     BIT       RI
      000000A8H.2 SFRSYM    DATA     BIT       E7816
      000000D0H.7 SFRSYM    DATA     BIT       CY
      000000E1H   SFRSYM    DATA     BYTE      TK0L
      00000098H.1 SFRSYM    DATA     BIT       TI
      00000091H   SFRSYM    DATA     BYTE      EADR
      000000E3H   SFRSYM    DATA     BYTE      TK1L
      000000E5H   SFRSYM    DATA     BYTE      TK2L
      000000DBH   SFRSYM    DATA     BYTE      SADEN1
      000000D8H.7 SFRSYM    DATA     BIT       SM10_FE1
      000000FBH   SFRSYM    DATA     BYTE      SADEN2
      000000B8H.4 SFRSYM    DATA     BIT       PS0L
      000000B8H.1 SFRSYM    DATA     BIT       PT0L
      000000DAH   SFRSYM    DATA     BYTE      SADDR1
      000000D8H.5 SFRSYM    DATA     BIT       SM12_TXCOL1
LX51 LINKER/LOCATER V4.66.41.0                                                        11/18/2021  18:51:21  PAGE 46


      000000B8H.3 SFRSYM    DATA     BIT       PT1L
      000000FAH   SFRSYM    DATA     BYTE      SADDR2
      000000CBH   SFRSYM    DATA     BYTE      RCAP2H
      000000B8H.5 SFRSYM    DATA     BIT       PT2L
      00000081H   SFRSYM    DATA     BYTE      SP
      000000D0H.2 SFRSYM    DATA     BIT       OV
      000000CAH   SFRSYM    DATA     BYTE      RCAP2L
      000000B8H   SFRSYM    DATA     BIT       PX4L
      000000C8H.1 SFRSYM    DATA     BIT       C_T2
      000000DEH   SFRSYM    DATA     BYTE      SFINE2
      000000ADH   SFRSYM    DATA     BYTE      IRCON1
      000000AFH   SFRSYM    DATA     BYTE      IRCON2
      000000ABH   SFRSYM    DATA     BYTE      EXCON1
      00000099H   SFRSYM    DATA     BYTE      SBUF
      000000ACH   SFRSYM    DATA     BYTE      EXCON2
      00000087H   SFRSYM    DATA     BYTE      PCON
      000000F1H   SFRSYM    DATA     BYTE      AUXC
      00000098H   SFRSYM    DATA     BYTE      SCON
      000000D4H   SFRSYM    DATA     BYTE      TK0BASEH
      00000089H   SFRSYM    DATA     BYTE      TMOD
      00000088H   SFRSYM    DATA     BYTE      TCON
      000000AAH   SFRSYM    DATA     BYTE      IENX
      000000EEH   SFRSYM    DATA     BYTE      IB_OFFSET
      000000D6H   SFRSYM    DATA     BYTE      TK1BASEH
      000000DCH   SFRSYM    DATA     BYTE      SBRT1H
      000000DFH   SFRSYM    DATA     BYTE      TK2BASEH
      000000FCH   SFRSYM    DATA     BYTE      SBRT2H
      000000B1H   SFRSYM    DATA     BYTE      RSTSTAT
      000000D3H   SFRSYM    DATA     BYTE      TK0BASEL
      000000D5H   SFRSYM    DATA     BYTE      TK1BASEL
      000000DDH   SFRSYM    DATA     BYTE      SBRT1L
      000000D7H   SFRSYM    DATA     BYTE      TK2BASEL
      000000FDH   SFRSYM    DATA     BYTE      SBRT2L
      00000098H.7 SFRSYM    DATA     BIT       SM0_FE
      000000B2H   SFRSYM    DATA     BYTE      CLKCON
      00000098H.5 SFRSYM    DATA     BIT       SM2_TXCOL
      000000B5H   SFRSYM    DATA     BYTE      LDOCON
      000000F0H   SFRSYM    DATA     BYTE      B
      000000C8H   SFRSYM    DATA     BIT       CP_RL2
      000000E0H   SFRSYM    DATA     BYTE      ACC
      000000A8H.4 SFRSYM    DATA     BIT       ES0
      000000A8H.1 SFRSYM    DATA     BIT       ET0
      000000A8H.3 SFRSYM    DATA     BIT       ET1
      00000088H.5 SFRSYM    DATA     BIT       TF0
      000000A8H.5 SFRSYM    DATA     BIT       ET2
      00000088H.7 SFRSYM    DATA     BIT       TF1
      000000D8H   SFRSYM    DATA     BIT       RI1
      00000098H.2 SFRSYM    DATA     BIT       RB8
      000000C8H.7 SFRSYM    DATA     BIT       TF2
      0000008CH   SFRSYM    DATA     BYTE      TH0
      00000086H   SFRSYM    DATA     BYTE      INSCON
      0000008DH   SFRSYM    DATA     BYTE      TH1
      000000D8H.1 SFRSYM    DATA     BIT       TI1
      00000098H.3 SFRSYM    DATA     BIT       TB8
      000000CDH   SFRSYM    DATA     BYTE      TH2
      000000D0H   SFRSYM    DATA     BIT       P
      0000008AH   SFRSYM    DATA     BYTE      TL0
      000000A8H   SFRSYM    DATA     BIT       EX4
      0000008BH   SFRSYM    DATA     BYTE      TL1
      000000A7H   SFRSYM    DATA     BYTE      FLASHCON
      000000CCH   SFRSYM    DATA     BYTE      TL2
      000000D0H.3 SFRSYM    DATA     BIT       RS0
      000000C5H   SFRSYM    DATA     BYTE      ADCDH
      00000088H.4 SFRSYM    DATA     BIT       TR0
      000000D0H.4 SFRSYM    DATA     BIT       RS1
LX51 LINKER/LOCATER V4.66.41.0                                                        11/18/2021  18:51:21  PAGE 47


      0000009FH   SFRSYM    DATA     BYTE      PWMCON
      00000088H.6 SFRSYM    DATA     BIT       TR1
      000000C8H.2 SFRSYM    DATA     BIT       TR2
      000000C4H   SFRSYM    DATA     BYTE      ADCDL
      000000C2H   SFRSYM    DATA     BYTE      ADT
      00000083H   SFRSYM    DATA     BYTE      DPH
      00000082H   SFRSYM    DATA     BYTE      DPL
      000000D9H   SFRSYM    DATA     BYTE      SBUF1
      000000C8H.3 SFRSYM    DATA     BIT       EXEN2
      000000F9H   SFRSYM    DATA     BYTE      SBUF2
      000000D8H.6 SFRSYM    DATA     BIT       SM11_RXOV1
      000000B8H.6 SFRSYM    DATA     BIT       PADCL
      00000098H.4 SFRSYM    DATA     BIT       REN
      000000D8H   SFRSYM    DATA     BYTE      SCON1
      000000D1H   SFRSYM    DATA     BYTE      LCDCON1
      000000C1H   SFRSYM    DATA     BYTE      ADCON
      000000F8H   SFRSYM    DATA     BYTE      SCON2
      0000008FH   SFRSYM    DATA     BYTE      TCON1
      000000D2H   SFRSYM    DATA     BYTE      LCDCON2
      00000092H   SFRSYM    DATA     BYTE      EDTAH
      000000C9H   SFRSYM    DATA     BYTE      T2MOD
      000000C8H   SFRSYM    DATA     BYTE      T2CON
      00000094H   SFRSYM    DATA     BYTE      EDTAL
      00000093H   SFRSYM    DATA     BYTE      EDTAM
      000000BCH   SFRSYM    DATA     BYTE      TK0DIFH
      0000009BH   SFRSYM    DATA     BYTE      SADEN
      000000BEH   SFRSYM    DATA     BYTE      TK1DIFH
      000000B6H   SFRSYM    DATA     BYTE      PBANK
      000000A5H   SFRSYM    DATA     BYTE      TK2DIFH
      000000A8H.6 SFRSYM    DATA     BIT       EADTP
      0000009AH   SFRSYM    DATA     BYTE      SADDR
      000000CFH   SFRSYM    DATA     BYTE      TK0DIFL
      000000BDH   SFRSYM    DATA     BYTE      TK1DIFL
      000000BFH   SFRSYM    DATA     BYTE      TK2DIFL
      000000B8H.2 SFRSYM    DATA     BIT       P7816L
      000000C6H   SFRSYM    DATA     BYTE      LPDCON1
      000000C7H   SFRSYM    DATA     BYTE      LPDCON2
      000000D0H.5 SFRSYM    DATA     BIT       F0
      000000AEH   SFRSYM    DATA     BYTE      IRDAT
      000000D0H.1 SFRSYM    DATA     BIT       F1
      00000096H   SFRSYM    DATA     BYTE      EMUIE
      0000009EH   SFRSYM    DATA     BYTE      SFINE
      000000F7H   SFRSYM    DATA     BYTE      XPAGE
      00000097H   SFRSYM    DATA     BYTE      EMUIF
      000000D0H   SFRSYM    DATA     BYTE      PSW
      000000D8H.2 SFRSYM    DATA     BIT       RB81
      000000A3H   SFRSYM    DATA     BYTE      SPDAT
      000000F2H   SFRSYM    DATA     BYTE      IB_CON1
      008293E9H   SYMBOL    CODE/B2  ---       _ApiDLT645_AddrTypeCheck
      01000FBFH   SYMBOL    CONST    ---       Comm_MAP_TAB
      0082A37BH   SYMBOL    CODE/B2  ---       _ApiDLT645_WriteData
      0082D7F6H   SYMBOL    CODE/B2  ---       _ApiDLT645_AccountTx
      0082C697H   SYMBOL    CODE/B2  ---       _ApiDLT645_FactoryCommand
      0082DD14H   SYMBOL    CODE/B2  ---       _ApiDLT645_ModifyPsw
      0100127AH   SYMBOL    CONST    ---       _?ix1000
      0100128EH   SYMBOL    CONST    ---       _?ix1001
      00829693H   SYMBOL    CODE/B2  ---       _ApiDLT645_ReadEmuReg
      0082926DH   SYMBOL    CODE/B2  ---       _ApiDLT645_ReadMeterAddress
      0082D341H   SYMBOL    CODE/B2  ---       _ApiDLT645_SafeCertification
      00829652H   SYMBOL    CODE/B2  ---       _ApiDLT645_WriteEmuReg
      0082DC9CH   SYMBOL    CODE/B2  ---       ApiDLT645_GetStatusFlag3
      008292D9H   SYMBOL    CODE/B2  ---       _ApiDLT645_WriteMeterAddress
      008297CCH   SYMBOL    CODE/B2  ---       _ApiDLT645_ReadData07
      0082C068H   SYMBOL    CODE/B2  ---       _ApiDLT645_RelayControl
      008295B3H   SYMBOL    CODE/B2  ---       _ApiDLT645_MeterClear
LX51 LINKER/LOCATER V4.66.41.0                                                        11/18/2021  18:51:21  PAGE 48


      0082B3A8H   SYMBOL    CODE/B2  ---       _MultiDataWrite_Deal

      0082840DH   BLOCK     CODE/B2  ---       LVL=0
      0082840DH   LINE      ---      ---       #308
      00828417H   LINE      ---      ---       #309
      00828417H   LINE      ---      ---       #311
      0082842BH   LINE      ---      ---       #312
      00828449H   LINE      ---      ---       #314
      00828482H   LINE      ---      ---       #315
      00828482H   LINE      ---      ---       #317
      00828482H   LINE      ---      ---       #318
      00828482H   LINE      ---      ---       #319
      0082848CH   LINE      ---      ---       #320
      0082848CH   LINE      ---      ---       #321
      008284A7H   LINE      ---      ---       #322
      008284BEH   LINE      ---      ---       #323
      008284BEH   LINE      ---      ---       #329
      008284C0H   LINE      ---      ---       #332
      008284C0H   LINE      ---      ---       #333
      008284C0H   LINE      ---      ---       #334
      008284DAH   LINE      ---      ---       #335
      008284DAH   LINE      ---      ---       #336
      008284EFH   LINE      ---      ---       #337
      008284EFH   LINE      ---      ---       #338
      008284F1H   LINE      ---      ---       #341
      008284F1H   LINE      ---      ---       #342
      008284F1H   LINE      ---      ---       #343
      008284FBH   LINE      ---      ---       #344
      008284FBH   LINE      ---      ---       #345
      0082850DH   LINE      ---      ---       #346
      0082850FH   LINE      ---      ---       #348
      0082850FH   LINE      ---      ---       #349
      0082850FH   LINE      ---      ---       #350
      0082850FH   LINE      ---      ---       #351
      00828511H   LINE      ---      ---       #354
      00828511H   LINE      ---      ---       #355
      00828511H   LINE      ---      ---       #356
      00828526H   LINE      ---      ---       #357
      00828528H   LINE      ---      ---       #360
      00828528H   LINE      ---      ---       #361
      00828528H   LINE      ---      ---       #362
      0082852FH   LINE      ---      ---       #363
      0082852FH   LINE      ---      ---       #364
      0082852FH   LINE      ---      ---       #365
      00828531H   LINE      ---      ---       #367
      00828531H   LINE      ---      ---       #368
      0082853BH   LINE      ---      ---       #369
      0082853BH   LINE      ---      ---       #370
      0082853BH   LINE      ---      ---       #371
      0082853DH   LINE      ---      ---       #373
      0082853DH   LINE      ---      ---       #374
      0082854EH   LINE      ---      ---       #375
      0082854EH   LINE      ---      ---       #376
      0082854EH   LINE      ---      ---       #377
      00828550H   LINE      ---      ---       #380
      00828550H   LINE      ---      ---       #381
      00828550H   LINE      ---      ---       #382
      0082858CH   LINE      ---      ---       #383
      0082858CH   LINE      ---      ---       #384
      008285A1H   LINE      ---      ---       #385
      008285A1H   LINE      ---      ---       #386
      008285A3H   LINE      ---      ---       #389
      008285A3H   LINE      ---      ---       #390
      008285A3H   LINE      ---      ---       #391
      008285B8H   LINE      ---      ---       #392
LX51 LINKER/LOCATER V4.66.41.0                                                        11/18/2021  18:51:21  PAGE 49


      008285BAH   LINE      ---      ---       #395
      008285BAH   LINE      ---      ---       #396
      008285BAH   LINE      ---      ---       #397
      008285C5H   LINE      ---      ---       #398
      008285C5H   LINE      ---      ---       #399
      008285D2H   LINE      ---      ---       #400
      008285D4H   LINE      ---      ---       #402
      008285D4H   LINE      ---      ---       #403
      008285E6H   LINE      ---      ---       #404
      00828604H   LINE      ---      ---       #405
      0082860DH   LINE      ---      ---       #406
      00828613H   LINE      ---      ---       #408
      00828613H   LINE      ---      ---       #409
      00828615H   LINE      ---      ---       #411
      00828615H   LINE      ---      ---       #412
      00828615H   LINE      ---      ---       #413
      00828630H   LINE      ---      ---       #414
      00828630H   LINE      ---      ---       #415
      00828630H   LINE      ---      ---       #418
      0082864DH   LINE      ---      ---       #419
      0082864DH   LINE      ---      ---       #420
      0082868CH   LINE      ---      ---       #421
      008286A3H   LINE      ---      ---       #422
      008286A3H   LINE      ---      ---       #423
      020005F3H   SYMBOL    XDATA    BYTE      v_ucChID
      020005F4H   SYMBOL    XDATA    BYTE      v_ucData
      ---         BLOCKEND  ---      ---       LVL=0

      008286A4H   BLOCK     CODE/B2  ---       LVL=0
      008286A4H   LINE      ---      ---       #435
      008286AEH   LINE      ---      ---       #436
      008286AEH   LINE      ---      ---       #438
      008286C2H   LINE      ---      ---       #439
      008286E0H   LINE      ---      ---       #441
      00828717H   LINE      ---      ---       #442
      00828717H   LINE      ---      ---       #444
      00828717H   LINE      ---      ---       #445
      00828717H   LINE      ---      ---       #446
      00828722H   LINE      ---      ---       #447
      00828722H   LINE      ---      ---       #448
      0082873DH   LINE      ---      ---       #449
      00828754H   LINE      ---      ---       #450
      00828754H   LINE      ---      ---       #452
      00828757H   LINE      ---      ---       #455
      00828757H   LINE      ---      ---       #456
      00828757H   LINE      ---      ---       #457
      00828762H   LINE      ---      ---       #458
      00828762H   LINE      ---      ---       #459
      00828777H   LINE      ---      ---       #460
      00828777H   LINE      ---      ---       #461
      0082878CH   LINE      ---      ---       #462
      0082878FH   LINE      ---      ---       #465
      0082878FH   LINE      ---      ---       #466
      0082878FH   LINE      ---      ---       #467
      008287B5H   LINE      ---      ---       #468
      008287B5H   LINE      ---      ---       #469
      008287CAH   LINE      ---      ---       #470
      008287CAH   LINE      ---      ---       #471
      008287CDH   LINE      ---      ---       #474
      008287CDH   LINE      ---      ---       #475
      008287CDH   LINE      ---      ---       #476
      008287E2H   LINE      ---      ---       #477
      008287E5H   LINE      ---      ---       #480
      008287E5H   LINE      ---      ---       #481
      008287E5H   LINE      ---      ---       #482
LX51 LINKER/LOCATER V4.66.41.0                                                        11/18/2021  18:51:21  PAGE 50


      00828821H   LINE      ---      ---       #483
      00828821H   LINE      ---      ---       #484
      00828836H   LINE      ---      ---       #485
      00828836H   LINE      ---      ---       #486
      00828838H   LINE      ---      ---       #489
      00828838H   LINE      ---      ---       #490
      00828838H   LINE      ---      ---       #491
      0082884DH   LINE      ---      ---       #492
      0082884FH   LINE      ---      ---       #495
      0082884FH   LINE      ---      ---       #496
      0082884FH   LINE      ---      ---       #497
      00828857H   LINE      ---      ---       #498
      00828857H   LINE      ---      ---       #499
      00828867H   LINE      ---      ---       #500
      00828869H   LINE      ---      ---       #502
      00828869H   LINE      ---      ---       #503
      0082887EH   LINE      ---      ---       #504
      0082889CH   LINE      ---      ---       #505
      008288A5H   LINE      ---      ---       #506
      008288ABH   LINE      ---      ---       #508
      008288E2H   LINE      ---      ---       #509
      008288E2H   LINE      ---      ---       #510
      008288FFH   LINE      ---      ---       #511
      008288FFH   LINE      ---      ---       #512
      00828904H   LINE      ---      ---       #513
      0082890AH   LINE      ---      ---       #514
      0082890CH   LINE      ---      ---       #515
      00828915H   LINE      ---      ---       #516
      00828915H   LINE      ---      ---       #517
      0082891AH   LINE      ---      ---       #518
      0082891CH   LINE      ---      ---       #520
      0082891CH   LINE      ---      ---       #521
      00828922H   LINE      ---      ---       #522
      00828922H   LINE      ---      ---       #523
      00828922H   LINE      ---      ---       #524
      00828922H   LINE      ---      ---       #525
      00828924H   LINE      ---      ---       #527
      00828924H   LINE      ---      ---       #528
      00828924H   LINE      ---      ---       #529
      0082893FH   LINE      ---      ---       #530
      0082893FH   LINE      ---      ---       #531
      0082893FH   LINE      ---      ---       #534
      0082895CH   LINE      ---      ---       #535
      0082895CH   LINE      ---      ---       #536
      0082899BH   LINE      ---      ---       #537
      008289B2H   LINE      ---      ---       #538
      008289B2H   LINE      ---      ---       #539
      020005FFH   SYMBOL    XDATA    BYTE      v_ucChID
      02000600H   SYMBOL    XDATA    BYTE      v_ucData
      ---         BLOCKEND  ---      ---       LVL=0

      008289B3H   BLOCK     CODE/B2  ---       LVL=0
      008289B3H   LINE      ---      ---       #550
      008289B8H   LINE      ---      ---       #551
      02000610H   SYMBOL    XDATA    BYTE      v_ucChID
      008289B8H   BLOCK     CODE/B2  NEAR LAB  LVL=1
      008289B8H   LINE      ---      ---       #554
      008289CBH   LINE      ---      ---       #557
      008289D2H   LINE      ---      ---       #558
      008289D2H   LINE      ---      ---       #559
      00828A25H   LINE      ---      ---       #560
      00828A25H   LINE      ---      ---       #562
      00828A2DH   LINE      ---      ---       #563
      00828A2DH   LINE      ---      ---       #564
      00828A7FH   LINE      ---      ---       #565
LX51 LINKER/LOCATER V4.66.41.0                                                        11/18/2021  18:51:21  PAGE 51


      00828A7FH   LINE      ---      ---       #568
      00828AA1H   LINE      ---      ---       #569
      00828AB8H   LINE      ---      ---       #570
      00828AB8H   LINE      ---      ---       #571
      00828ABAH   LINE      ---      ---       #573
      00828ABAH   LINE      ---      ---       #576
      00828ADAH   LINE      ---      ---       #577
      00828B00H   LINE      ---      ---       #578
      00828B00H   LINE      ---      ---       #579
      00828B22H   LINE      ---      ---       #580
      00828B2AH   LINE      ---      ---       #581
      00828B5AH   LINE      ---      ---       #582
      00828B5AH   LINE      ---      ---       #583
      00828B72H   LINE      ---      ---       #585
      00828B72H   LINE      ---      ---       #589
      00828B8FH   LINE      ---      ---       #590
      00828B8FH   LINE      ---      ---       #591
      00828B9EH   LINE      ---      ---       #592
      00828B9EH   LINE      ---      ---       #593
      00828BA0H   LINE      ---      ---       #595
      00828BA0H   LINE      ---      ---       #596
      00828BD0H   LINE      ---      ---       #597
      00828C00H   LINE      ---      ---       #598
      00828C00H   LINE      ---      ---       #600
      00828C05H   LINE      ---      ---       #602
      00828C4CH   LINE      ---      ---       #603
      00828C4CH   LINE      ---      ---       #604
      00828C4CH   LINE      ---      ---       #605
      00828C4CH   LINE      ---      ---       #606
      00828C4FH   LINE      ---      ---       #607
      00828C51H   LINE      ---      ---       #609
      00828C51H   LINE      ---      ---       #610
      00828C51H   LINE      ---      ---       #611
      00828C59H   LINE      ---      ---       #612
      00828C5BH   LINE      ---      ---       #615
      00828C5BH   LINE      ---      ---       #616
      00828C5BH   LINE      ---      ---       #617
      00828C63H   LINE      ---      ---       #618
      00828C65H   LINE      ---      ---       #620
      00828C65H   LINE      ---      ---       #621
      00828C65H   LINE      ---      ---       #622
      00828C6DH   LINE      ---      ---       #623
      00828C6FH   LINE      ---      ---       #625
      00828C6FH   LINE      ---      ---       #626
      00828C6FH   LINE      ---      ---       #627
      00828C77H   LINE      ---      ---       #628
      00828C79H   LINE      ---      ---       #630
      00828C79H   LINE      ---      ---       #631
      00828C79H   LINE      ---      ---       #632
      00828CA9H   LINE      ---      ---       #633
      00828CB1H   LINE      ---      ---       #634
      00828CB3H   LINE      ---      ---       #636
      00828CB3H   LINE      ---      ---       #637
      00828CB3H   LINE      ---      ---       #638
      00828CB3H   LINE      ---      ---       #639
      00828CBBH   LINE      ---      ---       #640
      00828CBDH   LINE      ---      ---       #642
      00828CBDH   LINE      ---      ---       #643
      00828CBDH   LINE      ---      ---       #644
      00828CC5H   LINE      ---      ---       #645
      00828CC7H   LINE      ---      ---       #647
      00828CC7H   LINE      ---      ---       #648
      00828CC7H   LINE      ---      ---       #649
      00828CCFH   LINE      ---      ---       #650
      00828CD1H   LINE      ---      ---       #652
LX51 LINKER/LOCATER V4.66.41.0                                                        11/18/2021  18:51:21  PAGE 52


      00828CD1H   LINE      ---      ---       #653
      00828CD1H   LINE      ---      ---       #654
      00828CD9H   LINE      ---      ---       #655
      00828CDBH   LINE      ---      ---       #657
      00828CDBH   LINE      ---      ---       #658
      00828CDBH   LINE      ---      ---       #659
      00828CE3H   LINE      ---      ---       #660
      00828CE5H   LINE      ---      ---       #662
      00828CE5H   LINE      ---      ---       #663
      00828CE5H   LINE      ---      ---       #664
      00828CF2H   LINE      ---      ---       #665
      00828CF2H   LINE      ---      ---       #667
      00828CF2H   LINE      ---      ---       #668
      00828CF2H   LINE      ---      ---       #671
      00828D20H   LINE      ---      ---       #672
      00828D20H   LINE      ---      ---       #673
      00828D20H   LINE      ---      ---       #674
      00828D20H   LINE      ---      ---       #675
      00828D56H   LINE      ---      ---       #676
      00828D56H   LINE      ---      ---       #677
      00828D5DH   LINE      ---      ---       #678
      00828D5DH   LINE      ---      ---       #679
      00828D66H   LINE      ---      ---       #680
      00828D6DH   LINE      ---      ---       #681
      00828D70H   LINE      ---      ---       #682
      00828D70H   LINE      ---      ---       #683
      00828D72H   LINE      ---      ---       #685
      00828D72H   LINE      ---      ---       #686
      00828D7BH   LINE      ---      ---       #687
      00828D82H   LINE      ---      ---       #688
      00828D87H   LINE      ---      ---       #689
      00828D87H   LINE      ---      ---       #690
      00828D87H   LINE      ---      ---       #692
      00828D87H   LINE      ---      ---       #693
      00828D89H   LINE      ---      ---       #695
      00828D89H   LINE      ---      ---       #696
      00828D89H   LINE      ---      ---       #697
      00828DA5H   LINE      ---      ---       #698
      00828DA7H   LINE      ---      ---       #699
      00828DA7H   LINE      ---      ---       #700
      00828DA7H   LINE      ---      ---       #701
      00828DC3H   LINE      ---      ---       #702
      00828DDAH   LINE      ---      ---       #703
      00828DDCH   LINE      ---      ---       #705
      00828DDCH   LINE      ---      ---       #706
      00828DDCH   LINE      ---      ---       #707
      00828DDCH   LINE      ---      ---       #708
      00828DDCH   LINE      ---      ---       #709
      00828DDCH   LINE      ---      ---       #710
      00828DF8H   LINE      ---      ---       #711
      00828E0FH   LINE      ---      ---       #712
      00828E2EH   LINE      ---      ---       #714
      00828E30H   LINE      ---      ---       #717
      00828E30H   LINE      ---      ---       #722
      00828E30H   LINE      ---      ---       #723
      00828E30H   LINE      ---      ---       #724
      00828E4CH   LINE      ---      ---       #725
      00828E63H   LINE      ---      ---       #728
      00828E65H   LINE      ---      ---       #731
      00828E65H   LINE      ---      ---       #732
      00828E65H   LINE      ---      ---       #733
      00828E80H   LINE      ---      ---       #734
      00828E80H   LINE      ---      ---       #735
      00828E80H   LINE      ---      ---       #737
      00828EA0H   LINE      ---      ---       #738
LX51 LINKER/LOCATER V4.66.41.0                                                        11/18/2021  18:51:21  PAGE 53


      00828EA0H   LINE      ---      ---       #740
      00828EB9H   LINE      ---      ---       #742
      00828ED9H   LINE      ---      ---       #743
      00828F08H   LINE      ---      ---       #745
      00828F30H   LINE      ---      ---       #746
      00828F30H   LINE      ---      ---       #747
      00828F52H   LINE      ---      ---       #748
      00828F5AH   LINE      ---      ---       #749
      00828F7AH   LINE      ---      ---       #750
      00828FB4H   LINE      ---      ---       #751
      00828FEFH   LINE      ---      ---       #753
      00829021H   LINE      ---      ---       #755
      0082902CH   LINE      ---      ---       #756
      0082902CH   LINE      ---      ---       #757
      00829050H   LINE      ---      ---       #758
      00829050H   LINE      ---      ---       #759
      00829096H   LINE      ---      ---       #760
      0082909EH   LINE      ---      ---       #763
      008290CDH   LINE      ---      ---       #764
      008290FFH   LINE      ---      ---       #765
      0082913DH   LINE      ---      ---       #766
      0082916CH   LINE      ---      ---       #768
      008291A5H   LINE      ---      ---       #769
      008291DFH   LINE      ---      ---       #770
      0082921AH   LINE      ---      ---       #772
      0082924CH   LINE      ---      ---       #773
      00829251H   LINE      ---      ---       #774
      00829251H   LINE      ---      ---       #777
      0082926CH   LINE      ---      ---       #778
      0082926CH   LINE      ---      ---       #780
      02000611H   SYMBOL    XDATA    BYTE      V_ucTemp
      02000612H   SYMBOL    XDATA    BYTE      V_ucCnt_i
      02000613H   SYMBOL    XDATA    ---       BLE_head_Frame
      ---         BLOCKEND  CODE/B2  ---       LVL=1
      ---         BLOCKEND  CODE/B2  ---       LVL=0

      0082926DH   BLOCK     CODE/B2  ---       LVL=0
      0082926DH   LINE      ---      ---       #790
      00829272H   LINE      ---      ---       #791
      02000627H   SYMBOL    XDATA    BYTE      v_ucChID
      00829272H   BLOCK     CODE/B2  NEAR LAB  LVL=1
      00829272H   LINE      ---      ---       #792
      00829274H   LINE      ---      ---       #794
      0082928AH   LINE      ---      ---       #795
      0082928AH   LINE      ---      ---       #797
      008292B9H   LINE      ---      ---       #798
      008292D4H   LINE      ---      ---       #799
      008292D6H   LINE      ---      ---       #800
      008292D6H   LINE      ---      ---       #802
      008292D8H   LINE      ---      ---       #803
      00000006H   SYMBOL    DATA     BYTE      V_ucErrorType
      ---         BLOCKEND  CODE/B2  ---       LVL=1
      ---         BLOCKEND  CODE/B2  ---       LVL=0

      008292D9H   BLOCK     CODE/B2  ---       LVL=0
      008292D9H   LINE      ---      ---       #813
      008292DEH   LINE      ---      ---       #814
      02000627H   SYMBOL    XDATA    BYTE      v_ucChID
      008292DEH   BLOCK     CODE/B2  NEAR LAB  LVL=1
      008292DEH   LINE      ---      ---       #815
      008292E2H   LINE      ---      ---       #817
      00829301H   LINE      ---      ---       #818
      00829301H   LINE      ---      ---       #819
      0082931BH   LINE      ---      ---       #820
      0082931BH   LINE      ---      ---       #821
LX51 LINKER/LOCATER V4.66.41.0                                                        11/18/2021  18:51:21  PAGE 54


      0082931BH   LINE      ---      ---       #822
      0082931DH   LINE      ---      ---       #824
      0082931DH   LINE      ---      ---       #825
      0082932EH   LINE      ---      ---       #826
      0082932EH   LINE      ---      ---       #829
      0082935EH   LINE      ---      ---       #831
      00829372H   LINE      ---      ---       #832
      00829372H   LINE      ---      ---       #833
      00829373H   LINE      ---      ---       #834
      00829379H   LINE      ---      ---       #839
      0082937BH   LINE      ---      ---       #846
      0082937BH   LINE      ---      ---       #847
      00829381H   LINE      ---      ---       #848
      00829381H   LINE      ---      ---       #849
      00829381H   LINE      ---      ---       #850
      00829381H   LINE      ---      ---       #852
      00829386H   LINE      ---      ---       #853
      02000628H   SYMBOL    XDATA    BYTE      V_ucErrorType
      ---         BLOCKEND  CODE/B2  ---       LVL=1
      ---         BLOCKEND  CODE/B2  ---       LVL=0

      008293E9H   BLOCK     CODE/B2  ---       LVL=0
      008293E9H   LINE      ---      ---       #865
      008293E9H   LINE      ---      ---       #866
      00000007H   SYMBOL    DATA     BYTE      v_ucChID
      008293E9H   BLOCK     CODE/B2  NEAR LAB  LVL=1
      008293E9H   LINE      ---      ---       #867
      008293EBH   LINE      ---      ---       #869
      008293ECH   LINE      ---      ---       #870
      008293ECH   LINE      ---      ---       #871
      0082940CH   LINE      ---      ---       #872
      0082940CH   LINE      ---      ---       #873
      0082940CH   LINE      ---      ---       #874
      0082940CH   LINE      ---      ---       #875
      00829411H   LINE      ---      ---       #877
      00829415H   LINE      ---      ---       #878
      00829415H   LINE      ---      ---       #879
      00829417H   LINE      ---      ---       #880
      00829419H   LINE      ---      ---       #882
      00829419H   LINE      ---      ---       #883
      0082941BH   LINE      ---      ---       #884
      0082941BH   LINE      ---      ---       #885
      00829447H   LINE      ---      ---       #886
      00829447H   LINE      ---      ---       #887
      0082944FH   LINE      ---      ---       #888
      0082944FH   LINE      ---      ---       #889
      00829488H   LINE      ---      ---       #890
      00829488H   LINE      ---      ---       #891
      00829488H   LINE      ---      ---       #892
      00829488H   LINE      ---      ---       #893
      0082948BH   LINE      ---      ---       #894
      0082948FH   LINE      ---      ---       #895
      0082948FH   LINE      ---      ---       #896
      00829494H   LINE      ---      ---       #897
      00829494H   LINE      ---      ---       #898
      00829496H   LINE      ---      ---       #899
      00829496H   LINE      ---      ---       #901
      00829496H   LINE      ---      ---       #902
      00829496H   LINE      ---      ---       #903
      00829496H   LINE      ---      ---       #904
      00829496H   LINE      ---      ---       #905
      00829498H   LINE      ---      ---       #906
      00829498H   LINE      ---      ---       #907
      008294A0H   LINE      ---      ---       #909
      008294A4H   LINE      ---      ---       #910
LX51 LINKER/LOCATER V4.66.41.0                                                        11/18/2021  18:51:21  PAGE 55


      008294A4H   LINE      ---      ---       #911
      008294A6H   LINE      ---      ---       #912
      008294A6H   LINE      ---      ---       #913
      008294A6H   LINE      ---      ---       #915
      008294A8H   LINE      ---      ---       #916
      00000005H   SYMBOL    DATA     BYTE      i
      00000004H   SYMBOL    DATA     BYTE      j
      00000006H   SYMBOL    DATA     BYTE      V_ucAddrType
      ---         BLOCKEND  CODE/B2  ---       LVL=1
      ---         BLOCKEND  CODE/B2  ---       LVL=0

      00829652H   BLOCK     CODE/B2  ---       LVL=0
      00829652H   LINE      ---      ---       #928
      00829657H   LINE      ---      ---       #929
      02000627H   SYMBOL    XDATA    BYTE      v_ucChID
      00829657H   BLOCK     CODE/B2  NEAR LAB  LVL=1
      00829657H   LINE      ---      ---       #930
      0082965BH   LINE      ---      ---       #932
      0082965BH   LINE      ---      ---       #946
      00829662H   LINE      ---      ---       #947
      00829662H   LINE      ---      ---       #948
      00829662H   LINE      ---      ---       #949
      00829662H   LINE      ---      ---       #963
      00829667H   LINE      ---      ---       #964
      00829667H   LINE      ---      ---       #965
      0082966BH   LINE      ---      ---       #966
      00829685H   LINE      ---      ---       #967
      00829685H   LINE      ---      ---       #969
      00829685H   LINE      ---      ---       #972
      0082968AH   LINE      ---      ---       #973
      02000628H   SYMBOL    XDATA    BYTE      V_ucErrorType
      ---         BLOCKEND  CODE/B2  ---       LVL=1
      ---         BLOCKEND  CODE/B2  ---       LVL=0

      00829693H   BLOCK     CODE/B2  ---       LVL=0
      00829693H   LINE      ---      ---       #993
      00829698H   LINE      ---      ---       #994
      02000627H   SYMBOL    XDATA    BYTE      v_ucChID
      00829698H   BLOCK     CODE/B2  NEAR LAB  LVL=1
      00829698H   LINE      ---      ---       #995
      0082969CH   LINE      ---      ---       #997
      0082969CH   LINE      ---      ---       #1000
      008296B9H   LINE      ---      ---       #1001
      008296B9H   LINE      ---      ---       #1002
      008296B9H   LINE      ---      ---       #1003
      008296BBH   LINE      ---      ---       #1004
      008296BBH   LINE      ---      ---       #1007
      008296D2H   LINE      ---      ---       #1008
      008296D2H   LINE      ---      ---       #1009
      008296D2H   LINE      ---      ---       #1010
      008296D4H   LINE      ---      ---       #1011
      008296D4H   LINE      ---      ---       #1014
      008296FCH   LINE      ---      ---       #1018
      008296FCH   LINE      ---      ---       #1019
      00829702H   LINE      ---      ---       #1020
      00829704H   LINE      ---      ---       #1021
      00829704H   LINE      ---      ---       #1023
      0082970BH   LINE      ---      ---       #1024
      0082970BH   LINE      ---      ---       #1025
      0082970FH   LINE      ---      ---       #1026
      0082974AH   LINE      ---      ---       #1029
      0082974AH   LINE      ---      ---       #1030
      00829765H   LINE      ---      ---       #1031
      00829767H   LINE      ---      ---       #1032
      0082978EH   LINE      ---      ---       #1036
LX51 LINKER/LOCATER V4.66.41.0                                                        11/18/2021  18:51:21  PAGE 56


      0082978EH   LINE      ---      ---       #1038
      008297A9H   LINE      ---      ---       #1040
      008297ABH   LINE      ---      ---       #1042
      008297ABH   LINE      ---      ---       #1043
      008297C6H   LINE      ---      ---       #1044
      008297C6H   LINE      ---      ---       #1045
      008297C6H   LINE      ---      ---       #1046
      008297C6H   LINE      ---      ---       #1048
      008297CBH   LINE      ---      ---       #1049
      02000628H   SYMBOL    XDATA    BYTE      V_ucErrorType
      ---         BLOCKEND  CODE/B2  ---       LVL=1
      ---         BLOCKEND  CODE/B2  ---       LVL=0

      008297CCH   BLOCK     CODE/B2  ---       LVL=0
      008297CCH   LINE      ---      ---       #1059
      008297D1H   LINE      ---      ---       #1060
      02000627H   SYMBOL    XDATA    BYTE      v_ucChID
      008297D1H   BLOCK     CODE/B2  NEAR LAB  LVL=1
      008297D1H   LINE      ---      ---       #1069
      008297EEH   LINE      ---      ---       #1070
      00829835H   LINE      ---      ---       #1071
      0082987CH   LINE      ---      ---       #1072
      008298C3H   LINE      ---      ---       #1075
      008298FBH   LINE      ---      ---       #1077
      008298FBH   LINE      ---      ---       #1078
      00829900H   LINE      ---      ---       #1079
      00829903H   LINE      ---      ---       #1080
      00829903H   LINE      ---      ---       #1082
      00829921H   LINE      ---      ---       #1083
      00829921H   LINE      ---      ---       #1084
      00829940H   LINE      ---      ---       #1085
      00829940H   LINE      ---      ---       #1086
      00829960H   LINE      ---      ---       #1087
      008299A7H   LINE      ---      ---       #1088
      008299EEH   LINE      ---      ---       #1089
      00829A35H   LINE      ---      ---       #1093
      00829A7FH   LINE      ---      ---       #1094
      00829A7FH   LINE      ---      ---       #1095
      00829A9FH   LINE      ---      ---       #1096
      00829A9FH   LINE      ---      ---       #1097
      00829AA2H   LINE      ---      ---       #1098
      00829AA2H   LINE      ---      ---       #1099
      00829AA2H   LINE      ---      ---       #1100
      00829ABCH   LINE      ---      ---       #1101
      00829ABCH   LINE      ---      ---       #1102
      00829AD8H   LINE      ---      ---       #1103
      00829AD8H   LINE      ---      ---       #1104
      00829ADBH   LINE      ---      ---       #1105
      00829ADBH   LINE      ---      ---       #1106
      00829ADBH   LINE      ---      ---       #1108
      00829ADBH   LINE      ---      ---       #1109
      00829AF6H   LINE      ---      ---       #1110
      00829AF6H   LINE      ---      ---       #1111
      00829AF9H   LINE      ---      ---       #1112
      00829AF9H   LINE      ---      ---       #1113
      00829AF9H   LINE      ---      ---       #1114
      00829B2CH   LINE      ---      ---       #1115
      00829B2EH   LINE      ---      ---       #1116
      00829B2EH   LINE      ---      ---       #1117
      00829B31H   LINE      ---      ---       #1118
      00829B36H   LINE      ---      ---       #1119
      00829B3DH   LINE      ---      ---       #1120
      00829B41H   LINE      ---      ---       #1121
      00829B43H   LINE      ---      ---       #1123
      00829B43H   LINE      ---      ---       #1124
LX51 LINKER/LOCATER V4.66.41.0                                                        11/18/2021  18:51:21  PAGE 57


      00829B46H   LINE      ---      ---       #1125
      00829B46H   LINE      ---      ---       #1126
      00829B50H   LINE      ---      ---       #1127
      00829B56H   LINE      ---      ---       #1128
      00829B71H   LINE      ---      ---       #1129
      00829B74H   LINE      ---      ---       #1130
      00829B74H   LINE      ---      ---       #1132
      00829B74H   LINE      ---      ---       #1133
      00829B77H   LINE      ---      ---       #1134
      00829B77H   LINE      ---      ---       #1135
      00829B77H   LINE      ---      ---       #1137
      00829B94H   LINE      ---      ---       #1138
      00829B94H   LINE      ---      ---       #1139
      00829B97H   LINE      ---      ---       #1140
      00829B97H   LINE      ---      ---       #1141
      00829BB3H   LINE      ---      ---       #1142
      00829BB3H   LINE      ---      ---       #1144
      00829BD5H   LINE      ---      ---       #1145
      00829BEBH   LINE      ---      ---       #1146
      00829C01H   LINE      ---      ---       #1147
      00829C17H   LINE      ---      ---       #1148
      00829C1AH   LINE      ---      ---       #1150
      00829C1AH   LINE      ---      ---       #1151
      00829C36H   LINE      ---      ---       #1152
      00829C36H   LINE      ---      ---       #1153
      00829C3AH   LINE      ---      ---       #1154
      00829C3AH   LINE      ---      ---       #1155
      00829C77H   LINE      ---      ---       #1156
      00829C83H   LINE      ---      ---       #1157
      00829C9DH   LINE      ---      ---       #1158
      00829CA0H   LINE      ---      ---       #1159
      00829CA0H   LINE      ---      ---       #1160
      00829CBCH   LINE      ---      ---       #1161
      00829CBCH   LINE      ---      ---       #1162
      00829CC7H   LINE      ---      ---       #1163
      00829CE9H   LINE      ---      ---       #1164
      00829D01H   LINE      ---      ---       #1165
      00829D1BH   LINE      ---      ---       #1166
      00829D1EH   LINE      ---      ---       #1167
      00829D1EH   LINE      ---      ---       #1169
      00829D3CH   LINE      ---      ---       #1170
      00829D3CH   LINE      ---      ---       #1172
      00829D44H   LINE      ---      ---       #1173
      00829D4AH   LINE      ---      ---       #1174
      00829D6CH   LINE      ---      ---       #1175
      00829D77H   LINE      ---      ---       #1176
      00829D82H   LINE      ---      ---       #1177
      00829D8DH   LINE      ---      ---       #1178
      00829D98H   LINE      ---      ---       #1179
      00829DA3H   LINE      ---      ---       #1182
      00829DB3H   LINE      ---      ---       #1185
      00829DCEH   LINE      ---      ---       #1188
      00829DE9H   LINE      ---      ---       #1191
      00829E04H   LINE      ---      ---       #1194
      00829E1FH   LINE      ---      ---       #1197
      00829E3AH   LINE      ---      ---       #1200
      00829E55H   LINE      ---      ---       #1203
      00829E5CH   LINE      ---      ---       #1204
      00829E5CH   LINE      ---      ---       #1205
      00829E5FH   LINE      ---      ---       #1207
      00829E5FH   LINE      ---      ---       #1208
      00829E7AH   LINE      ---      ---       #1211
      00829E85H   LINE      ---      ---       #1212
      00829E90H   LINE      ---      ---       #1213
      00829E93H   LINE      ---      ---       #1222
LX51 LINKER/LOCATER V4.66.41.0                                                        11/18/2021  18:51:21  PAGE 58


      00829E9AH   LINE      ---      ---       #1223
      00829EA3H   LINE      ---      ---       #1225
      00829ED2H   LINE      ---      ---       #1226
      00829EECH   LINE      ---      ---       #1227
      00829EEFH   LINE      ---      ---       #1228
      00829EEFH   LINE      ---      ---       #1230
      00829F17H   LINE      ---      ---       #1233
      00829F17H   LINE      ---      ---       #1234
      00829F66H   LINE      ---      ---       #1235
      00829F82H   LINE      ---      ---       #1236
      00829F83H   LINE      ---      ---       #1237
      00829F83H   LINE      ---      ---       #1239
      00829FA5H   LINE      ---      ---       #1240
      00829FA5H   LINE      ---      ---       #1241
      00829FACH   LINE      ---      ---       #1242
      00829FAFH   LINE      ---      ---       #1244
      00829FAFH   LINE      ---      ---       #1245
      00829FBDH   LINE      ---      ---       #1246
      0082A018H   LINE      ---      ---       #1247
      0082A049H   LINE      ---      ---       #1248
      0082A063H   LINE      ---      ---       #1249
      0082A065H   LINE      ---      ---       #1250
      0082A065H   LINE      ---      ---       #1252
      0082A065H   LINE      ---      ---       #1254
      0082A09CH   LINE      ---      ---       #1255
      0082A09CH   LINE      ---      ---       #1256
      0082A0A7H   LINE      ---      ---       #1257
      0082A0ADH   LINE      ---      ---       #1258
      0082A0ADH   LINE      ---      ---       #1259
      0082A0B0H   LINE      ---      ---       #1260
      0082A0B0H   LINE      ---      ---       #1261
      0082A0CDH   LINE      ---      ---       #1262
      0082A0CDH   LINE      ---      ---       #1263
      0082A0DBH   LINE      ---      ---       #1264
      0082A0DBH   LINE      ---      ---       #1265
      0082A0FBH   LINE      ---      ---       #1266
      0082A0FBH   LINE      ---      ---       #1267
      0082A0FBH   LINE      ---      ---       #1268
      0082A0FDH   LINE      ---      ---       #1269
      0082A0FDH   LINE      ---      ---       #1270
      0082A105H   LINE      ---      ---       #1271
      0082A105H   LINE      ---      ---       #1273
      0082A105H   LINE      ---      ---       #1274
      0082A114H   LINE      ---      ---       #1275
      0082A114H   LINE      ---      ---       #1276
      0082A134H   LINE      ---      ---       #1277
      0082A134H   LINE      ---      ---       #1278
      0082A13AH   LINE      ---      ---       #1279
      0082A13CH   LINE      ---      ---       #1280
      0082A13CH   LINE      ---      ---       #1281
      0082A144H   LINE      ---      ---       #1282
      0082A144H   LINE      ---      ---       #1283
      0082A178H   LINE      ---      ---       #1284
      0082A181H   LINE      ---      ---       #1285
      0082A199H   LINE      ---      ---       #1286
      0082A1B1H   LINE      ---      ---       #1287
      0082A1C9H   LINE      ---      ---       #1288
      0082A1D6H   LINE      ---      ---       #1289
      0082A1E8H   LINE      ---      ---       #1290
      0082A1E8H   LINE      ---      ---       #1291
      0082A1EEH   LINE      ---      ---       #1292
      0082A1F0H   LINE      ---      ---       #1294
      0082A1F0H   LINE      ---      ---       #1295
      0082A1F5H   LINE      ---      ---       #1296
      0082A1F5H   LINE      ---      ---       #1298
LX51 LINKER/LOCATER V4.66.41.0                                                        11/18/2021  18:51:21  PAGE 59


      0082A224H   LINE      ---      ---       #1299
      0082A23EH   LINE      ---      ---       #1300
      0082A240H   LINE      ---      ---       #1301
      0082A240H   LINE      ---      ---       #1302
      0082A251H   LINE      ---      ---       #1303
      0082A251H   LINE      ---      ---       #1304
      0082A279H   LINE      ---      ---       #1305
      0082A279H   LINE      ---      ---       #1307
      0082A296H   LINE      ---      ---       #1308
      0082A2DBH   LINE      ---      ---       #1309
      0082A305H   LINE      ---      ---       #1310
      0082A305H   LINE      ---      ---       #1311
      0082A33CH   LINE      ---      ---       #1312
      0082A33CH   LINE      ---      ---       #1313
      0082A36DH   LINE      ---      ---       #1314
      0082A370H   LINE      ---      ---       #1315
      0082A370H   LINE      ---      ---       #1316
      0082A378H   LINE      ---      ---       #1317
      0082A37AH   LINE      ---      ---       #1318
      00000001H   SYMBOL    DATA     ---       P_ucTemp
      00000007H   SYMBOL    DATA     BYTE      V_ucErrorType
      02000628H   SYMBOL    XDATA    ---       V_ucTable
      0200062DH   SYMBOL    XDATA    DWORD     V_ulDI3DI2DI1DI0
      02000631H   SYMBOL    XDATA    BYTE      V_Temp
      02000632H   SYMBOL    XDATA    BYTE      i
      02000633H   SYMBOL    XDATA    BYTE      V_Temp1
      02000634H   SYMBOL    XDATA    BYTE      V_LcdNum
      02000635H   SYMBOL    XDATA    ---       V_ucPassword
      02000640H   SYMBOL    XDATA    ---       V_ucTempData
      0200067CH   SYMBOL    XDATA    WORD      V_usStateFlag3
      ---         BLOCKEND  CODE/B2  ---       LVL=1
      ---         BLOCKEND  CODE/B2  ---       LVL=0

      0082A37BH   BLOCK     CODE/B2  ---       LVL=0
      0082A37BH   LINE      ---      ---       #1330
      0082A380H   LINE      ---      ---       #1331
      02000627H   SYMBOL    XDATA    BYTE      v_ucChID
      0082A380H   BLOCK     CODE/B2  NEAR LAB  LVL=1
      0082A380H   LINE      ---      ---       #1332
      0082A384H   LINE      ---      ---       #1338
      0082A3A8H   LINE      ---      ---       #1339
      0082A3EFH   LINE      ---      ---       #1340
      0082A436H   LINE      ---      ---       #1341
      0082A47DH   LINE      ---      ---       #1343
      0082A498H   LINE      ---      ---       #1344
      0082A498H   LINE      ---      ---       #1346
      0082A4A0H   LINE      ---      ---       #1347
      0082A4A0H   LINE      ---      ---       #1348
      0082A4A5H   LINE      ---      ---       #1349
      0082A4A7H   LINE      ---      ---       #1350
      0082A4A7H   LINE      ---      ---       #1352
      0082A4A7H   LINE      ---      ---       #1353
      0082A4B4H   LINE      ---      ---       #1354
      0082A4B7H   LINE      ---      ---       #1355
      0082A4B7H   LINE      ---      ---       #1356
      0082A4B7H   LINE      ---      ---       #1358
      0082A4EBH   LINE      ---      ---       #1359
      0082A4EBH   LINE      ---      ---       #1360
      0082A4EBH   LINE      ---      ---       #1361
      0082A4EBH   LINE      ---      ---       #1362
      0082A4EBH   LINE      ---      ---       #1363
      0082A4F6H   LINE      ---      ---       #1364
      0082A4F6H   LINE      ---      ---       #1365
      0082A4F9H   LINE      ---      ---       #1366
      0082A4F9H   LINE      ---      ---       #1367
LX51 LINKER/LOCATER V4.66.41.0                                                        11/18/2021  18:51:21  PAGE 60


      0082A4FEH   LINE      ---      ---       #1368
      0082A531H   LINE      ---      ---       #1369
      0082A531H   LINE      ---      ---       #1370
      0082A531H   LINE      ---      ---       #1371
      0082A531H   LINE      ---      ---       #1372
      0082A531H   LINE      ---      ---       #1373
      0082A531H   LINE      ---      ---       #1378
      0082A531H   LINE      ---      ---       #1379
      0082A537H   LINE      ---      ---       #1380
      0082A539H   LINE      ---      ---       #1382
      0082A539H   LINE      ---      ---       #1383
      0082A539H   LINE      ---      ---       #1384
      0082A53FH   LINE      ---      ---       #1385
      0082A53FH   LINE      ---      ---       #1386
      0082A53FH   LINE      ---      ---       #1387
      0082A53FH   LINE      ---      ---       #1388
      0082A547H   LINE      ---      ---       #1389
      0082A547H   LINE      ---      ---       #1390
      0082A566H   LINE      ---      ---       #1391
      0082A5A6H   LINE      ---      ---       #1392
      0082A5A6H   LINE      ---      ---       #1393
      0082A5AEH   LINE      ---      ---       #1394
      0082A5AEH   LINE      ---      ---       #1395
      0082A5B0H   LINE      ---      ---       #1396
      0082A5B0H   LINE      ---      ---       #1397
      0082A5DBH   LINE      ---      ---       #1399
      0082A5E9H   LINE      ---      ---       #1400
      0082A5E9H   LINE      ---      ---       #1402
      0082A5E9H   LINE      ---      ---       #1403
      0082A609H   LINE      ---      ---       #1404
      0082A609H   LINE      ---      ---       #1405
      0082A60CH   LINE      ---      ---       #1406
      0082A639H   LINE      ---      ---       #1407
      0082A63CH   LINE      ---      ---       #1408
      0082A644H   LINE      ---      ---       #1409
      0082A644H   LINE      ---      ---       #1410
      0082A646H   LINE      ---      ---       #1411
      0082A646H   LINE      ---      ---       #1412
      0082A671H   LINE      ---      ---       #1413
      0082A67FH   LINE      ---      ---       #1414
      0082A67FH   LINE      ---      ---       #1416
      0082A67FH   LINE      ---      ---       #1417
      0082A69FH   LINE      ---      ---       #1418
      0082A69FH   LINE      ---      ---       #1420
      0082A6BBH   LINE      ---      ---       #1422
      0082A6BEH   LINE      ---      ---       #1424
      0082A6BEH   LINE      ---      ---       #1425
      0082A6C1H   LINE      ---      ---       #1426
      0082A6C1H   LINE      ---      ---       #1427
      0082A6C1H   LINE      ---      ---       #1428
      0082A6E1H   LINE      ---      ---       #1429
      0082A6E1H   LINE      ---      ---       #1430
      0082A6FEH   LINE      ---      ---       #1431
      0082A6FEH   LINE      ---      ---       #1432
      0082A74CH   LINE      ---      ---       #1433
      0082A74CH   LINE      ---      ---       #1434
      0082A752H   LINE      ---      ---       #1435
      0082A754H   LINE      ---      ---       #1437
      0082A754H   LINE      ---      ---       #1438
      0082A75AH   LINE      ---      ---       #1439
      0082A75AH   LINE      ---      ---       #1440
      0082A779H   LINE      ---      ---       #1441
      0082A793H   LINE      ---      ---       #1442
      0082A796H   LINE      ---      ---       #1444
      0082A7CAH   LINE      ---      ---       #1445
LX51 LINKER/LOCATER V4.66.41.0                                                        11/18/2021  18:51:21  PAGE 61


      0082A7CDH   LINE      ---      ---       #1447
      0082A7EDH   LINE      ---      ---       #1448
      0082A7F8H   LINE      ---      ---       #1449
      0082A7F8H   LINE      ---      ---       #1450
      0082A81CH   LINE      ---      ---       #1451
      0082A81CH   LINE      ---      ---       #1452
      0082A81FH   LINE      ---      ---       #1453
      0082A81FH   LINE      ---      ---       #1455
      0082A83FH   LINE      ---      ---       #1456
      0082A85DH   LINE      ---      ---       #1457
      0082A85DH   LINE      ---      ---       #1459
      0082A877H   LINE      ---      ---       #1462
      0082A887H   LINE      ---      ---       #1465
      0082A8A2H   LINE      ---      ---       #1468
      0082A8B7H   LINE      ---      ---       #1473
      0082A8BFH   LINE      ---      ---       #1475
      0082A8EEH   LINE      ---      ---       #1477
      0082A909H   LINE      ---      ---       #1478
      0082A909H   LINE      ---      ---       #1479
      0082A90FH   LINE      ---      ---       #1480
      0082A90FH   LINE      ---      ---       #1481
      0082A930H   LINE      ---      ---       #1482
      0082A932H   LINE      ---      ---       #1484
      0082A932H   LINE      ---      ---       #1485
      0082A935H   LINE      ---      ---       #1486
      0082A935H   LINE      ---      ---       #1487
      0082A935H   LINE      ---      ---       #1489
      0082A935H   LINE      ---      ---       #1490
      0082A938H   LINE      ---      ---       #1491
      0082A938H   LINE      ---      ---       #1492
      0082A938H   LINE      ---      ---       #1493
      0082A938H   LINE      ---      ---       #1494
      0082A938H   LINE      ---      ---       #1495
      0082A982H   LINE      ---      ---       #1496
      0082A982H   LINE      ---      ---       #1497
      0082A985H   LINE      ---      ---       #1498
      0082A985H   LINE      ---      ---       #1499
      0082A998H   LINE      ---      ---       #1500
      0082A998H   LINE      ---      ---       #1501
      0082A99BH   LINE      ---      ---       #1502
      0082A99BH   LINE      ---      ---       #1503
      0082A99BH   LINE      ---      ---       #1504
      0082A99BH   LINE      ---      ---       #1505
      0082A99BH   LINE      ---      ---       #1506
      0082A9B7H   LINE      ---      ---       #1507
      0082A9B7H   LINE      ---      ---       #1508
      0082A9BAH   LINE      ---      ---       #1509
      0082A9BAH   LINE      ---      ---       #1510
      0082A9C3H   LINE      ---      ---       #1511
      0082A9C3H   LINE      ---      ---       #1512
      0082AA73H   LINE      ---      ---       #1515
      0082AA73H   LINE      ---      ---       #1516
      0082AA76H   LINE      ---      ---       #1517
      0082AA76H   LINE      ---      ---       #1519
      0082AA76H   LINE      ---      ---       #1521
      0082AA76H   LINE      ---      ---       #1523
      0082AAA9H   LINE      ---      ---       #1524
      0082AAA9H   LINE      ---      ---       #1525
      0082AAACH   LINE      ---      ---       #1526
      0082AAACH   LINE      ---      ---       #1528
      0082AAACH   LINE      ---      ---       #1529
      0082AAACH   LINE      ---      ---       #1530
      0082AAACH   LINE      ---      ---       #1531
      0082AAACH   LINE      ---      ---       #1532
      0082AAC8H   LINE      ---      ---       #1533
LX51 LINKER/LOCATER V4.66.41.0                                                        11/18/2021  18:51:21  PAGE 62


      0082AAC8H   LINE      ---      ---       #1534
      0082AACBH   LINE      ---      ---       #1535
      0082AACBH   LINE      ---      ---       #1536
      0082AAD8H   LINE      ---      ---       #1537
      0082AAD8H   LINE      ---      ---       #1538
      0082AADBH   LINE      ---      ---       #1539
      0082AADBH   LINE      ---      ---       #1540
      0082AADBH   LINE      ---      ---       #1541
      0082AADBH   LINE      ---      ---       #1542
      0082AADEH   LINE      ---      ---       #1544
      0082AADEH   LINE      ---      ---       #1545
      0082AAFCH   LINE      ---      ---       #1546
      0082AAFCH   LINE      ---      ---       #1547
      0082AB19H   LINE      ---      ---       #1549
      0082AB19H   LINE      ---      ---       #1550
      0082AB1CH   LINE      ---      ---       #1551
      0082AB1CH   LINE      ---      ---       #1552
      0082AB39H   LINE      ---      ---       #1553
      0082AB39H   LINE      ---      ---       #1554
      0082AB3CH   LINE      ---      ---       #1555
      0082AB3CH   LINE      ---      ---       #1556
      0082AB6CH   LINE      ---      ---       #1558
      0082AB7AH   LINE      ---      ---       #1559
      0082ABAAH   LINE      ---      ---       #1560
      0082ABB5H   LINE      ---      ---       #1561
      0082ABB5H   LINE      ---      ---       #1562
      0082ABB7H   LINE      ---      ---       #1563
      0082ABB7H   LINE      ---      ---       #1565
      0082ABEEH   LINE      ---      ---       #1566
      0082ABEEH   LINE      ---      ---       #1567
      0082ABFCH   LINE      ---      ---       #1568
      0082AC19H   LINE      ---      ---       #1569
      0082AC19H   LINE      ---      ---       #1570
      0082AC1CH   LINE      ---      ---       #1571
      0082AC1CH   LINE      ---      ---       #1572
      0082AC27H   LINE      ---      ---       #1573
      0082AC27H   LINE      ---      ---       #1574
      0082AC2AH   LINE      ---      ---       #1575
      0082AC2AH   LINE      ---      ---       #1576
      0082AC47H   LINE      ---      ---       #1577
      0082AC47H   LINE      ---      ---       #1578
      0082AC55H   LINE      ---      ---       #1579
      0082AC55H   LINE      ---      ---       #1580
      0082AC75H   LINE      ---      ---       #1581
      0082AC75H   LINE      ---      ---       #1582
      0082AC75H   LINE      ---      ---       #1583
      0082AC77H   LINE      ---      ---       #1584
      0082AC77H   LINE      ---      ---       #1585
      0082AC7FH   LINE      ---      ---       #1586
      0082AC7FH   LINE      ---      ---       #1588
      0082AC7FH   LINE      ---      ---       #1589
      0082AC8EH   LINE      ---      ---       #1590
      0082AC8EH   LINE      ---      ---       #1591
      0082ACAEH   LINE      ---      ---       #1592
      0082ACAEH   LINE      ---      ---       #1593
      0082ACB6H   LINE      ---      ---       #1594
      0082ACB8H   LINE      ---      ---       #1595
      0082ACB8H   LINE      ---      ---       #1596
      0082ACC0H   LINE      ---      ---       #1597
      0082ACC0H   LINE      ---      ---       #1598
      0082ACE4H   LINE      ---      ---       #1599
      0082AD2BH   LINE      ---      ---       #1600
      0082AD72H   LINE      ---      ---       #1601
      0082ADB9H   LINE      ---      ---       #1602
      0082ADD3H   LINE      ---      ---       #1604
LX51 LINKER/LOCATER V4.66.41.0                                                        11/18/2021  18:51:21  PAGE 63


      0082ADE9H   LINE      ---      ---       #1605
      0082ADEEH   LINE      ---      ---       #1606
      0082ADEEH   LINE      ---      ---       #1607
      0082ADEFH   LINE      ---      ---       #1609
      0082AE1FH   LINE      ---      ---       #1610
      0082AE25H   LINE      ---      ---       #1611
      0082AE89H   LINE      ---      ---       #1613
      0082AEADH   LINE      ---      ---       #1615
      0082AEADH   LINE      ---      ---       #1616
      0082AEB0H   LINE      ---      ---       #1617
      0082AEB0H   LINE      ---      ---       #1618
      0082AEB3H   LINE      ---      ---       #1619
      0082AEB3H   LINE      ---      ---       #1621
      0082AEB3H   LINE      ---      ---       #1622
      0082AED0H   LINE      ---      ---       #1623
      0082AED0H   LINE      ---      ---       #1624
      0082AEEFH   LINE      ---      ---       #1625
      0082AEEFH   LINE      ---      ---       #1626
      0082AEEFH   LINE      ---      ---       #1627
      0082AEEFH   LINE      ---      ---       #1628
      0082AEEFH   LINE      ---      ---       #1629
      0082AF11H   LINE      ---      ---       #1630
      0082AF11H   LINE      ---      ---       #1631
      0082AF14H   LINE      ---      ---       #1632
      0082AF14H   LINE      ---      ---       #1633
      0082AF14H   LINE      ---      ---       #1634
      0082AF14H   LINE      ---      ---       #1635
      0082AF14H   LINE      ---      ---       #1636
      0082AF14H   LINE      ---      ---       #1637
      0082AF39H   LINE      ---      ---       #1638
      0082AF39H   LINE      ---      ---       #1639
      0082AF3CH   LINE      ---      ---       #1640
      0082AF3CH   LINE      ---      ---       #1641
      0082AF3CH   LINE      ---      ---       #1642
      0082AF3CH   LINE      ---      ---       #1643
      0082AF3CH   LINE      ---      ---       #1644
      0082AF3CH   LINE      ---      ---       #1645
      0082AF3CH   LINE      ---      ---       #1646
      0082AF4EH   LINE      ---      ---       #1647
      0082AF4EH   LINE      ---      ---       #1648
      0082AF77H   LINE      ---      ---       #1649
      0082AF77H   LINE      ---      ---       #1651
      0082AFB3H   LINE      ---      ---       #1653
      0082AFB3H   LINE      ---      ---       #1654
      0082AFB6H   LINE      ---      ---       #1655
      0082AFB6H   LINE      ---      ---       #1656
      0082AFC9H   LINE      ---      ---       #1657
      0082AFC9H   LINE      ---      ---       #1658
      0082AFCCH   LINE      ---      ---       #1659
      0082AFCCH   LINE      ---      ---       #1660
      0082AFE5H   LINE      ---      ---       #1661
      0082AFE5H   LINE      ---      ---       #1662
      0082B018H   LINE      ---      ---       #1663
      0082B018H   LINE      ---      ---       #1664
      0082B01BH   LINE      ---      ---       #1665
      0082B01BH   LINE      ---      ---       #1666
      0082B031H   LINE      ---      ---       #1667
      0082B031H   LINE      ---      ---       #1668
      0082B068H   LINE      ---      ---       #1669
      0082B068H   LINE      ---      ---       #1671
      0082B068H   LINE      ---      ---       #1672
      0082B084H   LINE      ---      ---       #1673
      0082B084H   LINE      ---      ---       #1674
      0082B0B4H   LINE      ---      ---       #1675
      0082B0D6H   LINE      ---      ---       #1676
LX51 LINKER/LOCATER V4.66.41.0                                                        11/18/2021  18:51:21  PAGE 64


      0082B0D6H   LINE      ---      ---       #1677
      0082B0D9H   LINE      ---      ---       #1678
      0082B0D9H   LINE      ---      ---       #1679
      0082B0D9H   LINE      ---      ---       #1680
      0082B0F5H   LINE      ---      ---       #1681
      0082B0F5H   LINE      ---      ---       #1682
      0082B125H   LINE      ---      ---       #1683
      0082B149H   LINE      ---      ---       #1684
      0082B149H   LINE      ---      ---       #1685
      0082B14CH   LINE      ---      ---       #1686
      0082B14CH   LINE      ---      ---       #1687
      0082B14CH   LINE      ---      ---       #1688
      0082B168H   LINE      ---      ---       #1689
      0082B168H   LINE      ---      ---       #1690
      0082B16BH   LINE      ---      ---       #1691
      0082B16BH   LINE      ---      ---       #1693
      0082B18CH   LINE      ---      ---       #1694
      0082B18CH   LINE      ---      ---       #1695
      0082B1AFH   LINE      ---      ---       #1696
      0082B1AFH   LINE      ---      ---       #1697
      0082B1B2H   LINE      ---      ---       #1698
      0082B1B2H   LINE      ---      ---       #1699
      0082B212H   LINE      ---      ---       #1702
      0082B215H   LINE      ---      ---       #1703
      0082B278H   LINE      ---      ---       #1704
      0082B278H   LINE      ---      ---       #1705
      0082B27AH   LINE      ---      ---       #1707
      0082B27AH   LINE      ---      ---       #1708
      0082B2ADH   LINE      ---      ---       #1709
      0082B2ADH   LINE      ---      ---       #1710
      0082B2B0H   LINE      ---      ---       #1711
      0082B2B0H   LINE      ---      ---       #1712
      0082B2B3H   LINE      ---      ---       #1713
      0082B304H   LINE      ---      ---       #1714
      0082B328H   LINE      ---      ---       #1717
      0082B328H   LINE      ---      ---       #1719
      0082B345H   LINE      ---      ---       #1720
      0082B345H   LINE      ---      ---       #1721
      0082B350H   LINE      ---      ---       #1722
      0082B354H   LINE      ---      ---       #1723
      0082B354H   LINE      ---      ---       #1724
      0082B35BH   LINE      ---      ---       #1725
      0082B35BH   LINE      ---      ---       #1726
      0082B35EH   LINE      ---      ---       #1728
      0082B35EH   LINE      ---      ---       #1730
      0082B37AH   LINE      ---      ---       #1731
      0082B37AH   LINE      ---      ---       #1732
      0082B380H   LINE      ---      ---       #1737
      0082B380H   LINE      ---      ---       #1739
      0082B39AH   LINE      ---      ---       #1740
      0082B39CH   LINE      ---      ---       #1741
      0082B39CH   LINE      ---      ---       #1742
      0082B3A5H   LINE      ---      ---       #1743
      02000628H   SYMBOL    XDATA    BYTE      V_ucErrorType
      02000629H   SYMBOL    XDATA    ---       P_ucTemp
      02000669H   SYMBOL    XDATA    BYTE      V_Temp
      0200066AH   SYMBOL    XDATA    BYTE      V_Temp1
      00000003H   SYMBOL    DATA     BYTE      V_ScreenNum
      00000007H   SYMBOL    DATA     BYTE      V_LcdNum
      0200066BH   SYMBOL    XDATA    BYTE      i
      0200066CH   SYMBOL    XDATA    DWORD     V_ulDI3DI2DI1DI0
      ---         BLOCKEND  CODE/B2  ---       LVL=1
      ---         BLOCKEND  CODE/B2  ---       LVL=0

      0082B3A8H   BLOCK     CODE/B2  ---       LVL=0
LX51 LINKER/LOCATER V4.66.41.0                                                        11/18/2021  18:51:21  PAGE 65


      0082B3A8H   LINE      ---      ---       #1764
      0082B3ADH   LINE      ---      ---       #1765
      02000670H   SYMBOL    XDATA    BYTE      v_ucChID
      0082B3ADH   BLOCK     CODE/B2  NEAR LAB  LVL=1
      0082B3ADH   LINE      ---      ---       #1766
      0082B3B1H   LINE      ---      ---       #1770
      0082B3B6H   LINE      ---      ---       #1771
      0082B3B8H   LINE      ---      ---       #1778
      0082B3D5H   LINE      ---      ---       #1780
      0082B3E0H   LINE      ---      ---       #1781
      0082B3E0H   LINE      ---      ---       #1782
      0082B3E3H   LINE      ---      ---       #1783
      0082B3E3H   LINE      ---      ---       #1784
      0082B3FAH   LINE      ---      ---       #1785
      0082B3FAH   LINE      ---      ---       #1786
      0082B3FDH   LINE      ---      ---       #1787
      0082B3FDH   LINE      ---      ---       #1790
      0082B421H   LINE      ---      ---       #1791
      0082B468H   LINE      ---      ---       #1792
      0082B4AFH   LINE      ---      ---       #1793
      0082B4F6H   LINE      ---      ---       #1795
      0082B512H   LINE      ---      ---       #1796
      0082B512H   LINE      ---      ---       #1797
      0082B517H   LINE      ---      ---       #1798
      0082B519H   LINE      ---      ---       #1799
      0082B51EH   LINE      ---      ---       #1800
      0082B522H   LINE      ---      ---       #1801
      0082B528H   LINE      ---      ---       #1802
      0082B52AH   LINE      ---      ---       #1804
      0082B52AH   LINE      ---      ---       #1805
      0082B52FH   LINE      ---      ---       #1806
      0082B533H   LINE      ---      ---       #1807
      0082B535H   LINE      ---      ---       #1808
      0082B535H   LINE      ---      ---       #1810
      0082B54DH   LINE      ---      ---       #1811
      0082B54DH   LINE      ---      ---       #1812
      0082B592H   LINE      ---      ---       #1813
      0082B605H   LINE      ---      ---       #1814
      0082B678H   LINE      ---      ---       #1815
      0082B6EBH   LINE      ---      ---       #1817
      0082B6FCH   LINE      ---      ---       #1818
      0082B6FCH   LINE      ---      ---       #1819
      0082B730H   LINE      ---      ---       #1820
      0082B730H   LINE      ---      ---       #1821
      0082B755H   LINE      ---      ---       #1822
      0082B77FH   LINE      ---      ---       #1823
      0082B785H   LINE      ---      ---       #1824
      0082B785H   LINE      ---      ---       #1825
      0082B78DH   LINE      ---      ---       #1826
      0082B7CCH   LINE      ---      ---       #1827
      0082B7CCH   LINE      ---      ---       #1828
      0082B7CFH   LINE      ---      ---       #1829
      0082B7CFH   LINE      ---      ---       #1830
      0082B7D7H   LINE      ---      ---       #1831
      0082B7E3H   LINE      ---      ---       #1832
      0082B7E3H   LINE      ---      ---       #1833
      0082B7E6H   LINE      ---      ---       #1834
      0082B7E6H   LINE      ---      ---       #1837
      0082B7FBH   LINE      ---      ---       #1838
      0082B7FBH   LINE      ---      ---       #1839
      0082B820H   LINE      ---      ---       #1840
      0082B853H   LINE      ---      ---       #1841
      0082B886H   LINE      ---      ---       #1842
      0082B8B9H   LINE      ---      ---       #1843
      0082B8CDH   LINE      ---      ---       #1845
LX51 LINKER/LOCATER V4.66.41.0                                                        11/18/2021  18:51:21  PAGE 66


      0082B8CDH   LINE      ---      ---       #1846
      0082B919H   LINE      ---      ---       #1847
      0082B92DH   LINE      ---      ---       #1848
      0082B92DH   LINE      ---      ---       #1850
      0082B957H   LINE      ---      ---       #1851
      0082B957H   LINE      ---      ---       #1852
      0082B964H   LINE      ---      ---       #1853
      0082B966H   LINE      ---      ---       #1854
      0082B990H   LINE      ---      ---       #1855
      0082B990H   LINE      ---      ---       #1856
      0082B99DH   LINE      ---      ---       #1857
      0082B99DH   LINE      ---      ---       #1858
      0082B9A6H   LINE      ---      ---       #1861
      0082B9B8H   LINE      ---      ---       #1862
      0082B9B8H   LINE      ---      ---       #1863
      0082BA01H   LINE      ---      ---       #1864
      0082BA4AH   LINE      ---      ---       #1865
      0082BA6EH   LINE      ---      ---       #1866
      0082BA6EH   LINE      ---      ---       #1867
      0082BA85H   LINE      ---      ---       #1868
      0082BA85H   LINE      ---      ---       #1869
      0082BA85H   LINE      ---      ---       #1870
      0082BA87H   LINE      ---      ---       #1872
      0082BA8EH   LINE      ---      ---       #1873
      0082BA8EH   LINE      ---      ---       #1874
      0082BAD7H   LINE      ---      ---       #1875
      0082BAFBH   LINE      ---      ---       #1876
      0082BAFBH   LINE      ---      ---       #1877
      0082BAFEH   LINE      ---      ---       #1878
      0082BAFEH   LINE      ---      ---       #1879
      0082BB00H   LINE      ---      ---       #1881
      0082BB09H   LINE      ---      ---       #1882
      0082BB09H   LINE      ---      ---       #1883
      0082BB52H   LINE      ---      ---       #1884
      0082BB74H   LINE      ---      ---       #1885
      0082BB74H   LINE      ---      ---       #1886
      0082BB8BH   LINE      ---      ---       #1887
      0082BB8BH   LINE      ---      ---       #1888
      0082BB8BH   LINE      ---      ---       #1891
      0082BBA9H   LINE      ---      ---       #1892
      0082BBA9H   LINE      ---      ---       #1894
      0082BBD9H   LINE      ---      ---       #1898
      0082BC09H   LINE      ---      ---       #1901
      0082BC39H   LINE      ---      ---       #1904
      0082BC69H   LINE      ---      ---       #1907
      0082BC77H   LINE      ---      ---       #1908
      0082BC77H   LINE      ---      ---       #1911
      0082BC8EH   LINE      ---      ---       #1912
      0082BC8EH   LINE      ---      ---       #1913
      0082BC9DH   LINE      ---      ---       #1914
      0082BC9DH   LINE      ---      ---       #1915
      0082BCD3H   LINE      ---      ---       #1916
      0082BCD3H   LINE      ---      ---       #1917
      0082BCEAH   LINE      ---      ---       #1918
      0082BCEAH   LINE      ---      ---       #1919
      0082BCFEH   LINE      ---      ---       #1920
      0082BCFEH   LINE      ---      ---       #1922
      0082BD10H   LINE      ---      ---       #1923
      0082BD25H   LINE      ---      ---       #1924
      0082BD50H   LINE      ---      ---       #1925
      0082BD80H   LINE      ---      ---       #1926
      0082BDB8H   LINE      ---      ---       #1927
      0082BDB8H   LINE      ---      ---       #1928
      0082BDCCH   LINE      ---      ---       #1929
      0082BDCCH   LINE      ---      ---       #1930
LX51 LINKER/LOCATER V4.66.41.0                                                        11/18/2021  18:51:21  PAGE 67


      0082BDE2H   LINE      ---      ---       #1931
      0082BDE2H   LINE      ---      ---       #1932
      0082BE3FH   LINE      ---      ---       #1933
      0082BE6AH   LINE      ---      ---       #1935
      0082BE8EH   LINE      ---      ---       #1936
      0082BEFCH   LINE      ---      ---       #1937
      0082BF20H   LINE      ---      ---       #1938
      0082BF20H   LINE      ---      ---       #1939
      0082BF20H   LINE      ---      ---       #1940
      0082BF28H   LINE      ---      ---       #1941
      0082BF30H   LINE      ---      ---       #1944
      0082BF59H   LINE      ---      ---       #1947
      0082BF82H   LINE      ---      ---       #1950
      0082BFABH   LINE      ---      ---       #1953
      0082BFC3H   LINE      ---      ---       #1956
      0082BFE1H   LINE      ---      ---       #1960
      0082BFF5H   LINE      ---      ---       #1961
      0082C007H   LINE      ---      ---       #1963
      0082C040H   LINE      ---      ---       #1965
      0082C065H   LINE      ---      ---       #1967
      0082C067H   LINE      ---      ---       #1968
      02000671H   SYMBOL    XDATA    BYTE      V_ucErrorType
      02000672H   SYMBOL    XDATA    ---       P_ucTemp
      02000695H   SYMBOL    XDATA    ---       V_ucTempData
      020006DBH   SYMBOL    XDATA    BYTE      V_DATALen
      020006DCH   SYMBOL    XDATA    BYTE      V_DATALen1
      020006DDH   SYMBOL    XDATA    BYTE      i
      020006DEH   SYMBOL    XDATA    BYTE      j
      020006DFH   SYMBOL    XDATA    BYTE      NN
      020006E0H   SYMBOL    XDATA    BYTE      V_ucMoneyflag
      020006E1H   SYMBOL    XDATA    BYTE      V_ucDATANum
      020006E2H   SYMBOL    XDATA    ---       V_ulDI3DI2DI1DI0
      0200070AH   SYMBOL    XDATA    ---       V_ucDATAOffset
      02000715H   SYMBOL    XDATA    ---       V_ucDATALen
      00000006H   SYMBOL    DATA     WORD      V_usStateFlag3
      0200071FH   SYMBOL    XDATA    BYTE      AlarmMoneyL1_Set
      02000720H   SYMBOL    XDATA    BYTE      AlarmMoneyL2_Set
      ---         BLOCKEND  CODE/B2  ---       LVL=1
      ---         BLOCKEND  CODE/B2  ---       LVL=0

      0082C068H   BLOCK     CODE/B2  ---       LVL=0
      0082C068H   LINE      ---      ---       #1979
      0082C06DH   LINE      ---      ---       #1980
      02000627H   SYMBOL    XDATA    BYTE      v_ucChID
      0082C06DH   BLOCK     CODE/B2  NEAR LAB  LVL=1
      0082C06DH   LINE      ---      ---       #1983
      0082C073H   LINE      ---      ---       #1985
      0082C090H   LINE      ---      ---       #1986
      0082C090H   LINE      ---      ---       #1987
      0082C092H   LINE      ---      ---       #1988
      0082C092H   LINE      ---      ---       #1990
      0082C0ABH   LINE      ---      ---       #1991
      0082C0ABH   LINE      ---      ---       #1992
      0082C0B6H   LINE      ---      ---       #1993
      0082C0B6H   LINE      ---      ---       #1994
      0082C0B9H   LINE      ---      ---       #1995
      0082C0B9H   LINE      ---      ---       #1996
      0082C0D8H   LINE      ---      ---       #1997
      0082C0F2H   LINE      ---      ---       #1998
      0082C10EH   LINE      ---      ---       #1999
      0082C13EH   LINE      ---      ---       #2000
      0082C13EH   LINE      ---      ---       #2001
      0082C144H   LINE      ---      ---       #2002
      0082C146H   LINE      ---      ---       #2003
      0082C146H   LINE      ---      ---       #2004
LX51 LINKER/LOCATER V4.66.41.0                                                        11/18/2021  18:51:21  PAGE 68


      0082C164H   LINE      ---      ---       #2005
      0082C166H   LINE      ---      ---       #2006
      0082C183H   LINE      ---      ---       #2007
      0082C183H   LINE      ---      ---       #2008
      0082C18AH   LINE      ---      ---       #2009
      0082C18AH   LINE      ---      ---       #2010
      0082C19FH   LINE      ---      ---       #2011
      0082C19FH   LINE      ---      ---       #2012
      0082C1A2H   LINE      ---      ---       #2013
      0082C1A2H   LINE      ---      ---       #2014
      0082C1A2H   LINE      ---      ---       #2015
      0082C1A2H   LINE      ---      ---       #2017
      0082C1A2H   LINE      ---      ---       #2018
      0082C1A5H   LINE      ---      ---       #2019
      0082C1A5H   LINE      ---      ---       #2023
      0082C1CFH   LINE      ---      ---       #2024
      0082C1CFH   LINE      ---      ---       #2025
      0082C1CFH   LINE      ---      ---       #2026
      0082C1CFH   LINE      ---      ---       #2027
      0082C1D6H   LINE      ---      ---       #2028
      0082C1D6H   LINE      ---      ---       #2029
      0082C1D9H   LINE      ---      ---       #2030
      0082C1D9H   LINE      ---      ---       #2031
      0082C1DFH   LINE      ---      ---       #2032
      0082C1DFH   LINE      ---      ---       #2033
      0082C1DFH   LINE      ---      ---       #2034
      0082C1DFH   LINE      ---      ---       #2035
      0082C1DFH   LINE      ---      ---       #2036
      0082C1E1H   LINE      ---      ---       #2038
      0082C1E1H   LINE      ---      ---       #2039
      0082C1E1H   LINE      ---      ---       #2040
      0082C1E8H   LINE      ---      ---       #2041
      0082C1E8H   LINE      ---      ---       #2042
      0082C1EBH   LINE      ---      ---       #2043
      0082C1EBH   LINE      ---      ---       #2045
      0082C1F2H   LINE      ---      ---       #2046
      0082C1F2H   LINE      ---      ---       #2047
      0082C1F9H   LINE      ---      ---       #2048
      0082C1F9H   LINE      ---      ---       #2049
      0082C200H   LINE      ---      ---       #2050
      0082C200H   LINE      ---      ---       #2051
      0082C207H   LINE      ---      ---       #2052
      0082C207H   LINE      ---      ---       #2054
      0082C20EH   LINE      ---      ---       #2055
      0082C214H   LINE      ---      ---       #2056
      0082C214H   LINE      ---      ---       #2057
      0082C214H   LINE      ---      ---       #2058
      0082C214H   LINE      ---      ---       #2059
      0082C214H   LINE      ---      ---       #2060
      0082C216H   LINE      ---      ---       #2062
      0082C216H   LINE      ---      ---       #2063
      0082C216H   LINE      ---      ---       #2064
      0082C21DH   LINE      ---      ---       #2065
      0082C223H   LINE      ---      ---       #2066
      0082C223H   LINE      ---      ---       #2067
      0082C223H   LINE      ---      ---       #2068
      0082C223H   LINE      ---      ---       #2069
      0082C223H   LINE      ---      ---       #2070
      0082C225H   LINE      ---      ---       #2072
      0082C225H   LINE      ---      ---       #2073
      0082C225H   LINE      ---      ---       #2074
      0082C22CH   LINE      ---      ---       #2075
      0082C22FH   LINE      ---      ---       #2076
      0082C23DH   LINE      ---      ---       #2077
      0082C242H   LINE      ---      ---       #2078
LX51 LINKER/LOCATER V4.66.41.0                                                        11/18/2021  18:51:21  PAGE 69


      0082C25CH   LINE      ---      ---       #2079
      0082C25EH   LINE      ---      ---       #2080
      0082C25EH   LINE      ---      ---       #2081
      0082C261H   LINE      ---      ---       #2082
      0082C261H   LINE      ---      ---       #2084
      0082C266H   LINE      ---      ---       #2086
      02000628H   SYMBOL    XDATA    BYTE      V_ucTemp
      02000629H   SYMBOL    XDATA    BYTE      V_ucErrorType
      ---         BLOCKEND  CODE/B2  ---       LVL=1
      ---         BLOCKEND  CODE/B2  ---       LVL=0

      0082C697H   BLOCK     CODE/B2  ---       LVL=0
      0082C697H   LINE      ---      ---       #2099
      0082C69CH   LINE      ---      ---       #2100
      02000627H   SYMBOL    XDATA    BYTE      v_ucChID
      0082C69CH   BLOCK     CODE/B2  NEAR LAB  LVL=1
      0082C69CH   LINE      ---      ---       #2101
      0082C6A0H   LINE      ---      ---       #2108
      0082C6C4H   LINE      ---      ---       #2109
      0082C70BH   LINE      ---      ---       #2110
      0082C752H   LINE      ---      ---       #2111
      0082C799H   LINE      ---      ---       #2113
      0082C7B9H   LINE      ---      ---       #2114
      0082C7B9H   LINE      ---      ---       #2115
      0082C7D6H   LINE      ---      ---       #2116
      0082C7D6H   LINE      ---      ---       #2117
      0082C82CH   LINE      ---      ---       #2118
      0082C82CH   LINE      ---      ---       #2122
      0082C82CH   LINE      ---      ---       #2123
      0082C82CH   LINE      ---      ---       #2124
      0082C82CH   LINE      ---      ---       #2125
      0082C846H   LINE      ---      ---       #2126
      0082C846H   LINE      ---      ---       #2127
      0082C868H   LINE      ---      ---       #2128
      0082C868H   LINE      ---      ---       #2129
      0082C887H   LINE      ---      ---       #2130
      0082C8A7H   LINE      ---      ---       #2131
      0082C8B1H   LINE      ---      ---       #2133
      0082C8C8H   LINE      ---      ---       #2134
      0082C8C8H   LINE      ---      ---       #2135
      0082C8E6H   LINE      ---      ---       #2136
      0082C8E6H   LINE      ---      ---       #2137
      0082C8E6H   LINE      ---      ---       #2138
      0082C8E6H   LINE      ---      ---       #2139
      0082C924H   LINE      ---      ---       #2140
      0082C926H   LINE      ---      ---       #2142
      0082C926H   LINE      ---      ---       #2143
      0082C951H   LINE      ---      ---       #2146
      0082C95AH   LINE      ---      ---       #2147
      0082C95AH   LINE      ---      ---       #2149
      0082C970H   LINE      ---      ---       #2150
      0082C970H   LINE      ---      ---       #2151
      0082C986H   LINE      ---      ---       #2152
      0082C986H   LINE      ---      ---       #2153
      0082C986H   LINE      ---      ---       #2154
      0082C986H   LINE      ---      ---       #2155
      0082C988H   LINE      ---      ---       #2156
      0082C9A9H   LINE      ---      ---       #2157
      0082C9A9H   LINE      ---      ---       #2158
      0082C9D3H   LINE      ---      ---       #2159
      0082C9D3H   LINE      ---      ---       #2160
      0082C9D3H   LINE      ---      ---       #2161
      0082C9D3H   LINE      ---      ---       #2163
      0082C9D3H   LINE      ---      ---       #2165
      0082C9D3H   LINE      ---      ---       #2166
LX51 LINKER/LOCATER V4.66.41.0                                                        11/18/2021  18:51:21  PAGE 70


      0082C9D3H   LINE      ---      ---       #2167
      0082C9D3H   LINE      ---      ---       #2168
      0082C9D5H   LINE      ---      ---       #2170
      0082C9D5H   LINE      ---      ---       #2171
      0082C9D5H   LINE      ---      ---       #2172
      0082C9F5H   LINE      ---      ---       #2173
      0082C9F5H   LINE      ---      ---       #2174
      0082CA13H   LINE      ---      ---       #2175
      0082CA13H   LINE      ---      ---       #2176
      0082CA36H   LINE      ---      ---       #2177
      0082CA56H   LINE      ---      ---       #2178
      0082CA60H   LINE      ---      ---       #2180
      0082CA90H   LINE      ---      ---       #2181
      0082CA90H   LINE      ---      ---       #2182
      0082CA90H   LINE      ---      ---       #2183
      0082CA90H   LINE      ---      ---       #2184
      0082CAB0H   LINE      ---      ---       #2185
      0082CAB0H   LINE      ---      ---       #2186
      0082CAB0H   LINE      ---      ---       #2187
      0082CAB0H   LINE      ---      ---       #2189
      0082CAB3H   LINE      ---      ---       #2191
      0082CAB3H   LINE      ---      ---       #2192
      0082CAB3H   LINE      ---      ---       #2193
      0082CAB9H   LINE      ---      ---       #2195
      0082CAD9H   LINE      ---      ---       #2196
      0082CAD9H   LINE      ---      ---       #2198
      0082CB03H   LINE      ---      ---       #2200
      0082CB0AH   LINE      ---      ---       #2201
      0082CB0AH   LINE      ---      ---       #2202
      0082CB26H   LINE      ---      ---       #2203
      0082CB26H   LINE      ---      ---       #2205
      0082CB44H   LINE      ---      ---       #2207
      0082CB58H   LINE      ---      ---       #2209
      0082CB74H   LINE      ---      ---       #2210
      0082CB74H   LINE      ---      ---       #2211
      0082CB78H   LINE      ---      ---       #2212
      0082CB7AH   LINE      ---      ---       #2214
      0082CB7AH   LINE      ---      ---       #2215
      0082CB7EH   LINE      ---      ---       #2216
      0082CB7EH   LINE      ---      ---       #2217
      0082CB8CH   LINE      ---      ---       #2219
      0082CB8CH   LINE      ---      ---       #2220
      0082CB8CH   LINE      ---      ---       #2221
      0082CB8CH   LINE      ---      ---       #2223
      0082CB8FH   LINE      ---      ---       #2226
      0082CB8FH   LINE      ---      ---       #2227
      0082CB8FH   LINE      ---      ---       #2228
      0082CB9DH   LINE      ---      ---       #2229
      0082CBCCH   LINE      ---      ---       #2231
      0082CBE6H   LINE      ---      ---       #2232
      0082CBE6H   LINE      ---      ---       #2233
      0082CBE9H   LINE      ---      ---       #2235
      0082CBE9H   LINE      ---      ---       #2236
      0082CBE9H   LINE      ---      ---       #2237
      0082CC09H   LINE      ---      ---       #2238
      0082CC09H   LINE      ---      ---       #2239
      0082CC09H   LINE      ---      ---       #2240
      0082CC09H   LINE      ---      ---       #2244
      0082CC34H   LINE      ---      ---       #2245
      0082CC64H   LINE      ---      ---       #2246
      0082CC94H   LINE      ---      ---       #2247
      0082CCC4H   LINE      ---      ---       #2248
      0082CCE1H   LINE      ---      ---       #2252
      0082CCF6H   LINE      ---      ---       #2253
      0082CD04H   LINE      ---      ---       #2257
LX51 LINKER/LOCATER V4.66.41.0                                                        11/18/2021  18:51:21  PAGE 71


      0082CD0AH   LINE      ---      ---       #2263
      0082CD0AH   LINE      ---      ---       #2264
      0082CD0AH   LINE      ---      ---       #2266
      0082CD0DH   LINE      ---      ---       #2268
      0082CD0DH   LINE      ---      ---       #2270
      0082CD0DH   LINE      ---      ---       #2271
      0082CD2DH   LINE      ---      ---       #2272
      0082CD2DH   LINE      ---      ---       #2273
      0082CD2DH   LINE      ---      ---       #2274
      0082CD2DH   LINE      ---      ---       #2276
      0082CD3FH   LINE      ---      ---       #2277
      0082CD5CH   LINE      ---      ---       #2278
      0082CD8BH   LINE      ---      ---       #2279
      0082CDBAH   LINE      ---      ---       #2280
      0082CDE9H   LINE      ---      ---       #2282
      0082CE08H   LINE      ---      ---       #2283
      0082CE1EH   LINE      ---      ---       #2284
      0082CE1EH   LINE      ---      ---       #2285
      0082CE21H   LINE      ---      ---       #2286
      0082CE21H   LINE      ---      ---       #2287
      0082CE21H   LINE      ---      ---       #2288
      0082CE41H   LINE      ---      ---       #2289
      0082CE41H   LINE      ---      ---       #2290
      0082CE41H   LINE      ---      ---       #2291
      0082CE41H   LINE      ---      ---       #2293
      0082CE59H   LINE      ---      ---       #2294
      0082CE59H   LINE      ---      ---       #2295
      0082CE73H   LINE      ---      ---       #2296
      0082CE73H   LINE      ---      ---       #2297
      0082CE73H   LINE      ---      ---       #2299
      0082CE76H   LINE      ---      ---       #2301
      0082CE76H   LINE      ---      ---       #2302
      0082CE76H   LINE      ---      ---       #2303
      0082CE96H   LINE      ---      ---       #2304
      0082CE96H   LINE      ---      ---       #2305
      0082CE96H   LINE      ---      ---       #2306
      0082CE96H   LINE      ---      ---       #2308
      0082CEB2H   LINE      ---      ---       #2309
      0082CEB2H   LINE      ---      ---       #2310
      0082CECCH   LINE      ---      ---       #2311
      0082CECCH   LINE      ---      ---       #2312
      0082CECCH   LINE      ---      ---       #2314
      0082CECFH   LINE      ---      ---       #2316
      0082CECFH   LINE      ---      ---       #2317
      0082CECFH   LINE      ---      ---       #2318
      0082CEEFH   LINE      ---      ---       #2319
      0082CEEFH   LINE      ---      ---       #2320
      0082CEEFH   LINE      ---      ---       #2321
      0082CEEFH   LINE      ---      ---       #2323
      0082CF0BH   LINE      ---      ---       #2324
      0082CF0BH   LINE      ---      ---       #2325
      0082CF25H   LINE      ---      ---       #2326
      0082CF25H   LINE      ---      ---       #2327
      0082CF25H   LINE      ---      ---       #2329
      0082CF28H   LINE      ---      ---       #2331
      0082CF28H   LINE      ---      ---       #2332
      0082CF28H   LINE      ---      ---       #2333
      0082CF48H   LINE      ---      ---       #2334
      0082CF48H   LINE      ---      ---       #2335
      0082CF48H   LINE      ---      ---       #2336
      0082CF48H   LINE      ---      ---       #2337
      0082CF64H   LINE      ---      ---       #2338
      0082CF64H   LINE      ---      ---       #2339
      0082CF7EH   LINE      ---      ---       #2340
      0082CF82H   LINE      ---      ---       #2342
LX51 LINKER/LOCATER V4.66.41.0                                                        11/18/2021  18:51:21  PAGE 72


      0082CF9BH   LINE      ---      ---       #2343
      0082CFB0H   LINE      ---      ---       #2344
      0082CFBEH   LINE      ---      ---       #2345
      0082CFBEH   LINE      ---      ---       #2346
      0082CFC1H   LINE      ---      ---       #2348
      0082CFC1H   LINE      ---      ---       #2349
      0082CFC1H   LINE      ---      ---       #2350
      0082CFE1H   LINE      ---      ---       #2351
      0082CFE1H   LINE      ---      ---       #2352
      0082CFE1H   LINE      ---      ---       #2353
      0082CFE1H   LINE      ---      ---       #2354
      0082D001H   LINE      ---      ---       #2355
      0082D001H   LINE      ---      ---       #2356
      0082D001H   LINE      ---      ---       #2357
      0082D001H   LINE      ---      ---       #2358
      0082D001H   LINE      ---      ---       #2359
      0082D004H   LINE      ---      ---       #2361
      0082D004H   LINE      ---      ---       #2362
      0082D004H   LINE      ---      ---       #2363
      0082D023H   LINE      ---      ---       #2364
      0082D023H   LINE      ---      ---       #2365
      0082D023H   LINE      ---      ---       #2366
      0082D023H   LINE      ---      ---       #2367
      0082D042H   LINE      ---      ---       #2368
      0082D042H   LINE      ---      ---       #2369
      0082D05CH   LINE      ---      ---       #2370
      0082D05CH   LINE      ---      ---       #2371
      0082D05CH   LINE      ---      ---       #2372
      0082D05EH   LINE      ---      ---       #2374
      0082D05EH   LINE      ---      ---       #2375
      0082D05EH   LINE      ---      ---       #2376
      0082D07DH   LINE      ---      ---       #2377
      0082D07DH   LINE      ---      ---       #2378
      0082D07DH   LINE      ---      ---       #2379
      0082D07DH   LINE      ---      ---       #2380
      0082D09CH   LINE      ---      ---       #2381
      0082D09CH   LINE      ---      ---       #2382
      0082D09CH   LINE      ---      ---       #2383
      0082D09CH   LINE      ---      ---       #2384
      0082D09CH   LINE      ---      ---       #2385
      0082D09EH   LINE      ---      ---       #2387
      0082D09EH   LINE      ---      ---       #2388
      0082D09EH   LINE      ---      ---       #2389
      0082D0BDH   LINE      ---      ---       #2390
      0082D0BDH   LINE      ---      ---       #2391
      0082D0BDH   LINE      ---      ---       #2392
      0082D0BDH   LINE      ---      ---       #2393
      0082D0DCH   LINE      ---      ---       #2394
      0082D0DCH   LINE      ---      ---       #2395
      0082D0F6H   LINE      ---      ---       #2396
      0082D0F6H   LINE      ---      ---       #2397
      0082D0F6H   LINE      ---      ---       #2398
      0082D0F8H   LINE      ---      ---       #2400
      0082D0F8H   LINE      ---      ---       #2401
      0082D0F8H   LINE      ---      ---       #2402
      0082D117H   LINE      ---      ---       #2403
      0082D117H   LINE      ---      ---       #2404
      0082D117H   LINE      ---      ---       #2405
      0082D117H   LINE      ---      ---       #2406
      0082D136H   LINE      ---      ---       #2407
      0082D136H   LINE      ---      ---       #2408
      0082D150H   LINE      ---      ---       #2409
      0082D150H   LINE      ---      ---       #2410
      0082D150H   LINE      ---      ---       #2411
      0082D152H   LINE      ---      ---       #2413
LX51 LINKER/LOCATER V4.66.41.0                                                        11/18/2021  18:51:21  PAGE 73


      0082D152H   LINE      ---      ---       #2414
      0082D152H   LINE      ---      ---       #2415
      0082D171H   LINE      ---      ---       #2416
      0082D171H   LINE      ---      ---       #2417
      0082D171H   LINE      ---      ---       #2418
      0082D171H   LINE      ---      ---       #2419
      0082D190H   LINE      ---      ---       #2420
      0082D190H   LINE      ---      ---       #2421
      0082D1AAH   LINE      ---      ---       #2422
      0082D1AAH   LINE      ---      ---       #2423
      0082D1AAH   LINE      ---      ---       #2424
      0082D1ACH   LINE      ---      ---       #2514
      0082D1ACH   LINE      ---      ---       #2515
      0082D1ACH   LINE      ---      ---       #2516
      0082D1C9H   LINE      ---      ---       #2517
      0082D1C9H   LINE      ---      ---       #2518
      0082D1CFH   LINE      ---      ---       #2519
      0082D1D8H   LINE      ---      ---       #2520
      0082D1D8H   LINE      ---      ---       #2521
      0082D1F3H   LINE      ---      ---       #2522
      0082D1F3H   LINE      ---      ---       #2523
      0082D216H   LINE      ---      ---       #2524
      0082D216H   LINE      ---      ---       #2525
      0082D246H   LINE      ---      ---       #2526
      0082D246H   LINE      ---      ---       #2527
      0082D246H   LINE      ---      ---       #2528
      0082D246H   LINE      ---      ---       #2529
      0082D246H   LINE      ---      ---       #2530
      0082D246H   LINE      ---      ---       #2531
      0082D248H   LINE      ---      ---       #2532
      0082D267H   LINE      ---      ---       #2533
      0082D267H   LINE      ---      ---       #2534
      0082D286H   LINE      ---      ---       #2535
      0082D286H   LINE      ---      ---       #2536
      0082D2B6H   LINE      ---      ---       #2538
      0082D2D1H   LINE      ---      ---       #2539
      0082D2D2H   LINE      ---      ---       #2540
      0082D2D2H   LINE      ---      ---       #2541
      0082D2D4H   LINE      ---      ---       #2543
      0082D2D4H   LINE      ---      ---       #2544
      0082D2D4H   LINE      ---      ---       #2545
      0082D2D4H   LINE      ---      ---       #2546
      0082D2D4H   LINE      ---      ---       #2548
      0082D2D4H   LINE      ---      ---       #2549
      0082D2D4H   LINE      ---      ---       #2550
      0082D2D4H   LINE      ---      ---       #2551
      0082D2D4H   LINE      ---      ---       #2553
      0082D2D4H   LINE      ---      ---       #2554
      0082D2F1H   LINE      ---      ---       #2555
      0082D2F1H   LINE      ---      ---       #2556
      0082D2F1H   LINE      ---      ---       #2557
      0082D2F1H   LINE      ---      ---       #2558
      0082D2F7H   LINE      ---      ---       #2559
      0082D2FEH   LINE      ---      ---       #2560
      0082D2FEH   LINE      ---      ---       #2561
      0082D31AH   LINE      ---      ---       #2562
      0082D31AH   LINE      ---      ---       #2563
      0082D31DH   LINE      ---      ---       #2564
      0082D337H   LINE      ---      ---       #2565
      0082D33BH   LINE      ---      ---       #2566
      0082D33BH   LINE      ---      ---       #2567
      0082D33BH   LINE      ---      ---       #2569
      0082D33BH   LINE      ---      ---       #2571
      0082D33BH   LINE      ---      ---       #2573
      0082D33BH   LINE      ---      ---       #2574
LX51 LINKER/LOCATER V4.66.41.0                                                        11/18/2021  18:51:21  PAGE 74


      0082D33BH   LINE      ---      ---       #2576
      0082D340H   LINE      ---      ---       #2577
      02000628H   SYMBOL    XDATA    BYTE      V_ucErrorType
      02000629H   SYMBOL    XDATA    BYTE      V_ucTempdata
      0200062AH   SYMBOL    XDATA    WORD      V_usAddress
      0200062CH   SYMBOL    XDATA    DWORD     V_ulDI3DI2DI1DI0
      02000630H   SYMBOL    XDATA    DWORD     V_ulTempData32
      ---         BLOCKEND  CODE/B2  ---       LVL=1
      ---         BLOCKEND  CODE/B2  ---       LVL=0

      0082D341H   BLOCK     CODE/B2  ---       LVL=0
      0082D341H   LINE      ---      ---       #2589
      0082D346H   LINE      ---      ---       #2590
      02000627H   SYMBOL    XDATA    BYTE      v_ucChID
      0082D346H   BLOCK     CODE/B2  NEAR LAB  LVL=1
      0082D346H   LINE      ---      ---       #2599
      0082D34CH   LINE      ---      ---       #2600
      0082D351H   LINE      ---      ---       #2601
      0082D353H   LINE      ---      ---       #2602
      0082D35DH   LINE      ---      ---       #2604
      0082D38DH   LINE      ---      ---       #2605
      0082D3BDH   LINE      ---      ---       #2606
      0082D3DCH   LINE      ---      ---       #2607
      0082D3DCH   LINE      ---      ---       #2608
      0082D3E3H   LINE      ---      ---       #2609
      0082D3E3H   LINE      ---      ---       #2610
      0082D3FBH   LINE      ---      ---       #2611
      0082D3FBH   LINE      ---      ---       #2612
      0082D3FDH   LINE      ---      ---       #2614
      0082D3FDH   LINE      ---      ---       #2615
      0082D402H   LINE      ---      ---       #2616
      0082D402H   LINE      ---      ---       #2617
      0082D437H   LINE      ---      ---       #2618
      0082D481H   LINE      ---      ---       #2619
      0082D48EH   LINE      ---      ---       #2621
      0082D49FH   LINE      ---      ---       #2622
      0082D49FH   LINE      ---      ---       #2623
      0082D4C6H   LINE      ---      ---       #2624
      0082D4C6H   LINE      ---      ---       #2625
      0082D4EEH   LINE      ---      ---       #2626
      0082D4EEH   LINE      ---      ---       #2627
      0082D508H   LINE      ---      ---       #2628
      0082D50EH   LINE      ---      ---       #2629
      0082D510H   LINE      ---      ---       #2630
      0082D510H   LINE      ---      ---       #2632
      0082D510H   LINE      ---      ---       #2634
      0082D521H   LINE      ---      ---       #2635
      0082D521H   LINE      ---      ---       #2636
      0082D521H   LINE      ---      ---       #2637
      0082D521H   LINE      ---      ---       #2638
      0082D524H   LINE      ---      ---       #2639
      0082D526H   LINE      ---      ---       #2641
      0082D526H   LINE      ---      ---       #2642
      0082D526H   LINE      ---      ---       #2643
      0082D540H   LINE      ---      ---       #2644
      0082D542H   LINE      ---      ---       #2646
      0082D542H   LINE      ---      ---       #2647
      0082D542H   LINE      ---      ---       #2648
      0082D542H   LINE      ---      ---       #2650
      0082D542H   LINE      ---      ---       #2651
      0082D54AH   LINE      ---      ---       #2652
      0082D54CH   LINE      ---      ---       #2654
      0082D54CH   LINE      ---      ---       #2655
      0082D54CH   LINE      ---      ---       #2656
      0082D567H   LINE      ---      ---       #2657
LX51 LINKER/LOCATER V4.66.41.0                                                        11/18/2021  18:51:21  PAGE 75


      0082D569H   LINE      ---      ---       #2660
      0082D569H   LINE      ---      ---       #2661
      0082D569H   LINE      ---      ---       #2662
      0082D589H   LINE      ---      ---       #2663
      0082D589H   LINE      ---      ---       #2665
      0082D589H   LINE      ---      ---       #2666
      0082D589H   LINE      ---      ---       #2667
      0082D590H   LINE      ---      ---       #2668
      0082D590H   LINE      ---      ---       #2669
      0082D593H   LINE      ---      ---       #2670
      0082D5B2H   LINE      ---      ---       #2671
      0082D5CDH   LINE      ---      ---       #2672
      0082D5CFH   LINE      ---      ---       #2673
      0082D5CFH   LINE      ---      ---       #2675
      0082D5CFH   LINE      ---      ---       #2676
      0082D5F3H   LINE      ---      ---       #2677
      0082D5FCH   LINE      ---      ---       #2678
      0082D5FCH   LINE      ---      ---       #2679
      0082D5FEH   LINE      ---      ---       #2680
      0082D5FEH   LINE      ---      ---       #2681
      0082D5FEH   LINE      ---      ---       #2682
      0082D606H   LINE      ---      ---       #2683
      0082D60FH   LINE      ---      ---       #2684
      0082D60FH   LINE      ---      ---       #2685
      0082D62DH   LINE      ---      ---       #2686
      0082D633H   LINE      ---      ---       #2687
      0082D633H   LINE      ---      ---       #2688
      0082D633H   LINE      ---      ---       #2689
      0082D635H   LINE      ---      ---       #2691
      0082D635H   LINE      ---      ---       #2692
      0082D63BH   LINE      ---      ---       #2693
      0082D63BH   LINE      ---      ---       #2695
      0082D640H   LINE      ---      ---       #2697
      02000628H   SYMBOL    XDATA    BYTE      i
      02000629H   SYMBOL    XDATA    BYTE      j
      0200062AH   SYMBOL    XDATA    ---       V_ucDI
      0200062EH   SYMBOL    XDATA    BYTE      V_ucErrorType
      0200062FH   SYMBOL    XDATA    DWORD     V_ulDI0DI1DI2DI3
      ---         BLOCKEND  CODE/B2  ---       LVL=1
      ---         BLOCKEND  CODE/B2  ---       LVL=0

      008295B3H   BLOCK     CODE/B2  ---       LVL=0
      008295B3H   LINE      ---      ---       #2707
      008295B8H   LINE      ---      ---       #2708
      008295B8H   LINE      ---      ---       #2710
      008295CEH   LINE      ---      ---       #2711
      008295CEH   LINE      ---      ---       #2712
      008295D1H   LINE      ---      ---       #2713
      008295D1H   LINE      ---      ---       #2714
      008295EEH   LINE      ---      ---       #2715
      008295EEH   LINE      ---      ---       #2716
      008295F1H   LINE      ---      ---       #2717
      008295F1H   LINE      ---      ---       #2718
      008295F8H   LINE      ---      ---       #2719
      008295F8H   LINE      ---      ---       #2720
      0082960DH   LINE      ---      ---       #2721
      0082960DH   LINE      ---      ---       #2722
      00829627H   LINE      ---      ---       #2723
      00829627H   LINE      ---      ---       #2724
      0082962AH   LINE      ---      ---       #2725
      0082962AH   LINE      ---      ---       #2726
      0082962AH   LINE      ---      ---       #2728
      0082962AH   LINE      ---      ---       #2729
      0082962DH   LINE      ---      ---       #2730
      0082962DH   LINE      ---      ---       #2731
LX51 LINKER/LOCATER V4.66.41.0                                                        11/18/2021  18:51:21  PAGE 76


      0082962DH   LINE      ---      ---       #2733
      0082962DH   LINE      ---      ---       #2734
      00829630H   LINE      ---      ---       #2735
      00829630H   LINE      ---      ---       #2736
      0082964AH   LINE      ---      ---       #2737
      0082964DH   LINE      ---      ---       #2738
      0082964FH   LINE      ---      ---       #2741
      00829651H   LINE      ---      ---       #2742
      02000627H   SYMBOL    XDATA    BYTE      v_ucChID
      ---         BLOCKEND  ---      ---       LVL=0

      0082D7F6H   BLOCK     CODE/B2  ---       LVL=0
      0082D7F6H   LINE      ---      ---       #2753
      0082D7FBH   LINE      ---      ---       #2754
      02000627H   SYMBOL    XDATA    BYTE      v_ucChID
      0082D7FBH   BLOCK     CODE/B2  NEAR LAB  LVL=1
      0082D7FBH   LINE      ---      ---       #2763
      0082D801H   LINE      ---      ---       #2764
      0082D806H   LINE      ---      ---       #2765
      0082D808H   LINE      ---      ---       #2766
      0082D812H   LINE      ---      ---       #2768
      0082D81AH   LINE      ---      ---       #2769
      0082D81AH   LINE      ---      ---       #2770
      0082D81DH   LINE      ---      ---       #2771
      0082D81DH   LINE      ---      ---       #2773
      0082D84DH   LINE      ---      ---       #2774
      0082D87DH   LINE      ---      ---       #2775
      0082D89CH   LINE      ---      ---       #2776
      0082D89CH   LINE      ---      ---       #2777
      0082D8A3H   LINE      ---      ---       #2778
      0082D8A3H   LINE      ---      ---       #2779
      0082D8BBH   LINE      ---      ---       #2780
      0082D8BBH   LINE      ---      ---       #2781
      0082D8BDH   LINE      ---      ---       #2783
      0082D8BDH   LINE      ---      ---       #2784
      0082D8C2H   LINE      ---      ---       #2785
      0082D8C2H   LINE      ---      ---       #2786
      0082D8F7H   LINE      ---      ---       #2787
      0082D941H   LINE      ---      ---       #2788
      0082D94EH   LINE      ---      ---       #2789
      0082D96BH   LINE      ---      ---       #2790
      0082D96BH   LINE      ---      ---       #2791
      0082D988H   LINE      ---      ---       #2792
      0082D988H   LINE      ---      ---       #2793
      0082D9A2H   LINE      ---      ---       #2794
      0082D9A8H   LINE      ---      ---       #2795
      0082D9AAH   LINE      ---      ---       #2797
      0082D9AAH   LINE      ---      ---       #2798
      0082D9B1H   LINE      ---      ---       #2799
      0082D9B5H   LINE      ---      ---       #2800
      0082D9B5H   LINE      ---      ---       #2802
      0082D9BAH   LINE      ---      ---       #2803
      0082D9C0H   LINE      ---      ---       #2804
      0082D9E1H   LINE      ---      ---       #2805
      0082D9ECH   LINE      ---      ---       #2806
      0082D9F7H   LINE      ---      ---       #2807
      0082DA02H   LINE      ---      ---       #2808
      0082DA0DH   LINE      ---      ---       #2809
      0082DA18H   LINE      ---      ---       #2812
      0082DA28H   LINE      ---      ---       #2815
      0082DA43H   LINE      ---      ---       #2818
      0082DA5EH   LINE      ---      ---       #2821
      0082DA79H   LINE      ---      ---       #2824
      0082DA94H   LINE      ---      ---       #2827
      0082DA96H   LINE      ---      ---       #2828
LX51 LINKER/LOCATER V4.66.41.0                                                        11/18/2021  18:51:21  PAGE 77


      0082DA9BH   LINE      ---      ---       #2829
      0082DA9EH   LINE      ---      ---       #2830
      0082DAA5H   LINE      ---      ---       #2831
      0082DAAEH   LINE      ---      ---       #2833
      0082DADDH   LINE      ---      ---       #2834
      0082DAF8H   LINE      ---      ---       #2835
      0082DAFEH   LINE      ---      ---       #2836
      0082DB00H   LINE      ---      ---       #2838
      0082DB00H   LINE      ---      ---       #2839
      0082DB06H   LINE      ---      ---       #2840
      0082DB25H   LINE      ---      ---       #2841
      0082DB40H   LINE      ---      ---       #2842
      0082DB40H   LINE      ---      ---       #2843
      0082DB40H   LINE      ---      ---       #2844
      0082DB42H   LINE      ---      ---       #2845
      0082DB60H   LINE      ---      ---       #2846
      0082DB60H   LINE      ---      ---       #2847
      0082DB7DH   LINE      ---      ---       #2848
      0082DB7DH   LINE      ---      ---       #2849
      0082DB9BH   LINE      ---      ---       #2850
      0082DBA1H   LINE      ---      ---       #2851
      0082DBB8H   LINE      ---      ---       #2852
      0082DBBAH   LINE      ---      ---       #2854
      0082DBBAH   LINE      ---      ---       #2855
      0082DBC2H   LINE      ---      ---       #2856
      0082DBC6H   LINE      ---      ---       #2857
      0082DBC9H   LINE      ---      ---       #2859
      0082DBE3H   LINE      ---      ---       #2862
      0082DBFEH   LINE      ---      ---       #2865
      0082DC19H   LINE      ---      ---       #2868
      0082DC29H   LINE      ---      ---       #2871
      0082DC3DH   LINE      ---      ---       #2876
      0082DC44H   LINE      ---      ---       #2878
      0082DC73H   LINE      ---      ---       #2880
      0082DC8EH   LINE      ---      ---       #2881
      0082DC8EH   LINE      ---      ---       #2882
      0082DC8EH   LINE      ---      ---       #2883
      0082DC8EH   LINE      ---      ---       #2884
      0082DC90H   LINE      ---      ---       #2886
      0082DC90H   LINE      ---      ---       #2887
      0082DC96H   LINE      ---      ---       #2888
      0082DC96H   LINE      ---      ---       #2889
      0082DC9BH   LINE      ---      ---       #2890
      02000628H   SYMBOL    XDATA    BYTE      i
      02000629H   SYMBOL    XDATA    ---       V_ucDI
      0200062DH   SYMBOL    XDATA    BYTE      V_ucErrorType
      0200062EH   SYMBOL    XDATA    DWORD     V_ulDI0DI1DI2DI3
      00000007H   SYMBOL    DATA     BYTE      V_Temp
      02000632H   SYMBOL    XDATA    BYTE      V_Temp1
      00000006H   SYMBOL    DATA     WORD      V_usStateFlag3
      02000633H   SYMBOL    XDATA    ---       V_ucTempData
      ---         BLOCKEND  CODE/B2  ---       LVL=1
      ---         BLOCKEND  CODE/B2  ---       LVL=0

      0082DD14H   BLOCK     CODE/B2  ---       LVL=0
      0082DD14H   LINE      ---      ---       #2902
      0082DD19H   LINE      ---      ---       #2903
      02000627H   SYMBOL    XDATA    BYTE      v_ucChID
      0082DD19H   BLOCK     CODE/B2  NEAR LAB  LVL=1
      0082DD19H   LINE      ---      ---       #2906
      0082DD2CH   LINE      ---      ---       #2907
      0082DD32H   LINE      ---      ---       #2909
      0082DD51H   LINE      ---      ---       #2910
      0082DD51H   LINE      ---      ---       #2911
      0082DD77H   LINE      ---      ---       #2912
LX51 LINKER/LOCATER V4.66.41.0                                                        11/18/2021  18:51:21  PAGE 78


      0082DD77H   LINE      ---      ---       #2913
      0082DDCDH   LINE      ---      ---       #2914
      0082DDCDH   LINE      ---      ---       #2915
      0082DDDDH   LINE      ---      ---       #2916
      0082DDDDH   LINE      ---      ---       #2917
      0082DE09H   LINE      ---      ---       #2918
      0082DE09H   LINE      ---      ---       #2919
      0082DE46H   LINE      ---      ---       #2920
      0082DE46H   LINE      ---      ---       #2921
      0082DE59H   LINE      ---      ---       #2922
      0082DE59H   LINE      ---      ---       #2923
      0082DE9FH   LINE      ---      ---       #2925
      0082DEB0H   LINE      ---      ---       #2926
      0082DEB0H   LINE      ---      ---       #2927
      0082DEEEH   LINE      ---      ---       #2928
      0082DEF4H   LINE      ---      ---       #2929
      0082DEF4H   LINE      ---      ---       #2930
      0082DEF4H   LINE      ---      ---       #2931
      0082DEF4H   LINE      ---      ---       #2932
      0082DEF6H   LINE      ---      ---       #2933
      0082DEF6H   LINE      ---      ---       #2934
      0082DEFEH   LINE      ---      ---       #2935
      0082DEFEH   LINE      ---      ---       #2936
      0082DEFEH   LINE      ---      ---       #2937
      0082DEFEH   LINE      ---      ---       #2939
      0082DEFEH   LINE      ---      ---       #2940
      0082DF04H   LINE      ---      ---       #2941
      0082DF04H   LINE      ---      ---       #2943
      0082DF09H   LINE      ---      ---       #2944
      02000628H   SYMBOL    XDATA    BYTE      V_ucErrorType
      02000629H   SYMBOL    XDATA    BYTE      i
      0200062AH   SYMBOL    XDATA    ---       V_ucTempBuff
      02000635H   SYMBOL    XDATA    ---       V_ucaPasswordDI0
      ---         BLOCKEND  CODE/B2  ---       LVL=1
      ---         BLOCKEND  CODE/B2  ---       LVL=0

      0082DC9CH   BLOCK     CODE/B2  ---       LVL=0
      0082DCAAH   LINE      ---      ---       #2956
      0082DCAAH   LINE      ---      ---       #2957
      0082DCAAH   BLOCK     CODE/B2  NEAR LAB  LVL=1
      0082DCAAH   LINE      ---      ---       #2958
      0082DCADH   LINE      ---      ---       #2960
      0082DCB4H   LINE      ---      ---       #2961
      0082DCB4H   LINE      ---      ---       #2962
      0082DCB7H   LINE      ---      ---       #2963
      0082DCB7H   LINE      ---      ---       #2965
      0082DCBEH   LINE      ---      ---       #2966
      0082DCBEH   LINE      ---      ---       #2967
      0082DCC2H   LINE      ---      ---       #2968
      0082DCC2H   LINE      ---      ---       #2970
      0082DCC9H   LINE      ---      ---       #2971
      0082DCC9H   LINE      ---      ---       #2972
      0082DCCDH   LINE      ---      ---       #2973
      0082DCCDH   LINE      ---      ---       #2975
      0082DCD4H   LINE      ---      ---       #2976
      0082DCD4H   LINE      ---      ---       #2977
      0082DCD8H   LINE      ---      ---       #2978
      0082DCD8H   LINE      ---      ---       #2980
      0082DCDFH   LINE      ---      ---       #2981
      0082DCDFH   LINE      ---      ---       #2982
      0082DCE3H   LINE      ---      ---       #2983
      0082DCE3H   LINE      ---      ---       #2985
      0082DCE7H   LINE      ---      ---       #2988
      0082DCEEH   LINE      ---      ---       #2989
      0082DCEEH   LINE      ---      ---       #2990
LX51 LINKER/LOCATER V4.66.41.0                                                        11/18/2021  18:51:21  PAGE 79


      0082DCF2H   LINE      ---      ---       #2991
      0082DCF2H   LINE      ---      ---       #2993
      0082DCF9H   LINE      ---      ---       #2994
      0082DCF9H   LINE      ---      ---       #2995
      0082DCFDH   LINE      ---      ---       #2996
      0082DCFDH   LINE      ---      ---       #2998
      0082DD04H   LINE      ---      ---       #2999
      0082DD04H   LINE      ---      ---       #3000
      0082DD08H   LINE      ---      ---       #3001
      0082DD08H   LINE      ---      ---       #3003
      0082DD0FH   LINE      ---      ---       #3004
      0082DD0FH   LINE      ---      ---       #3005
      0082DD13H   LINE      ---      ---       #3006
      0082DD13H   LINE      ---      ---       #3008
      0082DD13H   LINE      ---      ---       #3009
      00000006H   SYMBOL    DATA     WORD      V_usResult
      ---         BLOCKEND  CODE/B2  ---       LVL=1
      ---         BLOCKEND  CODE/B2  ---       LVL=0

      ---         MODULE    ---      ---       APPVIRTUALESAM
      02000BD3H   PUBLIC    XDATA    ---       GStr_VirtualEsamPara
      02000BCBH   PUBLIC    XDATA    ---       GA_ucDisperFactor
      02000BCAH   PUBLIC    XDATA    BYTE      GV_ucMACErrNum
      0082E902H   PUBLIC    CODE/B2  ---       _Money_Recharge
      00829387H   PUBLIC    CODE/B2  ---       _PrepaymentModule_GetChallenge
      0082C5C6H   PUBLIC    CODE/B2  ---       _PrepaymentModule_Comm_INTAUTH_Invalidation
      02000766H   PUBLIC    XDATA    BYTE      ?_PrepaymentModule_CommWriteESAMBinaryMAC?BYTE
      0082C4D4H   PUBLIC    CODE/B2  ---       _PrepaymentModule_CommWriteESAMBinaryMAC
      0082C400H   PUBLIC    CODE/B2  ---       _PrepaymentModule_GetWorkkey
      02000670H   PUBLIC    XDATA    BYTE      ?_PrepaymentModule_DataDecription?BYTE
      0082C267H   PUBLIC    CODE/B2  ---       _PrepaymentModule_DataDecription
      008294A9H   PUBLIC    CODE/B2  ---       _PrepaymentModule_Comm_HandBackMoney
      0082EC82H   PUBLIC    CODE/B2  ---       _PrepaymentModule_Comm_ModifyKey
      0082E23CH   PUBLIC    CODE/B2  ---       _PrepaymentModule_Comm_OpenAccout
      0082C5ADH   PUBLIC    CODE/B2  ---       PrepaymentModule_InValidation
      008293DCH   PUBLIC    CODE/B2  ---       PrepaymentModule_Comm_ClrMACErrNum
      0082C57DH   PUBLIC    CODE/B2  ---       PrepaymentModule_Comm_MACErrNum
      0082D641H   PUBLIC    CODE/B2  ---       _PrepaymentModule_Comm_TimeAvailableIn
      0082DF22H   PUBLIC    CODE/B2  ---       _PrepaymentModule_Comm_INTAUTH
      000000F3H   SFRSYM    DATA     BYTE      IB_CON2
      000000D8H.3 SFRSYM    DATA     BIT       TB81
      00000080H   SFRSYM    DATA     BYTE      P0
      000000F4H   SFRSYM    DATA     BYTE      IB_CON3
      000000A4H   SFRSYM    DATA     BYTE      TKCON
      00000090H   SFRSYM    DATA     BYTE      P1
      000000F5H   SFRSYM    DATA     BYTE      IB_CON4
      000000E7H   SFRSYM    DATA     BYTE      PASLO
      000000A0H   SFRSYM    DATA     BYTE      P2
      000000FEH   SFRSYM    DATA     BYTE      OSCLO
      000000F6H   SFRSYM    DATA     BYTE      IB_CON5
      00000098H.6 SFRSYM    DATA     BIT       SM1_RXOV
      000000B0H   SFRSYM    DATA     BYTE      P3
      000000D0H.6 SFRSYM    DATA     BIT       AC
      000000C0H   SFRSYM    DATA     BYTE      P4
      000000A1H   SFRSYM    DATA     BYTE      SPCON
      0000009CH   SFRSYM    DATA     BYTE      SBRTH
      000000E9H   SFRSYM    DATA     BYTE      P5
      000000A8H.7 SFRSYM    DATA     BIT       EA
      000000EAH   SFRSYM    DATA     BYTE      P6
      000000EBH   SFRSYM    DATA     BYTE      P7
      000000EFH   SFRSYM    DATA     BYTE      IB_DATA
      000000ECH   SFRSYM    DATA     BYTE      P8
      0000009DH   SFRSYM    DATA     BYTE      SBRTL
      000000EDH   SFRSYM    DATA     BYTE      P9
      000000B7H   SFRSYM    DATA     BYTE      PBANKLO
LX51 LINKER/LOCATER V4.66.41.0                                                        11/18/2021  18:51:21  PAGE 80


      000000A2H   SFRSYM    DATA     BYTE      SPSTA
      000000A8H   SFRSYM    DATA     BYTE      IEN0
      000000B3H   SFRSYM    DATA     BYTE      PWRCON1
      00000095H   SFRSYM    DATA     BYTE      EMUSR
      000000A9H   SFRSYM    DATA     BYTE      IEN1
      000000B4H   SFRSYM    DATA     BYTE      PWRCON2
      00000085H   SFRSYM    DATA     BYTE      DPH1
      00000080H   SFRSYM    DATA     BIT       P0_0
      00000090H   SFRSYM    DATA     BIT       P1_0
      00000080H.1 SFRSYM    DATA     BIT       P0_1
      000000C3H   SFRSYM    DATA     BYTE      ADCH
      000000A0H   SFRSYM    DATA     BIT       P2_0
      00000090H.1 SFRSYM    DATA     BIT       P1_1
      00000080H.2 SFRSYM    DATA     BIT       P0_2
      000000BAH   SFRSYM    DATA     BYTE      IPH0
      00000084H   SFRSYM    DATA     BYTE      DPL1
      000000B0H   SFRSYM    DATA     BIT       P3_0
      000000A0H.1 SFRSYM    DATA     BIT       P2_1
      00000090H.2 SFRSYM    DATA     BIT       P1_2
      00000080H.3 SFRSYM    DATA     BIT       P0_3
      000000BBH   SFRSYM    DATA     BYTE      IPH1
      000000C0H   SFRSYM    DATA     BIT       P4_0
      000000B0H.1 SFRSYM    DATA     BIT       P3_1
      000000A0H.2 SFRSYM    DATA     BIT       P2_2
      00000090H.3 SFRSYM    DATA     BIT       P1_3
      00000080H.4 SFRSYM    DATA     BIT       P0_4
      000000E8H   SFRSYM    DATA     BYTE      EXF0
      000000C0H.1 SFRSYM    DATA     BIT       P4_1
      000000B0H.2 SFRSYM    DATA     BIT       P3_2
      000000A0H.3 SFRSYM    DATA     BIT       P2_3
      00000090H.4 SFRSYM    DATA     BIT       P1_4
      00000080H.5 SFRSYM    DATA     BIT       P0_5
      000000C0H.2 SFRSYM    DATA     BIT       P4_2
      000000B0H.3 SFRSYM    DATA     BIT       P3_3
      000000A0H.4 SFRSYM    DATA     BIT       P2_4
      00000090H.5 SFRSYM    DATA     BIT       P1_5
      00000080H.6 SFRSYM    DATA     BIT       P0_6
      000000C8H.6 SFRSYM    DATA     BIT       EXF2
      000000A6H   SFRSYM    DATA     BYTE      TKF0
      000000B8H   SFRSYM    DATA     BYTE      IPL0
      000000C0H.3 SFRSYM    DATA     BIT       P4_3
      000000B0H.4 SFRSYM    DATA     BIT       P3_4
      000000A0H.5 SFRSYM    DATA     BIT       P2_5
      00000090H.6 SFRSYM    DATA     BIT       P1_6
      00000080H.7 SFRSYM    DATA     BIT       P0_7
      000000D8H.4 SFRSYM    DATA     BIT       REN1
      000000B9H   SFRSYM    DATA     BYTE      IPL1
      000000C0H.4 SFRSYM    DATA     BIT       P4_4
      000000B0H.5 SFRSYM    DATA     BIT       P3_5
      000000A0H.6 SFRSYM    DATA     BIT       P2_6
      00000090H.7 SFRSYM    DATA     BIT       P1_7
      000000E2H   SFRSYM    DATA     BYTE      TK0H
      0000008EH   SFRSYM    DATA     BYTE      SUSLO
      000000C0H.5 SFRSYM    DATA     BIT       P4_5
      000000B0H.6 SFRSYM    DATA     BIT       P3_6
      000000A0H.7 SFRSYM    DATA     BIT       P2_7
      000000E4H   SFRSYM    DATA     BYTE      TK1H
      000000C0H.6 SFRSYM    DATA     BIT       P4_6
      000000B0H.7 SFRSYM    DATA     BIT       P3_7
      000000E6H   SFRSYM    DATA     BYTE      TK2H
      000000C0H.7 SFRSYM    DATA     BIT       P4_7
      00000098H   SFRSYM    DATA     BIT       RI
      000000A8H.2 SFRSYM    DATA     BIT       E7816
      000000D0H.7 SFRSYM    DATA     BIT       CY
      000000E1H   SFRSYM    DATA     BYTE      TK0L
LX51 LINKER/LOCATER V4.66.41.0                                                        11/18/2021  18:51:21  PAGE 81


      00000098H.1 SFRSYM    DATA     BIT       TI
      00000091H   SFRSYM    DATA     BYTE      EADR
      000000E3H   SFRSYM    DATA     BYTE      TK1L
      000000E5H   SFRSYM    DATA     BYTE      TK2L
      000000DBH   SFRSYM    DATA     BYTE      SADEN1
      000000D8H.7 SFRSYM    DATA     BIT       SM10_FE1
      000000FBH   SFRSYM    DATA     BYTE      SADEN2
      000000B8H.4 SFRSYM    DATA     BIT       PS0L
      000000B8H.1 SFRSYM    DATA     BIT       PT0L
      000000DAH   SFRSYM    DATA     BYTE      SADDR1
      000000D8H.5 SFRSYM    DATA     BIT       SM12_TXCOL1
      000000B8H.3 SFRSYM    DATA     BIT       PT1L
      000000FAH   SFRSYM    DATA     BYTE      SADDR2
      000000CBH   SFRSYM    DATA     BYTE      RCAP2H
      000000B8H.5 SFRSYM    DATA     BIT       PT2L
      00000081H   SFRSYM    DATA     BYTE      SP
      000000D0H.2 SFRSYM    DATA     BIT       OV
      000000CAH   SFRSYM    DATA     BYTE      RCAP2L
      000000B8H   SFRSYM    DATA     BIT       PX4L
      000000C8H.1 SFRSYM    DATA     BIT       C_T2
      000000DEH   SFRSYM    DATA     BYTE      SFINE2
      000000ADH   SFRSYM    DATA     BYTE      IRCON1
      000000AFH   SFRSYM    DATA     BYTE      IRCON2
      000000ABH   SFRSYM    DATA     BYTE      EXCON1
      00000099H   SFRSYM    DATA     BYTE      SBUF
      000000ACH   SFRSYM    DATA     BYTE      EXCON2
      00000087H   SFRSYM    DATA     BYTE      PCON
      000000F1H   SFRSYM    DATA     BYTE      AUXC
      00000098H   SFRSYM    DATA     BYTE      SCON
      000000D4H   SFRSYM    DATA     BYTE      TK0BASEH
      00000089H   SFRSYM    DATA     BYTE      TMOD
      00000088H   SFRSYM    DATA     BYTE      TCON
      000000AAH   SFRSYM    DATA     BYTE      IENX
      000000EEH   SFRSYM    DATA     BYTE      IB_OFFSET
      000000D6H   SFRSYM    DATA     BYTE      TK1BASEH
      000000DCH   SFRSYM    DATA     BYTE      SBRT1H
      000000DFH   SFRSYM    DATA     BYTE      TK2BASEH
      000000FCH   SFRSYM    DATA     BYTE      SBRT2H
      000000B1H   SFRSYM    DATA     BYTE      RSTSTAT
      000000D3H   SFRSYM    DATA     BYTE      TK0BASEL
      000000D5H   SFRSYM    DATA     BYTE      TK1BASEL
      000000DDH   SFRSYM    DATA     BYTE      SBRT1L
      000000D7H   SFRSYM    DATA     BYTE      TK2BASEL
      000000FDH   SFRSYM    DATA     BYTE      SBRT2L
      00000098H.7 SFRSYM    DATA     BIT       SM0_FE
      000000B2H   SFRSYM    DATA     BYTE      CLKCON
      00000098H.5 SFRSYM    DATA     BIT       SM2_TXCOL
      000000B5H   SFRSYM    DATA     BYTE      LDOCON
      000000F0H   SFRSYM    DATA     BYTE      B
      000000C8H   SFRSYM    DATA     BIT       CP_RL2
      000000E0H   SFRSYM    DATA     BYTE      ACC
      000000A8H.4 SFRSYM    DATA     BIT       ES0
      000000A8H.1 SFRSYM    DATA     BIT       ET0
      000000A8H.3 SFRSYM    DATA     BIT       ET1
      00000088H.5 SFRSYM    DATA     BIT       TF0
      000000A8H.5 SFRSYM    DATA     BIT       ET2
      00000088H.7 SFRSYM    DATA     BIT       TF1
      000000D8H   SFRSYM    DATA     BIT       RI1
      00000098H.2 SFRSYM    DATA     BIT       RB8
      000000C8H.7 SFRSYM    DATA     BIT       TF2
      0000008CH   SFRSYM    DATA     BYTE      TH0
      00000086H   SFRSYM    DATA     BYTE      INSCON
      0000008DH   SFRSYM    DATA     BYTE      TH1
      000000D8H.1 SFRSYM    DATA     BIT       TI1
      00000098H.3 SFRSYM    DATA     BIT       TB8
LX51 LINKER/LOCATER V4.66.41.0                                                        11/18/2021  18:51:21  PAGE 82


      000000CDH   SFRSYM    DATA     BYTE      TH2
      000000D0H   SFRSYM    DATA     BIT       P
      0000008AH   SFRSYM    DATA     BYTE      TL0
      000000A8H   SFRSYM    DATA     BIT       EX4
      0000008BH   SFRSYM    DATA     BYTE      TL1
      000000A7H   SFRSYM    DATA     BYTE      FLASHCON
      000000CCH   SFRSYM    DATA     BYTE      TL2
      000000D0H.3 SFRSYM    DATA     BIT       RS0
      000000C5H   SFRSYM    DATA     BYTE      ADCDH
      00000088H.4 SFRSYM    DATA     BIT       TR0
      000000D0H.4 SFRSYM    DATA     BIT       RS1
      0000009FH   SFRSYM    DATA     BYTE      PWMCON
      00000088H.6 SFRSYM    DATA     BIT       TR1
      000000C8H.2 SFRSYM    DATA     BIT       TR2
      000000C4H   SFRSYM    DATA     BYTE      ADCDL
      000000C2H   SFRSYM    DATA     BYTE      ADT
      00000083H   SFRSYM    DATA     BYTE      DPH
      00000082H   SFRSYM    DATA     BYTE      DPL
      000000D9H   SFRSYM    DATA     BYTE      SBUF1
      000000C8H.3 SFRSYM    DATA     BIT       EXEN2
      000000F9H   SFRSYM    DATA     BYTE      SBUF2
      000000D8H.6 SFRSYM    DATA     BIT       SM11_RXOV1
      000000B8H.6 SFRSYM    DATA     BIT       PADCL
      00000098H.4 SFRSYM    DATA     BIT       REN
      000000D8H   SFRSYM    DATA     BYTE      SCON1
      000000D1H   SFRSYM    DATA     BYTE      LCDCON1
      000000C1H   SFRSYM    DATA     BYTE      ADCON
      000000F8H   SFRSYM    DATA     BYTE      SCON2
      0000008FH   SFRSYM    DATA     BYTE      TCON1
      000000D2H   SFRSYM    DATA     BYTE      LCDCON2
      00000092H   SFRSYM    DATA     BYTE      EDTAH
      000000C9H   SFRSYM    DATA     BYTE      T2MOD
      000000C8H   SFRSYM    DATA     BYTE      T2CON
      00000094H   SFRSYM    DATA     BYTE      EDTAL
      00000093H   SFRSYM    DATA     BYTE      EDTAM
      000000BCH   SFRSYM    DATA     BYTE      TK0DIFH
      0000009BH   SFRSYM    DATA     BYTE      SADEN
      000000BEH   SFRSYM    DATA     BYTE      TK1DIFH
      000000B6H   SFRSYM    DATA     BYTE      PBANK
      000000A5H   SFRSYM    DATA     BYTE      TK2DIFH
      000000A8H.6 SFRSYM    DATA     BIT       EADTP
      0000009AH   SFRSYM    DATA     BYTE      SADDR
      000000CFH   SFRSYM    DATA     BYTE      TK0DIFL
      000000BDH   SFRSYM    DATA     BYTE      TK1DIFL
      000000BFH   SFRSYM    DATA     BYTE      TK2DIFL
      000000B8H.2 SFRSYM    DATA     BIT       P7816L
      000000C6H   SFRSYM    DATA     BYTE      LPDCON1
      000000C7H   SFRSYM    DATA     BYTE      LPDCON2
      000000D0H.5 SFRSYM    DATA     BIT       F0
      000000AEH   SFRSYM    DATA     BYTE      IRDAT
      000000D0H.1 SFRSYM    DATA     BIT       F1
      00000096H   SFRSYM    DATA     BYTE      EMUIE
      0000009EH   SFRSYM    DATA     BYTE      SFINE
      000000F7H   SFRSYM    DATA     BYTE      XPAGE
      00000097H   SFRSYM    DATA     BYTE      EMUIF
      000000D0H   SFRSYM    DATA     BYTE      PSW
      000000D8H.2 SFRSYM    DATA     BIT       RB81
      000000A3H   SFRSYM    DATA     BYTE      SPDAT
      000000F2H   SFRSYM    DATA     BYTE      IB_CON1

      0082DF0AH   BLOCK     CODE/B2  ---       LVL=0
      0082DF22H   LINE      ---      ---       #51
      0082DF2DH   LINE      ---      ---       #52
      02000656H   SYMBOL    XDATA    ---       P_ucDataPtr
      0082DF2DH   BLOCK     CODE/B2  NEAR LAB  LVL=1
LX51 LINKER/LOCATER V4.66.41.0                                                        11/18/2021  18:51:21  PAGE 83


      0082DF2DH   LINE      ---      ---       #57
      0082DF38H   LINE      ---      ---       #58
      0082DF69H   LINE      ---      ---       #59
      0082DF72H   LINE      ---      ---       #62
      0082DF81H   LINE      ---      ---       #63
      0082DFA9H   LINE      ---      ---       #65
      0082DFCEH   LINE      ---      ---       #66
      0082DFF6H   LINE      ---      ---       #70
      0082DFFFH   LINE      ---      ---       #73
      0082E01DH   LINE      ---      ---       #74
      0082E025H   LINE      ---      ---       #75
      0082E04AH   LINE      ---      ---       #76
      0082E06FH   LINE      ---      ---       #79
      0082E0B4H   LINE      ---      ---       #80
      0082E0BCH   LINE      ---      ---       #84
      0082E0C3H   LINE      ---      ---       #85
      0082E0C3H   LINE      ---      ---       #86
      0082E0DEH   LINE      ---      ---       #87
      0082E0E0H   LINE      ---      ---       #89
      0082E0E0H   LINE      ---      ---       #90
      0082E0EEH   LINE      ---      ---       #91
      0082E0F8H   LINE      ---      ---       #92
      0082E0F8H   LINE      ---      ---       #94
      0082E101H   LINE      ---      ---       #95
      0082E129H   LINE      ---      ---       #98
      0082E13BH   LINE      ---      ---       #99
      0082E142H   LINE      ---      ---       #100
      0082E16AH   LINE      ---      ---       #103
      0082E17BH   LINE      ---      ---       #104
      0082E17BH   LINE      ---      ---       #105
      0082E17BH   LINE      ---      ---       #106
      0082E17DH   LINE      ---      ---       #108
      0082E17DH   LINE      ---      ---       #109
      0082E18AH   LINE      ---      ---       #110
      0082E194H   LINE      ---      ---       #111
      0082E1A1H   LINE      ---      ---       #112
      0082E1DBH   LINE      ---      ---       #113
      0082E1F4H   LINE      ---      ---       #114
      0082E1F4H   LINE      ---      ---       #115
      0082E1FEH   LINE      ---      ---       #116
      0082E1FEH   LINE      ---      ---       #117
      0082E1FEH   LINE      ---      ---       #118
      0082E21BH   LINE      ---      ---       #120
      0082E222H   LINE      ---      ---       #121
      0082E226H   LINE      ---      ---       #122
      0082E228H   LINE      ---      ---       #123
      02000659H   SYMBOL    XDATA    BYTE      k
      0200065AH   SYMBOL    XDATA    ---       V_ucBuffer
      0200065DH   SYMBOL    XDATA    ---       V_uctest
      ---         BLOCKEND  CODE/B2  ---       LVL=1
      ---         BLOCKEND  CODE/B2  ---       LVL=0

      0082D641H   BLOCK     CODE/B2  ---       LVL=0
      0082D641H   LINE      ---      ---       #144
      0082D64CH   LINE      ---      ---       #145
      02000633H   SYMBOL    XDATA    ---       P_DataPtr
      0082D64CH   BLOCK     CODE/B2  NEAR LAB  LVL=1
      0082D64CH   LINE      ---      ---       #148
      0082D653H   LINE      ---      ---       #149
      0082D653H   LINE      ---      ---       #150
      0082D65BH   LINE      ---      ---       #151
      0082D65BH   LINE      ---      ---       #154
      0082D670H   LINE      ---      ---       #155
      0082D681H   LINE      ---      ---       #158
      0082D6B4H   LINE      ---      ---       #160
LX51 LINKER/LOCATER V4.66.41.0                                                        11/18/2021  18:51:21  PAGE 84


      0082D6BCH   LINE      ---      ---       #164
      0082D6D5H   LINE      ---      ---       #165
      0082D6DDH   LINE      ---      ---       #168
      0082D6EEH   LINE      ---      ---       #169
      0082D6EEH   LINE      ---      ---       #170
      0082D703H   LINE      ---      ---       #171
      0082D70DH   LINE      ---      ---       #172
      0082D70DH   LINE      ---      ---       #174
      0082D720H   LINE      ---      ---       #175
      0082D720H   LINE      ---      ---       #176
      0082D736H   LINE      ---      ---       #177
      0082D740H   LINE      ---      ---       #178
      0082D756H   LINE      ---      ---       #179
      0082D790H   LINE      ---      ---       #180
      0082D7ADH   LINE      ---      ---       #182
      0082D7C8H   LINE      ---      ---       #183
      0082D7DDH   LINE      ---      ---       #189
      0082D7DFH   LINE      ---      ---       #191
      0082D7DFH   LINE      ---      ---       #192
      0082D7E6H   LINE      ---      ---       #193
      0082D7E9H   LINE      ---      ---       #194
      0082D7E9H   LINE      ---      ---       #196
      0082D7ECH   LINE      ---      ---       #197
      0082D7F3H   LINE      ---      ---       #199
      0082D7F5H   LINE      ---      ---       #200
      02000636H   SYMBOL    XDATA    ---       V_Buffer
      ---         BLOCKEND  CODE/B2  ---       LVL=1
      ---         BLOCKEND  CODE/B2  ---       LVL=0

      0082C57DH   BLOCK     CODE/B2  ---       LVL=0
      0082C57DH   LINE      ---      ---       #216
      0082C57DH   LINE      ---      ---       #217
      0082C57DH   LINE      ---      ---       #218
      0082C586H   LINE      ---      ---       #219
      0082C586H   LINE      ---      ---       #220
      0082C589H   LINE      ---      ---       #221
      0082C590H   LINE      ---      ---       #222
      0082C590H   LINE      ---      ---       #223
      0082C599H   LINE      ---      ---       #224
      0082C599H   LINE      ---      ---       #225
      0082C5A0H   LINE      ---      ---       #226
      0082C5AAH   LINE      ---      ---       #227
      0082C5ACH   LINE      ---      ---       #228
      0082C5ACH   LINE      ---      ---       #229
      ---         BLOCKEND  ---      ---       LVL=0

      008293DCH   BLOCK     CODE/B2  ---       LVL=0
      008293DCH   LINE      ---      ---       #245
      008293DCH   LINE      ---      ---       #246
      008293DCH   LINE      ---      ---       #247
      008293E1H   LINE      ---      ---       #248
      008293E8H   LINE      ---      ---       #249
      ---         BLOCKEND  ---      ---       LVL=0

      0082C5ADH   BLOCK     CODE/B2  ---       LVL=0
      0082C5ADH   LINE      ---      ---       #265
      0082C5ADH   LINE      ---      ---       #266
      0082C5ADH   LINE      ---      ---       #267
      0082C5B4H   LINE      ---      ---       #268
      0082C5BEH   LINE      ---      ---       #269
      0082C5C5H   LINE      ---      ---       #271
      ---         BLOCKEND  ---      ---       LVL=0

      0082E229H   BLOCK     CODE/B2  ---       LVL=0
      0082E23CH   LINE      ---      ---       #295
LX51 LINKER/LOCATER V4.66.41.0                                                        11/18/2021  18:51:21  PAGE 85


      0082E247H   LINE      ---      ---       #296
      02000721H   SYMBOL    XDATA    ---       P_DataPtr
      0082E247H   BLOCK     CODE/B2  NEAR LAB  LVL=1
      0082E247H   LINE      ---      ---       #305
      0082E251H   LINE      ---      ---       #307
      0082E25DH   LINE      ---      ---       #308
      0082E25FH   LINE      ---      ---       #309
      0082E264H   LINE      ---      ---       #310
      0082E264H   LINE      ---      ---       #311
      0082E26BH   LINE      ---      ---       #312
      0082E26DH   LINE      ---      ---       #313
      0082E26DH   LINE      ---      ---       #315
      0082E274H   LINE      ---      ---       #316
      0082E27DH   LINE      ---      ---       #318
      0082E28CH   LINE      ---      ---       #319
      0082E28FH   LINE      ---      ---       #322
      0082E2A2H   LINE      ---      ---       #323
      0082E2A2H   LINE      ---      ---       #324
      0082E2E2H   LINE      ---      ---       #325
      0082E2EAH   LINE      ---      ---       #326
      0082E2F4H   LINE      ---      ---       #327
      0082E2F4H   LINE      ---      ---       #328
      0082E2FAH   LINE      ---      ---       #333
      0082E303H   LINE      ---      ---       #336
      0082E31BH   LINE      ---      ---       #337
      0082E324H   LINE      ---      ---       #340
      0082E33BH   LINE      ---      ---       #341
      0082E33BH   LINE      ---      ---       #342
      0082E360H   LINE      ---      ---       #343
      0082E386H   LINE      ---      ---       #344
      0082E38FH   LINE      ---      ---       #345
      0082E38FH   LINE      ---      ---       #346
      0082E38FH   LINE      ---      ---       #347
      0082E397H   LINE      ---      ---       #348
      0082E397H   LINE      ---      ---       #349
      0082E39EH   LINE      ---      ---       #350
      0082E3A7H   LINE      ---      ---       #352
      0082E3BFH   LINE      ---      ---       #353
      0082E3C8H   LINE      ---      ---       #355
      0082E3E4H   LINE      ---      ---       #356
      0082E3EDH   LINE      ---      ---       #357
      0082E3EDH   LINE      ---      ---       #359
      0082E3EDH   LINE      ---      ---       #360
      0082E3FCH   LINE      ---      ---       #361
      0082E405H   LINE      ---      ---       #363
      0082E40BH   LINE      ---      ---       #368
      0082E414H   LINE      ---      ---       #371
      0082E42CH   LINE      ---      ---       #372
      0082E435H   LINE      ---      ---       #375
      0082E448H   LINE      ---      ---       #376
      0082E448H   LINE      ---      ---       #377
      0082E46DH   LINE      ---      ---       #378
      0082E491H   LINE      ---      ---       #379
      0082E49AH   LINE      ---      ---       #380
      0082E49AH   LINE      ---      ---       #382
      0082E49AH   LINE      ---      ---       #395
      0082E4B7H   LINE      ---      ---       #396
      0082E4B7H   LINE      ---      ---       #397
      0082E4C8H   LINE      ---      ---       #398
      0082E4C8H   LINE      ---      ---       #399
      0082E4D6H   LINE      ---      ---       #400
      0082E4D6H   LINE      ---      ---       #401
      0082E4DFH   LINE      ---      ---       #402
      0082E4DFH   LINE      ---      ---       #403
      0082E4DFH   LINE      ---      ---       #404
LX51 LINKER/LOCATER V4.66.41.0                                                        11/18/2021  18:51:21  PAGE 86


      0082E4DFH   LINE      ---      ---       #405
      0082E4EDH   LINE      ---      ---       #406
      0082E4EDH   LINE      ---      ---       #407
      0082E4F4H   LINE      ---      ---       #408
      0082E4F4H   LINE      ---      ---       #409
      0082E4FBH   LINE      ---      ---       #410
      0082E4FBH   LINE      ---      ---       #411
      0082E502H   LINE      ---      ---       #412
      0082E502H   LINE      ---      ---       #413
      0082E509H   LINE      ---      ---       #414
      0082E509H   LINE      ---      ---       #415
      0082E50CH   LINE      ---      ---       #416
      0082E51AH   LINE      ---      ---       #417
      0082E51AH   LINE      ---      ---       #418
      0082E52BH   LINE      ---      ---       #419
      0082E55AH   LINE      ---      ---       #421
      0082E55AH   LINE      ---      ---       #423
      0082E563H   LINE      ---      ---       #424
      0082E563H   LINE      ---      ---       #427
      0082E5FAH   LINE      ---      ---       #430
      0082E603H   LINE      ---      ---       #434
      0082E60DH   LINE      ---      ---       #435
      0082E60DH   LINE      ---      ---       #436
      0082E647H   LINE      ---      ---       #437
      0082E647H   LINE      ---      ---       #438
      0082E658H   LINE      ---      ---       #439
      0082E661H   LINE      ---      ---       #441
      0082E671H   LINE      ---      ---       #443
      0082E68AH   LINE      ---      ---       #444
      0082E68AH   LINE      ---      ---       #445
      0082E694H   LINE      ---      ---       #446
      0082E694H   LINE      ---      ---       #448
      0082E6A5H   LINE      ---      ---       #449
      0082E6B4H   LINE      ---      ---       #450
      0082E6DAH   LINE      ---      ---       #451
      0082E6DAH   LINE      ---      ---       #452
      0082E6F1H   LINE      ---      ---       #453
      0082E6F3H   LINE      ---      ---       #455
      0082E6F3H   LINE      ---      ---       #456
      0082E71EH   LINE      ---      ---       #457
      0082E71EH   LINE      ---      ---       #458
      0082E72FH   LINE      ---      ---       #459
      0082E75DH   LINE      ---      ---       #461
      0082E77FH   LINE      ---      ---       #462
      0082E788H   LINE      ---      ---       #463
      0082E788H   LINE      ---      ---       #464
      0082E788H   LINE      ---      ---       #466
      0082E793H   LINE      ---      ---       #467
      0082E793H   LINE      ---      ---       #468
      0082E7A2H   LINE      ---      ---       #469
      0082E7C7H   LINE      ---      ---       #470
      0082E7C7H   LINE      ---      ---       #473
      0082E7ECH   LINE      ---      ---       #474
      0082E7FDH   LINE      ---      ---       #475
      0082E806H   LINE      ---      ---       #476
      0082E81BH   LINE      ---      ---       #478
      0082E81EH   LINE      ---      ---       #480
      0082E825H   LINE      ---      ---       #481
      0082E836H   LINE      ---      ---       #482
      0082E845H   LINE      ---      ---       #484
      0082E84CH   LINE      ---      ---       #485
      0082E861H   LINE      ---      ---       #487
      0082E883H   LINE      ---      ---       #488
      0082E883H   LINE      ---      ---       #489
      0082E886H   LINE      ---      ---       #493
LX51 LINKER/LOCATER V4.66.41.0                                                        11/18/2021  18:51:21  PAGE 87


      0082E889H   LINE      ---      ---       #494
      0082E889H   LINE      ---      ---       #495
      0082E889H   LINE      ---      ---       #497
      0082E889H   LINE      ---      ---       #498
      0082E891H   LINE      ---      ---       #499
      0082E891H   LINE      ---      ---       #500
      0082E891H   LINE      ---      ---       #503
      0082E8A5H   LINE      ---      ---       #504
      0082E8AFH   LINE      ---      ---       #505
      0082E8AFH   LINE      ---      ---       #506
      0082E8BFH   LINE      ---      ---       #507
      0082E8BFH   LINE      ---      ---       #508
      0082E8C6H   LINE      ---      ---       #509
      0082E8E8H   LINE      ---      ---       #510
      0082E8E8H   LINE      ---      ---       #511
      0082E8EFH   LINE      ---      ---       #512
      0082E8EFH   LINE      ---      ---       #513
      0082E8EFH   LINE      ---      ---       #515
      0082E8F2H   LINE      ---      ---       #519
      0082E8F2H   LINE      ---      ---       #520
      0082E8F5H   LINE      ---      ---       #521
      0082E8F8H   LINE      ---      ---       #522
      0082E8F8H   LINE      ---      ---       #523
      0082E8F8H   LINE      ---      ---       #525
      0082E8FFH   LINE      ---      ---       #526
      0082E901H   LINE      ---      ---       #527
      02000724H   SYMBOL    XDATA    BYTE      DI1
      02000725H   SYMBOL    XDATA    BYTE      i
      02000726H   SYMBOL    XDATA    BYTE      k
      02000727H   SYMBOL    XDATA    ---       V_Buff
      02000740H   SYMBOL    XDATA    ---       V_ulBuff
      02000748H   SYMBOL    XDATA    ---       V_ucUserIdMac
      02000752H   SYMBOL    XDATA    ---       V_unlMoneyMac
      02000762H   SYMBOL    XDATA    ---       V_unlTempBuff
      ---         BLOCKEND  CODE/B2  ---       LVL=1
      ---         BLOCKEND  CODE/B2  ---       LVL=0

      0082EC82H   BLOCK     CODE/B2  ---       LVL=0
      0082EC82H   LINE      ---      ---       #548
      0082EC8DH   LINE      ---      ---       #549
      02000633H   SYMBOL    XDATA    ---       P_DataPtr
      0082EC8DH   BLOCK     CODE/B2  NEAR LAB  LVL=1
      0082EC8DH   LINE      ---      ---       #552
      0082EC94H   LINE      ---      ---       #553
      0082EC96H   LINE      ---      ---       #556
      0082ECCEH   LINE      ---      ---       #560
      0082ECD0H   LINE      ---      ---       #562
      0082ECEBH   LINE      ---      ---       #564
      0082ECEBH   LINE      ---      ---       #565
      0082ECEDH   LINE      ---      ---       #566
      0082ECEDH   LINE      ---      ---       #569
      0082ECF5H   LINE      ---      ---       #570
      0082ED0AH   LINE      ---      ---       #571
      0082ED1FH   LINE      ---      ---       #572
      0082ED30H   LINE      ---      ---       #574
      0082ED4BH   LINE      ---      ---       #575
      0082ED5FH   LINE      ---      ---       #576
      0082ED61H   LINE      ---      ---       #577
      0082ED63H   LINE      ---      ---       #578
      0082ED63H   LINE      ---      ---       #579
      0082ED7CH   LINE      ---      ---       #580
      0082ED81H   LINE      ---      ---       #581
      0082EDB2H   LINE      ---      ---       #582
      0082EDBAH   LINE      ---      ---       #585
      0082EDDCH   LINE      ---      ---       #586
LX51 LINKER/LOCATER V4.66.41.0                                                        11/18/2021  18:51:21  PAGE 88


      0082EDE4H   LINE      ---      ---       #589
      0082EDFFH   LINE      ---      ---       #590
      0082EE07H   LINE      ---      ---       #593
      0082EE1EH   LINE      ---      ---       #594
      0082EE1EH   LINE      ---      ---       #595
      0082EE22H   LINE      ---      ---       #596
      0082EE29H   LINE      ---      ---       #597
      0082EE2BH   LINE      ---      ---       #599
      0082EE2BH   LINE      ---      ---       #600
      0082EE2FH   LINE      ---      ---       #601
      0082EE36H   LINE      ---      ---       #602
      0082EE36H   LINE      ---      ---       #604
      0082EE47H   LINE      ---      ---       #605
      0082EE51H   LINE      ---      ---       #606
      0082EE66H   LINE      ---      ---       #609
      0082EE68H   LINE      ---      ---       #610
      00000007H   SYMBOL    DATA     BYTE      i
      02000636H   SYMBOL    XDATA    ---       V_ucTempBuff
      ---         BLOCKEND  CODE/B2  ---       LVL=1
      ---         BLOCKEND  CODE/B2  ---       LVL=0

      008294A9H   BLOCK     CODE/B2  ---       LVL=0
      008294A9H   LINE      ---      ---       #626
      008294B4H   LINE      ---      ---       #627
      02000670H   SYMBOL    XDATA    ---       P_DataPtr
      008294B4H   BLOCK     CODE/B2  NEAR LAB  LVL=1
      008294B4H   LINE      ---      ---       #631
      008294BBH   LINE      ---      ---       #632
      008294BEH   LINE      ---      ---       #634
      008294C5H   LINE      ---      ---       #635
      008294C8H   LINE      ---      ---       #639
      008294D8H   LINE      ---      ---       #640
      008294F2H   LINE      ---      ---       #644
      00829514H   LINE      ---      ---       #645
      00829517H   LINE      ---      ---       #648
      00829532H   LINE      ---      ---       #651
      0082954DH   LINE      ---      ---       #652
      0082955EH   LINE      ---      ---       #662
      0082956CH   LINE      ---      ---       #664
      00829571H   LINE      ---      ---       #669
      00829582H   LINE      ---      ---       #670
      0082958CH   LINE      ---      ---       #671
      008295A1H   LINE      ---      ---       #672
      008295A3H   LINE      ---      ---       #676
      008295A5H   LINE      ---      ---       #677
      02000673H   SYMBOL    XDATA    ---       V_unlTemp
      02000677H   SYMBOL    XDATA    DWORD     V_ulTemp
      ---         BLOCKEND  CODE/B2  ---       LVL=1
      ---         BLOCKEND  CODE/B2  ---       LVL=0

      0082C267H   BLOCK     CODE/B2  ---       LVL=0
      0082C267H   LINE      ---      ---       #695
      0082C274H   LINE      ---      ---       #696
      02000670H   SYMBOL    XDATA    ---       P_DataPtr
      00000007H   SYMBOL    DATA     BYTE      V_ucMACType
      02000674H   SYMBOL    XDATA    ---       P_ucLen
      0082C274H   BLOCK     CODE/B2  NEAR LAB  LVL=1
      0082C274H   LINE      ---      ---       #699
      0082C289H   LINE      ---      ---       #701
      0082C28EH   LINE      ---      ---       #704
      0082C2A7H   LINE      ---      ---       #705
      0082C2AAH   LINE      ---      ---       #707
      0082C2C2H   LINE      ---      ---       #708
      0082C2E0H   LINE      ---      ---       #712
      0082C2ECH   LINE      ---      ---       #713
LX51 LINKER/LOCATER V4.66.41.0                                                        11/18/2021  18:51:21  PAGE 89


      0082C2ECH   LINE      ---      ---       #714
      0082C301H   LINE      ---      ---       #715
      0082C304H   LINE      ---      ---       #718
      0082C316H   LINE      ---      ---       #719
      0082C316H   LINE      ---      ---       #720
      0082C318H   LINE      ---      ---       #721
      0082C318H   LINE      ---      ---       #722
      0082C35DH   LINE      ---      ---       #723
      0082C362H   LINE      ---      ---       #724
      0082C36AH   LINE      ---      ---       #725
      0082C36AH   LINE      ---      ---       #728
      0082C376H   LINE      ---      ---       #729
      0082C379H   LINE      ---      ---       #732
      0082C395H   LINE      ---      ---       #733
      0082C395H   LINE      ---      ---       #734
      0082C3A4H   LINE      ---      ---       #735
      0082C3ACH   LINE      ---      ---       #736
      0082C3B6H   LINE      ---      ---       #738
      0082C3C8H   LINE      ---      ---       #739
      0082C3F8H   LINE      ---      ---       #741
      0082C3FAH   LINE      ---      ---       #743
      02000677H   SYMBOL    XDATA    BYTE      i
      00000007H   SYMBOL    DATA     BYTE      j
      02000678H   SYMBOL    XDATA    BYTE      V_ucTempLen
      ---         BLOCKEND  CODE/B2  ---       LVL=1
      ---         BLOCKEND  CODE/B2  ---       LVL=0

      0082C3FBH   BLOCK     CODE/B2  ---       LVL=0
      0082C400H   LINE      ---      ---       #820
      0082C405H   LINE      ---      ---       #821
      02000679H   SYMBOL    XDATA    BYTE      V_ucKeyNum
      0082C405H   BLOCK     CODE/B2  NEAR LAB  LVL=1
      0082C405H   LINE      ---      ---       #825
      0082C420H   LINE      ---      ---       #828
      0082C437H   LINE      ---      ---       #829
      0082C43AH   LINE      ---      ---       #831
      0082C455H   LINE      ---      ---       #834
      0082C457H   LINE      ---      ---       #835
      0082C457H   LINE      ---      ---       #836
      0082C470H   LINE      ---      ---       #837
      0082C475H   LINE      ---      ---       #847
      0082C477H   LINE      ---      ---       #848
      00000007H   SYMBOL    DATA     BYTE      i
      ---         BLOCKEND  CODE/B2  ---       LVL=1
      ---         BLOCKEND  CODE/B2  ---       LVL=0

      0082C478H   BLOCK     CODE/B2  ---       LVL=0
      0082C4D4H   LINE      ---      ---       #851
      0082C4D9H   LINE      ---      ---       #852
      00000001H   SYMBOL    DATA     ---       P_ucData
      02000769H   SYMBOL    XDATA    BYTE      V_ucLen
      0200076AH   SYMBOL    XDATA    BYTE      V_ucHeadNum
      0200076BH   SYMBOL    XDATA    BYTE      V_ucType
      0082C4D9H   BLOCK     CODE/B2  NEAR LAB  LVL=1
      0082C4D9H   LINE      ---      ---       #855
      0082C4EFH   LINE      ---      ---       #856
      0082C503H   LINE      ---      ---       #857
      0082C51AH   LINE      ---      ---       #858
      0082C52EH   LINE      ---      ---       #859
      0082C534H   LINE      ---      ---       #860
      0082C548H   LINE      ---      ---       #862
      0082C573H   LINE      ---      ---       #863
      0082C575H   LINE      ---      ---       #864
      0082C575H   LINE      ---      ---       #865
      0082C577H   LINE      ---      ---       #866
LX51 LINKER/LOCATER V4.66.41.0                                                        11/18/2021  18:51:21  PAGE 90


      0082C577H   LINE      ---      ---       #867
      0082C57CH   LINE      ---      ---       #868
      0200076CH   SYMBOL    XDATA    BYTE      V_ucResult
      ---         BLOCKEND  CODE/B2  ---       LVL=1
      ---         BLOCKEND  CODE/B2  ---       LVL=0

      0082C5C6H   BLOCK     CODE/B2  ---       LVL=0
      0082C5C6H   LINE      ---      ---       #884
      0082C5D1H   LINE      ---      ---       #885
      0082C5D1H   LINE      ---      ---       #886
      0082C5D8H   LINE      ---      ---       #887
      0082C5D8H   LINE      ---      ---       #888
      0082C5E2H   LINE      ---      ---       #889
      0082C5E2H   LINE      ---      ---       #892
      0082C60AH   LINE      ---      ---       #895
      0082C621H   LINE      ---      ---       #898
      0082C649H   LINE      ---      ---       #901
      0082C653H   LINE      ---      ---       #902
      0082C662H   LINE      ---      ---       #903
      0082C671H   LINE      ---      ---       #904
      0082C683H   LINE      ---      ---       #905
      0082C68AH   LINE      ---      ---       #906
      0082C692H   LINE      ---      ---       #909
      0082C694H   LINE      ---      ---       #911
      0082C696H   LINE      ---      ---       #912
      02000633H   SYMBOL    XDATA    ---       P_DataPtr
      ---         BLOCKEND  ---      ---       LVL=0

      00829387H   BLOCK     CODE/B2  ---       LVL=0
      00829387H   LINE      ---      ---       #923
      00829395H   LINE      ---      ---       #924
      0200067EH   SYMBOL    XDATA    ---       P_DataPtr
      02000681H   SYMBOL    XDATA    BYTE      V_DataLen
      00829395H   BLOCK     CODE/B2  NEAR LAB  LVL=1
      00829395H   LINE      ---      ---       #927
      00829397H   LINE      ---      ---       #928
      0082939BH   LINE      ---      ---       #929
      008293A3H   LINE      ---      ---       #930
      008293A6H   LINE      ---      ---       #931
      008293B6H   LINE      ---      ---       #932
      008293B6H   LINE      ---      ---       #933
      008293D1H   LINE      ---      ---       #934
      008293D9H   LINE      ---      ---       #935
      008293DBH   LINE      ---      ---       #936
      02000682H   SYMBOL    XDATA    BYTE      i
      00000006H   SYMBOL    DATA     WORD      V_usTempData
      ---         BLOCKEND  CODE/B2  ---       LVL=1
      ---         BLOCKEND  CODE/B2  ---       LVL=0

      0082E902H   BLOCK     CODE/B2  ---       LVL=0
      0082E902H   LINE      ---      ---       #948
      0082E907H   LINE      ---      ---       #949
      02000766H   SYMBOL    XDATA    BYTE      V_ProcessType
      0082E907H   BLOCK     CODE/B2  NEAR LAB  LVL=1
      0082E907H   LINE      ---      ---       #954
      0082E90DH   LINE      ---      ---       #955
      0082E91BH   LINE      ---      ---       #956
      0082E91DH   LINE      ---      ---       #958
      0082E93AH   LINE      ---      ---       #960
      0082E944H   LINE      ---      ---       #961
      0082E944H   LINE      ---      ---       #963
      0082E95EH   LINE      ---      ---       #964
      0082E979H   LINE      ---      ---       #966
      0082E97CH   LINE      ---      ---       #969
      0082E97FH   LINE      ---      ---       #973
LX51 LINKER/LOCATER V4.66.41.0                                                        11/18/2021  18:51:21  PAGE 91


      0082E993H   LINE      ---      ---       #974
      0082E9AEH   LINE      ---      ---       #975
      0082E9C2H   LINE      ---      ---       #976
      0082E9DDH   LINE      ---      ---       #977
      0082E9F1H   LINE      ---      ---       #978
      0082E9FFH   LINE      ---      ---       #979
      0082EA0DH   LINE      ---      ---       #982
      0082EA14H   LINE      ---      ---       #983
      0082EA29H   LINE      ---      ---       #984
      0082EA3AH   LINE      ---      ---       #985
      0082EA47H   LINE      ---      ---       #986
      0082EA4EH   LINE      ---      ---       #988
      0082EA5CH   LINE      ---      ---       #989
      0082EA65H   LINE      ---      ---       #990
      0082EA80H   LINE      ---      ---       #991
      0082EAA0H   LINE      ---      ---       #992
      0082EAA7H   LINE      ---      ---       #994
      0082EAAEH   LINE      ---      ---       #995
      0082EAB2H   LINE      ---      ---       #996
      0082EAB6H   LINE      ---      ---       #997
      0082EABAH   LINE      ---      ---       #998
      0082EABEH   LINE      ---      ---       #1001
      0082EACCH   LINE      ---      ---       #1004
      0082EAD5H   LINE      ---      ---       #1005
      0082EAD5H   LINE      ---      ---       #1006
      0082EADAH   LINE      ---      ---       #1007
      0082EADAH   LINE      ---      ---       #1009
      0082EADAH   LINE      ---      ---       #1012
      0082EADCH   LINE      ---      ---       #1014
      0082EADCH   LINE      ---      ---       #1015
      0082EAF0H   LINE      ---      ---       #1016
      0082EAF6H   LINE      ---      ---       #1017
      0082EB0FH   LINE      ---      ---       #1018
      0082EB23H   LINE      ---      ---       #1019
      0082EB3EH   LINE      ---      ---       #1021
      0082EB50H   LINE      ---      ---       #1022
      0082EB50H   LINE      ---      ---       #1023
      0082EB76H   LINE      ---      ---       #1024
      0082EB76H   LINE      ---      ---       #1025
      0082EB8EH   LINE      ---      ---       #1026
      0082EBA2H   LINE      ---      ---       #1027
      0082EBBDH   LINE      ---      ---       #1028
      0082EBBFH   LINE      ---      ---       #1030
      0082EBBFH   LINE      ---      ---       #1031
      0082EBD7H   LINE      ---      ---       #1032
      0082EBEBH   LINE      ---      ---       #1033
      0082EBEBH   LINE      ---      ---       #1034
      0082EBEDH   LINE      ---      ---       #1036
      0082EBEDH   LINE      ---      ---       #1037
      0082EC08H   LINE      ---      ---       #1038
      0082EC08H   LINE      ---      ---       #1039
      0082EC23H   LINE      ---      ---       #1040
      0082EC31H   LINE      ---      ---       #1041
      0082EC3FH   LINE      ---      ---       #1044
      0082EC44H   LINE      ---      ---       #1047
      0082EC44H   LINE      ---      ---       #1049
      0082EC55H   LINE      ---      ---       #1050
      0082EC6AH   LINE      ---      ---       #1051
      0082EC7BH   LINE      ---      ---       #1053
      0082EC80H   LINE      ---      ---       #1055
      0082EC81H   LINE      ---      ---       #1057
      02000767H   SYMBOL    XDATA    ---       V_Buff
      00000004H   SYMBOL    DATA     DWORD     V_ulBuff
      02000780H   SYMBOL    XDATA    BYTE      V_ucErrorType
      ---         BLOCKEND  CODE/B2  ---       LVL=1
LX51 LINKER/LOCATER V4.66.41.0                                                        11/18/2021  18:51:21  PAGE 92


      ---         BLOCKEND  CODE/B2  ---       LVL=0

      ---         MODULE    ---      ---       APPDISPLAY
      02000C86H   PUBLIC    XDATA    ---       LCD_Char_Table
      01001718H   PUBLIC    CONST    ---       LCD_COM_CHAR_NUM1
      010016E7H   PUBLIC    CONST    ---       LCD_SEG_CHAR_NUM1
      0082F388H   PUBLIC    CODE/B2  ---       ApiDisp_DisplayTask
      0082F57EH   PUBLIC    CODE/B2  ---       APiDisp_LcdledControl
      0082F4ABH   PUBLIC    CODE/B2  ---       APiDisp_Dynamic
      0082F15BH   PUBLIC    CODE/B2  ---       _APiDisp_Const
      0082F027H   PUBLIC    CODE/B2  ---       _ApiDisp_ShowNum
      0082EF5CH   PUBLIC    CODE/B2  ---       _ApiDisplay_NumData
      0082EF13H   PUBLIC    CODE/B2  ---       _ApiGet_Lcd_ID
      0200067EH   PUBLIC    XDATA    BYTE      ?_ApiGet_Lcd_Num?BYTE
      0082EE69H   PUBLIC    CODE/B2  ---       _ApiGet_Lcd_Num
      000000F3H   SFRSYM    DATA     BYTE      IB_CON2
      000000D8H.3 SFRSYM    DATA     BIT       TB81
      00000080H   SFRSYM    DATA     BYTE      P0
      000000F4H   SFRSYM    DATA     BYTE      IB_CON3
      000000A4H   SFRSYM    DATA     BYTE      TKCON
      00000090H   SFRSYM    DATA     BYTE      P1
      000000F5H   SFRSYM    DATA     BYTE      IB_CON4
      000000E7H   SFRSYM    DATA     BYTE      PASLO
      000000A0H   SFRSYM    DATA     BYTE      P2
      000000FEH   SFRSYM    DATA     BYTE      OSCLO
      000000F6H   SFRSYM    DATA     BYTE      IB_CON5
      00000098H.6 SFRSYM    DATA     BIT       SM1_RXOV
      000000B0H   SFRSYM    DATA     BYTE      P3
      000000D0H.6 SFRSYM    DATA     BIT       AC
      000000C0H   SFRSYM    DATA     BYTE      P4
      000000A1H   SFRSYM    DATA     BYTE      SPCON
      0000009CH   SFRSYM    DATA     BYTE      SBRTH
      000000E9H   SFRSYM    DATA     BYTE      P5
      000000A8H.7 SFRSYM    DATA     BIT       EA
      000000EAH   SFRSYM    DATA     BYTE      P6
      000000EBH   SFRSYM    DATA     BYTE      P7
      000000EFH   SFRSYM    DATA     BYTE      IB_DATA
      000000ECH   SFRSYM    DATA     BYTE      P8
      0000009DH   SFRSYM    DATA     BYTE      SBRTL
      000000EDH   SFRSYM    DATA     BYTE      P9
      000000B7H   SFRSYM    DATA     BYTE      PBANKLO
      000000A2H   SFRSYM    DATA     BYTE      SPSTA
      000000A8H   SFRSYM    DATA     BYTE      IEN0
      000000B3H   SFRSYM    DATA     BYTE      PWRCON1
      00000095H   SFRSYM    DATA     BYTE      EMUSR
      000000A9H   SFRSYM    DATA     BYTE      IEN1
      000000B4H   SFRSYM    DATA     BYTE      PWRCON2
      00000085H   SFRSYM    DATA     BYTE      DPH1
      00000080H   SFRSYM    DATA     BIT       P0_0
      00000090H   SFRSYM    DATA     BIT       P1_0
      00000080H.1 SFRSYM    DATA     BIT       P0_1
      000000C3H   SFRSYM    DATA     BYTE      ADCH
      000000A0H   SFRSYM    DATA     BIT       P2_0
      00000090H.1 SFRSYM    DATA     BIT       P1_1
      00000080H.2 SFRSYM    DATA     BIT       P0_2
      000000BAH   SFRSYM    DATA     BYTE      IPH0
      00000084H   SFRSYM    DATA     BYTE      DPL1
      000000B0H   SFRSYM    DATA     BIT       P3_0
      000000A0H.1 SFRSYM    DATA     BIT       P2_1
      00000090H.2 SFRSYM    DATA     BIT       P1_2
      00000080H.3 SFRSYM    DATA     BIT       P0_3
      000000BBH   SFRSYM    DATA     BYTE      IPH1
      000000C0H   SFRSYM    DATA     BIT       P4_0
      000000B0H.1 SFRSYM    DATA     BIT       P3_1
      000000A0H.2 SFRSYM    DATA     BIT       P2_2
LX51 LINKER/LOCATER V4.66.41.0                                                        11/18/2021  18:51:21  PAGE 93


      00000090H.3 SFRSYM    DATA     BIT       P1_3
      00000080H.4 SFRSYM    DATA     BIT       P0_4
      000000E8H   SFRSYM    DATA     BYTE      EXF0
      000000C0H.1 SFRSYM    DATA     BIT       P4_1
      000000B0H.2 SFRSYM    DATA     BIT       P3_2
      000000A0H.3 SFRSYM    DATA     BIT       P2_3
      00000090H.4 SFRSYM    DATA     BIT       P1_4
      00000080H.5 SFRSYM    DATA     BIT       P0_5
      000000C0H.2 SFRSYM    DATA     BIT       P4_2
      000000B0H.3 SFRSYM    DATA     BIT       P3_3
      000000A0H.4 SFRSYM    DATA     BIT       P2_4
      00000090H.5 SFRSYM    DATA     BIT       P1_5
      00000080H.6 SFRSYM    DATA     BIT       P0_6
      000000C8H.6 SFRSYM    DATA     BIT       EXF2
      000000A6H   SFRSYM    DATA     BYTE      TKF0
      000000B8H   SFRSYM    DATA     BYTE      IPL0
      000000C0H.3 SFRSYM    DATA     BIT       P4_3
      000000B0H.4 SFRSYM    DATA     BIT       P3_4
      000000A0H.5 SFRSYM    DATA     BIT       P2_5
      00000090H.6 SFRSYM    DATA     BIT       P1_6
      00000080H.7 SFRSYM    DATA     BIT       P0_7
      000000D8H.4 SFRSYM    DATA     BIT       REN1
      000000B9H   SFRSYM    DATA     BYTE      IPL1
      000000C0H.4 SFRSYM    DATA     BIT       P4_4
      000000B0H.5 SFRSYM    DATA     BIT       P3_5
      000000A0H.6 SFRSYM    DATA     BIT       P2_6
      00000090H.7 SFRSYM    DATA     BIT       P1_7
      000000E2H   SFRSYM    DATA     BYTE      TK0H
      0000008EH   SFRSYM    DATA     BYTE      SUSLO
      000000C0H.5 SFRSYM    DATA     BIT       P4_5
      000000B0H.6 SFRSYM    DATA     BIT       P3_6
      000000A0H.7 SFRSYM    DATA     BIT       P2_7
      000000E4H   SFRSYM    DATA     BYTE      TK1H
      000000C0H.6 SFRSYM    DATA     BIT       P4_6
      000000B0H.7 SFRSYM    DATA     BIT       P3_7
      000000E6H   SFRSYM    DATA     BYTE      TK2H
      000000C0H.7 SFRSYM    DATA     BIT       P4_7
      00000098H   SFRSYM    DATA     BIT       RI
      000000A8H.2 SFRSYM    DATA     BIT       E7816
      000000D0H.7 SFRSYM    DATA     BIT       CY
      000000E1H   SFRSYM    DATA     BYTE      TK0L
      00000098H.1 SFRSYM    DATA     BIT       TI
      00000091H   SFRSYM    DATA     BYTE      EADR
      000000E3H   SFRSYM    DATA     BYTE      TK1L
      000000E5H   SFRSYM    DATA     BYTE      TK2L
      000000DBH   SFRSYM    DATA     BYTE      SADEN1
      000000D8H.7 SFRSYM    DATA     BIT       SM10_FE1
      000000FBH   SFRSYM    DATA     BYTE      SADEN2
      000000B8H.4 SFRSYM    DATA     BIT       PS0L
      000000B8H.1 SFRSYM    DATA     BIT       PT0L
      000000DAH   SFRSYM    DATA     BYTE      SADDR1
      000000D8H.5 SFRSYM    DATA     BIT       SM12_TXCOL1
      000000B8H.3 SFRSYM    DATA     BIT       PT1L
      000000FAH   SFRSYM    DATA     BYTE      SADDR2
      000000CBH   SFRSYM    DATA     BYTE      RCAP2H
      000000B8H.5 SFRSYM    DATA     BIT       PT2L
      00000081H   SFRSYM    DATA     BYTE      SP
      000000D0H.2 SFRSYM    DATA     BIT       OV
      000000CAH   SFRSYM    DATA     BYTE      RCAP2L
      000000B8H   SFRSYM    DATA     BIT       PX4L
      000000C8H.1 SFRSYM    DATA     BIT       C_T2
      000000DEH   SFRSYM    DATA     BYTE      SFINE2
      000000ADH   SFRSYM    DATA     BYTE      IRCON1
      000000AFH   SFRSYM    DATA     BYTE      IRCON2
      000000ABH   SFRSYM    DATA     BYTE      EXCON1
LX51 LINKER/LOCATER V4.66.41.0                                                        11/18/2021  18:51:21  PAGE 94


      00000099H   SFRSYM    DATA     BYTE      SBUF
      000000ACH   SFRSYM    DATA     BYTE      EXCON2
      00000087H   SFRSYM    DATA     BYTE      PCON
      000000F1H   SFRSYM    DATA     BYTE      AUXC
      00000098H   SFRSYM    DATA     BYTE      SCON
      000000D4H   SFRSYM    DATA     BYTE      TK0BASEH
      00000089H   SFRSYM    DATA     BYTE      TMOD
      00000088H   SFRSYM    DATA     BYTE      TCON
      000000AAH   SFRSYM    DATA     BYTE      IENX
      000000EEH   SFRSYM    DATA     BYTE      IB_OFFSET
      000000D6H   SFRSYM    DATA     BYTE      TK1BASEH
      000000DCH   SFRSYM    DATA     BYTE      SBRT1H
      000000DFH   SFRSYM    DATA     BYTE      TK2BASEH
      000000FCH   SFRSYM    DATA     BYTE      SBRT2H
      000000B1H   SFRSYM    DATA     BYTE      RSTSTAT
      000000D3H   SFRSYM    DATA     BYTE      TK0BASEL
      000000D5H   SFRSYM    DATA     BYTE      TK1BASEL
      000000DDH   SFRSYM    DATA     BYTE      SBRT1L
      000000D7H   SFRSYM    DATA     BYTE      TK2BASEL
      000000FDH   SFRSYM    DATA     BYTE      SBRT2L
      00000098H.7 SFRSYM    DATA     BIT       SM0_FE
      000000B2H   SFRSYM    DATA     BYTE      CLKCON
      00000098H.5 SFRSYM    DATA     BIT       SM2_TXCOL
      000000B5H   SFRSYM    DATA     BYTE      LDOCON
      000000F0H   SFRSYM    DATA     BYTE      B
      000000C8H   SFRSYM    DATA     BIT       CP_RL2
      000000E0H   SFRSYM    DATA     BYTE      ACC
      000000A8H.4 SFRSYM    DATA     BIT       ES0
      000000A8H.1 SFRSYM    DATA     BIT       ET0
      000000A8H.3 SFRSYM    DATA     BIT       ET1
      00000088H.5 SFRSYM    DATA     BIT       TF0
      000000A8H.5 SFRSYM    DATA     BIT       ET2
      00000088H.7 SFRSYM    DATA     BIT       TF1
      000000D8H   SFRSYM    DATA     BIT       RI1
      00000098H.2 SFRSYM    DATA     BIT       RB8
      000000C8H.7 SFRSYM    DATA     BIT       TF2
      0000008CH   SFRSYM    DATA     BYTE      TH0
      00000086H   SFRSYM    DATA     BYTE      INSCON
      0000008DH   SFRSYM    DATA     BYTE      TH1
      000000D8H.1 SFRSYM    DATA     BIT       TI1
      00000098H.3 SFRSYM    DATA     BIT       TB8
      000000CDH   SFRSYM    DATA     BYTE      TH2
      000000D0H   SFRSYM    DATA     BIT       P
      0000008AH   SFRSYM    DATA     BYTE      TL0
      000000A8H   SFRSYM    DATA     BIT       EX4
      0000008BH   SFRSYM    DATA     BYTE      TL1
      000000A7H   SFRSYM    DATA     BYTE      FLASHCON
      000000CCH   SFRSYM    DATA     BYTE      TL2
      000000D0H.3 SFRSYM    DATA     BIT       RS0
      000000C5H   SFRSYM    DATA     BYTE      ADCDH
      00000088H.4 SFRSYM    DATA     BIT       TR0
      000000D0H.4 SFRSYM    DATA     BIT       RS1
      0000009FH   SFRSYM    DATA     BYTE      PWMCON
      00000088H.6 SFRSYM    DATA     BIT       TR1
      000000C8H.2 SFRSYM    DATA     BIT       TR2
      000000C4H   SFRSYM    DATA     BYTE      ADCDL
      000000C2H   SFRSYM    DATA     BYTE      ADT
      00000083H   SFRSYM    DATA     BYTE      DPH
      00000082H   SFRSYM    DATA     BYTE      DPL
      000000D9H   SFRSYM    DATA     BYTE      SBUF1
      000000C8H.3 SFRSYM    DATA     BIT       EXEN2
      000000F9H   SFRSYM    DATA     BYTE      SBUF2
      000000D8H.6 SFRSYM    DATA     BIT       SM11_RXOV1
      000000B8H.6 SFRSYM    DATA     BIT       PADCL
      00000098H.4 SFRSYM    DATA     BIT       REN
LX51 LINKER/LOCATER V4.66.41.0                                                        11/18/2021  18:51:21  PAGE 95


      000000D8H   SFRSYM    DATA     BYTE      SCON1
      000000D1H   SFRSYM    DATA     BYTE      LCDCON1
      000000C1H   SFRSYM    DATA     BYTE      ADCON
      000000F8H   SFRSYM    DATA     BYTE      SCON2
      0000008FH   SFRSYM    DATA     BYTE      TCON1
      000000D2H   SFRSYM    DATA     BYTE      LCDCON2
      00000092H   SFRSYM    DATA     BYTE      EDTAH
      000000C9H   SFRSYM    DATA     BYTE      T2MOD
      000000C8H   SFRSYM    DATA     BYTE      T2CON
      00000094H   SFRSYM    DATA     BYTE      EDTAL
      00000093H   SFRSYM    DATA     BYTE      EDTAM
      000000BCH   SFRSYM    DATA     BYTE      TK0DIFH
      0000009BH   SFRSYM    DATA     BYTE      SADEN
      000000BEH   SFRSYM    DATA     BYTE      TK1DIFH
      000000B6H   SFRSYM    DATA     BYTE      PBANK
      000000A5H   SFRSYM    DATA     BYTE      TK2DIFH
      000000A8H.6 SFRSYM    DATA     BIT       EADTP
      0000009AH   SFRSYM    DATA     BYTE      SADDR
      000000CFH   SFRSYM    DATA     BYTE      TK0DIFL
      000000BDH   SFRSYM    DATA     BYTE      TK1DIFL
      000000BFH   SFRSYM    DATA     BYTE      TK2DIFL
      000000B8H.2 SFRSYM    DATA     BIT       P7816L
      000000C6H   SFRSYM    DATA     BYTE      LPDCON1
      000000C7H   SFRSYM    DATA     BYTE      LPDCON2
      000000D0H.5 SFRSYM    DATA     BIT       F0
      000000AEH   SFRSYM    DATA     BYTE      IRDAT
      000000D0H.1 SFRSYM    DATA     BIT       F1
      00000096H   SFRSYM    DATA     BYTE      EMUIE
      0000009EH   SFRSYM    DATA     BYTE      SFINE
      000000F7H   SFRSYM    DATA     BYTE      XPAGE
      00000097H   SFRSYM    DATA     BYTE      EMUIF
      000000D0H   SFRSYM    DATA     BYTE      PSW
      000000D8H.2 SFRSYM    DATA     BIT       RB81
      000000A3H   SFRSYM    DATA     BYTE      SPDAT
      000000F2H   SFRSYM    DATA     BYTE      IB_CON1
      0082EF4BH   SYMBOL    CODE/B2  ---       _ApiDisplay_NumData
      01001749H   SYMBOL    CONST    ---       Disp_Table
      0082F027H   SYMBOL    CODE/B2  ---       _ApiDisp_ShowNum
      0082F15BH   SYMBOL    CODE/B2  ---       _APiDisp_Const

      0082EE69H   BLOCK     CODE/B2  ---       LVL=0
      0082EE69H   LINE      ---      ---       #317
      0082EE6FH   LINE      ---      ---       #318
      0200067EH   SYMBOL    XDATA    DWORD     DataId
      02000682H   SYMBOL    XDATA    BYTE      ScreenNum
      0082EE6FH   BLOCK     CODE/B2  NEAR LAB  LVL=1
      0082EE6FH   LINE      ---      ---       #320
      0082EE81H   LINE      ---      ---       #321
      0082EE81H   LINE      ---      ---       #322
      0082EEA6H   LINE      ---      ---       #323
      0082EEA6H   LINE      ---      ---       #324
      0082EEEAH   LINE      ---      ---       #325
      0082EEEAH   LINE      ---      ---       #326
      0082EEF0H   LINE      ---      ---       #327
      0082EEF0H   LINE      ---      ---       #328
      0082EEF1H   LINE      ---      ---       #329
      0082EEF3H   LINE      ---      ---       #331
      0082EEF3H   LINE      ---      ---       #332
      0082EEFAH   LINE      ---      ---       #333
      0082EEFAH   LINE      ---      ---       #334
      0082EEFCH   LINE      ---      ---       #336
      0082EEFCH   LINE      ---      ---       #337
      0082EF02H   LINE      ---      ---       #338
      0082EF02H   LINE      ---      ---       #339
      0082EF08H   LINE      ---      ---       #340
LX51 LINKER/LOCATER V4.66.41.0                                                        11/18/2021  18:51:21  PAGE 96


      0082EF08H   LINE      ---      ---       #341
      0082EF10H   LINE      ---      ---       #342
      0082EF12H   LINE      ---      ---       #343
      02000683H   SYMBOL    XDATA    BYTE      i
      02000684H   SYMBOL    XDATA    BYTE      v_LcdNum
      ---         BLOCKEND  CODE/B2  ---       LVL=1
      ---         BLOCKEND  CODE/B2  ---       LVL=0

      0082EF13H   BLOCK     CODE/B2  ---       LVL=0
      0082EF13H   LINE      ---      ---       #345
      0082EF13H   LINE      ---      ---       #346
      00000007H   SYMBOL    DATA     BYTE      v_LcdNum
      0082EF13H   BLOCK     CODE/B2  NEAR LAB  LVL=1
      0082EF13H   LINE      ---      ---       #348
      0082EF19H   LINE      ---      ---       #349
      0082EF19H   LINE      ---      ---       #350
      0082EF23H   LINE      ---      ---       #351
      0082EF25H   LINE      ---      ---       #352
      0082EF25H   LINE      ---      ---       #353
      0082EF3CH   LINE      ---      ---       #355
      0082EF4AH   LINE      ---      ---       #356
      0200067EH   SYMBOL    XDATA    DWORD     V_ulDI3DI2DI1DI0
      ---         BLOCKEND  CODE/B2  ---       LVL=1
      ---         BLOCKEND  CODE/B2  ---       LVL=0

      0082EF4BH   BLOCK     CODE/B2  ---       LVL=0
      0082EF5CH   LINE      ---      ---       #358
      0082EF5CH   LINE      ---      ---       #359
      00000007H   SYMBOL    DATA     BYTE      v_ucNumPos
      00000005H   SYMBOL    DATA     BYTE      v_ucShowChar
      0082EF5CH   BLOCK     CODE/B2  NEAR LAB  LVL=1
      0082EF5CH   LINE      ---      ---       #362
      0082EF65H   LINE      ---      ---       #365
      0082EF67H   LINE      ---      ---       #366
      0082EF67H   LINE      ---      ---       #367
      0082EF77H   LINE      ---      ---       #368
      0082EF77H   LINE      ---      ---       #369
      0082EF88H   LINE      ---      ---       #370
      0082EF8AH   LINE      ---      ---       #371
      0082EF8AH   LINE      ---      ---       #372
      0082EF8FH   LINE      ---      ---       #373
      0082EF98H   LINE      ---      ---       #375
      0082EF9EH   LINE      ---      ---       #376
      0082EFA0H   LINE      ---      ---       #377
      0082EFA0H   LINE      ---      ---       #378
      0082EFBEH   LINE      ---      ---       #379
      0082EFDAH   LINE      ---      ---       #381
      0082EFEEH   LINE      ---      ---       #382
      0082EFFAH   LINE      ---      ---       #383
      0082EFFAH   LINE      ---      ---       #384
      0082F016H   LINE      ---      ---       #385
      0082F016H   LINE      ---      ---       #386
      0082F01DH   LINE      ---      ---       #387
      0082F026H   LINE      ---      ---       #388
      00000006H   SYMBOL    DATA     BYTE      V_ucCnti
      00000006H   SYMBOL    DATA     BYTE      V_ucCntj
      02000615H   SYMBOL    XDATA    BYTE      V_ucResult
      02000616H   SYMBOL    XDATA    BYTE      V_ucTemp08
      00000005H   SYMBOL    DATA     BYTE      V_ucPosBit
      02000617H   SYMBOL    XDATA    BYTE      V_ucCombit
      ---         BLOCKEND  CODE/B2  ---       LVL=1
      ---         BLOCKEND  CODE/B2  ---       LVL=0

      0082F027H   BLOCK     CODE/B2  ---       LVL=0
      0082F027H   LINE      ---      ---       #389
LX51 LINKER/LOCATER V4.66.41.0                                                        11/18/2021  18:51:21  PAGE 97


      0082F03CH   LINE      ---      ---       #390
      0200060CH   SYMBOL    XDATA    BYTE      ShowStartPos
      0200060DH   SYMBOL    XDATA    BYTE      len
      0200060EH   SYMBOL    XDATA    ---       Show
      02000611H   SYMBOL    XDATA    BYTE      v_ucDots
      0082F03CH   BLOCK     CODE/B2  NEAR LAB  LVL=1
      0082F03CH   LINE      ---      ---       #393
      0082F04BH   LINE      ---      ---       #395
      0082F050H   LINE      ---      ---       #396
      0082F058H   LINE      ---      ---       #397
      0082F058H   LINE      ---      ---       #398
      0082F06DH   LINE      ---      ---       #399
      0082F06DH   LINE      ---      ---       #400
      0082F099H   LINE      ---      ---       #401
      0082F099H   LINE      ---      ---       #402
      0082F09FH   LINE      ---      ---       #403
      0082F0A1H   LINE      ---      ---       #405
      0082F0A1H   LINE      ---      ---       #406
      0082F0A4H   LINE      ---      ---       #408
      0082F0A4H   LINE      ---      ---       #410
      0082F0EAH   LINE      ---      ---       #412
      0082F0EAH   LINE      ---      ---       #413
      0082F0EDH   LINE      ---      ---       #415
      0082F0EDH   LINE      ---      ---       #416
      0082F0F5H   LINE      ---      ---       #417
      0082F0F5H   LINE      ---      ---       #419
      0082F0F5H   LINE      ---      ---       #420
      0082F108H   LINE      ---      ---       #421
      0082F108H   LINE      ---      ---       #422
      0082F12CH   LINE      ---      ---       #423
      0082F152H   LINE      ---      ---       #424
      0082F15AH   LINE      ---      ---       #425
      0082F15AH   LINE      ---      ---       #426
      02000612H   SYMBOL    XDATA    BYTE      i
      02000613H   SYMBOL    XDATA    BYTE      k
      02000614H   SYMBOL    XDATA    BYTE      j
      ---         BLOCKEND  CODE/B2  ---       LVL=1
      ---         BLOCKEND  CODE/B2  ---       LVL=0

      0082F15BH   BLOCK     CODE/B2  ---       LVL=0
      0082F15BH   LINE      ---      ---       #428
      0082F160H   LINE      ---      ---       #429
      0200060AH   SYMBOL    XDATA    BYTE      Dispcnt
      0082F160H   BLOCK     CODE/B2  NEAR LAB  LVL=1
      0082F160H   LINE      ---      ---       #430
      0082F163H   LINE      ---      ---       #431
      0082F176H   LINE      ---      ---       #433
      0082F17BH   LINE      ---      ---       #435
      0082F182H   LINE      ---      ---       #436
      0082F182H   LINE      ---      ---       #437
      0082F196H   LINE      ---      ---       #439
      0082F196H   LINE      ---      ---       #440
      0082F1D4H   LINE      ---      ---       #441
      0082F1D4H   LINE      ---      ---       #442
      0082F1D4H   LINE      ---      ---       #443
      0082F1D4H   LINE      ---      ---       #444
      0082F1DBH   LINE      ---      ---       #445
      0082F1DBH   LINE      ---      ---       #446
      0082F1DBH   LINE      ---      ---       #447
      0082F1DBH   LINE      ---      ---       #448
      0082F1DBH   LINE      ---      ---       #449
      0082F1DDH   LINE      ---      ---       #450
      0082F1DDH   LINE      ---      ---       #451
      0082F1DDH   LINE      ---      ---       #455
      0082F1E4H   LINE      ---      ---       #456
LX51 LINKER/LOCATER V4.66.41.0                                                        11/18/2021  18:51:21  PAGE 98


      0082F1E5H   LINE      ---      ---       #457
      0082F1E5H   LINE      ---      ---       #458
      0082F1E5H   LINE      ---      ---       #459
      0082F1E5H   LINE      ---      ---       #460
      0082F1E5H   LINE      ---      ---       #461
      0082F1E7H   LINE      ---      ---       #462
      0082F1E7H   LINE      ---      ---       #463
      0082F1E7H   LINE      ---      ---       #467
      0082F1EEH   LINE      ---      ---       #468
      0082F1EFH   LINE      ---      ---       #469
      0082F1F0H   LINE      ---      ---       #470
      0082F1FEH   LINE      ---      ---       #471
      0082F1FEH   LINE      ---      ---       #472
      0082F1FEH   LINE      ---      ---       #473
      0082F200H   LINE      ---      ---       #477
      0082F200H   LINE      ---      ---       #478
      0082F200H   LINE      ---      ---       #479
      0082F201H   LINE      ---      ---       #480
      0082F204H   LINE      ---      ---       #481
      0082F204H   LINE      ---      ---       #482
      0082F204H   LINE      ---      ---       #483
      0082F206H   LINE      ---      ---       #485
      0082F206H   LINE      ---      ---       #486
      0082F206H   LINE      ---      ---       #487
      0082F20DH   LINE      ---      ---       #488
      0082F20EH   LINE      ---      ---       #489
      0082F20EH   LINE      ---      ---       #490
      0082F20EH   LINE      ---      ---       #491
      0082F210H   LINE      ---      ---       #493
      0082F210H   LINE      ---      ---       #494
      0082F210H   LINE      ---      ---       #496
      0082F217H   LINE      ---      ---       #497
      0082F21EH   LINE      ---      ---       #499
      0082F21FH   LINE      ---      ---       #500
      0082F222H   LINE      ---      ---       #501
      0082F222H   LINE      ---      ---       #502
      0082F222H   LINE      ---      ---       #503
      0082F224H   LINE      ---      ---       #505
      0082F224H   LINE      ---      ---       #506
      0082F224H   LINE      ---      ---       #507
      0082F227H   LINE      ---      ---       #508
      0082F227H   LINE      ---      ---       #509
      0082F227H   LINE      ---      ---       #510
      0082F227H   LINE      ---      ---       #512
      0082F22BH   LINE      ---      ---       #515
      0082F231H   LINE      ---      ---       #516
      0082F231H   LINE      ---      ---       #517
      0082F233H   LINE      ---      ---       #519
      0082F233H   LINE      ---      ---       #520
      0082F233H   LINE      ---      ---       #521
      0082F23AH   LINE      ---      ---       #522
      0082F240H   LINE      ---      ---       #523
      0082F246H   LINE      ---      ---       #524
      0082F246H   LINE      ---      ---       #526
      0082F248H   LINE      ---      ---       #528
      0082F248H   LINE      ---      ---       #533
      0082F248H   LINE      ---      ---       #535
      0082F24FH   LINE      ---      ---       #536
      0082F256H   LINE      ---      ---       #554
      0082F25CH   LINE      ---      ---       #556
      0082F25CH   LINE      ---      ---       #558
      0082F25EH   LINE      ---      ---       #560
      0082F25EH   LINE      ---      ---       #565
      0082F25EH   LINE      ---      ---       #567
      0082F265H   LINE      ---      ---       #568
LX51 LINKER/LOCATER V4.66.41.0                                                        11/18/2021  18:51:21  PAGE 99


      0082F26CH   LINE      ---      ---       #586
      0082F272H   LINE      ---      ---       #588
      0082F272H   LINE      ---      ---       #590
      0082F274H   LINE      ---      ---       #592
      0082F274H   LINE      ---      ---       #593
      0082F274H   LINE      ---      ---       #598
      0082F274H   LINE      ---      ---       #600
      0082F282H   LINE      ---      ---       #601
      0082F289H   LINE      ---      ---       #619
      0082F28FH   LINE      ---      ---       #620
      0082F28FH   LINE      ---      ---       #622
      0082F291H   LINE      ---      ---       #624
      0082F291H   LINE      ---      ---       #625
      0082F291H   LINE      ---      ---       #630
      0082F291H   LINE      ---      ---       #632
      0082F298H   LINE      ---      ---       #633
      0082F29EH   LINE      ---      ---       #650
      0082F2A4H   LINE      ---      ---       #651
      0082F2A4H   LINE      ---      ---       #652
      0082F2A6H   LINE      ---      ---       #654
      0082F2A6H   LINE      ---      ---       #655
      0082F2A6H   LINE      ---      ---       #657
      0082F2ADH   LINE      ---      ---       #661
      0082F2B4H   LINE      ---      ---       #662
      0082F2B4H   LINE      ---      ---       #663
      0082F2B6H   LINE      ---      ---       #665
      0082F2B6H   LINE      ---      ---       #666
      0082F2B6H   LINE      ---      ---       #667
      0082F2BCH   LINE      ---      ---       #668
      0082F2BCH   LINE      ---      ---       #672
      0082F2BCH   LINE      ---      ---       #673
      0082F2BCH   LINE      ---      ---       #674
      0082F2BCH   LINE      ---      ---       #675
      0082F2D4H   LINE      ---      ---       #679
      0082F2DBH   LINE      ---      ---       #680
      0082F2DBH   LINE      ---      ---       #681
      0082F2E4H   LINE      ---      ---       #682
      0082F2E4H   LINE      ---      ---       #683
      0082F32DH   LINE      ---      ---       #684
      0082F32DH   LINE      ---      ---       #685
      0082F32DH   LINE      ---      ---       #687
      0082F32DH   LINE      ---      ---       #688
      0082F379H   LINE      ---      ---       #689
      0082F380H   LINE      ---      ---       #690
      0082F380H   LINE      ---      ---       #691
      0082F387H   LINE      ---      ---       #692
      0082F387H   LINE      ---      ---       #693
      0082F387H   LINE      ---      ---       #695
      0200060BH   SYMBOL    XDATA    BYTE      V_ucDots
      ---         BLOCKEND  CODE/B2  ---       LVL=1
      ---         BLOCKEND  CODE/B2  ---       LVL=0

      0082F4ABH   BLOCK     CODE/B2  ---       LVL=0
      0082F4ABH   LINE      ---      ---       #697
      0082F4ABH   LINE      ---      ---       #698
      0082F4ABH   LINE      ---      ---       #699
      0082F4B9H   LINE      ---      ---       #719
      0082F4C0H   LINE      ---      ---       #720
      0082F4C0H   LINE      ---      ---       #721
      0082F4C1H   LINE      ---      ---       #722
      0082F4C1H   LINE      ---      ---       #723
      0082F4DDH   LINE      ---      ---       #724
      0082F4DDH   LINE      ---      ---       #726
      0082F4E1H   LINE      ---      ---       #727
      0082F4E1H   LINE      ---      ---       #728
LX51 LINKER/LOCATER V4.66.41.0                                                        11/18/2021  18:51:21  PAGE 100


      0082F4E8H   LINE      ---      ---       #729
      0082F4E8H   LINE      ---      ---       #731
      0082F4EFH   LINE      ---      ---       #732
      0082F4EFH   LINE      ---      ---       #733
      0082F4F6H   LINE      ---      ---       #734
      0082F4F6H   LINE      ---      ---       #735
      0082F4F6H   LINE      ---      ---       #736
      0082F503H   LINE      ---      ---       #737
      0082F503H   LINE      ---      ---       #738
      0082F50AH   LINE      ---      ---       #739
      0082F50AH   LINE      ---      ---       #740
      0082F511H   LINE      ---      ---       #741
      0082F511H   LINE      ---      ---       #742
      0082F518H   LINE      ---      ---       #743
      0082F518H   LINE      ---      ---       #744
      0082F527H   LINE      ---      ---       #745
      0082F527H   LINE      ---      ---       #746
      0082F52EH   LINE      ---      ---       #747
      0082F52EH   LINE      ---      ---       #749
      0082F535H   LINE      ---      ---       #751
      0082F535H   LINE      ---      ---       #752
      0082F535H   LINE      ---      ---       #753
      0082F53CH   LINE      ---      ---       #754
      0082F53CH   LINE      ---      ---       #755
      0082F543H   LINE      ---      ---       #756
      0082F54AH   LINE      ---      ---       #757
      0082F54AH   LINE      ---      ---       #759
      0082F568H   LINE      ---      ---       #761
      0082F568H   LINE      ---      ---       #762
      0082F56FH   LINE      ---      ---       #763
      0082F56FH   LINE      ---      ---       #764
      0082F57DH   LINE      ---      ---       #765
      0082F57DH   LINE      ---      ---       #771
      0082F57DH   LINE      ---      ---       #775
      ---         BLOCKEND  ---      ---       LVL=0

      0082F57EH   BLOCK     CODE/B2  ---       LVL=0
      0082F57EH   LINE      ---      ---       #786
      0082F57EH   LINE      ---      ---       #787
      0082F57EH   LINE      ---      ---       #788
      0082F586H   LINE      ---      ---       #790
      0082F58EH   LINE      ---      ---       #791
      0082F58EH   LINE      ---      ---       #792
      0082F591H   LINE      ---      ---       #793
      0082F593H   LINE      ---      ---       #795
      0082F59CH   LINE      ---      ---       #796
      0082F59CH   LINE      ---      ---       #797
      0082F5A3H   LINE      ---      ---       #798
      0082F5A5H   LINE      ---      ---       #800
      0082F5A5H   LINE      ---      ---       #801
      0082F5ACH   LINE      ---      ---       #802
      0082F5ACH   LINE      ---      ---       #803
      0082F5B4H   LINE      ---      ---       #804
      0082F5BAH   LINE      ---      ---       #805
      0082F5BAH   LINE      ---      ---       #806
      0082F5BDH   LINE      ---      ---       #807
      0082F5BFH   LINE      ---      ---       #808
      0082F5C9H   LINE      ---      ---       #809
      0082F5C9H   LINE      ---      ---       #811
      0082F5D0H   LINE      ---      ---       #812
      0082F5D1H   LINE      ---      ---       #814
      0082F5D1H   LINE      ---      ---       #815
      0082F5D8H   LINE      ---      ---       #816
      0082F5D8H   LINE      ---      ---       #817
      ---         BLOCKEND  ---      ---       LVL=0
LX51 LINKER/LOCATER V4.66.41.0                                                        11/18/2021  18:51:21  PAGE 101



      0082F388H   BLOCK     CODE/B2  ---       LVL=0
      0082F388H   LINE      ---      ---       #829
      0082F388H   LINE      ---      ---       #830
      0082F388H   BLOCK     CODE/B2  NEAR LAB  LVL=1
      0082F388H   LINE      ---      ---       #837
      0082F391H   LINE      ---      ---       #838
      0082F391H   LINE      ---      ---       #840
      0082F391H   LINE      ---      ---       #843
      0082F3AFH   LINE      ---      ---       #844
      0082F3AFH   LINE      ---      ---       #845
      0082F3B8H   LINE      ---      ---       #846
      0082F3BFH   LINE      ---      ---       #848
      0082F3E1H   LINE      ---      ---       #849
      0082F3FAH   LINE      ---      ---       #850
      0082F3FAH   LINE      ---      ---       #851
      0082F418H   LINE      ---      ---       #852
      0082F41EH   LINE      ---      ---       #854
      0082F42DH   LINE      ---      ---       #855
      0082F42DH   LINE      ---      ---       #856
      0082F432H   LINE      ---      ---       #857
      0082F436H   LINE      ---      ---       #858
      0082F43AH   LINE      ---      ---       #859
      0082F43FH   LINE      ---      ---       #860
      0082F43FH   LINE      ---      ---       #861
      0082F43FH   LINE      ---      ---       #863
      0082F446H   LINE      ---      ---       #864
      0082F446H   LINE      ---      ---       #865
      0082F451H   LINE      ---      ---       #866
      0082F453H   LINE      ---      ---       #867
      0082F45AH   LINE      ---      ---       #868
      0082F45AH   LINE      ---      ---       #869
      0082F45DH   LINE      ---      ---       #870
      0082F45FH   LINE      ---      ---       #871
      0082F466H   LINE      ---      ---       #872
      0082F466H   LINE      ---      ---       #873
      0082F46BH   LINE      ---      ---       #875
      0082F46BH   LINE      ---      ---       #876
      0082F472H   LINE      ---      ---       #877
      0082F472H   LINE      ---      ---       #878
      0082F47FH   LINE      ---      ---       #879
      0082F47FH   LINE      ---      ---       #880
      0082F481H   LINE      ---      ---       #881
      0082F481H   LINE      ---      ---       #882
      0082F493H   LINE      ---      ---       #883
      0082F493H   LINE      ---      ---       #886
      0082F49CH   LINE      ---      ---       #887
      0082F49CH   LINE      ---      ---       #888
      0082F49EH   LINE      ---      ---       #889
      0082F49EH   LINE      ---      ---       #890
      0082F4A5H   LINE      ---      ---       #891
      0082F4A7H   LINE      ---      ---       #892
      0082F4AAH   LINE      ---      ---       #893
      0082F4AAH   LINE      ---      ---       #894
      02000609H   SYMBOL    XDATA    BYTE      Dispcnt
      ---         BLOCKEND  CODE/B2  ---       LVL=1
      ---         BLOCKEND  CODE/B2  ---       LVL=0

      ---         MODULE    ---      ---       APPMONITOR
      0081AEE6H   PUBLIC    CODE/B1  ---       ApiMntr_PeripheralMonitor
      0081A1D4H   PUBLIC    CODE/B1  ---       ApiMntr_MonitorTask
      000000F3H   SFRSYM    DATA     BYTE      IB_CON2
      000000D8H.3 SFRSYM    DATA     BIT       TB81
      00000080H   SFRSYM    DATA     BYTE      P0
      000000F4H   SFRSYM    DATA     BYTE      IB_CON3
LX51 LINKER/LOCATER V4.66.41.0                                                        11/18/2021  18:51:21  PAGE 102


      000000A4H   SFRSYM    DATA     BYTE      TKCON
      00000090H   SFRSYM    DATA     BYTE      P1
      000000F5H   SFRSYM    DATA     BYTE      IB_CON4
      000000E7H   SFRSYM    DATA     BYTE      PASLO
      000000A0H   SFRSYM    DATA     BYTE      P2
      000000FEH   SFRSYM    DATA     BYTE      OSCLO
      000000F6H   SFRSYM    DATA     BYTE      IB_CON5
      00000098H.6 SFRSYM    DATA     BIT       SM1_RXOV
      000000B0H   SFRSYM    DATA     BYTE      P3
      000000D0H.6 SFRSYM    DATA     BIT       AC
      000000C0H   SFRSYM    DATA     BYTE      P4
      000000A1H   SFRSYM    DATA     BYTE      SPCON
      0000009CH   SFRSYM    DATA     BYTE      SBRTH
      000000E9H   SFRSYM    DATA     BYTE      P5
      000000A8H.7 SFRSYM    DATA     BIT       EA
      000000EAH   SFRSYM    DATA     BYTE      P6
      000000EBH   SFRSYM    DATA     BYTE      P7
      000000EFH   SFRSYM    DATA     BYTE      IB_DATA
      000000ECH   SFRSYM    DATA     BYTE      P8
      0000009DH   SFRSYM    DATA     BYTE      SBRTL
      000000EDH   SFRSYM    DATA     BYTE      P9
      000000B7H   SFRSYM    DATA     BYTE      PBANKLO
      000000A2H   SFRSYM    DATA     BYTE      SPSTA
      000000A8H   SFRSYM    DATA     BYTE      IEN0
      000000B3H   SFRSYM    DATA     BYTE      PWRCON1
      00000095H   SFRSYM    DATA     BYTE      EMUSR
      000000A9H   SFRSYM    DATA     BYTE      IEN1
      000000B4H   SFRSYM    DATA     BYTE      PWRCON2
      00000085H   SFRSYM    DATA     BYTE      DPH1
      00000080H   SFRSYM    DATA     BIT       P0_0
      00000090H   SFRSYM    DATA     BIT       P1_0
      00000080H.1 SFRSYM    DATA     BIT       P0_1
      000000C3H   SFRSYM    DATA     BYTE      ADCH
      000000A0H   SFRSYM    DATA     BIT       P2_0
      00000090H.1 SFRSYM    DATA     BIT       P1_1
      00000080H.2 SFRSYM    DATA     BIT       P0_2
      000000BAH   SFRSYM    DATA     BYTE      IPH0
      00000084H   SFRSYM    DATA     BYTE      DPL1
      000000B0H   SFRSYM    DATA     BIT       P3_0
      000000A0H.1 SFRSYM    DATA     BIT       P2_1
      00000090H.2 SFRSYM    DATA     BIT       P1_2
      00000080H.3 SFRSYM    DATA     BIT       P0_3
      000000BBH   SFRSYM    DATA     BYTE      IPH1
      000000C0H   SFRSYM    DATA     BIT       P4_0
      000000B0H.1 SFRSYM    DATA     BIT       P3_1
      000000A0H.2 SFRSYM    DATA     BIT       P2_2
      00000090H.3 SFRSYM    DATA     BIT       P1_3
      00000080H.4 SFRSYM    DATA     BIT       P0_4
      000000E8H   SFRSYM    DATA     BYTE      EXF0
      000000C0H.1 SFRSYM    DATA     BIT       P4_1
      000000B0H.2 SFRSYM    DATA     BIT       P3_2
      000000A0H.3 SFRSYM    DATA     BIT       P2_3
      00000090H.4 SFRSYM    DATA     BIT       P1_4
      00000080H.5 SFRSYM    DATA     BIT       P0_5
      000000C0H.2 SFRSYM    DATA     BIT       P4_2
      000000B0H.3 SFRSYM    DATA     BIT       P3_3
      000000A0H.4 SFRSYM    DATA     BIT       P2_4
      00000090H.5 SFRSYM    DATA     BIT       P1_5
      00000080H.6 SFRSYM    DATA     BIT       P0_6
      000000C8H.6 SFRSYM    DATA     BIT       EXF2
      000000A6H   SFRSYM    DATA     BYTE      TKF0
      000000B8H   SFRSYM    DATA     BYTE      IPL0
      000000C0H.3 SFRSYM    DATA     BIT       P4_3
      000000B0H.4 SFRSYM    DATA     BIT       P3_4
      000000A0H.5 SFRSYM    DATA     BIT       P2_5
LX51 LINKER/LOCATER V4.66.41.0                                                        11/18/2021  18:51:21  PAGE 103


      00000090H.6 SFRSYM    DATA     BIT       P1_6
      00000080H.7 SFRSYM    DATA     BIT       P0_7
      000000D8H.4 SFRSYM    DATA     BIT       REN1
      000000B9H   SFRSYM    DATA     BYTE      IPL1
      000000C0H.4 SFRSYM    DATA     BIT       P4_4
      000000B0H.5 SFRSYM    DATA     BIT       P3_5
      000000A0H.6 SFRSYM    DATA     BIT       P2_6
      00000090H.7 SFRSYM    DATA     BIT       P1_7
      000000E2H   SFRSYM    DATA     BYTE      TK0H
      0000008EH   SFRSYM    DATA     BYTE      SUSLO
      000000C0H.5 SFRSYM    DATA     BIT       P4_5
      000000B0H.6 SFRSYM    DATA     BIT       P3_6
      000000A0H.7 SFRSYM    DATA     BIT       P2_7
      000000E4H   SFRSYM    DATA     BYTE      TK1H
      000000C0H.6 SFRSYM    DATA     BIT       P4_6
      000000B0H.7 SFRSYM    DATA     BIT       P3_7
      000000E6H   SFRSYM    DATA     BYTE      TK2H
      000000C0H.7 SFRSYM    DATA     BIT       P4_7
      00000098H   SFRSYM    DATA     BIT       RI
      000000A8H.2 SFRSYM    DATA     BIT       E7816
      000000D0H.7 SFRSYM    DATA     BIT       CY
      000000E1H   SFRSYM    DATA     BYTE      TK0L
      00000098H.1 SFRSYM    DATA     BIT       TI
      00000091H   SFRSYM    DATA     BYTE      EADR
      000000E3H   SFRSYM    DATA     BYTE      TK1L
      000000E5H   SFRSYM    DATA     BYTE      TK2L
      000000DBH   SFRSYM    DATA     BYTE      SADEN1
      000000D8H.7 SFRSYM    DATA     BIT       SM10_FE1
      000000FBH   SFRSYM    DATA     BYTE      SADEN2
      000000B8H.4 SFRSYM    DATA     BIT       PS0L
      000000B8H.1 SFRSYM    DATA     BIT       PT0L
      000000DAH   SFRSYM    DATA     BYTE      SADDR1
      000000D8H.5 SFRSYM    DATA     BIT       SM12_TXCOL1
      000000B8H.3 SFRSYM    DATA     BIT       PT1L
      000000FAH   SFRSYM    DATA     BYTE      SADDR2
      000000CBH   SFRSYM    DATA     BYTE      RCAP2H
      000000B8H.5 SFRSYM    DATA     BIT       PT2L
      00000081H   SFRSYM    DATA     BYTE      SP
      000000D0H.2 SFRSYM    DATA     BIT       OV
      000000CAH   SFRSYM    DATA     BYTE      RCAP2L
      000000B8H   SFRSYM    DATA     BIT       PX4L
      000000C8H.1 SFRSYM    DATA     BIT       C_T2
      000000DEH   SFRSYM    DATA     BYTE      SFINE2
      000000ADH   SFRSYM    DATA     BYTE      IRCON1
      000000AFH   SFRSYM    DATA     BYTE      IRCON2
      000000ABH   SFRSYM    DATA     BYTE      EXCON1
      00000099H   SFRSYM    DATA     BYTE      SBUF
      000000ACH   SFRSYM    DATA     BYTE      EXCON2
      00000087H   SFRSYM    DATA     BYTE      PCON
      000000F1H   SFRSYM    DATA     BYTE      AUXC
      00000098H   SFRSYM    DATA     BYTE      SCON
      000000D4H   SFRSYM    DATA     BYTE      TK0BASEH
      00000089H   SFRSYM    DATA     BYTE      TMOD
      00000088H   SFRSYM    DATA     BYTE      TCON
      000000AAH   SFRSYM    DATA     BYTE      IENX
      000000EEH   SFRSYM    DATA     BYTE      IB_OFFSET
      000000D6H   SFRSYM    DATA     BYTE      TK1BASEH
      000000DCH   SFRSYM    DATA     BYTE      SBRT1H
      000000DFH   SFRSYM    DATA     BYTE      TK2BASEH
      000000FCH   SFRSYM    DATA     BYTE      SBRT2H
      000000B1H   SFRSYM    DATA     BYTE      RSTSTAT
      000000D3H   SFRSYM    DATA     BYTE      TK0BASEL
      000000D5H   SFRSYM    DATA     BYTE      TK1BASEL
      000000DDH   SFRSYM    DATA     BYTE      SBRT1L
      000000D7H   SFRSYM    DATA     BYTE      TK2BASEL
LX51 LINKER/LOCATER V4.66.41.0                                                        11/18/2021  18:51:21  PAGE 104


      000000FDH   SFRSYM    DATA     BYTE      SBRT2L
      00000098H.7 SFRSYM    DATA     BIT       SM0_FE
      000000B2H   SFRSYM    DATA     BYTE      CLKCON
      00000098H.5 SFRSYM    DATA     BIT       SM2_TXCOL
      000000B5H   SFRSYM    DATA     BYTE      LDOCON
      000000F0H   SFRSYM    DATA     BYTE      B
      000000C8H   SFRSYM    DATA     BIT       CP_RL2
      000000E0H   SFRSYM    DATA     BYTE      ACC
      000000A8H.4 SFRSYM    DATA     BIT       ES0
      000000A8H.1 SFRSYM    DATA     BIT       ET0
      000000A8H.3 SFRSYM    DATA     BIT       ET1
      00000088H.5 SFRSYM    DATA     BIT       TF0
      000000A8H.5 SFRSYM    DATA     BIT       ET2
      00000088H.7 SFRSYM    DATA     BIT       TF1
      000000D8H   SFRSYM    DATA     BIT       RI1
      00000098H.2 SFRSYM    DATA     BIT       RB8
      000000C8H.7 SFRSYM    DATA     BIT       TF2
      0000008CH   SFRSYM    DATA     BYTE      TH0
      00000086H   SFRSYM    DATA     BYTE      INSCON
      0000008DH   SFRSYM    DATA     BYTE      TH1
      000000D8H.1 SFRSYM    DATA     BIT       TI1
      00000098H.3 SFRSYM    DATA     BIT       TB8
      000000CDH   SFRSYM    DATA     BYTE      TH2
      000000D0H   SFRSYM    DATA     BIT       P
      0000008AH   SFRSYM    DATA     BYTE      TL0
      000000A8H   SFRSYM    DATA     BIT       EX4
      0000008BH   SFRSYM    DATA     BYTE      TL1
      000000A7H   SFRSYM    DATA     BYTE      FLASHCON
      000000CCH   SFRSYM    DATA     BYTE      TL2
      000000D0H.3 SFRSYM    DATA     BIT       RS0
      000000C5H   SFRSYM    DATA     BYTE      ADCDH
      00000088H.4 SFRSYM    DATA     BIT       TR0
      000000D0H.4 SFRSYM    DATA     BIT       RS1
      0000009FH   SFRSYM    DATA     BYTE      PWMCON
      00000088H.6 SFRSYM    DATA     BIT       TR1
      000000C8H.2 SFRSYM    DATA     BIT       TR2
      000000C4H   SFRSYM    DATA     BYTE      ADCDL
      000000C2H   SFRSYM    DATA     BYTE      ADT
      00000083H   SFRSYM    DATA     BYTE      DPH
      00000082H   SFRSYM    DATA     BYTE      DPL
      000000D9H   SFRSYM    DATA     BYTE      SBUF1
      000000C8H.3 SFRSYM    DATA     BIT       EXEN2
      000000F9H   SFRSYM    DATA     BYTE      SBUF2
      000000D8H.6 SFRSYM    DATA     BIT       SM11_RXOV1
      000000B8H.6 SFRSYM    DATA     BIT       PADCL
      00000098H.4 SFRSYM    DATA     BIT       REN
      000000D8H   SFRSYM    DATA     BYTE      SCON1
      000000D1H   SFRSYM    DATA     BYTE      LCDCON1
      000000C1H   SFRSYM    DATA     BYTE      ADCON
      000000F8H   SFRSYM    DATA     BYTE      SCON2
      0000008FH   SFRSYM    DATA     BYTE      TCON1
      000000D2H   SFRSYM    DATA     BYTE      LCDCON2
      00000092H   SFRSYM    DATA     BYTE      EDTAH
      000000C9H   SFRSYM    DATA     BYTE      T2MOD
      000000C8H   SFRSYM    DATA     BYTE      T2CON
      00000094H   SFRSYM    DATA     BYTE      EDTAL
      00000093H   SFRSYM    DATA     BYTE      EDTAM
      000000BCH   SFRSYM    DATA     BYTE      TK0DIFH
      0000009BH   SFRSYM    DATA     BYTE      SADEN
      000000BEH   SFRSYM    DATA     BYTE      TK1DIFH
      000000B6H   SFRSYM    DATA     BYTE      PBANK
      000000A5H   SFRSYM    DATA     BYTE      TK2DIFH
      000000A8H.6 SFRSYM    DATA     BIT       EADTP
      0000009AH   SFRSYM    DATA     BYTE      SADDR
      000000CFH   SFRSYM    DATA     BYTE      TK0DIFL
LX51 LINKER/LOCATER V4.66.41.0                                                        11/18/2021  18:51:21  PAGE 105


      000000BDH   SFRSYM    DATA     BYTE      TK1DIFL
      000000BFH   SFRSYM    DATA     BYTE      TK2DIFL
      000000B8H.2 SFRSYM    DATA     BIT       P7816L
      000000C6H   SFRSYM    DATA     BYTE      LPDCON1
      000000C7H   SFRSYM    DATA     BYTE      LPDCON2
      000000D0H.5 SFRSYM    DATA     BIT       F0
      000000AEH   SFRSYM    DATA     BYTE      IRDAT
      000000D0H.1 SFRSYM    DATA     BIT       F1
      00000096H   SFRSYM    DATA     BYTE      EMUIE
      0000009EH   SFRSYM    DATA     BYTE      SFINE
      000000F7H   SFRSYM    DATA     BYTE      XPAGE
      00000097H   SFRSYM    DATA     BYTE      EMUIF
      000000D0H   SFRSYM    DATA     BYTE      PSW
      000000D8H.2 SFRSYM    DATA     BIT       RB81
      000000A3H   SFRSYM    DATA     BYTE      SPDAT
      000000F2H   SFRSYM    DATA     BYTE      IB_CON1

      0081A1D4H   BLOCK     CODE/B1  ---       LVL=0
      0081A1D4H   LINE      ---      ---       #88
      0081A1D4H   LINE      ---      ---       #89
      0081A1D4H   BLOCK     CODE/B1  NEAR LAB  LVL=1
      0081A1D4H   LINE      ---      ---       #92
      0081A1D7H   LINE      ---      ---       #94
      0081A1DAH   LINE      ---      ---       #96
      0081A1DCH   LINE      ---      ---       #99
      0081A1FAH   LINE      ---      ---       #100
      0081A1FAH   LINE      ---      ---       #101
      0081A203H   LINE      ---      ---       #103
      0081A20CH   LINE      ---      ---       #104
      0081A20CH   LINE      ---      ---       #105
      0081A20FH   LINE      ---      ---       #108
      0081A213H   LINE      ---      ---       #109
      0081A213H   LINE      ---      ---       #110
      0081A215H   LINE      ---      ---       #111
      0081A215H   LINE      ---      ---       #112
      0081A215H   LINE      ---      ---       #114
      0081A218H   LINE      ---      ---       #115
      0081A21BH   LINE      ---      ---       #116
      0081A21EH   LINE      ---      ---       #117
      0081A225H   LINE      ---      ---       #118
      0081A225H   LINE      ---      ---       #119
      0081A241H   LINE      ---      ---       #120
      0081A241H   LINE      ---      ---       #121
      0081A24AH   LINE      ---      ---       #122
      0081A251H   LINE      ---      ---       #123
      0081A254H   LINE      ---      ---       #124
      0081A254H   LINE      ---      ---       #125
      0081A254H   LINE      ---      ---       #127
      0081A260H   LINE      ---      ---       #129
      0081A260H   LINE      ---      ---       #131
      0081A263H   LINE      ---      ---       #132
      0081A266H   LINE      ---      ---       #133
      0081A269H   LINE      ---      ---       #134
      0081A269H   LINE      ---      ---       #139
      0081A277H   LINE      ---      ---       #140
      0081A277H   LINE      ---      ---       #141
      0081A293H   LINE      ---      ---       #143
      0081A293H   LINE      ---      ---       #144
      0081A296H   LINE      ---      ---       #147
      0081A296H   LINE      ---      ---       #148
      0081A296H   LINE      ---      ---       #149
      0081A29DH   LINE      ---      ---       #150
      0081A29DH   LINE      ---      ---       #151
      0081A2B9H   LINE      ---      ---       #152
      0081A2B9H   LINE      ---      ---       #153
LX51 LINKER/LOCATER V4.66.41.0                                                        11/18/2021  18:51:21  PAGE 106


      0081A2C0H   LINE      ---      ---       #154
      0081A2C0H   LINE      ---      ---       #155
      0081A2C0H   LINE      ---      ---       #156
      0081A2D4H   LINE      ---      ---       #157
      0081A2D4H   LINE      ---      ---       #158
      0081A2DBH   LINE      ---      ---       #159
      0081A2FDH   LINE      ---      ---       #160
      0081A316H   LINE      ---      ---       #161
      0081A316H   LINE      ---      ---       #162
      0081A31DH   LINE      ---      ---       #163
      0081A31DH   LINE      ---      ---       #164
      0081A31FH   LINE      ---      ---       #166
      0081A31FH   LINE      ---      ---       #167
      0081A326H   LINE      ---      ---       #168
      0081A329H   LINE      ---      ---       #171
      0081A329H   LINE      ---      ---       #172
      0081A329H   LINE      ---      ---       #176
      0081A347H   LINE      ---      ---       #177
      0081A347H   LINE      ---      ---       #178
      0081A350H   LINE      ---      ---       #180
      0081A355H   LINE      ---      ---       #182
      0081A357H   LINE      ---      ---       #183
      0081A35AH   LINE      ---      ---       #184
      0081A35DH   LINE      ---      ---       #185
      0081A35FH   LINE      ---      ---       #189
      0081A361H   LINE      ---      ---       #190
      0081A363H   LINE      ---      ---       #191
      0081A365H   LINE      ---      ---       #195
      0081A374H   LINE      ---      ---       #196
      0081A374H   LINE      ---      ---       #197
      0081A387H   LINE      ---      ---       #198
      0081A387H   LINE      ---      ---       #199
      0081A39DH   LINE      ---      ---       #200
      0081A3B0H   LINE      ---      ---       #201
      0081A3B0H   LINE      ---      ---       #202
      0081A3B7H   LINE      ---      ---       #203
      0081A3B7H   LINE      ---      ---       #204
      0081A3BAH   LINE      ---      ---       #205
      0081A3BCH   LINE      ---      ---       #207
      0081A3BCH   LINE      ---      ---       #208
      0081A3CBH   LINE      ---      ---       #209
      0081A3CBH   LINE      ---      ---       #211
      0081A3CBH   LINE      ---      ---       #212
      0081A3CBH   LINE      ---      ---       #213
      0081A3D3H   LINE      ---      ---       #215
      0081A3ECH   LINE      ---      ---       #216
      0081A3ECH   LINE      ---      ---       #217
      0081A3F3H   LINE      ---      ---       #219
      0081A415H   LINE      ---      ---       #220
      0081A42EH   LINE      ---      ---       #221
      0081A42EH   LINE      ---      ---       #222
      0081A435H   LINE      ---      ---       #223
      0081A435H   LINE      ---      ---       #224
      0081A443H   LINE      ---      ---       #225
      0081A443H   LINE      ---      ---       #227
      0081A443H   LINE      ---      ---       #228
      0081A44AH   LINE      ---      ---       #229
      0081A44AH   LINE      ---      ---       #248
      0081A44AH   LINE      ---      ---       #250
      02000609H   SYMBOL    XDATA    BYTE      i
      ---         BLOCKEND  CODE/B1  ---       LVL=1
      ---         BLOCKEND  CODE/B1  ---       LVL=0

      0081AEE6H   BLOCK     CODE/B1  ---       LVL=0
      0081AEE6H   LINE      ---      ---       #263
LX51 LINKER/LOCATER V4.66.41.0                                                        11/18/2021  18:51:21  PAGE 107


      0081AEE6H   LINE      ---      ---       #264
      0081AEE6H   LINE      ---      ---       #266
      0081AF04H   LINE      ---      ---       #267
      0081AF04H   LINE      ---      ---       #268
      0081AF0DH   LINE      ---      ---       #269
      0081AF10H   LINE      ---      ---       #270
      0081AF13H   LINE      ---      ---       #271
      0081AF16H   LINE      ---      ---       #272
      0081AF32H   LINE      ---      ---       #274
      0081AF32H   LINE      ---      ---       #275
      0081AF35H   LINE      ---      ---       #276
      0081AF3AH   LINE      ---      ---       #277
      0081AF3AH   LINE      ---      ---       #278
      0081AF48H   LINE      ---      ---       #279
      0081AF48H   LINE      ---      ---       #280
      0081AF57H   LINE      ---      ---       #281
      0081AF57H   LINE      ---      ---       #282
      0081AF5EH   LINE      ---      ---       #283
      0081AF5EH   LINE      ---      ---       #284
      0081AF65H   LINE      ---      ---       #285
      0081AF65H   LINE      ---      ---       #286
      0081AF6CH   LINE      ---      ---       #287
      0081AF6CH   LINE      ---      ---       #288
      0081AF73H   LINE      ---      ---       #289
      0081AF73H   LINE      ---      ---       #290
      0081AF87H   LINE      ---      ---       #291
      0081AF8AH   LINE      ---      ---       #292
      0081AF98H   LINE      ---      ---       #293
      0081AF98H   LINE      ---      ---       #294
      0081AF98H   LINE      ---      ---       #296
      0081AF98H   LINE      ---      ---       #297
      0081AF9FH   LINE      ---      ---       #298
      0081AF9FH   LINE      ---      ---       #300
      0081AF9FH   LINE      ---      ---       #301
      ---         BLOCKEND  ---      ---       LVL=0

      ---         MODULE    ---      ---       APPPOWERON
      0081B4CDH   PUBLIC    CODE/B1  ---       ApiPwOn_RemainMoneyCheck
      0081A44BH   PUBLIC    CODE/B1  ---       ApiPwOn_EventPointCheck
      0081A4F9H   PUBLIC    CODE/B1  ---       ApiPwOn_BleParaChk
      0081A4F6H   PUBLIC    CODE/B1  ---       ApiPwOn_BleInit
      0081A56AH   PUBLIC    CODE/B1  ---       ApiPwOn_KeyStatusCheck
      0081B402H   PUBLIC    CODE/B1  ---       ApiPwOn_PowerChk
      0081A516H   PUBLIC    CODE/B1  ---       ApiPwOn_FunConfigParaCheck
      0081A1D2H   PUBLIC    CODE/B1  ---       ApiPwOn_EmuParaCheck
      00819E7CH   PUBLIC    CODE/B1  ---       ApiPwOn_EnergyCheck
      00819E42H   PUBLIC    CODE/B1  ---       ApiPwOn_EnergyZSCheck
      0081AE0CH   PUBLIC    CODE/B1  ---       _ApiPwOn_DLXS_READ
      0081A68EH   PUBLIC    CODE/B1  ---       ApiPwOn_MoneyParaCheck
      0081B30AH   PUBLIC    CODE/B1  ---       ApiPwOn_DisplayParaCheck
      0081B20EH   PUBLIC    CODE/B1  ---       ApiPwOn_MeterInfoParaCheck
      0081A7E5H   PUBLIC    CODE/B1  ---       ApiPwOn_MeterClear
      00818452H   PUBLIC    CODE/B1  ---       ApiPwOn_MeterInitInFactory
      00818095H   PUBLIC    CODE/B1  ---       _ApiPwOn_McuUartXSetBps
      00818000H   PUBLIC    CODE/B1  ---       _ApiPwOn_UART_SendEn
      00818043H   PUBLIC    CODE/B1  ---       _ApiPwOn_McuUartXInit
      00818085H   PUBLIC    CODE/B1  ---       ApiPwOn_McuUartInit
      0081A7A6H   PUBLIC    CODE/B1  ---       ApiPwOn_McuTimerInit
      0081915AH   PUBLIC    CODE/B1  ---       ApiPwOn_McuDispInit
      0081B027H   PUBLIC    CODE/B1  ---       ApiPwOn_McuGpioInit
      0081810DH   PUBLIC    CODE/B1  ---       ApiPwOn_McuRamInit
      0081AFA6H   PUBLIC    CODE/B1  ---       ApiPwOn_McuLPDInit
      0081AFDBH   PUBLIC    CODE/B1  ---       ApiPwOn_SysClkInit
      0081AFA0H   PUBLIC    CODE/B1  ---       ApiPwOn_McuReset
      008180E9H   PUBLIC    CODE/B1  ---       ApiPwOn_SysTemInit
LX51 LINKER/LOCATER V4.66.41.0                                                        11/18/2021  18:51:21  PAGE 108


      000000F3H   SFRSYM    DATA     BYTE      IB_CON2
      000000D8H.3 SFRSYM    DATA     BIT       TB81
      00000080H   SFRSYM    DATA     BYTE      P0
      000000F4H   SFRSYM    DATA     BYTE      IB_CON3
      000000A4H   SFRSYM    DATA     BYTE      TKCON
      00000090H   SFRSYM    DATA     BYTE      P1
      000000F5H   SFRSYM    DATA     BYTE      IB_CON4
      000000E7H   SFRSYM    DATA     BYTE      PASLO
      000000A0H   SFRSYM    DATA     BYTE      P2
      000000FEH   SFRSYM    DATA     BYTE      OSCLO
      000000F6H   SFRSYM    DATA     BYTE      IB_CON5
      00000098H.6 SFRSYM    DATA     BIT       SM1_RXOV
      000000B0H   SFRSYM    DATA     BYTE      P3
      000000D0H.6 SFRSYM    DATA     BIT       AC
      000000C0H   SFRSYM    DATA     BYTE      P4
      000000A1H   SFRSYM    DATA     BYTE      SPCON
      0000009CH   SFRSYM    DATA     BYTE      SBRTH
      000000E9H   SFRSYM    DATA     BYTE      P5
      000000A8H.7 SFRSYM    DATA     BIT       EA
      000000EAH   SFRSYM    DATA     BYTE      P6
      000000EBH   SFRSYM    DATA     BYTE      P7
      000000EFH   SFRSYM    DATA     BYTE      IB_DATA
      000000ECH   SFRSYM    DATA     BYTE      P8
      0000009DH   SFRSYM    DATA     BYTE      SBRTL
      000000EDH   SFRSYM    DATA     BYTE      P9
      000000B7H   SFRSYM    DATA     BYTE      PBANKLO
      000000A2H   SFRSYM    DATA     BYTE      SPSTA
      000000A8H   SFRSYM    DATA     BYTE      IEN0
      000000B3H   SFRSYM    DATA     BYTE      PWRCON1
      00000095H   SFRSYM    DATA     BYTE      EMUSR
      000000A9H   SFRSYM    DATA     BYTE      IEN1
      000000B4H   SFRSYM    DATA     BYTE      PWRCON2
      00000085H   SFRSYM    DATA     BYTE      DPH1
      00000080H   SFRSYM    DATA     BIT       P0_0
      00000090H   SFRSYM    DATA     BIT       P1_0
      00000080H.1 SFRSYM    DATA     BIT       P0_1
      000000C3H   SFRSYM    DATA     BYTE      ADCH
      000000A0H   SFRSYM    DATA     BIT       P2_0
      00000090H.1 SFRSYM    DATA     BIT       P1_1
      00000080H.2 SFRSYM    DATA     BIT       P0_2
      000000BAH   SFRSYM    DATA     BYTE      IPH0
      00000084H   SFRSYM    DATA     BYTE      DPL1
      000000B0H   SFRSYM    DATA     BIT       P3_0
      000000A0H.1 SFRSYM    DATA     BIT       P2_1
      00000090H.2 SFRSYM    DATA     BIT       P1_2
      00000080H.3 SFRSYM    DATA     BIT       P0_3
      000000BBH   SFRSYM    DATA     BYTE      IPH1
      000000C0H   SFRSYM    DATA     BIT       P4_0
      000000B0H.1 SFRSYM    DATA     BIT       P3_1
      000000A0H.2 SFRSYM    DATA     BIT       P2_2
      00000090H.3 SFRSYM    DATA     BIT       P1_3
      00000080H.4 SFRSYM    DATA     BIT       P0_4
      000000E8H   SFRSYM    DATA     BYTE      EXF0
      000000C0H.1 SFRSYM    DATA     BIT       P4_1
      000000B0H.2 SFRSYM    DATA     BIT       P3_2
      000000A0H.3 SFRSYM    DATA     BIT       P2_3
      00000090H.4 SFRSYM    DATA     BIT       P1_4
      00000080H.5 SFRSYM    DATA     BIT       P0_5
      000000C0H.2 SFRSYM    DATA     BIT       P4_2
      000000B0H.3 SFRSYM    DATA     BIT       P3_3
      000000A0H.4 SFRSYM    DATA     BIT       P2_4
      00000090H.5 SFRSYM    DATA     BIT       P1_5
      00000080H.6 SFRSYM    DATA     BIT       P0_6
      000000C8H.6 SFRSYM    DATA     BIT       EXF2
      000000A6H   SFRSYM    DATA     BYTE      TKF0
LX51 LINKER/LOCATER V4.66.41.0                                                        11/18/2021  18:51:21  PAGE 109


      000000B8H   SFRSYM    DATA     BYTE      IPL0
      000000C0H.3 SFRSYM    DATA     BIT       P4_3
      000000B0H.4 SFRSYM    DATA     BIT       P3_4
      000000A0H.5 SFRSYM    DATA     BIT       P2_5
      00000090H.6 SFRSYM    DATA     BIT       P1_6
      00000080H.7 SFRSYM    DATA     BIT       P0_7
      000000D8H.4 SFRSYM    DATA     BIT       REN1
      000000B9H   SFRSYM    DATA     BYTE      IPL1
      000000C0H.4 SFRSYM    DATA     BIT       P4_4
      000000B0H.5 SFRSYM    DATA     BIT       P3_5
      000000A0H.6 SFRSYM    DATA     BIT       P2_6
      00000090H.7 SFRSYM    DATA     BIT       P1_7
      000000E2H   SFRSYM    DATA     BYTE      TK0H
      0000008EH   SFRSYM    DATA     BYTE      SUSLO
      000000C0H.5 SFRSYM    DATA     BIT       P4_5
      000000B0H.6 SFRSYM    DATA     BIT       P3_6
      000000A0H.7 SFRSYM    DATA     BIT       P2_7
      000000E4H   SFRSYM    DATA     BYTE      TK1H
      000000C0H.6 SFRSYM    DATA     BIT       P4_6
      000000B0H.7 SFRSYM    DATA     BIT       P3_7
      000000E6H   SFRSYM    DATA     BYTE      TK2H
      000000C0H.7 SFRSYM    DATA     BIT       P4_7
      00000098H   SFRSYM    DATA     BIT       RI
      000000A8H.2 SFRSYM    DATA     BIT       E7816
      000000D0H.7 SFRSYM    DATA     BIT       CY
      000000E1H   SFRSYM    DATA     BYTE      TK0L
      00000098H.1 SFRSYM    DATA     BIT       TI
      00000091H   SFRSYM    DATA     BYTE      EADR
      000000E3H   SFRSYM    DATA     BYTE      TK1L
      000000E5H   SFRSYM    DATA     BYTE      TK2L
      000000DBH   SFRSYM    DATA     BYTE      SADEN1
      000000D8H.7 SFRSYM    DATA     BIT       SM10_FE1
      000000FBH   SFRSYM    DATA     BYTE      SADEN2
      000000B8H.4 SFRSYM    DATA     BIT       PS0L
      000000B8H.1 SFRSYM    DATA     BIT       PT0L
      000000DAH   SFRSYM    DATA     BYTE      SADDR1
      000000D8H.5 SFRSYM    DATA     BIT       SM12_TXCOL1
      000000B8H.3 SFRSYM    DATA     BIT       PT1L
      000000FAH   SFRSYM    DATA     BYTE      SADDR2
      000000CBH   SFRSYM    DATA     BYTE      RCAP2H
      000000B8H.5 SFRSYM    DATA     BIT       PT2L
      00000081H   SFRSYM    DATA     BYTE      SP
      000000D0H.2 SFRSYM    DATA     BIT       OV
      000000CAH   SFRSYM    DATA     BYTE      RCAP2L
      000000B8H   SFRSYM    DATA     BIT       PX4L
      000000C8H.1 SFRSYM    DATA     BIT       C_T2
      000000DEH   SFRSYM    DATA     BYTE      SFINE2
      000000ADH   SFRSYM    DATA     BYTE      IRCON1
      000000AFH   SFRSYM    DATA     BYTE      IRCON2
      000000ABH   SFRSYM    DATA     BYTE      EXCON1
      00000099H   SFRSYM    DATA     BYTE      SBUF
      000000ACH   SFRSYM    DATA     BYTE      EXCON2
      00000087H   SFRSYM    DATA     BYTE      PCON
      000000F1H   SFRSYM    DATA     BYTE      AUXC
      00000098H   SFRSYM    DATA     BYTE      SCON
      000000D4H   SFRSYM    DATA     BYTE      TK0BASEH
      00000089H   SFRSYM    DATA     BYTE      TMOD
      00000088H   SFRSYM    DATA     BYTE      TCON
      000000AAH   SFRSYM    DATA     BYTE      IENX
      000000EEH   SFRSYM    DATA     BYTE      IB_OFFSET
      000000D6H   SFRSYM    DATA     BYTE      TK1BASEH
      000000DCH   SFRSYM    DATA     BYTE      SBRT1H
      000000DFH   SFRSYM    DATA     BYTE      TK2BASEH
      000000FCH   SFRSYM    DATA     BYTE      SBRT2H
      000000B1H   SFRSYM    DATA     BYTE      RSTSTAT
LX51 LINKER/LOCATER V4.66.41.0                                                        11/18/2021  18:51:21  PAGE 110


      000000D3H   SFRSYM    DATA     BYTE      TK0BASEL
      000000D5H   SFRSYM    DATA     BYTE      TK1BASEL
      000000DDH   SFRSYM    DATA     BYTE      SBRT1L
      000000D7H   SFRSYM    DATA     BYTE      TK2BASEL
      000000FDH   SFRSYM    DATA     BYTE      SBRT2L
      00000098H.7 SFRSYM    DATA     BIT       SM0_FE
      000000B2H   SFRSYM    DATA     BYTE      CLKCON
      00000098H.5 SFRSYM    DATA     BIT       SM2_TXCOL
      000000B5H   SFRSYM    DATA     BYTE      LDOCON
      000000F0H   SFRSYM    DATA     BYTE      B
      000000C8H   SFRSYM    DATA     BIT       CP_RL2
      000000E0H   SFRSYM    DATA     BYTE      ACC
      000000A8H.4 SFRSYM    DATA     BIT       ES0
      000000A8H.1 SFRSYM    DATA     BIT       ET0
      000000A8H.3 SFRSYM    DATA     BIT       ET1
      00000088H.5 SFRSYM    DATA     BIT       TF0
      000000A8H.5 SFRSYM    DATA     BIT       ET2
      00000088H.7 SFRSYM    DATA     BIT       TF1
      000000D8H   SFRSYM    DATA     BIT       RI1
      00000098H.2 SFRSYM    DATA     BIT       RB8
      000000C8H.7 SFRSYM    DATA     BIT       TF2
      0000008CH   SFRSYM    DATA     BYTE      TH0
      00000086H   SFRSYM    DATA     BYTE      INSCON
      0000008DH   SFRSYM    DATA     BYTE      TH1
      000000D8H.1 SFRSYM    DATA     BIT       TI1
      00000098H.3 SFRSYM    DATA     BIT       TB8
      000000CDH   SFRSYM    DATA     BYTE      TH2
      000000D0H   SFRSYM    DATA     BIT       P
      0000008AH   SFRSYM    DATA     BYTE      TL0
      000000A8H   SFRSYM    DATA     BIT       EX4
      0000008BH   SFRSYM    DATA     BYTE      TL1
      000000A7H   SFRSYM    DATA     BYTE      FLASHCON
      000000CCH   SFRSYM    DATA     BYTE      TL2
      000000D0H.3 SFRSYM    DATA     BIT       RS0
      000000C5H   SFRSYM    DATA     BYTE      ADCDH
      00000088H.4 SFRSYM    DATA     BIT       TR0
      000000D0H.4 SFRSYM    DATA     BIT       RS1
      0000009FH   SFRSYM    DATA     BYTE      PWMCON
      00000088H.6 SFRSYM    DATA     BIT       TR1
      000000C8H.2 SFRSYM    DATA     BIT       TR2
      000000C4H   SFRSYM    DATA     BYTE      ADCDL
      000000C2H   SFRSYM    DATA     BYTE      ADT
      00000083H   SFRSYM    DATA     BYTE      DPH
      00000082H   SFRSYM    DATA     BYTE      DPL
      000000D9H   SFRSYM    DATA     BYTE      SBUF1
      000000C8H.3 SFRSYM    DATA     BIT       EXEN2
      000000F9H   SFRSYM    DATA     BYTE      SBUF2
      000000D8H.6 SFRSYM    DATA     BIT       SM11_RXOV1
      000000B8H.6 SFRSYM    DATA     BIT       PADCL
      00000098H.4 SFRSYM    DATA     BIT       REN
      000000D8H   SFRSYM    DATA     BYTE      SCON1
      000000D1H   SFRSYM    DATA     BYTE      LCDCON1
      000000C1H   SFRSYM    DATA     BYTE      ADCON
      000000F8H   SFRSYM    DATA     BYTE      SCON2
      0000008FH   SFRSYM    DATA     BYTE      TCON1
      000000D2H   SFRSYM    DATA     BYTE      LCDCON2
      00000092H   SFRSYM    DATA     BYTE      EDTAH
      000000C9H   SFRSYM    DATA     BYTE      T2MOD
      000000C8H   SFRSYM    DATA     BYTE      T2CON
      00000094H   SFRSYM    DATA     BYTE      EDTAL
      00000093H   SFRSYM    DATA     BYTE      EDTAM
      000000BCH   SFRSYM    DATA     BYTE      TK0DIFH
      0000009BH   SFRSYM    DATA     BYTE      SADEN
      000000BEH   SFRSYM    DATA     BYTE      TK1DIFH
      000000B6H   SFRSYM    DATA     BYTE      PBANK
LX51 LINKER/LOCATER V4.66.41.0                                                        11/18/2021  18:51:21  PAGE 111


      000000A5H   SFRSYM    DATA     BYTE      TK2DIFH
      000000A8H.6 SFRSYM    DATA     BIT       EADTP
      0000009AH   SFRSYM    DATA     BYTE      SADDR
      000000CFH   SFRSYM    DATA     BYTE      TK0DIFL
      000000BDH   SFRSYM    DATA     BYTE      TK1DIFL
      000000BFH   SFRSYM    DATA     BYTE      TK2DIFL
      000000B8H.2 SFRSYM    DATA     BIT       P7816L
      000000C6H   SFRSYM    DATA     BYTE      LPDCON1
      000000C7H   SFRSYM    DATA     BYTE      LPDCON2
      000000D0H.5 SFRSYM    DATA     BIT       F0
      000000AEH   SFRSYM    DATA     BYTE      IRDAT
      000000D0H.1 SFRSYM    DATA     BIT       F1
      00000096H   SFRSYM    DATA     BYTE      EMUIE
      0000009EH   SFRSYM    DATA     BYTE      SFINE
      000000F7H   SFRSYM    DATA     BYTE      XPAGE
      00000097H   SFRSYM    DATA     BYTE      EMUIF
      000000D0H   SFRSYM    DATA     BYTE      PSW
      000000D8H.2 SFRSYM    DATA     BIT       RB81
      000000A3H   SFRSYM    DATA     BYTE      SPDAT
      000000F2H   SFRSYM    DATA     BYTE      IB_CON1
      008187E1H   SYMBOL    CODE/B1  ---       ApiPwOn_EMUInit
      0081B20DH   SYMBOL    CODE/B1  ---       ApiPwOn_McuInterruptInit
      0081AFA6H   SYMBOL    CODE/B1  ---       ApiPwOn_McuLPDInit
      0100004EH   SYMBOL    CONST    ---       _?ix1000
      01000055H   SYMBOL    CONST    ---       _?ix1001
      0081B4CDH   SYMBOL    CODE/B1  ---       ApiPwOn_RemainMoneyCheck
      0081B027H   SYMBOL    CODE/B1  ---       ApiPwOn_McuGpioInit
      0081915AH   SYMBOL    CODE/B1  ---       ApiPwOn_McuDispInit
      00818085H   SYMBOL    CODE/B1  ---       ApiPwOn_McuUartInit
      0081810DH   SYMBOL    CODE/B1  ---       ApiPwOn_McuRamInit
      00818095H   SYMBOL    CODE/B1  ---       _ApiPwOn_McuUartXSetBps

      008180E9H   BLOCK     CODE/B1  ---       LVL=0
      008180E9H   LINE      ---      ---       #119
      008180E9H   LINE      ---      ---       #120
      008180E9H   LINE      ---      ---       #122
      008180ECH   LINE      ---      ---       #124
      008180F0H   LINE      ---      ---       #127
      008180F3H   LINE      ---      ---       #131
      008180F6H   LINE      ---      ---       #135
      008180F9H   LINE      ---      ---       #138
      008180FBH   LINE      ---      ---       #141
      008180FEH   LINE      ---      ---       #144
      00818101H   LINE      ---      ---       #147
      00818104H   LINE      ---      ---       #150
      00818106H   LINE      ---      ---       #153
      00818108H   LINE      ---      ---       #155
      0081810AH   LINE      ---      ---       #158
      0081810CH   LINE      ---      ---       #159
      ---         BLOCKEND  ---      ---       LVL=0

      0081AFA0H   BLOCK     CODE/B1  ---       LVL=0
      0081AFA0H   LINE      ---      ---       #172
      0081AFA0H   LINE      ---      ---       #173
      0081AFA0H   LINE      ---      ---       #174
      ---         BLOCKEND  ---      ---       LVL=0

      0081AFDBH   BLOCK     CODE/B1  ---       LVL=0
      0081AFDBH   LINE      ---      ---       #188
      0081AFDBH   LINE      ---      ---       #189
      0081AFDBH   BLOCK     CODE/B1  NEAR LAB  LVL=1
      0081AFDBH   LINE      ---      ---       #192
      0081AFE0H   LINE      ---      ---       #193
      0081AFE0H   LINE      ---      ---       #194
      0081AFE3H   LINE      ---      ---       #195
LX51 LINKER/LOCATER V4.66.41.0                                                        11/18/2021  18:51:21  PAGE 112


      0081AFE6H   LINE      ---      ---       #196
      0081AFE6H   LINE      ---      ---       #198
      0081AFECH   LINE      ---      ---       #199
      0081AFECH   LINE      ---      ---       #200
      0081AFEFH   LINE      ---      ---       #201
      0081AFF2H   LINE      ---      ---       #203
      0081AFF5H   LINE      ---      ---       #204
      0081AFF5H   LINE      ---      ---       #205
      0081AFF5H   LINE      ---      ---       #207
      0081AFFAH   LINE      ---      ---       #208
      0081AFFAH   LINE      ---      ---       #209
      0081AFFDH   LINE      ---      ---       #210
      0081B000H   LINE      ---      ---       #211
      0081B000H   LINE      ---      ---       #213
      0081B005H   LINE      ---      ---       #214
      0081B005H   LINE      ---      ---       #215
      0081B008H   LINE      ---      ---       #216
      0081B00BH   LINE      ---      ---       #217
      0081B00BH   LINE      ---      ---       #219
      0081B00DH   LINE      ---      ---       #220
      0081B00DH   LINE      ---      ---       #221
      0081B00EH   LINE      ---      ---       #222
      0081B013H   LINE      ---      ---       #224
      0081B018H   LINE      ---      ---       #225
      0081B018H   LINE      ---      ---       #226
      0081B01BH   LINE      ---      ---       #227
      0081B01EH   LINE      ---      ---       #228
      0081B01EH   LINE      ---      ---       #230
      0081B020H   LINE      ---      ---       #231
      0081B020H   LINE      ---      ---       #232
      0081B021H   LINE      ---      ---       #233
      0081B026H   LINE      ---      ---       #234
      00000007H   SYMBOL    DATA     BYTE      V_ucCnti
      ---         BLOCKEND  CODE/B1  ---       LVL=1
      ---         BLOCKEND  CODE/B1  ---       LVL=0

      0081AFA6H   BLOCK     CODE/B1  ---       LVL=0
      0081AFA6H   LINE      ---      ---       #253
      0081AFA6H   LINE      ---      ---       #254
      0081AFA6H   LINE      ---      ---       #257
      0081AFA9H   LINE      ---      ---       #259
      0081AFACH   LINE      ---      ---       #260
      0081AFAFH   LINE      ---      ---       #262
      0081AFB2H   LINE      ---      ---       #263
      0081AFB4H   LINE      ---      ---       #274
      0081AFB7H   LINE      ---      ---       #275
      0081AFBAH   LINE      ---      ---       #277
      0081AFBDH   LINE      ---      ---       #278
      0081AFC0H   LINE      ---      ---       #281
      0081AFC3H   LINE      ---      ---       #282
      0081AFC5H   LINE      ---      ---       #285
      0081AFCBH   LINE      ---      ---       #286
      0081AFCBH   LINE      ---      ---       #287
      0081AFCDH   LINE      ---      ---       #288
      0081AFCDH   LINE      ---      ---       #290
      0081AFD2H   LINE      ---      ---       #291
      0081AFD2H   LINE      ---      ---       #292
      0081AFD5H   LINE      ---      ---       #293
      0081AFD5H   LINE      ---      ---       #296
      0081AFD8H   LINE      ---      ---       #298
      0081AFDAH   LINE      ---      ---       #299
      ---         BLOCKEND  ---      ---       LVL=0

      0081810DH   BLOCK     CODE/B1  ---       LVL=0
      0081810DH   LINE      ---      ---       #311
LX51 LINKER/LOCATER V4.66.41.0                                                        11/18/2021  18:51:21  PAGE 113


      0081810DH   LINE      ---      ---       #312
      0081810DH   LINE      ---      ---       #316
      00818121H   LINE      ---      ---       #317
      00818135H   LINE      ---      ---       #318
      00818149H   LINE      ---      ---       #319
      0081815DH   LINE      ---      ---       #320
      00818171H   LINE      ---      ---       #321
      00818185H   LINE      ---      ---       #322
      00818199H   LINE      ---      ---       #323
      008181ADH   LINE      ---      ---       #324
      008181C1H   LINE      ---      ---       #327
      008181C7H   LINE      ---      ---       #329
      008181CAH   LINE      ---      ---       #330
      008181CDH   LINE      ---      ---       #331
      008181D0H   LINE      ---      ---       #332
      008181D3H   LINE      ---      ---       #333
      008181D6H   LINE      ---      ---       #334
      008181D9H   LINE      ---      ---       #338
      008181DCH   LINE      ---      ---       #341
      008181E1H   LINE      ---      ---       #342
      008181E8H   LINE      ---      ---       #344
      008181EDH   LINE      ---      ---       #345
      008181F4H   LINE      ---      ---       #346
      008181FBH   LINE      ---      ---       #347
      00818219H   LINE      ---      ---       #348
      0081821FH   LINE      ---      ---       #349
      00818227H   LINE      ---      ---       #350
      0081822BH   LINE      ---      ---       #352
      0081823CH   LINE      ---      ---       #353
      0081823CH   LINE      ---      ---       #354
      00818241H   LINE      ---      ---       #355
      00818241H   LINE      ---      ---       #356
      00818248H   LINE      ---      ---       #357
      00818248H   LINE      ---      ---       #358
      0081824FH   LINE      ---      ---       #359
      ---         BLOCKEND  ---      ---       LVL=0

      0081B027H   BLOCK     CODE/B1  ---       LVL=0
      0081B027H   LINE      ---      ---       #374
      0081B027H   LINE      ---      ---       #375
      0081B027H   LINE      ---      ---       #378
      0081B02EH   LINE      ---      ---       #379
      0081B032H   LINE      ---      ---       #380
      0081B036H   LINE      ---      ---       #381
      0081B03AH   LINE      ---      ---       #383
      0081B041H   LINE      ---      ---       #384
      0081B045H   LINE      ---      ---       #385
      0081B049H   LINE      ---      ---       #386
      0081B04DH   LINE      ---      ---       #388
      0081B050H   LINE      ---      ---       #389
      0081B053H   LINE      ---      ---       #390
      0081B056H   LINE      ---      ---       #391
      0081B059H   LINE      ---      ---       #393
      0081B060H   LINE      ---      ---       #394
      0081B064H   LINE      ---      ---       #395
      0081B068H   LINE      ---      ---       #396
      0081B06CH   LINE      ---      ---       #398
      0081B073H   LINE      ---      ---       #399
      0081B077H   LINE      ---      ---       #400
      0081B07BH   LINE      ---      ---       #401
      0081B07FH   LINE      ---      ---       #403
      0081B086H   LINE      ---      ---       #404
      0081B08AH   LINE      ---      ---       #405
      0081B08EH   LINE      ---      ---       #406
      0081B092H   LINE      ---      ---       #408
LX51 LINKER/LOCATER V4.66.41.0                                                        11/18/2021  18:51:21  PAGE 114


      0081B099H   LINE      ---      ---       #409
      0081B09DH   LINE      ---      ---       #410
      0081B0A1H   LINE      ---      ---       #411
      0081B0A5H   LINE      ---      ---       #418
      0081B0ACH   LINE      ---      ---       #422
      0081B0B3H   LINE      ---      ---       #426
      0081B0B6H   LINE      ---      ---       #458
      0081B0BDH   LINE      ---      ---       #459
      0081B0C1H   LINE      ---      ---       #460
      0081B0C5H   LINE      ---      ---       #461
      0081B0C9H   LINE      ---      ---       #462
      0081B0CDH   LINE      ---      ---       #464
      0081B0D4H   LINE      ---      ---       #465
      0081B0D8H   LINE      ---      ---       #466
      0081B0DCH   LINE      ---      ---       #467
      0081B0E0H   LINE      ---      ---       #468
      0081B0E4H   LINE      ---      ---       #470
      0081B0E7H   LINE      ---      ---       #471
      0081B0EAH   LINE      ---      ---       #472
      0081B0EDH   LINE      ---      ---       #473
      0081B0F0H   LINE      ---      ---       #474
      0081B0F3H   LINE      ---      ---       #476
      0081B0FAH   LINE      ---      ---       #477
      0081B0FEH   LINE      ---      ---       #478
      0081B102H   LINE      ---      ---       #479
      0081B106H   LINE      ---      ---       #480
      0081B10AH   LINE      ---      ---       #483
      0081B111H   LINE      ---      ---       #484
      0081B115H   LINE      ---      ---       #485
      0081B119H   LINE      ---      ---       #486
      0081B11DH   LINE      ---      ---       #488
      0081B124H   LINE      ---      ---       #489
      0081B128H   LINE      ---      ---       #490
      0081B12CH   LINE      ---      ---       #491
      0081B130H   LINE      ---      ---       #493
      0081B133H   LINE      ---      ---       #494
      0081B136H   LINE      ---      ---       #495
      0081B139H   LINE      ---      ---       #496
      0081B13CH   LINE      ---      ---       #499
      0081B143H   LINE      ---      ---       #500
      0081B147H   LINE      ---      ---       #501
      0081B14BH   LINE      ---      ---       #502
      0081B14FH   LINE      ---      ---       #503
      0081B153H   LINE      ---      ---       #504
      0081B157H   LINE      ---      ---       #505
      0081B15BH   LINE      ---      ---       #506
      0081B15FH   LINE      ---      ---       #508
      0081B166H   LINE      ---      ---       #509
      0081B16AH   LINE      ---      ---       #510
      0081B16EH   LINE      ---      ---       #511
      0081B172H   LINE      ---      ---       #512
      0081B176H   LINE      ---      ---       #513
      0081B17AH   LINE      ---      ---       #514
      0081B17EH   LINE      ---      ---       #515
      0081B182H   LINE      ---      ---       #517
      0081B185H   LINE      ---      ---       #518
      0081B188H   LINE      ---      ---       #519
      0081B18BH   LINE      ---      ---       #520
      0081B18EH   LINE      ---      ---       #521
      0081B191H   LINE      ---      ---       #522
      0081B194H   LINE      ---      ---       #523
      0081B197H   LINE      ---      ---       #524
      0081B19AH   LINE      ---      ---       #552
      0081B1A1H   LINE      ---      ---       #553
      0081B1A5H   LINE      ---      ---       #554
LX51 LINKER/LOCATER V4.66.41.0                                                        11/18/2021  18:51:21  PAGE 115


      0081B1A9H   LINE      ---      ---       #556
      0081B1B0H   LINE      ---      ---       #557
      0081B1B4H   LINE      ---      ---       #558
      0081B1B8H   LINE      ---      ---       #560
      0081B1BBH   LINE      ---      ---       #561
      0081B1BEH   LINE      ---      ---       #562
      0081B1C1H   LINE      ---      ---       #575
      0081B1C8H   LINE      ---      ---       #576
      0081B1CCH   LINE      ---      ---       #577
      0081B1D0H   LINE      ---      ---       #578
      0081B1D4H   LINE      ---      ---       #579
      0081B1D8H   LINE      ---      ---       #580
      0081B1DCH   LINE      ---      ---       #582
      0081B1E3H   LINE      ---      ---       #583
      0081B1E7H   LINE      ---      ---       #584
      0081B1EBH   LINE      ---      ---       #585
      0081B1EFH   LINE      ---      ---       #586
      0081B1F3H   LINE      ---      ---       #587
      0081B1F7H   LINE      ---      ---       #589
      0081B1FAH   LINE      ---      ---       #590
      0081B1FDH   LINE      ---      ---       #591
      0081B200H   LINE      ---      ---       #592
      0081B203H   LINE      ---      ---       #593
      0081B206H   LINE      ---      ---       #594
      0081B209H   LINE      ---      ---       #595
      0081B20CH   LINE      ---      ---       #596
      ---         BLOCKEND  ---      ---       LVL=0

      0081915AH   BLOCK     CODE/B1  ---       LVL=0
      0081915AH   LINE      ---      ---       #852
      0081915AH   LINE      ---      ---       #853
      0081915AH   LINE      ---      ---       #854
      ---         BLOCKEND  ---      ---       LVL=0

      0081A7A6H   BLOCK     CODE/B1  ---       LVL=0
      0081A7A6H   LINE      ---      ---       #867
      0081A7A6H   LINE      ---      ---       #868
      0081A7A6H   BLOCK     CODE/B1  NEAR LAB  LVL=1
      0081A7A6H   LINE      ---      ---       #869
      0081A7A8H   LINE      ---      ---       #872
      0081A7ABH   LINE      ---      ---       #875
      0081A7ABH   LINE      ---      ---       #876
      0081A7B3H   LINE      ---      ---       #877
      0081A7B3H   LINE      ---      ---       #878
      0081A7B6H   LINE      ---      ---       #879
      0081A7B9H   LINE      ---      ---       #880
      0081A7BAH   LINE      ---      ---       #881
      0081A7BAH   LINE      ---      ---       #883
      0081A7C0H   LINE      ---      ---       #884
      0081A7C0H   LINE      ---      ---       #885
      0081A7C3H   LINE      ---      ---       #886
      0081A7C5H   LINE      ---      ---       #887
      0081A7C5H   LINE      ---      ---       #889
      0081A7CAH   LINE      ---      ---       #890
      0081A7CAH   LINE      ---      ---       #891
      0081A7CDH   LINE      ---      ---       #892
      0081A7CFH   LINE      ---      ---       #893
      0081A7CFH   LINE      ---      ---       #895
      0081A7D2H   LINE      ---      ---       #897
      0081A7D2H   LINE      ---      ---       #899
      0081A7D6H   LINE      ---      ---       #900
      0081A7D6H   LINE      ---      ---       #901
      0081A7D9H   LINE      ---      ---       #902
      0081A7DCH   LINE      ---      ---       #903
      0081A7DCH   LINE      ---      ---       #905
LX51 LINKER/LOCATER V4.66.41.0                                                        11/18/2021  18:51:21  PAGE 116


      0081A7E4H   LINE      ---      ---       #907
      00000007H   SYMBOL    DATA     BYTE      V_ucResult
      ---         BLOCKEND  CODE/B1  ---       LVL=1
      ---         BLOCKEND  CODE/B1  ---       LVL=0

      0081B20DH   BLOCK     CODE/B1  ---       LVL=0
      0081B20DH   LINE      ---      ---       #918
      0081B20DH   LINE      ---      ---       #919
      0081B20DH   LINE      ---      ---       #934
      ---         BLOCKEND  ---      ---       LVL=0

      00818085H   BLOCK     CODE/B1  ---       LVL=0
      00818085H   LINE      ---      ---       #945
      00818085H   LINE      ---      ---       #946
      00818085H   LINE      ---      ---       #947
      00818089H   LINE      ---      ---       #948
      0081808DH   LINE      ---      ---       #949
      00818091H   LINE      ---      ---       #950
      ---         BLOCKEND  ---      ---       LVL=0

      00818043H   BLOCK     CODE/B1  ---       LVL=0
      00818043H   LINE      ---      ---       #965
      00818043H   LINE      ---      ---       #966
      00000007H   SYMBOL    DATA     BYTE      v_ucChID
      00818043H   BLOCK     CODE/B1  NEAR LAB  LVL=1
      00818043H   LINE      ---      ---       #969
      00818047H   LINE      ---      ---       #970
      00818047H   LINE      ---      ---       #971
      00818047H   LINE      ---      ---       #972
      00818047H   LINE      ---      ---       #998
      00818047H   LINE      ---      ---       #1000
      00818047H   LINE      ---      ---       #1001
      00818047H   LINE      ---      ---       #1003
      00818047H   LINE      ---      ---       #1005
      0081804EH   LINE      ---      ---       #1006
      00818051H   LINE      ---      ---       #1007
      00818054H   LINE      ---      ---       #1010
      00818062H   LINE      ---      ---       #1011
      0081806CH   LINE      ---      ---       #1014
      00818070H   LINE      ---      ---       #1017
      00818075H   LINE      ---      ---       #1018
      0081807BH   LINE      ---      ---       #1019
      0081807EH   LINE      ---      ---       #1020
      00818081H   LINE      ---      ---       #1021
      00818084H   LINE      ---      ---       #1022
      00818084H   LINE      ---      ---       #1024
      00818084H   LINE      ---      ---       #1026
      00818084H   LINE      ---      ---       #1027
      00818084H   LINE      ---      ---       #1029
      00818084H   LINE      ---      ---       #1032
      00818084H   LINE      ---      ---       #1033
      00818084H   LINE      ---      ---       #1035
      00818084H   LINE      ---      ---       #1038
      00818084H   LINE      ---      ---       #1039
      00818084H   LINE      ---      ---       #1041
      02000610H   SYMBOL    XDATA    BYTE      V_ucTemp
      ---         BLOCKEND  CODE/B1  ---       LVL=1
      ---         BLOCKEND  CODE/B1  ---       LVL=0

      00818000H   BLOCK     CODE/B1  ---       LVL=0
      00818000H   LINE      ---      ---       #1054
      00818000H   LINE      ---      ---       #1055
      00000007H   SYMBOL    DATA     BYTE      v_ucChID
      00818000H   BLOCK     CODE/B1  NEAR LAB  LVL=1
      00818000H   LINE      ---      ---       #1058
LX51 LINKER/LOCATER V4.66.41.0                                                        11/18/2021  18:51:21  PAGE 117


      00818007H   LINE      ---      ---       #1059
      00818007H   LINE      ---      ---       #1060
      00818007H   LINE      ---      ---       #1061
      00818007H   LINE      ---      ---       #1062
      0081800EH   LINE      ---      ---       #1063
      00818011H   LINE      ---      ---       #1065
      00818014H   LINE      ---      ---       #1068
      00818018H   LINE      ---      ---       #1071
      0081801EH   LINE      ---      ---       #1072
      00818021H   LINE      ---      ---       #1073
      00818024H   LINE      ---      ---       #1075
      00818025H   LINE      ---      ---       #1077
      00818025H   LINE      ---      ---       #1078
      00818025H   LINE      ---      ---       #1079
      0081802CH   LINE      ---      ---       #1080
      0081802FH   LINE      ---      ---       #1082
      00818032H   LINE      ---      ---       #1085
      00818036H   LINE      ---      ---       #1088
      0081803CH   LINE      ---      ---       #1089
      0081803FH   LINE      ---      ---       #1090
      00818042H   LINE      ---      ---       #1092
      00818042H   LINE      ---      ---       #1094
      00818042H   LINE      ---      ---       #1095
      00818042H   LINE      ---      ---       #1097
      00818042H   LINE      ---      ---       #1100
      00818042H   LINE      ---      ---       #1101
      00818042H   LINE      ---      ---       #1103
      00818042H   LINE      ---      ---       #1106
      00818042H   LINE      ---      ---       #1107
      00818042H   LINE      ---      ---       #1108
      02000778H   SYMBOL    XDATA    BYTE      V_ucTemp
      ---         BLOCKEND  CODE/B1  ---       LVL=1
      ---         BLOCKEND  CODE/B1  ---       LVL=0

      00818095H   BLOCK     CODE/B1  ---       LVL=0
      00818095H   LINE      ---      ---       #1109
      00818095H   LINE      ---      ---       #1110
      00818095H   LINE      ---      ---       #1114
      0081809CH   LINE      ---      ---       #1115
      0081809CH   LINE      ---      ---       #1116
      0081809CH   LINE      ---      ---       #1117
      0081809CH   LINE      ---      ---       #1119
      008180A5H   LINE      ---      ---       #1120
      008180AEH   LINE      ---      ---       #1122
      008180B6H   LINE      ---      ---       #1123
      008180B6H   LINE      ---      ---       #1124
      008180B9H   LINE      ---      ---       #1125
      008180BCH   LINE      ---      ---       #1126
      008180BCH   LINE      ---      ---       #1128
      008180C4H   LINE      ---      ---       #1130
      008180C5H   LINE      ---      ---       #1132
      008180C5H   LINE      ---      ---       #1133
      008180C5H   LINE      ---      ---       #1147
      008180CEH   LINE      ---      ---       #1148
      008180D7H   LINE      ---      ---       #1150
      008180DDH   LINE      ---      ---       #1151
      008180DDH   LINE      ---      ---       #1152
      008180E0H   LINE      ---      ---       #1153
      008180E0H   LINE      ---      ---       #1155
      008180E8H   LINE      ---      ---       #1157
      008180E8H   LINE      ---      ---       #1159
      008180E8H   LINE      ---      ---       #1160
      008180E8H   LINE      ---      ---       #1162
      008180E8H   LINE      ---      ---       #1165
      008180E8H   LINE      ---      ---       #1166
LX51 LINKER/LOCATER V4.66.41.0                                                        11/18/2021  18:51:21  PAGE 118


      008180E8H   LINE      ---      ---       #1168
      008180E8H   LINE      ---      ---       #1171
      008180E8H   LINE      ---      ---       #1172
      008180E8H   LINE      ---      ---       #1173
      00000007H   SYMBOL    DATA     BYTE      v_ucChID
      ---         BLOCKEND  ---      ---       LVL=0

      008187E1H   BLOCK     CODE/B1  ---       LVL=0
      ---         BLOCKEND  ---      ---       LVL=0

      00818452H   BLOCK     CODE/B1  ---       LVL=0
      00818452H   LINE      ---      ---       #1202
      00818452H   LINE      ---      ---       #1203
      00818452H   BLOCK     CODE/B1  NEAR LAB  LVL=1
      00818452H   LINE      ---      ---       #1204
      00818465H   LINE      ---      ---       #1208
      00818468H   LINE      ---      ---       #1213
      00818479H   LINE      ---      ---       #1214
      00818479H   LINE      ---      ---       #1215
      0081848DH   LINE      ---      ---       #1216
      00818493H   LINE      ---      ---       #1217
      00818497H   LINE      ---      ---       #1218
      0081849BH   LINE      ---      ---       #1219
      0081849FH   LINE      ---      ---       #1220
      008184A3H   LINE      ---      ---       #1221
      008184A7H   LINE      ---      ---       #1223
      008184B5H   LINE      ---      ---       #1225
      008184B5H   LINE      ---      ---       #1229
      008184B8H   LINE      ---      ---       #1230
      008184BDH   LINE      ---      ---       #1231
      008184C6H   LINE      ---      ---       #1234
      008184DBH   LINE      ---      ---       #1235
      008184E9H   LINE      ---      ---       #1238
      008184FDH   LINE      ---      ---       #1239
      00818503H   LINE      ---      ---       #1241
      00818507H   LINE      ---      ---       #1245
      00818515H   LINE      ---      ---       #1250
      00818515H   LINE      ---      ---       #1251
      0081851BH   LINE      ---      ---       #1252
      0081851DH   LINE      ---      ---       #1253
      00818521H   LINE      ---      ---       #1254
      00818523H   LINE      ---      ---       #1256
      00818531H   LINE      ---      ---       #1257
      00818531H   LINE      ---      ---       #1258
      00818545H   LINE      ---      ---       #1259
      00818560H   LINE      ---      ---       #1260
      0081857BH   LINE      ---      ---       #1261
      00818589H   LINE      ---      ---       #1264
      00818589H   LINE      ---      ---       #1265
      0081859DH   LINE      ---      ---       #1266
      008185A3H   LINE      ---      ---       #1267
      008185B1H   LINE      ---      ---       #1268
      008185B1H   LINE      ---      ---       #1273
      008185B1H   LINE      ---      ---       #1274
      008185C5H   LINE      ---      ---       #1275
      008185CBH   LINE      ---      ---       #1276
      008185D1H   LINE      ---      ---       #1277
      008185D5H   LINE      ---      ---       #1279
      008185E3H   LINE      ---      ---       #1280
      008185E3H   LINE      ---      ---       #1282
      008185F7H   LINE      ---      ---       #1283
      00818605H   LINE      ---      ---       #1284
      00818619H   LINE      ---      ---       #1285
      0081861CH   LINE      ---      ---       #1286
      00818630H   LINE      ---      ---       #1290
LX51 LINKER/LOCATER V4.66.41.0                                                        11/18/2021  18:51:21  PAGE 119


      00818635H   LINE      ---      ---       #1291
      00818642H   LINE      ---      ---       #1292
      00818647H   LINE      ---      ---       #1293
      0081864BH   LINE      ---      ---       #1296
      0081865EH   LINE      ---      ---       #1297
      0081866CH   LINE      ---      ---       #1300
      00818675H   LINE      ---      ---       #1301
      00818683H   LINE      ---      ---       #1303
      02000634H   SYMBOL    XDATA    ---       V_TempData
      0200063BH   SYMBOL    XDATA    ---       V_ucTemp
      ---         BLOCKEND  CODE/B1  ---       LVL=1
      ---         BLOCKEND  CODE/B1  ---       LVL=0

      0081A7E5H   BLOCK     CODE/B1  ---       LVL=0
      0081A7E5H   LINE      ---      ---       #1317
      0081A7E5H   LINE      ---      ---       #1318
      0081A7E5H   BLOCK     CODE/B1  NEAR LAB  LVL=1
      0081A7E5H   LINE      ---      ---       #1322
      0081A7F9H   LINE      ---      ---       #1323
      0081A806H   LINE      ---      ---       #1326
      0081A81AH   LINE      ---      ---       #1327
      0081A82EH   LINE      ---      ---       #1328
      0081A842H   LINE      ---      ---       #1329
      0081A851H   LINE      ---      ---       #1330
      0081A851H   LINE      ---      ---       #1331
      0081A85EH   LINE      ---      ---       #1332
      0081A870H   LINE      ---      ---       #1333
      0081A878H   LINE      ---      ---       #1336
      0081A880H   LINE      ---      ---       #1337
      0081A883H   LINE      ---      ---       #1338
      0081A88BH   LINE      ---      ---       #1339
      0081A88EH   LINE      ---      ---       #1340
      0081A89CH   LINE      ---      ---       #1345
      0081A8B0H   LINE      ---      ---       #1346
      0081A8B9H   LINE      ---      ---       #1347
      0081A8C2H   LINE      ---      ---       #1348
      0081A8D3H   LINE      ---      ---       #1349
      0081A8E1H   LINE      ---      ---       #1350
      0081A8EFH   LINE      ---      ---       #1352
      0081A8FEH   LINE      ---      ---       #1353
      0081A8FEH   LINE      ---      ---       #1354
      0081A914H   LINE      ---      ---       #1355
      0081A91CH   LINE      ---      ---       #1358
      0081A923H   LINE      ---      ---       #1359
      0081A923H   LINE      ---      ---       #1360
      0081A92CH   LINE      ---      ---       #1361
      0081A931H   LINE      ---      ---       #1362
      0081A935H   LINE      ---      ---       #1363
      0081A935H   LINE      ---      ---       #1364
      0081A93EH   LINE      ---      ---       #1365
      0081A947H   LINE      ---      ---       #1366
      0081A950H   LINE      ---      ---       #1367
      0081A959H   LINE      ---      ---       #1368
      0081A962H   LINE      ---      ---       #1369
      0081A977H   LINE      ---      ---       #1370
      0081A985H   LINE      ---      ---       #1372
      0081A999H   LINE      ---      ---       #1373
      0081A9AEH   LINE      ---      ---       #1375
      0081A9C2H   LINE      ---      ---       #1376
      0081A9D5H   LINE      ---      ---       #1379
      0081A9E3H   LINE      ---      ---       #1381
      0081A9E8H   LINE      ---      ---       #1382
      0081A9F5H   LINE      ---      ---       #1383
      0081A9FAH   LINE      ---      ---       #1384
      0081AA01H   LINE      ---      ---       #1385
LX51 LINKER/LOCATER V4.66.41.0                                                        11/18/2021  18:51:21  PAGE 120


      02000781H   SYMBOL    XDATA    BYTE      V_ucCnt_i
      02000782H   SYMBOL    XDATA    ---       V_ucTempBuff
      ---         BLOCKEND  CODE/B1  ---       LVL=1
      ---         BLOCKEND  CODE/B1  ---       LVL=0

      0081B20EH   BLOCK     CODE/B1  ---       LVL=0
      0081B20EH   LINE      ---      ---       #1397
      0081B20EH   LINE      ---      ---       #1398
      0081B20EH   LINE      ---      ---       #1400
      0081B22BH   LINE      ---      ---       #1401
      0081B22BH   LINE      ---      ---       #1402
      0081B23CH   LINE      ---      ---       #1403
      0081B23CH   LINE      ---      ---       #1404
      0081B250H   LINE      ---      ---       #1405
      0081B256H   LINE      ---      ---       #1406
      0081B25AH   LINE      ---      ---       #1407
      0081B25EH   LINE      ---      ---       #1408
      0081B262H   LINE      ---      ---       #1409
      0081B266H   LINE      ---      ---       #1410
      0081B26AH   LINE      ---      ---       #1412
      0081B26AH   LINE      ---      ---       #1413
      0081B26AH   LINE      ---      ---       #1415
      0081B287H   LINE      ---      ---       #1418
      0081B287H   LINE      ---      ---       #1419
      0081B29BH   LINE      ---      ---       #1420
      0081B2A1H   LINE      ---      ---       #1421
      0081B2A5H   LINE      ---      ---       #1422
      0081B2B2H   LINE      ---      ---       #1423
      0081B2B2H   LINE      ---      ---       #1426
      0081B2C3H   LINE      ---      ---       #1427
      0081B2C3H   LINE      ---      ---       #1428
      0081B2DDH   LINE      ---      ---       #1429
      0081B2DDH   LINE      ---      ---       #1430
      0081B2DDH   LINE      ---      ---       #1431
      0081B2DDH   LINE      ---      ---       #1432
      0081B2DFH   LINE      ---      ---       #1434
      0081B2DFH   LINE      ---      ---       #1435
      0081B2E9H   LINE      ---      ---       #1436
      0081B2E9H   LINE      ---      ---       #1438
      0081B300H   LINE      ---      ---       #1439
      0081B300H   LINE      ---      ---       #1440
      0081B304H   LINE      ---      ---       #1441
      0081B305H   LINE      ---      ---       #1443
      0081B305H   LINE      ---      ---       #1444
      0081B309H   LINE      ---      ---       #1445
      0081B309H   LINE      ---      ---       #1446
      ---         BLOCKEND  ---      ---       LVL=0

      0081B30AH   BLOCK     CODE/B1  ---       LVL=0
      0081B30AH   LINE      ---      ---       #1459
      0081B30AH   LINE      ---      ---       #1460
      0081B30AH   BLOCK     CODE/B1  NEAR LAB  LVL=1
      0081B30AH   LINE      ---      ---       #1461
      0081B31DH   LINE      ---      ---       #1462
      0081B33AH   LINE      ---      ---       #1464
      0081B33AH   LINE      ---      ---       #1465
      0081B34BH   LINE      ---      ---       #1466
      0081B34BH   LINE      ---      ---       #1467
      0081B351H   LINE      ---      ---       #1468
      0081B353H   LINE      ---      ---       #1469
      0081B357H   LINE      ---      ---       #1470
      0081B359H   LINE      ---      ---       #1472
      0081B359H   LINE      ---      ---       #1473
      0081B359H   LINE      ---      ---       #1474
      0081B376H   LINE      ---      ---       #1476
LX51 LINKER/LOCATER V4.66.41.0                                                        11/18/2021  18:51:21  PAGE 121


      0081B376H   LINE      ---      ---       #1477
      0081B387H   LINE      ---      ---       #1478
      0081B387H   LINE      ---      ---       #1479
      0081B3A2H   LINE      ---      ---       #1480
      0081B3BDH   LINE      ---      ---       #1481
      0081B3BDH   LINE      ---      ---       #1482
      0081B3BDH   LINE      ---      ---       #1483
      0081B3CDH   LINE      ---      ---       #1484
      0081B3CDH   LINE      ---      ---       #1485
      0081B3D3H   LINE      ---      ---       #1486
      0081B3D3H   LINE      ---      ---       #1487
      0081B3E3H   LINE      ---      ---       #1488
      0081B3E3H   LINE      ---      ---       #1489
      0081B3E9H   LINE      ---      ---       #1490
      0081B3E9H   LINE      ---      ---       #1491
      0081B3F2H   LINE      ---      ---       #1492
      0081B3F2H   LINE      ---      ---       #1493
      0081B3F5H   LINE      ---      ---       #1494
      0081B3F5H   LINE      ---      ---       #1495
      0081B3FEH   LINE      ---      ---       #1496
      0081B3FEH   LINE      ---      ---       #1497
      0081B401H   LINE      ---      ---       #1498
      0081B401H   LINE      ---      ---       #1499
      0200060AH   SYMBOL    XDATA    ---       V_TempData
      ---         BLOCKEND  CODE/B1  ---       LVL=1
      ---         BLOCKEND  CODE/B1  ---       LVL=0

      0081A68EH   BLOCK     CODE/B1  ---       LVL=0
      0081A68EH   LINE      ---      ---       #1510
      0081A68EH   LINE      ---      ---       #1511
      0081A68EH   LINE      ---      ---       #1513
      0081A6ABH   LINE      ---      ---       #1515
      0081A6ABH   LINE      ---      ---       #1516
      0081A6BCH   LINE      ---      ---       #1517
      0081A6BCH   LINE      ---      ---       #1518
      0081A6D0H   LINE      ---      ---       #1519
      0081A6D6H   LINE      ---      ---       #1520
      0081A6DCH   LINE      ---      ---       #1522
      0081A6DCH   LINE      ---      ---       #1523
      0081A6DCH   LINE      ---      ---       #1524
      0081A6F9H   LINE      ---      ---       #1525
      0081A6F9H   LINE      ---      ---       #1526
      0081A70AH   LINE      ---      ---       #1527
      0081A70AH   LINE      ---      ---       #1528
      0081A71EH   LINE      ---      ---       #1529
      0081A724H   LINE      ---      ---       #1531
      0081A724H   LINE      ---      ---       #1532
      0081A724H   LINE      ---      ---       #1534
      ---         BLOCKEND  ---      ---       LVL=0

      0081AE0CH   BLOCK     CODE/B1  ---       LVL=0
      0081AE0CH   LINE      ---      ---       #1547
      0081AE1FH   LINE      ---      ---       #1548
      0200061AH   SYMBOL    XDATA    ---       p_strEnergyPulse
      0200061DH   SYMBOL    XDATA    WORD      v_usAddrIndex
      0081AE1FH   BLOCK     CODE/B1  NEAR LAB  LVL=1
      0081AE1FH   LINE      ---      ---       #1552
      0081AE26H   LINE      ---      ---       #1553
      0081AE2DH   LINE      ---      ---       #1554
      0081AE34H   LINE      ---      ---       #1556
      0081AE48H   LINE      ---      ---       #1557
      0081AE75H   LINE      ---      ---       #1559
      0081AE77H   LINE      ---      ---       #1560
      0081AE77H   LINE      ---      ---       #1561
      0081AE85H   LINE      ---      ---       #1562
LX51 LINKER/LOCATER V4.66.41.0                                                        11/18/2021  18:51:21  PAGE 122


      0081AE85H   LINE      ---      ---       #1563
      0081AE98H   LINE      ---      ---       #1564
      0081AEA0H   LINE      ---      ---       #1565
      0081AEA0H   LINE      ---      ---       #1567
      0081AEA0H   LINE      ---      ---       #1568
      0081AEA0H   LINE      ---      ---       #1569
      0081AEA0H   LINE      ---      ---       #1570
      0081AEA5H   LINE      ---      ---       #1571
      0081AEB1H   LINE      ---      ---       #1572
      0081AEC3H   LINE      ---      ---       #1573
      0081AEC5H   LINE      ---      ---       #1574
      0081AEC5H   LINE      ---      ---       #1575
      0081AEC9H   LINE      ---      ---       #1576
      0081AEC9H   LINE      ---      ---       #1577
      0081AEDCH   LINE      ---      ---       #1578
      0081AEE0H   LINE      ---      ---       #1579
      0081AEE0H   LINE      ---      ---       #1581
      0081AEE0H   LINE      ---      ---       #1582
      0081AEE0H   LINE      ---      ---       #1583
      0081AEE0H   LINE      ---      ---       #1584
      0081AEE5H   LINE      ---      ---       #1586
      0200061FH   SYMBOL    XDATA    ---       V_TempData
      00000007H   SYMBOL    DATA     BYTE      i
      00000006H   SYMBOL    DATA     BYTE      j
      ---         BLOCKEND  CODE/B1  ---       LVL=1
      ---         BLOCKEND  CODE/B1  ---       LVL=0

      00819E42H   BLOCK     CODE/B1  ---       LVL=0
      00819E42H   LINE      ---      ---       #1594
      00819E42H   LINE      ---      ---       #1595
      00819E42H   BLOCK     CODE/B1  NEAR LAB  LVL=1
      00819E42H   LINE      ---      ---       #1596
      00819E47H   LINE      ---      ---       #1598
      00819E64H   LINE      ---      ---       #1599
      00819E64H   LINE      ---      ---       #1600
      00819E76H   LINE      ---      ---       #1601
      00819E76H   LINE      ---      ---       #1603
      00819E7BH   LINE      ---      ---       #1604
      0200060FH   SYMBOL    XDATA    BYTE      V_ucResultChk
      ---         BLOCKEND  CODE/B1  ---       LVL=1
      ---         BLOCKEND  CODE/B1  ---       LVL=0

      00819E7CH   BLOCK     CODE/B1  ---       LVL=0
      00819E7CH   LINE      ---      ---       #1612
      00819E7CH   LINE      ---      ---       #1613
      00819E7CH   BLOCK     CODE/B1  NEAR LAB  LVL=1
      00819E7CH   LINE      ---      ---       #1618
      00819E81H   LINE      ---      ---       #1619
      00819E81H   LINE      ---      ---       #1621
      00819E8DH   LINE      ---      ---       #1622
      00819E9AH   LINE      ---      ---       #1625
      00819EA7H   LINE      ---      ---       #1626
      00819EB4H   LINE      ---      ---       #1628
      00819EC9H   LINE      ---      ---       #1629
      00819EC9H   LINE      ---      ---       #1632
      00819EDAH   LINE      ---      ---       #1633
      00819EDAH   LINE      ---      ---       #1634
      00819EE5H   LINE      ---      ---       #1635
      00819EE5H   LINE      ---      ---       #1636
      00819EEFH   LINE      ---      ---       #1637
      00819EEFH   LINE      ---      ---       #1638
      00819EFAH   LINE      ---      ---       #1639
      00819EFAH   LINE      ---      ---       #1640
      00819F04H   LINE      ---      ---       #1641
      00819F04H   LINE      ---      ---       #1642
LX51 LINKER/LOCATER V4.66.41.0                                                        11/18/2021  18:51:21  PAGE 123


      00819F0CH   LINE      ---      ---       #1643
      00819F10H   LINE      ---      ---       #1644
      00819F12H   LINE      ---      ---       #1646
      00819F12H   LINE      ---      ---       #1647
      00819F1CH   LINE      ---      ---       #1648
      00819F20H   LINE      ---      ---       #1649
      00819F20H   LINE      ---      ---       #1651
      0200060AH   SYMBOL    XDATA    ---       V_ucaTempData
      ---         BLOCKEND  CODE/B1  ---       LVL=1
      ---         BLOCKEND  CODE/B1  ---       LVL=0

      0081A1D2H   BLOCK     CODE/B1  ---       LVL=0
      0081A1D2H   LINE      ---      ---       #1660
      0081A1D2H   LINE      ---      ---       #1661
      0081A1D2H   LINE      ---      ---       #1662
      ---         BLOCKEND  ---      ---       LVL=0

      0081A516H   BLOCK     CODE/B1  ---       LVL=0
      0081A516H   LINE      ---      ---       #1672
      0081A516H   LINE      ---      ---       #1673
      0081A516H   LINE      ---      ---       #1674
      0081A533H   LINE      ---      ---       #1675
      0081A533H   LINE      ---      ---       #1676
      0081A544H   LINE      ---      ---       #1677
      0081A544H   LINE      ---      ---       #1678
      0081A54AH   LINE      ---      ---       #1680
      0081A54EH   LINE      ---      ---       #1684
      0081A54EH   LINE      ---      ---       #1686
      0081A54EH   LINE      ---      ---       #1687
      0081A553H   LINE      ---      ---       #1688
      0081A560H   LINE      ---      ---       #1689
      0081A563H   LINE      ---      ---       #1690
      ---         BLOCKEND  ---      ---       LVL=0

      0081B402H   BLOCK     CODE/B1  ---       LVL=0
      0081B402H   LINE      ---      ---       #1702
      0081B402H   LINE      ---      ---       #1703
      0081B402H   BLOCK     CODE/B1  NEAR LAB  LVL=1
      0081B402H   LINE      ---      ---       #1704
      0081B406H   LINE      ---      ---       #1706
      0081B40BH   LINE      ---      ---       #1707
      0081B40BH   LINE      ---      ---       #1708
      0081B410H   LINE      ---      ---       #1709
      0081B413H   LINE      ---      ---       #1710
      0081B417H   LINE      ---      ---       #1711
      0081B417H   LINE      ---      ---       #1712
      0081B41AH   LINE      ---      ---       #1713
      0081B41AH   LINE      ---      ---       #1714
      0081B41AH   LINE      ---      ---       #1716
      0081B41CH   LINE      ---      ---       #1717
      00000006H   SYMBOL    DATA     WORD      V_usCnti
      ---         BLOCKEND  CODE/B1  ---       LVL=1
      ---         BLOCKEND  CODE/B1  ---       LVL=0

      0081A564H   BLOCK     CODE/B1  ---       LVL=0
      0081A56AH   LINE      ---      ---       #1725
      0081A56AH   LINE      ---      ---       #1726
      0081A56AH   LINE      ---      ---       #1727
      0081A56DH   LINE      ---      ---       #1728
      0081A58AH   LINE      ---      ---       #1729
      0081A58AH   LINE      ---      ---       #1730
      0081A59BH   LINE      ---      ---       #1731
      0081A59BH   LINE      ---      ---       #1732
      0081A5A4H   LINE      ---      ---       #1733
      0081A5A7H   LINE      ---      ---       #1734
LX51 LINKER/LOCATER V4.66.41.0                                                        11/18/2021  18:51:21  PAGE 124


      0081A5ABH   LINE      ---      ---       #1735
      0081A5ABH   LINE      ---      ---       #1736
      0081A5ABH   LINE      ---      ---       #1737
      0081A5B6H   LINE      ---      ---       #1738
      0081A5B6H   LINE      ---      ---       #1739
      0081A5BAH   LINE      ---      ---       #1740
      0081A5BCH   LINE      ---      ---       #1742
      0081A5BCH   LINE      ---      ---       #1743
      0081A5C0H   LINE      ---      ---       #1744
      0081A5C0H   LINE      ---      ---       #1746
      0081A5C7H   LINE      ---      ---       #1747
      0081A5C7H   LINE      ---      ---       #1748
      0081A5CBH   LINE      ---      ---       #1749
      0081A5CCH   LINE      ---      ---       #1751
      0081A5CCH   LINE      ---      ---       #1752
      0081A5D0H   LINE      ---      ---       #1753
      0081A5D0H   LINE      ---      ---       #1755
      ---         BLOCKEND  ---      ---       LVL=0

      0081A4F6H   BLOCK     CODE/B1  ---       LVL=0
      0081A4F6H   LINE      ---      ---       #1767
      0081A4F6H   LINE      ---      ---       #1768
      0081A4F6H   LINE      ---      ---       #1769
      ---         BLOCKEND  ---      ---       LVL=0

      0081A4F9H   BLOCK     CODE/B1  ---       LVL=0
      0081A4F9H   LINE      ---      ---       #1782
      0081A4F9H   LINE      ---      ---       #1783
      0081A4F9H   LINE      ---      ---       #1784
      0081A4FEH   LINE      ---      ---       #1786
      0081A504H   LINE      ---      ---       #1788
      0081A50CH   LINE      ---      ---       #1789
      0081A50CH   LINE      ---      ---       #1790
      0081A50FH   LINE      ---      ---       #1792
      0081A515H   LINE      ---      ---       #1793
      0081A515H   LINE      ---      ---       #1794
      ---         BLOCKEND  ---      ---       LVL=0

      0081A44BH   BLOCK     CODE/B1  ---       LVL=0
      0081A44BH   LINE      ---      ---       #1802
      0081A44BH   LINE      ---      ---       #1803
      0081A44BH   LINE      ---      ---       #1806
      0081A45AH   LINE      ---      ---       #1807
      0081A45AH   LINE      ---      ---       #1808
      0081A46BH   LINE      ---      ---       #1809
      0081A46BH   LINE      ---      ---       #1810
      0081A47FH   LINE      ---      ---       #1811
      0081A47FH   LINE      ---      ---       #1812
      0081A47FH   LINE      ---      ---       #1813
      0081A48EH   LINE      ---      ---       #1814
      0081A48EH   LINE      ---      ---       #1815
      0081A49FH   LINE      ---      ---       #1816
      0081A49FH   LINE      ---      ---       #1817
      0081A4B3H   LINE      ---      ---       #1818
      0081A4B3H   LINE      ---      ---       #1819
      0081A4B3H   LINE      ---      ---       #1820
      0081A4D0H   LINE      ---      ---       #1821
      0081A4D0H   LINE      ---      ---       #1822
      0081A4E1H   LINE      ---      ---       #1823
      0081A4E1H   LINE      ---      ---       #1824
      0081A4F5H   LINE      ---      ---       #1825
      0081A4F5H   LINE      ---      ---       #1826
      0081A4F5H   LINE      ---      ---       #1828
      ---         BLOCKEND  ---      ---       LVL=0

LX51 LINKER/LOCATER V4.66.41.0                                                        11/18/2021  18:51:21  PAGE 125


      0081B4CDH   BLOCK     CODE/B1  ---       LVL=0
      0081B4CDH   LINE      ---      ---       #1837
      0081B4CDH   LINE      ---      ---       #1838
      0081B4CDH   BLOCK     CODE/B1  NEAR LAB  LVL=1
      0081B4CDH   LINE      ---      ---       #1846
      0081B4EEH   LINE      ---      ---       #1850
      0081B4EEH   LINE      ---      ---       #1852
      0081B50DH   LINE      ---      ---       #1856
      0081B50DH   LINE      ---      ---       #1857
      0081B527H   LINE      ---      ---       #1858
      0081B542H   LINE      ---      ---       #1859
      0081B548H   LINE      ---      ---       #1860
      0081B54AH   LINE      ---      ---       #1862
      0081B54AH   LINE      ---      ---       #1863
      0081B54FH   LINE      ---      ---       #1864
      0081B54FH   LINE      ---      ---       #1865
      0081B560H   LINE      ---      ---       #1866
      0081B560H   LINE      ---      ---       #1867
      0081B588H   LINE      ---      ---       #1871
      0081B588H   LINE      ---      ---       #1872
      0081B5B1H   LINE      ---      ---       #1873
      0081B5DAH   LINE      ---      ---       #1874
      0081B5E0H   LINE      ---      ---       #1875
      0081B5E0H   LINE      ---      ---       #1876
      0081B5E8H   LINE      ---      ---       #1877
      0081B5EFH   LINE      ---      ---       #1878
      0081B5EFH   LINE      ---      ---       #1879
      0081B60AH   LINE      ---      ---       #1880
      0081B622H   LINE      ---      ---       #1881
      0081B624H   LINE      ---      ---       #1882
      0081B630H   LINE      ---      ---       #1883
      0081B630H   LINE      ---      ---       #1884
      0081B656H   LINE      ---      ---       #1885
      0081B671H   LINE      ---      ---       #1886
      0081B67FH   LINE      ---      ---       #1887
      0081B67FH   LINE      ---      ---       #1888
      0081B67FH   LINE      ---      ---       #1889
      0081B681H   LINE      ---      ---       #1891
      0081B681H   LINE      ---      ---       #1892
      0081B6AAH   LINE      ---      ---       #1893
      0081B6C5H   LINE      ---      ---       #1894
      0081B6C5H   LINE      ---      ---       #1895
      0081B6C7H   LINE      ---      ---       #1897
      0081B6C7H   LINE      ---      ---       #1898
      0081B6DBH   LINE      ---      ---       #1899
      0081B6EFH   LINE      ---      ---       #1900
      0081B6EFH   LINE      ---      ---       #1901
      0081B700H   LINE      ---      ---       #1902
      0081B70EH   LINE      ---      ---       #1903
      0081B70EH   LINE      ---      ---       #1905
      0081B70EH   LINE      ---      ---       #1906
      0200060AH   SYMBOL    XDATA    ---       V_ucTempData
      02000618H   SYMBOL    XDATA    BYTE      i
      02000619H   SYMBOL    XDATA    WORD      V_usCRC16
      0200061BH   SYMBOL    XDATA    BYTE      V_offset
      0200061CH   SYMBOL    XDATA    ---       V_ucRemainMoneyData
      0200063AH   SYMBOL    XDATA    ---       V_ucTickMoneyData
      02000658H   SYMBOL    XDATA    ---       V_ucResultData
      ---         BLOCKEND  CODE/B1  ---       LVL=1
      ---         BLOCKEND  CODE/B1  ---       LVL=0

      ---         MODULE    ---      ---       APPPOWEROFF
      00818F77H   PUBLIC    CODE/B1  ---       ApiPwOff_McuGpioInit
      0081B41DH   PUBLIC    CODE/B1  ---       ApiPwOff_PowerOffTask
      000000F3H   SFRSYM    DATA     BYTE      IB_CON2
LX51 LINKER/LOCATER V4.66.41.0                                                        11/18/2021  18:51:21  PAGE 126


      000000D8H.3 SFRSYM    DATA     BIT       TB81
      00000080H   SFRSYM    DATA     BYTE      P0
      000000F4H   SFRSYM    DATA     BYTE      IB_CON3
      000000A4H   SFRSYM    DATA     BYTE      TKCON
      00000090H   SFRSYM    DATA     BYTE      P1
      000000F5H   SFRSYM    DATA     BYTE      IB_CON4
      000000E7H   SFRSYM    DATA     BYTE      PASLO
      000000A0H   SFRSYM    DATA     BYTE      P2
      000000FEH   SFRSYM    DATA     BYTE      OSCLO
      000000F6H   SFRSYM    DATA     BYTE      IB_CON5
      00000098H.6 SFRSYM    DATA     BIT       SM1_RXOV
      000000B0H   SFRSYM    DATA     BYTE      P3
      000000D0H.6 SFRSYM    DATA     BIT       AC
      000000C0H   SFRSYM    DATA     BYTE      P4
      000000A1H   SFRSYM    DATA     BYTE      SPCON
      0000009CH   SFRSYM    DATA     BYTE      SBRTH
      000000E9H   SFRSYM    DATA     BYTE      P5
      000000A8H.7 SFRSYM    DATA     BIT       EA
      000000EAH   SFRSYM    DATA     BYTE      P6
      000000EBH   SFRSYM    DATA     BYTE      P7
      000000EFH   SFRSYM    DATA     BYTE      IB_DATA
      000000ECH   SFRSYM    DATA     BYTE      P8
      0000009DH   SFRSYM    DATA     BYTE      SBRTL
      000000EDH   SFRSYM    DATA     BYTE      P9
      000000B7H   SFRSYM    DATA     BYTE      PBANKLO
      000000A2H   SFRSYM    DATA     BYTE      SPSTA
      000000A8H   SFRSYM    DATA     BYTE      IEN0
      000000B3H   SFRSYM    DATA     BYTE      PWRCON1
      00000095H   SFRSYM    DATA     BYTE      EMUSR
      000000A9H   SFRSYM    DATA     BYTE      IEN1
      000000B4H   SFRSYM    DATA     BYTE      PWRCON2
      00000085H   SFRSYM    DATA     BYTE      DPH1
      00000080H   SFRSYM    DATA     BIT       P0_0
      00000090H   SFRSYM    DATA     BIT       P1_0
      00000080H.1 SFRSYM    DATA     BIT       P0_1
      000000C3H   SFRSYM    DATA     BYTE      ADCH
      000000A0H   SFRSYM    DATA     BIT       P2_0
      00000090H.1 SFRSYM    DATA     BIT       P1_1
      00000080H.2 SFRSYM    DATA     BIT       P0_2
      000000BAH   SFRSYM    DATA     BYTE      IPH0
      00000084H   SFRSYM    DATA     BYTE      DPL1
      000000B0H   SFRSYM    DATA     BIT       P3_0
      000000A0H.1 SFRSYM    DATA     BIT       P2_1
      00000090H.2 SFRSYM    DATA     BIT       P1_2
      00000080H.3 SFRSYM    DATA     BIT       P0_3
      000000BBH   SFRSYM    DATA     BYTE      IPH1
      000000C0H   SFRSYM    DATA     BIT       P4_0
      000000B0H.1 SFRSYM    DATA     BIT       P3_1
      000000A0H.2 SFRSYM    DATA     BIT       P2_2
      00000090H.3 SFRSYM    DATA     BIT       P1_3
      00000080H.4 SFRSYM    DATA     BIT       P0_4
      000000E8H   SFRSYM    DATA     BYTE      EXF0
      000000C0H.1 SFRSYM    DATA     BIT       P4_1
      000000B0H.2 SFRSYM    DATA     BIT       P3_2
      000000A0H.3 SFRSYM    DATA     BIT       P2_3
      00000090H.4 SFRSYM    DATA     BIT       P1_4
      00000080H.5 SFRSYM    DATA     BIT       P0_5
      000000C0H.2 SFRSYM    DATA     BIT       P4_2
      000000B0H.3 SFRSYM    DATA     BIT       P3_3
      000000A0H.4 SFRSYM    DATA     BIT       P2_4
      00000090H.5 SFRSYM    DATA     BIT       P1_5
      00000080H.6 SFRSYM    DATA     BIT       P0_6
      000000C8H.6 SFRSYM    DATA     BIT       EXF2
      000000A6H   SFRSYM    DATA     BYTE      TKF0
      000000B8H   SFRSYM    DATA     BYTE      IPL0
LX51 LINKER/LOCATER V4.66.41.0                                                        11/18/2021  18:51:21  PAGE 127


      000000C0H.3 SFRSYM    DATA     BIT       P4_3
      000000B0H.4 SFRSYM    DATA     BIT       P3_4
      000000A0H.5 SFRSYM    DATA     BIT       P2_5
      00000090H.6 SFRSYM    DATA     BIT       P1_6
      00000080H.7 SFRSYM    DATA     BIT       P0_7
      000000D8H.4 SFRSYM    DATA     BIT       REN1
      000000B9H   SFRSYM    DATA     BYTE      IPL1
      000000C0H.4 SFRSYM    DATA     BIT       P4_4
      000000B0H.5 SFRSYM    DATA     BIT       P3_5
      000000A0H.6 SFRSYM    DATA     BIT       P2_6
      00000090H.7 SFRSYM    DATA     BIT       P1_7
      000000E2H   SFRSYM    DATA     BYTE      TK0H
      0000008EH   SFRSYM    DATA     BYTE      SUSLO
      000000C0H.5 SFRSYM    DATA     BIT       P4_5
      000000B0H.6 SFRSYM    DATA     BIT       P3_6
      000000A0H.7 SFRSYM    DATA     BIT       P2_7
      000000E4H   SFRSYM    DATA     BYTE      TK1H
      000000C0H.6 SFRSYM    DATA     BIT       P4_6
      000000B0H.7 SFRSYM    DATA     BIT       P3_7
      000000E6H   SFRSYM    DATA     BYTE      TK2H
      000000C0H.7 SFRSYM    DATA     BIT       P4_7
      00000098H   SFRSYM    DATA     BIT       RI
      000000A8H.2 SFRSYM    DATA     BIT       E7816
      000000D0H.7 SFRSYM    DATA     BIT       CY
      000000E1H   SFRSYM    DATA     BYTE      TK0L
      00000098H.1 SFRSYM    DATA     BIT       TI
      00000091H   SFRSYM    DATA     BYTE      EADR
      000000E3H   SFRSYM    DATA     BYTE      TK1L
      000000E5H   SFRSYM    DATA     BYTE      TK2L
      000000DBH   SFRSYM    DATA     BYTE      SADEN1
      000000D8H.7 SFRSYM    DATA     BIT       SM10_FE1
      000000FBH   SFRSYM    DATA     BYTE      SADEN2
      000000B8H.4 SFRSYM    DATA     BIT       PS0L
      000000B8H.1 SFRSYM    DATA     BIT       PT0L
      000000DAH   SFRSYM    DATA     BYTE      SADDR1
      000000D8H.5 SFRSYM    DATA     BIT       SM12_TXCOL1
      000000B8H.3 SFRSYM    DATA     BIT       PT1L
      000000FAH   SFRSYM    DATA     BYTE      SADDR2
      000000CBH   SFRSYM    DATA     BYTE      RCAP2H
      000000B8H.5 SFRSYM    DATA     BIT       PT2L
      00000081H   SFRSYM    DATA     BYTE      SP
      000000D0H.2 SFRSYM    DATA     BIT       OV
      000000CAH   SFRSYM    DATA     BYTE      RCAP2L
      000000B8H   SFRSYM    DATA     BIT       PX4L
      000000C8H.1 SFRSYM    DATA     BIT       C_T2
      000000DEH   SFRSYM    DATA     BYTE      SFINE2
      000000ADH   SFRSYM    DATA     BYTE      IRCON1
      000000AFH   SFRSYM    DATA     BYTE      IRCON2
      000000ABH   SFRSYM    DATA     BYTE      EXCON1
      00000099H   SFRSYM    DATA     BYTE      SBUF
      000000ACH   SFRSYM    DATA     BYTE      EXCON2
      00000087H   SFRSYM    DATA     BYTE      PCON
      000000F1H   SFRSYM    DATA     BYTE      AUXC
      00000098H   SFRSYM    DATA     BYTE      SCON
      000000D4H   SFRSYM    DATA     BYTE      TK0BASEH
      00000089H   SFRSYM    DATA     BYTE      TMOD
      00000088H   SFRSYM    DATA     BYTE      TCON
      000000AAH   SFRSYM    DATA     BYTE      IENX
      000000EEH   SFRSYM    DATA     BYTE      IB_OFFSET
      000000D6H   SFRSYM    DATA     BYTE      TK1BASEH
      000000DCH   SFRSYM    DATA     BYTE      SBRT1H
      000000DFH   SFRSYM    DATA     BYTE      TK2BASEH
      000000FCH   SFRSYM    DATA     BYTE      SBRT2H
      000000B1H   SFRSYM    DATA     BYTE      RSTSTAT
      000000D3H   SFRSYM    DATA     BYTE      TK0BASEL
LX51 LINKER/LOCATER V4.66.41.0                                                        11/18/2021  18:51:21  PAGE 128


      000000D5H   SFRSYM    DATA     BYTE      TK1BASEL
      000000DDH   SFRSYM    DATA     BYTE      SBRT1L
      000000D7H   SFRSYM    DATA     BYTE      TK2BASEL
      000000FDH   SFRSYM    DATA     BYTE      SBRT2L
      00000098H.7 SFRSYM    DATA     BIT       SM0_FE
      000000B2H   SFRSYM    DATA     BYTE      CLKCON
      00000098H.5 SFRSYM    DATA     BIT       SM2_TXCOL
      000000B5H   SFRSYM    DATA     BYTE      LDOCON
      000000F0H   SFRSYM    DATA     BYTE      B
      000000C8H   SFRSYM    DATA     BIT       CP_RL2
      000000E0H   SFRSYM    DATA     BYTE      ACC
      000000A8H.4 SFRSYM    DATA     BIT       ES0
      000000A8H.1 SFRSYM    DATA     BIT       ET0
      000000A8H.3 SFRSYM    DATA     BIT       ET1
      00000088H.5 SFRSYM    DATA     BIT       TF0
      000000A8H.5 SFRSYM    DATA     BIT       ET2
      00000088H.7 SFRSYM    DATA     BIT       TF1
      000000D8H   SFRSYM    DATA     BIT       RI1
      00000098H.2 SFRSYM    DATA     BIT       RB8
      000000C8H.7 SFRSYM    DATA     BIT       TF2
      0000008CH   SFRSYM    DATA     BYTE      TH0
      00000086H   SFRSYM    DATA     BYTE      INSCON
      0000008DH   SFRSYM    DATA     BYTE      TH1
      000000D8H.1 SFRSYM    DATA     BIT       TI1
      00000098H.3 SFRSYM    DATA     BIT       TB8
      000000CDH   SFRSYM    DATA     BYTE      TH2
      000000D0H   SFRSYM    DATA     BIT       P
      0000008AH   SFRSYM    DATA     BYTE      TL0
      000000A8H   SFRSYM    DATA     BIT       EX4
      0000008BH   SFRSYM    DATA     BYTE      TL1
      000000A7H   SFRSYM    DATA     BYTE      FLASHCON
      000000CCH   SFRSYM    DATA     BYTE      TL2
      000000D0H.3 SFRSYM    DATA     BIT       RS0
      000000C5H   SFRSYM    DATA     BYTE      ADCDH
      00000088H.4 SFRSYM    DATA     BIT       TR0
      000000D0H.4 SFRSYM    DATA     BIT       RS1
      0000009FH   SFRSYM    DATA     BYTE      PWMCON
      00000088H.6 SFRSYM    DATA     BIT       TR1
      000000C8H.2 SFRSYM    DATA     BIT       TR2
      000000C4H   SFRSYM    DATA     BYTE      ADCDL
      000000C2H   SFRSYM    DATA     BYTE      ADT
      00000083H   SFRSYM    DATA     BYTE      DPH
      00000082H   SFRSYM    DATA     BYTE      DPL
      000000D9H   SFRSYM    DATA     BYTE      SBUF1
      000000C8H.3 SFRSYM    DATA     BIT       EXEN2
      000000F9H   SFRSYM    DATA     BYTE      SBUF2
      000000D8H.6 SFRSYM    DATA     BIT       SM11_RXOV1
      000000B8H.6 SFRSYM    DATA     BIT       PADCL
      00000098H.4 SFRSYM    DATA     BIT       REN
      000000D8H   SFRSYM    DATA     BYTE      SCON1
      000000D1H   SFRSYM    DATA     BYTE      LCDCON1
      000000C1H   SFRSYM    DATA     BYTE      ADCON
      000000F8H   SFRSYM    DATA     BYTE      SCON2
      0000008FH   SFRSYM    DATA     BYTE      TCON1
      000000D2H   SFRSYM    DATA     BYTE      LCDCON2
      00000092H   SFRSYM    DATA     BYTE      EDTAH
      000000C9H   SFRSYM    DATA     BYTE      T2MOD
      000000C8H   SFRSYM    DATA     BYTE      T2CON
      00000094H   SFRSYM    DATA     BYTE      EDTAL
      00000093H   SFRSYM    DATA     BYTE      EDTAM
      000000BCH   SFRSYM    DATA     BYTE      TK0DIFH
      0000009BH   SFRSYM    DATA     BYTE      SADEN
      000000BEH   SFRSYM    DATA     BYTE      TK1DIFH
      000000B6H   SFRSYM    DATA     BYTE      PBANK
      000000A5H   SFRSYM    DATA     BYTE      TK2DIFH
LX51 LINKER/LOCATER V4.66.41.0                                                        11/18/2021  18:51:21  PAGE 129


      000000A8H.6 SFRSYM    DATA     BIT       EADTP
      0000009AH   SFRSYM    DATA     BYTE      SADDR
      000000CFH   SFRSYM    DATA     BYTE      TK0DIFL
      000000BDH   SFRSYM    DATA     BYTE      TK1DIFL
      000000BFH   SFRSYM    DATA     BYTE      TK2DIFL
      000000B8H.2 SFRSYM    DATA     BIT       P7816L
      000000C6H   SFRSYM    DATA     BYTE      LPDCON1
      000000C7H   SFRSYM    DATA     BYTE      LPDCON2
      000000D0H.5 SFRSYM    DATA     BIT       F0
      000000AEH   SFRSYM    DATA     BYTE      IRDAT
      000000D0H.1 SFRSYM    DATA     BIT       F1
      00000096H   SFRSYM    DATA     BYTE      EMUIE
      0000009EH   SFRSYM    DATA     BYTE      SFINE
      000000F7H   SFRSYM    DATA     BYTE      XPAGE
      00000097H   SFRSYM    DATA     BYTE      EMUIF
      000000D0H   SFRSYM    DATA     BYTE      PSW
      000000D8H.2 SFRSYM    DATA     BIT       RB81
      000000A3H   SFRSYM    DATA     BYTE      SPDAT
      000000F2H   SFRSYM    DATA     BYTE      IB_CON1
      0081B729H   SYMBOL    CODE/B1  ---       ApiPwOff_McuLPDInit
      00818F76H   SYMBOL    CODE/B1  ---       ApiPwOff_McuEnterSleep
      00818F77H   SYMBOL    CODE/B1  ---       ApiPwOff_PeripheralInit
      00818F52H   SYMBOL    CODE/B1  ---       ApiPwOff_EmuInit
      00818F56H   SYMBOL    CODE/B1  ---       ApiPwOff_CloseDevices
      0081B75AH   SYMBOL    CODE/B1  ---       ApiPwOff_McuTimerInit
      00818F77H   SYMBOL    CODE/B1  ---       ApiPwOff_McuGpioInit
      00818F61H   SYMBOL    CODE/B1  ---       ApiPwOff_McuDispInit
      0081B74DH   SYMBOL    CODE/B1  ---       ApiPwOff_Display
      0081B769H   SYMBOL    CODE/B1  ---       ApiPwOff_McuUartInit
      0081B74CH   SYMBOL    CODE/B1  ---       ApiPwOff_DataProcess
      0081B74EH   SYMBOL    CODE/B1  ---       ApiPwOff_SysClkInit
      0081B74FH   SYMBOL    CODE/B1  ---       ApiPwOff_BLEPOWERInit
      00818F66H   SYMBOL    CODE/B1  ---       ApiPwOff_EnterSleep
      0081B47FH   SYMBOL    CODE/B1  ---       ApiPwOff_DataSave

      0081B41DH   BLOCK     CODE/B1  ---       LVL=0
      0081B41DH   LINE      ---      ---       #98
      0081B41DH   LINE      ---      ---       #99
      0081B41DH   BLOCK     CODE/B1  NEAR LAB  LVL=1
      0081B41DH   LINE      ---      ---       #102
      0081B424H   LINE      ---      ---       #103
      0081B424H   LINE      ---      ---       #105
      0081B427H   LINE      ---      ---       #108
      0081B42EH   LINE      ---      ---       #109
      0081B42EH   LINE      ---      ---       #110
      0081B430H   LINE      ---      ---       #111
      0081B437H   LINE      ---      ---       #112
      0081B437H   LINE      ---      ---       #115
      0081B43CH   LINE      ---      ---       #116
      0081B43CH   LINE      ---      ---       #117
      0081B443H   LINE      ---      ---       #118
      0081B448H   LINE      ---      ---       #119
      0081B448H   LINE      ---      ---       #120
      0081B44FH   LINE      ---      ---       #121
      0081B452H   LINE      ---      ---       #122
      0081B452H   LINE      ---      ---       #123
      0081B455H   LINE      ---      ---       #124
      0081B461H   LINE      ---      ---       #127
      0081B468H   LINE      ---      ---       #128
      0081B468H   LINE      ---      ---       #129
      0081B46CH   LINE      ---      ---       #130
      0081B470H   LINE      ---      ---       #131
      0081B470H   LINE      ---      ---       #134
      0081B473H   LINE      ---      ---       #136
      0081B473H   LINE      ---      ---       #139
LX51 LINKER/LOCATER V4.66.41.0                                                        11/18/2021  18:51:21  PAGE 130


      0081B47AH   LINE      ---      ---       #140
      0081B47AH   LINE      ---      ---       #141
      0081B47EH   LINE      ---      ---       #142
      0081B47EH   LINE      ---      ---       #143
      02000609H   SYMBOL    XDATA    BYTE      V_ucCnti
      ---         BLOCKEND  CODE/B1  ---       LVL=1
      ---         BLOCKEND  CODE/B1  ---       LVL=0

      00818F56H   BLOCK     CODE/B1  ---       LVL=0
      00818F56H   LINE      ---      ---       #156
      00818F56H   LINE      ---      ---       #157
      00818F56H   LINE      ---      ---       #159
      00818F59H   LINE      ---      ---       #162
      00818F5CH   LINE      ---      ---       #165
      00818F5FH   LINE      ---      ---       #168
      ---         BLOCKEND  ---      ---       LVL=0

      0081B729H   BLOCK     CODE/B1  ---       LVL=0
      0081B729H   LINE      ---      ---       #187
      0081B729H   LINE      ---      ---       #188
      0081B729H   LINE      ---      ---       #189
      0081B72CH   LINE      ---      ---       #190
      0081B72FH   LINE      ---      ---       #192
      0081B732H   LINE      ---      ---       #193
      0081B734H   LINE      ---      ---       #195
      0081B737H   LINE      ---      ---       #197
      0081B73AH   LINE      ---      ---       #202
      0081B73DH   LINE      ---      ---       #204
      0081B740H   LINE      ---      ---       #209
      0081B743H   LINE      ---      ---       #210
      0081B745H   LINE      ---      ---       #212
      0081B748H   LINE      ---      ---       #214
      0081B74BH   LINE      ---      ---       #218
      ---         BLOCKEND  ---      ---       LVL=0

      0081B47FH   BLOCK     CODE/B1  ---       LVL=0
      0081B47FH   LINE      ---      ---       #231
      0081B47FH   LINE      ---      ---       #232
      0081B47FH   BLOCK     CODE/B1  NEAR LAB  LVL=1
      0081B47FH   LINE      ---      ---       #236
      0081B490H   LINE      ---      ---       #237
      0081B4A3H   LINE      ---      ---       #240
      0081B4ABH   LINE      ---      ---       #241
      0081B4AEH   LINE      ---      ---       #242
      0081B4B6H   LINE      ---      ---       #243
      0081B4BFH   LINE      ---      ---       #244
      0200060AH   SYMBOL    XDATA    ---       V_ucTempBuff
      ---         BLOCKEND  CODE/B1  ---       LVL=1
      ---         BLOCKEND  CODE/B1  ---       LVL=0

      00818F66H   BLOCK     CODE/B1  ---       LVL=0
      00818F66H   LINE      ---      ---       #262
      00818F66H   LINE      ---      ---       #263
      00818F66H   LINE      ---      ---       #265
      00818F68H   LINE      ---      ---       #268
      00818F6AH   LINE      ---      ---       #271
      00818F6DH   LINE      ---      ---       #274
      00818F70H   LINE      ---      ---       #277
      00818F73H   LINE      ---      ---       #280
      ---         BLOCKEND  ---      ---       LVL=0

      00818F77H   BLOCK     CODE/B1  ---       LVL=0
      ---         BLOCKEND  ---      ---       LVL=0

      0081B74CH   BLOCK     CODE/B1  ---       LVL=0
LX51 LINKER/LOCATER V4.66.41.0                                                        11/18/2021  18:51:21  PAGE 131


      0081B74CH   LINE      ---      ---       #316
      0081B74CH   LINE      ---      ---       #317
      0081B74CH   LINE      ---      ---       #319
      ---         BLOCKEND  ---      ---       LVL=0

      0081B74DH   BLOCK     CODE/B1  ---       LVL=0
      0081B74DH   LINE      ---      ---       #333
      0081B74DH   LINE      ---      ---       #334
      0081B74DH   LINE      ---      ---       #336
      ---         BLOCKEND  ---      ---       LVL=0

      0081B74EH   BLOCK     CODE/B1  ---       LVL=0
      0081B74EH   LINE      ---      ---       #349
      0081B74EH   LINE      ---      ---       #350
      0081B74EH   LINE      ---      ---       #352
      ---         BLOCKEND  ---      ---       LVL=0

      0081B74FH   BLOCK     CODE/B1  ---       LVL=0
      0081B74FH   LINE      ---      ---       #364
      0081B74FH   LINE      ---      ---       #365
      0081B74FH   LINE      ---      ---       #366
      0081B759H   LINE      ---      ---       #367
      ---         BLOCKEND  ---      ---       LVL=0

      0081B75AH   BLOCK     CODE/B1  ---       LVL=0
      0081B75AH   LINE      ---      ---       #379
      0081B75AH   LINE      ---      ---       #380
      0081B75AH   LINE      ---      ---       #381
      0081B75DH   LINE      ---      ---       #382
      0081B760H   LINE      ---      ---       #383
      0081B768H   LINE      ---      ---       #384
      ---         BLOCKEND  ---      ---       LVL=0

      00818F77H   BLOCK     CODE/B1  ---       LVL=0
      00818F77H   LINE      ---      ---       #397
      00818F77H   LINE      ---      ---       #398
      00818F77H   LINE      ---      ---       #401
      00818F7EH   LINE      ---      ---       #402
      00818F82H   LINE      ---      ---       #403
      00818F86H   LINE      ---      ---       #404
      00818F8AH   LINE      ---      ---       #406
      00818F91H   LINE      ---      ---       #407
      00818F95H   LINE      ---      ---       #408
      00818F99H   LINE      ---      ---       #409
      00818F9DH   LINE      ---      ---       #411
      00818FA0H   LINE      ---      ---       #412
      00818FA3H   LINE      ---      ---       #413
      00818FA6H   LINE      ---      ---       #414
      00818FA9H   LINE      ---      ---       #416
      00818FB0H   LINE      ---      ---       #417
      00818FB4H   LINE      ---      ---       #418
      00818FB8H   LINE      ---      ---       #419
      00818FBCH   LINE      ---      ---       #421
      00818FC3H   LINE      ---      ---       #422
      00818FC7H   LINE      ---      ---       #423
      00818FCBH   LINE      ---      ---       #424
      00818FCFH   LINE      ---      ---       #426
      00818FD6H   LINE      ---      ---       #427
      00818FDAH   LINE      ---      ---       #428
      00818FDEH   LINE      ---      ---       #429
      00818FE2H   LINE      ---      ---       #431
      00818FE9H   LINE      ---      ---       #432
      00818FEDH   LINE      ---      ---       #433
      00818FF1H   LINE      ---      ---       #434
      00818FF5H   LINE      ---      ---       #441
LX51 LINKER/LOCATER V4.66.41.0                                                        11/18/2021  18:51:21  PAGE 132


      00818FFCH   LINE      ---      ---       #445
      00819003H   LINE      ---      ---       #449
      00819006H   LINE      ---      ---       #481
      0081900DH   LINE      ---      ---       #482
      00819011H   LINE      ---      ---       #483
      00819015H   LINE      ---      ---       #484
      00819019H   LINE      ---      ---       #485
      0081901DH   LINE      ---      ---       #487
      00819024H   LINE      ---      ---       #488
      00819028H   LINE      ---      ---       #489
      0081902CH   LINE      ---      ---       #490
      00819030H   LINE      ---      ---       #491
      00819034H   LINE      ---      ---       #493
      00819037H   LINE      ---      ---       #494
      0081903AH   LINE      ---      ---       #495
      0081903DH   LINE      ---      ---       #496
      00819040H   LINE      ---      ---       #497
      00819043H   LINE      ---      ---       #499
      0081904AH   LINE      ---      ---       #500
      0081904EH   LINE      ---      ---       #501
      00819052H   LINE      ---      ---       #502
      00819056H   LINE      ---      ---       #503
      0081905AH   LINE      ---      ---       #506
      00819061H   LINE      ---      ---       #507
      00819065H   LINE      ---      ---       #508
      00819069H   LINE      ---      ---       #509
      0081906DH   LINE      ---      ---       #511
      00819074H   LINE      ---      ---       #512
      00819078H   LINE      ---      ---       #513
      0081907CH   LINE      ---      ---       #514
      00819080H   LINE      ---      ---       #516
      00819083H   LINE      ---      ---       #517
      00819086H   LINE      ---      ---       #518
      00819089H   LINE      ---      ---       #519
      0081908CH   LINE      ---      ---       #522
      00819093H   LINE      ---      ---       #523
      00819097H   LINE      ---      ---       #524
      0081909BH   LINE      ---      ---       #525
      0081909FH   LINE      ---      ---       #526
      008190A3H   LINE      ---      ---       #527
      008190A7H   LINE      ---      ---       #528
      008190ABH   LINE      ---      ---       #529
      008190AFH   LINE      ---      ---       #531
      008190B6H   LINE      ---      ---       #532
      008190BAH   LINE      ---      ---       #533
      008190BEH   LINE      ---      ---       #534
      008190C2H   LINE      ---      ---       #535
      008190C6H   LINE      ---      ---       #536
      008190CAH   LINE      ---      ---       #537
      008190CEH   LINE      ---      ---       #538
      008190D2H   LINE      ---      ---       #540
      008190D5H   LINE      ---      ---       #541
      008190D8H   LINE      ---      ---       #542
      008190DBH   LINE      ---      ---       #543
      008190DEH   LINE      ---      ---       #544
      008190E1H   LINE      ---      ---       #545
      008190E4H   LINE      ---      ---       #546
      008190E7H   LINE      ---      ---       #547
      008190EAH   LINE      ---      ---       #575
      008190F1H   LINE      ---      ---       #576
      008190F5H   LINE      ---      ---       #577
      008190F9H   LINE      ---      ---       #579
      00819100H   LINE      ---      ---       #580
      00819104H   LINE      ---      ---       #581
      00819108H   LINE      ---      ---       #583
LX51 LINKER/LOCATER V4.66.41.0                                                        11/18/2021  18:51:21  PAGE 133


      0081910BH   LINE      ---      ---       #584
      0081910EH   LINE      ---      ---       #585
      00819111H   LINE      ---      ---       #598
      00819118H   LINE      ---      ---       #599
      0081911CH   LINE      ---      ---       #600
      00819120H   LINE      ---      ---       #601
      00819124H   LINE      ---      ---       #602
      00819128H   LINE      ---      ---       #603
      0081912CH   LINE      ---      ---       #605
      00819133H   LINE      ---      ---       #606
      00819137H   LINE      ---      ---       #607
      0081913BH   LINE      ---      ---       #608
      0081913FH   LINE      ---      ---       #609
      00819143H   LINE      ---      ---       #610
      00819147H   LINE      ---      ---       #612
      0081914AH   LINE      ---      ---       #613
      0081914DH   LINE      ---      ---       #614
      00819150H   LINE      ---      ---       #615
      00819153H   LINE      ---      ---       #616
      00819156H   LINE      ---      ---       #617
      00819159H   LINE      ---      ---       #619
      ---         BLOCKEND  ---      ---       LVL=0

      0081B769H   BLOCK     CODE/B1  ---       LVL=0
      0081B769H   LINE      ---      ---       #862
      0081B769H   LINE      ---      ---       #863
      0081B769H   LINE      ---      ---       #864
      0081B76CH   LINE      ---      ---       #865
      0081B76FH   LINE      ---      ---       #867
      0081B772H   LINE      ---      ---       #868
      0081B775H   LINE      ---      ---       #870
      ---         BLOCKEND  ---      ---       LVL=0

      00818F61H   BLOCK     CODE/B1  ---       LVL=0
      00818F61H   LINE      ---      ---       #883
      00818F61H   LINE      ---      ---       #884
      00818F61H   LINE      ---      ---       #885
      ---         BLOCKEND  ---      ---       LVL=0

      00818F52H   BLOCK     CODE/B1  ---       LVL=0
      00818F52H   LINE      ---      ---       #898
      00818F52H   LINE      ---      ---       #899
      00818F52H   LINE      ---      ---       #900
      ---         BLOCKEND  ---      ---       LVL=0

      00818F76H   BLOCK     CODE/B1  ---       LVL=0
      00818F76H   LINE      ---      ---       #914
      00818F76H   LINE      ---      ---       #915
      00818F76H   LINE      ---      ---       #917
      ---         BLOCKEND  ---      ---       LVL=0

      ---         MODULE    ---      ---       APPEMU7021A
      02000C7FH   PUBLIC    XDATA    ---       C_ucCurrentTab
      02000C69H   PUBLIC    XDATA    ---       Str_EmuCalPara
      02000C5BH   PUBLIC    XDATA    ---       Str_UIPKmsPara
      01001911H   PUBLIC    CONST    ---       C_usUIP_KMS_DEF_VAL_TAB
      0100190CH   PUBLIC    CONST    ---       C_ucUIPREG_TAB
      01001906H   PUBLIC    CONST    ---       EMU_COMM_EMUC_TAB
      010018F2H   PUBLIC    CONST    ---       EMU_CFG0_3_DEF_TAB
      010018D9H   PUBLIC    CONST    ---       EMU_CALPARA_DEF_TAB
      01001839H   PUBLIC    CONST    ---       EMU_EPADR_INIT_TAB
      00819E2EH   PUBLIC    CODE/B1  ---       ApiEMU_GetDirP
      0081B77CH   PUBLIC    CODE/B1  ---       _ApiEMU_CommErrCal
      0081B776H   PUBLIC    CODE/B1  ---       _ApiEMU_CommEndCal
      008189E9H   PUBLIC    CODE/B1  ---       _ApiEMU_CommStartCal
LX51 LINKER/LOCATER V4.66.41.0                                                        11/18/2021  18:51:21  PAGE 134


      02000644H   PUBLIC    XDATA    BYTE      ?_ApiEMU_WriteEmuReg?BYTE
      00818949H   PUBLIC    CODE/B1  ---       _ApiEMU_WriteEmuReg
      008197B8H   PUBLIC    CODE/B1  ---       _ApiEMU_ReadEmuReg
      008197F5H   PUBLIC    CODE/B1  ---       ApiEMU_UpdateUIP
      0081A053H   PUBLIC    CODE/B1  ---       ApiEMU_EMUParaCheck
      008187E1H   PUBLIC    CODE/B1  ---       ApiEMU_EMUInit
      00818F3DH   PUBLIC    CODE/B1  ---       _ApiEMU_DisOrEnable
      008197B8H   PUBLIC    CODE/B1  ---       _ApiEMU_Read_ECADR
      008188F1H   PUBLIC    CODE/B1  ---       _ApiEMU_Write_ECADR
      000000F3H   SFRSYM    DATA     BYTE      IB_CON2
      000000D8H.3 SFRSYM    DATA     BIT       TB81
      00000080H   SFRSYM    DATA     BYTE      P0
      000000F4H   SFRSYM    DATA     BYTE      IB_CON3
      000000A4H   SFRSYM    DATA     BYTE      TKCON
      00000090H   SFRSYM    DATA     BYTE      P1
      000000F5H   SFRSYM    DATA     BYTE      IB_CON4
      000000E7H   SFRSYM    DATA     BYTE      PASLO
      000000A0H   SFRSYM    DATA     BYTE      P2
      000000FEH   SFRSYM    DATA     BYTE      OSCLO
      000000F6H   SFRSYM    DATA     BYTE      IB_CON5
      00000098H.6 SFRSYM    DATA     BIT       SM1_RXOV
      000000B0H   SFRSYM    DATA     BYTE      P3
      000000D0H.6 SFRSYM    DATA     BIT       AC
      000000C0H   SFRSYM    DATA     BYTE      P4
      000000A1H   SFRSYM    DATA     BYTE      SPCON
      0000009CH   SFRSYM    DATA     BYTE      SBRTH
      000000E9H   SFRSYM    DATA     BYTE      P5
      000000A8H.7 SFRSYM    DATA     BIT       EA
      000000EAH   SFRSYM    DATA     BYTE      P6
      000000EBH   SFRSYM    DATA     BYTE      P7
      000000EFH   SFRSYM    DATA     BYTE      IB_DATA
      000000ECH   SFRSYM    DATA     BYTE      P8
      0000009DH   SFRSYM    DATA     BYTE      SBRTL
      000000EDH   SFRSYM    DATA     BYTE      P9
      000000B7H   SFRSYM    DATA     BYTE      PBANKLO
      000000A2H   SFRSYM    DATA     BYTE      SPSTA
      000000A8H   SFRSYM    DATA     BYTE      IEN0
      000000B3H   SFRSYM    DATA     BYTE      PWRCON1
      00000095H   SFRSYM    DATA     BYTE      EMUSR
      000000A9H   SFRSYM    DATA     BYTE      IEN1
      000000B4H   SFRSYM    DATA     BYTE      PWRCON2
      00000085H   SFRSYM    DATA     BYTE      DPH1
      00000080H   SFRSYM    DATA     BIT       P0_0
      00000090H   SFRSYM    DATA     BIT       P1_0
      00000080H.1 SFRSYM    DATA     BIT       P0_1
      000000C3H   SFRSYM    DATA     BYTE      ADCH
      000000A0H   SFRSYM    DATA     BIT       P2_0
      00000090H.1 SFRSYM    DATA     BIT       P1_1
      00000080H.2 SFRSYM    DATA     BIT       P0_2
      000000BAH   SFRSYM    DATA     BYTE      IPH0
      00000084H   SFRSYM    DATA     BYTE      DPL1
      000000B0H   SFRSYM    DATA     BIT       P3_0
      000000A0H.1 SFRSYM    DATA     BIT       P2_1
      00000090H.2 SFRSYM    DATA     BIT       P1_2
      00000080H.3 SFRSYM    DATA     BIT       P0_3
      000000BBH   SFRSYM    DATA     BYTE      IPH1
      000000C0H   SFRSYM    DATA     BIT       P4_0
      000000B0H.1 SFRSYM    DATA     BIT       P3_1
      000000A0H.2 SFRSYM    DATA     BIT       P2_2
      00000090H.3 SFRSYM    DATA     BIT       P1_3
      00000080H.4 SFRSYM    DATA     BIT       P0_4
      000000E8H   SFRSYM    DATA     BYTE      EXF0
      000000C0H.1 SFRSYM    DATA     BIT       P4_1
      000000B0H.2 SFRSYM    DATA     BIT       P3_2
      000000A0H.3 SFRSYM    DATA     BIT       P2_3
LX51 LINKER/LOCATER V4.66.41.0                                                        11/18/2021  18:51:21  PAGE 135


      00000090H.4 SFRSYM    DATA     BIT       P1_4
      00000080H.5 SFRSYM    DATA     BIT       P0_5
      000000C0H.2 SFRSYM    DATA     BIT       P4_2
      000000B0H.3 SFRSYM    DATA     BIT       P3_3
      000000A0H.4 SFRSYM    DATA     BIT       P2_4
      00000090H.5 SFRSYM    DATA     BIT       P1_5
      00000080H.6 SFRSYM    DATA     BIT       P0_6
      000000C8H.6 SFRSYM    DATA     BIT       EXF2
      000000A6H   SFRSYM    DATA     BYTE      TKF0
      000000B8H   SFRSYM    DATA     BYTE      IPL0
      000000C0H.3 SFRSYM    DATA     BIT       P4_3
      000000B0H.4 SFRSYM    DATA     BIT       P3_4
      000000A0H.5 SFRSYM    DATA     BIT       P2_5
      00000090H.6 SFRSYM    DATA     BIT       P1_6
      00000080H.7 SFRSYM    DATA     BIT       P0_7
      000000D8H.4 SFRSYM    DATA     BIT       REN1
      000000B9H   SFRSYM    DATA     BYTE      IPL1
      000000C0H.4 SFRSYM    DATA     BIT       P4_4
      000000B0H.5 SFRSYM    DATA     BIT       P3_5
      000000A0H.6 SFRSYM    DATA     BIT       P2_6
      00000090H.7 SFRSYM    DATA     BIT       P1_7
      000000E2H   SFRSYM    DATA     BYTE      TK0H
      0000008EH   SFRSYM    DATA     BYTE      SUSLO
      000000C0H.5 SFRSYM    DATA     BIT       P4_5
      000000B0H.6 SFRSYM    DATA     BIT       P3_6
      000000A0H.7 SFRSYM    DATA     BIT       P2_7
      000000E4H   SFRSYM    DATA     BYTE      TK1H
      000000C0H.6 SFRSYM    DATA     BIT       P4_6
      000000B0H.7 SFRSYM    DATA     BIT       P3_7
      000000E6H   SFRSYM    DATA     BYTE      TK2H
      000000C0H.7 SFRSYM    DATA     BIT       P4_7
      00000098H   SFRSYM    DATA     BIT       RI
      000000A8H.2 SFRSYM    DATA     BIT       E7816
      000000D0H.7 SFRSYM    DATA     BIT       CY
      000000E1H   SFRSYM    DATA     BYTE      TK0L
      00000098H.1 SFRSYM    DATA     BIT       TI
      00000091H   SFRSYM    DATA     BYTE      EADR
      000000E3H   SFRSYM    DATA     BYTE      TK1L
      000000E5H   SFRSYM    DATA     BYTE      TK2L
      000000DBH   SFRSYM    DATA     BYTE      SADEN1
      000000D8H.7 SFRSYM    DATA     BIT       SM10_FE1
      000000FBH   SFRSYM    DATA     BYTE      SADEN2
      000000B8H.4 SFRSYM    DATA     BIT       PS0L
      000000B8H.1 SFRSYM    DATA     BIT       PT0L
      000000DAH   SFRSYM    DATA     BYTE      SADDR1
      000000D8H.5 SFRSYM    DATA     BIT       SM12_TXCOL1
      000000B8H.3 SFRSYM    DATA     BIT       PT1L
      000000FAH   SFRSYM    DATA     BYTE      SADDR2
      000000CBH   SFRSYM    DATA     BYTE      RCAP2H
      000000B8H.5 SFRSYM    DATA     BIT       PT2L
      00000081H   SFRSYM    DATA     BYTE      SP
      000000D0H.2 SFRSYM    DATA     BIT       OV
      000000CAH   SFRSYM    DATA     BYTE      RCAP2L
      000000B8H   SFRSYM    DATA     BIT       PX4L
      000000C8H.1 SFRSYM    DATA     BIT       C_T2
      000000DEH   SFRSYM    DATA     BYTE      SFINE2
      000000ADH   SFRSYM    DATA     BYTE      IRCON1
      000000AFH   SFRSYM    DATA     BYTE      IRCON2
      000000ABH   SFRSYM    DATA     BYTE      EXCON1
      00000099H   SFRSYM    DATA     BYTE      SBUF
      000000ACH   SFRSYM    DATA     BYTE      EXCON2
      00000087H   SFRSYM    DATA     BYTE      PCON
      000000F1H   SFRSYM    DATA     BYTE      AUXC
      00000098H   SFRSYM    DATA     BYTE      SCON
      000000D4H   SFRSYM    DATA     BYTE      TK0BASEH
LX51 LINKER/LOCATER V4.66.41.0                                                        11/18/2021  18:51:21  PAGE 136


      00000089H   SFRSYM    DATA     BYTE      TMOD
      00000088H   SFRSYM    DATA     BYTE      TCON
      000000AAH   SFRSYM    DATA     BYTE      IENX
      000000EEH   SFRSYM    DATA     BYTE      IB_OFFSET
      000000D6H   SFRSYM    DATA     BYTE      TK1BASEH
      000000DCH   SFRSYM    DATA     BYTE      SBRT1H
      000000DFH   SFRSYM    DATA     BYTE      TK2BASEH
      000000FCH   SFRSYM    DATA     BYTE      SBRT2H
      000000B1H   SFRSYM    DATA     BYTE      RSTSTAT
      000000D3H   SFRSYM    DATA     BYTE      TK0BASEL
      000000D5H   SFRSYM    DATA     BYTE      TK1BASEL
      000000DDH   SFRSYM    DATA     BYTE      SBRT1L
      000000D7H   SFRSYM    DATA     BYTE      TK2BASEL
      000000FDH   SFRSYM    DATA     BYTE      SBRT2L
      00000098H.7 SFRSYM    DATA     BIT       SM0_FE
      000000B2H   SFRSYM    DATA     BYTE      CLKCON
      00000098H.5 SFRSYM    DATA     BIT       SM2_TXCOL
      000000B5H   SFRSYM    DATA     BYTE      LDOCON
      000000F0H   SFRSYM    DATA     BYTE      B
      000000C8H   SFRSYM    DATA     BIT       CP_RL2
      000000E0H   SFRSYM    DATA     BYTE      ACC
      000000A8H.4 SFRSYM    DATA     BIT       ES0
      000000A8H.1 SFRSYM    DATA     BIT       ET0
      000000A8H.3 SFRSYM    DATA     BIT       ET1
      00000088H.5 SFRSYM    DATA     BIT       TF0
      000000A8H.5 SFRSYM    DATA     BIT       ET2
      00000088H.7 SFRSYM    DATA     BIT       TF1
      000000D8H   SFRSYM    DATA     BIT       RI1
      00000098H.2 SFRSYM    DATA     BIT       RB8
      000000C8H.7 SFRSYM    DATA     BIT       TF2
      0000008CH   SFRSYM    DATA     BYTE      TH0
      00000086H   SFRSYM    DATA     BYTE      INSCON
      0000008DH   SFRSYM    DATA     BYTE      TH1
      000000D8H.1 SFRSYM    DATA     BIT       TI1
      00000098H.3 SFRSYM    DATA     BIT       TB8
      000000CDH   SFRSYM    DATA     BYTE      TH2
      000000D0H   SFRSYM    DATA     BIT       P
      0000008AH   SFRSYM    DATA     BYTE      TL0
      000000A8H   SFRSYM    DATA     BIT       EX4
      0000008BH   SFRSYM    DATA     BYTE      TL1
      000000A7H   SFRSYM    DATA     BYTE      FLASHCON
      000000CCH   SFRSYM    DATA     BYTE      TL2
      000000D0H.3 SFRSYM    DATA     BIT       RS0
      000000C5H   SFRSYM    DATA     BYTE      ADCDH
      00000088H.4 SFRSYM    DATA     BIT       TR0
      000000D0H.4 SFRSYM    DATA     BIT       RS1
      0000009FH   SFRSYM    DATA     BYTE      PWMCON
      00000088H.6 SFRSYM    DATA     BIT       TR1
      000000C8H.2 SFRSYM    DATA     BIT       TR2
      000000C4H   SFRSYM    DATA     BYTE      ADCDL
      000000C2H   SFRSYM    DATA     BYTE      ADT
      00000083H   SFRSYM    DATA     BYTE      DPH
      00000082H   SFRSYM    DATA     BYTE      DPL
      000000D9H   SFRSYM    DATA     BYTE      SBUF1
      000000C8H.3 SFRSYM    DATA     BIT       EXEN2
      000000F9H   SFRSYM    DATA     BYTE      SBUF2
      000000D8H.6 SFRSYM    DATA     BIT       SM11_RXOV1
      000000B8H.6 SFRSYM    DATA     BIT       PADCL
      00000098H.4 SFRSYM    DATA     BIT       REN
      000000D8H   SFRSYM    DATA     BYTE      SCON1
      000000D1H   SFRSYM    DATA     BYTE      LCDCON1
      000000C1H   SFRSYM    DATA     BYTE      ADCON
      000000F8H   SFRSYM    DATA     BYTE      SCON2
      0000008FH   SFRSYM    DATA     BYTE      TCON1
      000000D2H   SFRSYM    DATA     BYTE      LCDCON2
LX51 LINKER/LOCATER V4.66.41.0                                                        11/18/2021  18:51:21  PAGE 137


      00000092H   SFRSYM    DATA     BYTE      EDTAH
      000000C9H   SFRSYM    DATA     BYTE      T2MOD
      000000C8H   SFRSYM    DATA     BYTE      T2CON
      00000094H   SFRSYM    DATA     BYTE      EDTAL
      00000093H   SFRSYM    DATA     BYTE      EDTAM
      000000BCH   SFRSYM    DATA     BYTE      TK0DIFH
      0000009BH   SFRSYM    DATA     BYTE      SADEN
      000000BEH   SFRSYM    DATA     BYTE      TK1DIFH
      000000B6H   SFRSYM    DATA     BYTE      PBANK
      000000A5H   SFRSYM    DATA     BYTE      TK2DIFH
      000000A8H.6 SFRSYM    DATA     BIT       EADTP
      0000009AH   SFRSYM    DATA     BYTE      SADDR
      000000CFH   SFRSYM    DATA     BYTE      TK0DIFL
      000000BDH   SFRSYM    DATA     BYTE      TK1DIFL
      000000BFH   SFRSYM    DATA     BYTE      TK2DIFL
      000000B8H.2 SFRSYM    DATA     BIT       P7816L
      000000C6H   SFRSYM    DATA     BYTE      LPDCON1
      000000C7H   SFRSYM    DATA     BYTE      LPDCON2
      000000D0H.5 SFRSYM    DATA     BIT       F0
      000000AEH   SFRSYM    DATA     BYTE      IRDAT
      000000D0H.1 SFRSYM    DATA     BIT       F1
      00000096H   SFRSYM    DATA     BYTE      EMUIE
      0000009EH   SFRSYM    DATA     BYTE      SFINE
      000000F7H   SFRSYM    DATA     BYTE      XPAGE
      00000097H   SFRSYM    DATA     BYTE      EMUIF
      000000D0H   SFRSYM    DATA     BYTE      PSW
      000000D8H.2 SFRSYM    DATA     BIT       RB81
      000000A3H   SFRSYM    DATA     BYTE      SPDAT
      000000F2H   SFRSYM    DATA     BYTE      IB_CON1
      008197B8H   SYMBOL    CODE/B1  ---       _ApiEMU_Read_ECADR
      00819F21H   SYMBOL    CODE/B1  ---       ApiEMU_SetUIPKms
      008188F1H   SYMBOL    CODE/B1  ---       _ApiEMU_Write_ECADR
      0081A19FH   SYMBOL    CODE/B1  ---       ApiEMU_CheckCalParaCRC
      0081A725H   SYMBOL    CODE/B1  ---       ApiEMU_SetStartVal
      00819D94H   SYMBOL    CODE/B1  ---       ApiEMU_CheckKmsParaCRC

      008188F1H   BLOCK     CODE/B1  ---       LVL=0
      008188F1H   LINE      ---      ---       #212
      008188F6H   LINE      ---      ---       #213
      0200064CH   SYMBOL    XDATA    BYTE      address
      0200064DH   SYMBOL    XDATA    DWORD     Data
      008188F6H   BLOCK     CODE/B1  NEAR LAB  LVL=1
      008188F6H   LINE      ---      ---       #222
      00818906H   LINE      ---      ---       #224
      00818909H   LINE      ---      ---       #233
      0081890FH   LINE      ---      ---       #234
      00818911H   LINE      ---      ---       #235
      00818917H   LINE      ---      ---       #236
      0081891BH   LINE      ---      ---       #237
      0081891FH   LINE      ---      ---       #238
      00818922H   LINE      ---      ---       #239
      00818925H   LINE      ---      ---       #240
      00818928H   LINE      ---      ---       #241
      0081892BH   LINE      ---      ---       #242
      0081892EH   LINE      ---      ---       #243
      00818931H   LINE      ---      ---       #244
      00818934H   LINE      ---      ---       #245
      00818937H   LINE      ---      ---       #246
      0081893FH   LINE      ---      ---       #247
      00818946H   LINE      ---      ---       #256
      00818948H   LINE      ---      ---       #259
      02000651H   SYMBOL    XDATA    ---       Un_ChangeData
      ---         BLOCKEND  CODE/B1  ---       LVL=1
      ---         BLOCKEND  CODE/B1  ---       LVL=0

LX51 LINKER/LOCATER V4.66.41.0                                                        11/18/2021  18:51:21  PAGE 138


      008197B8H   BLOCK     CODE/B1  ---       LVL=0
      008197B8H   LINE      ---      ---       #272
      008197BAH   LINE      ---      ---       #273
      00000003H   SYMBOL    DATA     BYTE      address
      008197BAH   BLOCK     CODE/B1  NEAR LAB  LVL=1
      008197BAH   LINE      ---      ---       #284
      008197C0H   LINE      ---      ---       #285
      008197C2H   LINE      ---      ---       #286
      008197C7H   LINE      ---      ---       #296
      008197CCH   LINE      ---      ---       #297
      008197D6H   LINE      ---      ---       #298
      008197DCH   LINE      ---      ---       #299
      008197E0H   LINE      ---      ---       #300
      008197E4H   LINE      ---      ---       #309
      008197E6H   LINE      ---      ---       #310
      008197F4H   LINE      ---      ---       #311
      008197F4H   LINE      ---      ---       #312
      00000004H   SYMBOL    DATA     DWORD     V_u32ReadData
      02000644H   SYMBOL    XDATA    ---       Un_ChangeData
      ---         BLOCKEND  CODE/B1  ---       LVL=1
      ---         BLOCKEND  CODE/B1  ---       LVL=0

      00818F3DH   BLOCK     CODE/B1  ---       LVL=0
      00818F3DH   LINE      ---      ---       #326
      00818F3DH   LINE      ---      ---       #327
      00818F3DH   LINE      ---      ---       #328
      00818F41H   LINE      ---      ---       #329
      00818F41H   LINE      ---      ---       #330
      00818F44H   LINE      ---      ---       #331
      00818F45H   LINE      ---      ---       #333
      00818F45H   LINE      ---      ---       #334
      00818F48H   LINE      ---      ---       #335
      00818F4AH   LINE      ---      ---       #336
      00818F4CH   LINE      ---      ---       #337
      00818F4FH   LINE      ---      ---       #338
      00818F4FH   LINE      ---      ---       #339
      00000007H   SYMBOL    DATA     BYTE      v_ucWorkMode
      ---         BLOCKEND  ---      ---       LVL=0

      008187E1H   BLOCK     CODE/B1  ---       LVL=0
      008187E1H   LINE      ---      ---       #351
      008187E1H   LINE      ---      ---       #352
      008187E1H   BLOCK     CODE/B1  NEAR LAB  LVL=1
      008187E1H   LINE      ---      ---       #353
      008187E6H   LINE      ---      ---       #355
      008187EBH   LINE      ---      ---       #358
      008187EEH   LINE      ---      ---       #359
      008187F1H   LINE      ---      ---       #360
      008187F3H   LINE      ---      ---       #361
      008187F6H   LINE      ---      ---       #364
      008187F9H   LINE      ---      ---       #367
      00818808H   LINE      ---      ---       #370
      0081880FH   LINE      ---      ---       #373
      0081881DH   LINE      ---      ---       #376
      00818822H   LINE      ---      ---       #377
      00818822H   LINE      ---      ---       #378
      00818854H   LINE      ---      ---       #379
      00818860H   LINE      ---      ---       #382
      0081886EH   LINE      ---      ---       #383
      00818873H   LINE      ---      ---       #384
      00818873H   LINE      ---      ---       #385
      008188ADH   LINE      ---      ---       #386
      008188B9H   LINE      ---      ---       #389
      008188C0H   LINE      ---      ---       #392
      008188CEH   LINE      ---      ---       #396
LX51 LINKER/LOCATER V4.66.41.0                                                        11/18/2021  18:51:21  PAGE 139


      008188D2H   LINE      ---      ---       #399
      008188E0H   LINE      ---      ---       #402
      008188E7H   LINE      ---      ---       #404
      008188EAH   LINE      ---      ---       #405
      008188EDH   LINE      ---      ---       #406
      008188F0H   LINE      ---      ---       #408
      02000612H   SYMBOL    XDATA    BYTE      V_ucCnti
      ---         BLOCKEND  CODE/B1  ---       LVL=1
      ---         BLOCKEND  CODE/B1  ---       LVL=0

      0081A053H   BLOCK     CODE/B1  ---       LVL=0
      0081A053H   LINE      ---      ---       #445
      0081A053H   LINE      ---      ---       #446
      0081A053H   BLOCK     CODE/B1  NEAR LAB  LVL=1
      0081A053H   LINE      ---      ---       #447
      0081A059H   LINE      ---      ---       #449
      0081A060H   LINE      ---      ---       #452
      0081A060H   LINE      ---      ---       #455
      0081A06EH   LINE      ---      ---       #456
      0081A06EH   LINE      ---      ---       #457
      0081A083H   LINE      ---      ---       #459
      0081A0ABH   LINE      ---      ---       #460
      0081A0ABH   LINE      ---      ---       #461
      0081A0ABH   LINE      ---      ---       #462
      0081A0ABH   LINE      ---      ---       #463
      0081A0B3H   LINE      ---      ---       #464
      0081A0BEH   LINE      ---      ---       #467
      0081A0CDH   LINE      ---      ---       #468
      0081A0CDH   LINE      ---      ---       #469
      0081A0E2H   LINE      ---      ---       #471
      0081A10AH   LINE      ---      ---       #472
      0081A10AH   LINE      ---      ---       #473
      0081A10AH   LINE      ---      ---       #474
      0081A10AH   LINE      ---      ---       #475
      0081A112H   LINE      ---      ---       #476
      0081A11BH   LINE      ---      ---       #479
      0081A122H   LINE      ---      ---       #480
      0081A122H   LINE      ---      ---       #481
      0081A122H   LINE      ---      ---       #482
      0081A122H   LINE      ---      ---       #484
      0081A131H   LINE      ---      ---       #485
      0081A131H   LINE      ---      ---       #486
      0081A146H   LINE      ---      ---       #489
      0081A176H   LINE      ---      ---       #490
      0081A176H   LINE      ---      ---       #491
      0081A176H   LINE      ---      ---       #492
      0081A176H   LINE      ---      ---       #493
      0081A17EH   LINE      ---      ---       #494
      0081A187H   LINE      ---      ---       #496
      0081A18CH   LINE      ---      ---       #498
      0081A18CH   LINE      ---      ---       #501
      0081A199H   LINE      ---      ---       #502
      0081A199H   LINE      ---      ---       #503
      0081A19CH   LINE      ---      ---       #504
      0081A19CH   LINE      ---      ---       #507
      0200060AH   SYMBOL    XDATA    BYTE      V_ucResult
      0200060BH   SYMBOL    XDATA    BYTE      V_ucCnti
      0200060CH   SYMBOL    XDATA    WORD      V_usRegAddress
      0200060EH   SYMBOL    XDATA    DWORD     V_ulRegData
      ---         BLOCKEND  CODE/B1  ---       LVL=1
      ---         BLOCKEND  CODE/B1  ---       LVL=0

      008197F5H   BLOCK     CODE/B1  ---       LVL=0
      008197F5H   LINE      ---      ---       #521
      008197F5H   LINE      ---      ---       #522
LX51 LINKER/LOCATER V4.66.41.0                                                        11/18/2021  18:51:21  PAGE 140


      008197F5H   BLOCK     CODE/B1  NEAR LAB  LVL=1
      008197F5H   LINE      ---      ---       #531
      008197F8H   LINE      ---      ---       #535
      00819807H   LINE      ---      ---       #536
      00819807H   LINE      ---      ---       #537
      00819826H   LINE      ---      ---       #538
      0081982EH   LINE      ---      ---       #542
      00819847H   LINE      ---      ---       #543
      00819847H   LINE      ---      ---       #544
      00819899H   LINE      ---      ---       #545
      0081989BH   LINE      ---      ---       #547
      0081989BH   LINE      ---      ---       #548
      008198A5H   LINE      ---      ---       #549
      008198A5H   LINE      ---      ---       #550
      008198BCH   LINE      ---      ---       #551
      008198CBH   LINE      ---      ---       #552
      008198E8H   LINE      ---      ---       #557
      00819903H   LINE      ---      ---       #558
      00819903H   LINE      ---      ---       #559
      00819910H   LINE      ---      ---       #560
      00819910H   LINE      ---      ---       #561
      00819935H   LINE      ---      ---       #562
      00819935H   LINE      ---      ---       #563
      00819987H   LINE      ---      ---       #564
      00819987H   LINE      ---      ---       #566
      008199A4H   LINE      ---      ---       #567
      008199C1H   LINE      ---      ---       #569
      008199DCH   LINE      ---      ---       #570
      008199F7H   LINE      ---      ---       #574
      00819A10H   LINE      ---      ---       #575
      00819A10H   LINE      ---      ---       #576
      00819A62H   LINE      ---      ---       #577
      00819A62H   LINE      ---      ---       #578
      00819A7FH   LINE      ---      ---       #580
      00819A9AH   LINE      ---      ---       #585
      00819AA7H   LINE      ---      ---       #586
      00819AA7H   LINE      ---      ---       #587
      00819ACCH   LINE      ---      ---       #588
      00819ACCH   LINE      ---      ---       #589
      00819AE4H   LINE      ---      ---       #590
      00819B02H   LINE      ---      ---       #592
      00819B1AH   LINE      ---      ---       #593
      00819B38H   LINE      ---      ---       #595
      00819B5DH   LINE      ---      ---       #596
      00819B74H   LINE      ---      ---       #598
      00819B8DH   LINE      ---      ---       #599
      00819B8DH   LINE      ---      ---       #600
      00819BBEH   LINE      ---      ---       #601
      00819BC0H   LINE      ---      ---       #603
      00819BC0H   LINE      ---      ---       #604
      00819BCAH   LINE      ---      ---       #605
      00819BCAH   LINE      ---      ---       #606
      00819BE7H   LINE      ---      ---       #607
      00819C04H   LINE      ---      ---       #609
      00819C1FH   LINE      ---      ---       #610
      00819C3AH   LINE      ---      ---       #615
      00819C53H   LINE      ---      ---       #616
      00819C53H   LINE      ---      ---       #617
      00819C81H   LINE      ---      ---       #618
      00819C83H   LINE      ---      ---       #620
      00819C83H   LINE      ---      ---       #621
      00819C8DH   LINE      ---      ---       #622
      00819C8DH   LINE      ---      ---       #623
      00819CAAH   LINE      ---      ---       #628
      00819CB4H   LINE      ---      ---       #630
LX51 LINKER/LOCATER V4.66.41.0                                                        11/18/2021  18:51:21  PAGE 141


      00819CB4H   LINE      ---      ---       #631
      00819CB8H   LINE      ---      ---       #632
      00819CBFH   LINE      ---      ---       #633
      00819CC6H   LINE      ---      ---       #634
      00819CCDH   LINE      ---      ---       #635
      00819CD4H   LINE      ---      ---       #636
      00819CDBH   LINE      ---      ---       #637
      00819CE2H   LINE      ---      ---       #638
      00819CE4H   LINE      ---      ---       #640
      00819CE4H   LINE      ---      ---       #641
      00819CE8H   LINE      ---      ---       #642
      00819CE8H   LINE      ---      ---       #646
      00819CF2H   LINE      ---      ---       #647
      00819CF2H   LINE      ---      ---       #650
      00819CF9H   LINE      ---      ---       #651
      00819CF9H   LINE      ---      ---       #652
      00819D02H   LINE      ---      ---       #653
      00819D0BH   LINE      ---      ---       #654
      00819D14H   LINE      ---      ---       #656
      00819D1DH   LINE      ---      ---       #657
      00819D26H   LINE      ---      ---       #658
      00819D2FH   LINE      ---      ---       #661
      00819D2FH   LINE      ---      ---       #664
      00819D38H   LINE      ---      ---       #665
      00819D41H   LINE      ---      ---       #667
      00819D4AH   LINE      ---      ---       #668
      00819D53H   LINE      ---      ---       #670
      00819D59H   LINE      ---      ---       #671
      00819D5DH   LINE      ---      ---       #673
      00819D64H   LINE      ---      ---       #674
      00819D64H   LINE      ---      ---       #679
      00819D66H   LINE      ---      ---       #680
      02000609H   SYMBOL    XDATA    BYTE      V_ucCnt_i
      0200060AH   SYMBOL    XDATA    ---       V_ulaRegData
      00000004H   SYMBOL    DATA     DWORD     V_ulTemp
      0200061EH   SYMBOL    XDATA    FLOAT     V_fPowerQ
      02000622H   SYMBOL    XDATA    FLOAT     V_fPowerS
      ---         BLOCKEND  CODE/B1  ---       LVL=1
      ---         BLOCKEND  CODE/B1  ---       LVL=0

      008197A9H   BLOCK     CODE/B1  ---       LVL=0
      008197B8H   LINE      ---      ---       #694
      008197B8H   LINE      ---      ---       #695
      00000006H   SYMBOL    DATA     WORD      v_usRegAddress
      008197B8H   BLOCK     CODE/B1  NEAR LAB  LVL=1
      008197B8H   LINE      ---      ---       #698
      00000007H   SYMBOL    DATA     BYTE      V_ucRegAddress
      ---         BLOCKEND  CODE/B1  ---       LVL=1
      ---         BLOCKEND  CODE/B1  ---       LVL=0

      00818949H   BLOCK     CODE/B1  ---       LVL=0
      00818949H   LINE      ---      ---       #714
      00818949H   LINE      ---      ---       #715
      00000006H   SYMBOL    DATA     WORD      v_usRegAddress
      02000646H   SYMBOL    XDATA    DWORD     v_ulRegData
      00818949H   BLOCK     CODE/B1  NEAR LAB  LVL=1
      00818949H   LINE      ---      ---       #719
      0081894EH   LINE      ---      ---       #720
      00818968H   LINE      ---      ---       #722
      0081896FH   LINE      ---      ---       #723
      0081896FH   LINE      ---      ---       #724
      00818987H   LINE      ---      ---       #725
      00818987H   LINE      ---      ---       #728
      00818996H   LINE      ---      ---       #729
      00818996H   LINE      ---      ---       #730
LX51 LINKER/LOCATER V4.66.41.0                                                        11/18/2021  18:51:21  PAGE 142


      008189B0H   LINE      ---      ---       #731
      008189B0H   LINE      ---      ---       #732
      008189D2H   LINE      ---      ---       #733
      008189E0H   LINE      ---      ---       #734
      008189E0H   LINE      ---      ---       #735
      008189E0H   LINE      ---      ---       #736
      008189E8H   LINE      ---      ---       #737
      0200064AH   SYMBOL    XDATA    BYTE      V_ucRegAddress
      0200064BH   SYMBOL    XDATA    BYTE      V_ucCnt_i
      ---         BLOCKEND  CODE/B1  ---       LVL=1
      ---         BLOCKEND  CODE/B1  ---       LVL=0

      008189E9H   BLOCK     CODE/B1  ---       LVL=0
      008189E9H   LINE      ---      ---       #751
      008189EEH   LINE      ---      ---       #752
      02000639H   SYMBOL    XDATA    BYTE      v_ucChID
      008189EEH   BLOCK     CODE/B1  NEAR LAB  LVL=1
      008189EEH   LINE      ---      ---       #757
      00818A10H   LINE      ---      ---       #758
      00818A57H   LINE      ---      ---       #759
      00818A9EH   LINE      ---      ---       #760
      00818AD5H   LINE      ---      ---       #762
      00818ADBH   LINE      ---      ---       #765
      00818ADDH   LINE      ---      ---       #766
      00818ADDH   LINE      ---      ---       #767
      00818B15H   LINE      ---      ---       #768
      00818B21H   LINE      ---      ---       #772
      00818B30H   LINE      ---      ---       #773
      00818B30H   LINE      ---      ---       #774
      00818B57H   LINE      ---      ---       #775
      00818B5FH   LINE      ---      ---       #776
      00818B6DH   LINE      ---      ---       #781
      0200063AH   SYMBOL    XDATA    BYTE      V_ucCnt_i
      0200063BH   SYMBOL    XDATA    DWORD     V_ulRegData
      ---         BLOCKEND  CODE/B1  ---       LVL=1
      ---         BLOCKEND  CODE/B1  ---       LVL=0

      0081B776H   BLOCK     CODE/B1  ---       LVL=0
      0081B776H   LINE      ---      ---       #797
      0081B776H   LINE      ---      ---       #798
      00000007H   SYMBOL    DATA     BYTE      v_ucChID
      0081B776H   BLOCK     CODE/B1  NEAR LAB  LVL=1
      0081B776H   LINE      ---      ---       #801
      0081B77BH   LINE      ---      ---       #802
      02000639H   SYMBOL    XDATA    BYTE      V_ucTemp
      ---         BLOCKEND  CODE/B1  ---       LVL=1
      ---         BLOCKEND  CODE/B1  ---       LVL=0

      0081B77CH   BLOCK     CODE/B1  ---       LVL=0
      0081B77CH   LINE      ---      ---       #816
      0081B781H   LINE      ---      ---       #817
      02000639H   SYMBOL    XDATA    BYTE      v_ucChID
      0081B781H   BLOCK     CODE/B1  NEAR LAB  LVL=1
      0081B781H   LINE      ---      ---       #818
      0081B784H   LINE      ---      ---       #822
      0081B784H   LINE      ---      ---       #824
      0081B79FH   LINE      ---      ---       #825
      0081B79FH   LINE      ---      ---       #826
      0081B7A5H   LINE      ---      ---       #827
      0081B7A8H   LINE      ---      ---       #828
      0081B7A8H   LINE      ---      ---       #832
      0081B7CBH   LINE      ---      ---       #833
      0081B812H   LINE      ---      ---       #834
      0081B859H   LINE      ---      ---       #835
      0081B890H   LINE      ---      ---       #841
LX51 LINKER/LOCATER V4.66.41.0                                                        11/18/2021  18:51:21  PAGE 143


      0081B8B9H   LINE      ---      ---       #842
      0081B8B9H   LINE      ---      ---       #843
      0081B8B9H   LINE      ---      ---       #844
      0081B8B9H   LINE      ---      ---       #845
      0081B8B9H   LINE      ---      ---       #846
      0081B8B9H   LINE      ---      ---       #847
      0081B8C8H   LINE      ---      ---       #848
      0081B8C8H   LINE      ---      ---       #849
      0081B8F3H   LINE      ---      ---       #850
      0081B8F3H   LINE      ---      ---       #851
      0081B905H   LINE      ---      ---       #852
      0081B926H   LINE      ---      ---       #853
      0081B928H   LINE      ---      ---       #854
      0081B928H   LINE      ---      ---       #855
      0081B930H   LINE      ---      ---       #856
      0081B930H   LINE      ---      ---       #858
      0081B930H   LINE      ---      ---       #859
      0081B930H   LINE      ---      ---       #861
      0081B933H   LINE      ---      ---       #864
      0081B936H   LINE      ---      ---       #866
      0081B936H   LINE      ---      ---       #868
      0081B936H   LINE      ---      ---       #869
      0081B936H   LINE      ---      ---       #870
      0081B936H   LINE      ---      ---       #873
      0081B93BH   LINE      ---      ---       #874
      0200063AH   SYMBOL    XDATA    BYTE      V_ucResult
      0200063BH   SYMBOL    XDATA    BYTE      V_ucCnt_i
      00000007H   SYMBOL    DATA     BYTE      V_ucRegAddress
      0200063CH   SYMBOL    XDATA    DWORD     V_ulRegData
      ---         BLOCKEND  CODE/B1  ---       LVL=1
      ---         BLOCKEND  CODE/B1  ---       LVL=0

      0081A725H   BLOCK     CODE/B1  ---       LVL=0
      0081A725H   LINE      ---      ---       #886
      0081A725H   LINE      ---      ---       #887
      0081A725H   BLOCK     CODE/B1  NEAR LAB  LVL=1
      0081A725H   LINE      ---      ---       #890
      0081A732H   LINE      ---      ---       #893
      0081A73FH   LINE      ---      ---       #894
      0081A73FH   LINE      ---      ---       #895
      0081A764H   LINE      ---      ---       #896
      0081A764H   LINE      ---      ---       #898
      0081A78BH   LINE      ---      ---       #900
      02000640H   SYMBOL    XDATA    DWORD     V_ulRegData
      ---         BLOCKEND  CODE/B1  ---       LVL=1
      ---         BLOCKEND  CODE/B1  ---       LVL=0

      00819F21H   BLOCK     CODE/B1  ---       LVL=0
      00819F21H   LINE      ---      ---       #915
      00819F21H   LINE      ---      ---       #916
      00819F21H   BLOCK     CODE/B1  NEAR LAB  LVL=1
      00819F21H   LINE      ---      ---       #919
      00819F21H   LINE      ---      ---       #922
      00819F2EH   LINE      ---      ---       #923
      00819F53H   LINE      ---      ---       #927
      00819F60H   LINE      ---      ---       #930
      00819F70H   LINE      ---      ---       #931
      00819F70H   LINE      ---      ---       #932
      00819F95H   LINE      ---      ---       #933
      00819F95H   LINE      ---      ---       #935
      00819FEAH   LINE      ---      ---       #939
      00819FF7H   LINE      ---      ---       #940
      0081A042H   LINE      ---      ---       #943
      0081A050H   LINE      ---      ---       #945
      0081A050H   LINE      ---      ---       #948
LX51 LINKER/LOCATER V4.66.41.0                                                        11/18/2021  18:51:21  PAGE 144


      0081A052H   LINE      ---      ---       #949
      02000640H   SYMBOL    XDATA    DWORD     V_ulRegData
      ---         BLOCKEND  CODE/B1  ---       LVL=1
      ---         BLOCKEND  CODE/B1  ---       LVL=0

      00819E2EH   BLOCK     CODE/B1  ---       LVL=0
      00819E2EH   LINE      ---      ---       #961
      00819E2EH   LINE      ---      ---       #962
      00819E2EH   BLOCK     CODE/B1  NEAR LAB  LVL=1
      00819E2EH   LINE      ---      ---       #965
      00819E35H   LINE      ---      ---       #967
      00819E3EH   LINE      ---      ---       #968
      00819E3EH   LINE      ---      ---       #972
      00819E3FH   LINE      ---      ---       #974
      00819E3FH   LINE      ---      ---       #978
      00819E41H   LINE      ---      ---       #980
      00000004H   SYMBOL    DATA     DWORD     V_ulRegData
      ---         BLOCKEND  CODE/B1  ---       LVL=1
      ---         BLOCKEND  CODE/B1  ---       LVL=0

      0081A19FH   BLOCK     CODE/B1  ---       LVL=0
      0081A19FH   LINE      ---      ---       #992
      0081A19FH   LINE      ---      ---       #993
      0081A19FH   LINE      ---      ---       #994
      0081A1BCH   LINE      ---      ---       #995
      0081A1BCH   LINE      ---      ---       #996
      0081A1CAH   LINE      ---      ---       #997
      0081A1CDH   LINE      ---      ---       #998
      0081A1CDH   LINE      ---      ---       #1000
      0081A1CFH   LINE      ---      ---       #1001
      ---         BLOCKEND  ---      ---       LVL=0

      00819D94H   BLOCK     CODE/B1  ---       LVL=0
      00819D94H   LINE      ---      ---       #1013
      00819D94H   LINE      ---      ---       #1014
      00819D94H   LINE      ---      ---       #1015
      00819DB1H   LINE      ---      ---       #1016
      00819DB1H   LINE      ---      ---       #1017
      00819DBFH   LINE      ---      ---       #1018
      00819DC2H   LINE      ---      ---       #1019
      00819DC2H   LINE      ---      ---       #1021
      00819DC4H   LINE      ---      ---       #1022
      ---         BLOCKEND  ---      ---       LVL=0

      ---         MODULE    ---      ---       APPEMUATT7036
      000000F3H   SFRSYM    DATA     BYTE      IB_CON2
      000000D8H.3 SFRSYM    DATA     BIT       TB81
      00000080H   SFRSYM    DATA     BYTE      P0
      000000F4H   SFRSYM    DATA     BYTE      IB_CON3
      000000A4H   SFRSYM    DATA     BYTE      TKCON
      00000090H   SFRSYM    DATA     BYTE      P1
      000000F5H   SFRSYM    DATA     BYTE      IB_CON4
      000000E7H   SFRSYM    DATA     BYTE      PASLO
      000000A0H   SFRSYM    DATA     BYTE      P2
      000000FEH   SFRSYM    DATA     BYTE      OSCLO
      000000F6H   SFRSYM    DATA     BYTE      IB_CON5
      00000098H.6 SFRSYM    DATA     BIT       SM1_RXOV
      000000B0H   SFRSYM    DATA     BYTE      P3
      000000D0H.6 SFRSYM    DATA     BIT       AC
      000000C0H   SFRSYM    DATA     BYTE      P4
      000000A1H   SFRSYM    DATA     BYTE      SPCON
      0000009CH   SFRSYM    DATA     BYTE      SBRTH
      000000E9H   SFRSYM    DATA     BYTE      P5
      000000A8H.7 SFRSYM    DATA     BIT       EA
      000000EAH   SFRSYM    DATA     BYTE      P6
LX51 LINKER/LOCATER V4.66.41.0                                                        11/18/2021  18:51:21  PAGE 145


      000000EBH   SFRSYM    DATA     BYTE      P7
      000000EFH   SFRSYM    DATA     BYTE      IB_DATA
      000000ECH   SFRSYM    DATA     BYTE      P8
      0000009DH   SFRSYM    DATA     BYTE      SBRTL
      000000EDH   SFRSYM    DATA     BYTE      P9
      000000B7H   SFRSYM    DATA     BYTE      PBANKLO
      000000A2H   SFRSYM    DATA     BYTE      SPSTA
      000000A8H   SFRSYM    DATA     BYTE      IEN0
      000000B3H   SFRSYM    DATA     BYTE      PWRCON1
      00000095H   SFRSYM    DATA     BYTE      EMUSR
      000000A9H   SFRSYM    DATA     BYTE      IEN1
      000000B4H   SFRSYM    DATA     BYTE      PWRCON2
      00000085H   SFRSYM    DATA     BYTE      DPH1
      00000080H   SFRSYM    DATA     BIT       P0_0
      00000090H   SFRSYM    DATA     BIT       P1_0
      00000080H.1 SFRSYM    DATA     BIT       P0_1
      000000C3H   SFRSYM    DATA     BYTE      ADCH
      000000A0H   SFRSYM    DATA     BIT       P2_0
      00000090H.1 SFRSYM    DATA     BIT       P1_1
      00000080H.2 SFRSYM    DATA     BIT       P0_2
      000000BAH   SFRSYM    DATA     BYTE      IPH0
      00000084H   SFRSYM    DATA     BYTE      DPL1
      000000B0H   SFRSYM    DATA     BIT       P3_0
      000000A0H.1 SFRSYM    DATA     BIT       P2_1
      00000090H.2 SFRSYM    DATA     BIT       P1_2
      00000080H.3 SFRSYM    DATA     BIT       P0_3
      000000BBH   SFRSYM    DATA     BYTE      IPH1
      000000C0H   SFRSYM    DATA     BIT       P4_0
      000000B0H.1 SFRSYM    DATA     BIT       P3_1
      000000A0H.2 SFRSYM    DATA     BIT       P2_2
      00000090H.3 SFRSYM    DATA     BIT       P1_3
      00000080H.4 SFRSYM    DATA     BIT       P0_4
      000000E8H   SFRSYM    DATA     BYTE      EXF0
      000000C0H.1 SFRSYM    DATA     BIT       P4_1
      000000B0H.2 SFRSYM    DATA     BIT       P3_2
      000000A0H.3 SFRSYM    DATA     BIT       P2_3
      00000090H.4 SFRSYM    DATA     BIT       P1_4
      00000080H.5 SFRSYM    DATA     BIT       P0_5
      000000C0H.2 SFRSYM    DATA     BIT       P4_2
      000000B0H.3 SFRSYM    DATA     BIT       P3_3
      000000A0H.4 SFRSYM    DATA     BIT       P2_4
      00000090H.5 SFRSYM    DATA     BIT       P1_5
      00000080H.6 SFRSYM    DATA     BIT       P0_6
      000000C8H.6 SFRSYM    DATA     BIT       EXF2
      000000A6H   SFRSYM    DATA     BYTE      TKF0
      000000B8H   SFRSYM    DATA     BYTE      IPL0
      000000C0H.3 SFRSYM    DATA     BIT       P4_3
      000000B0H.4 SFRSYM    DATA     BIT       P3_4
      000000A0H.5 SFRSYM    DATA     BIT       P2_5
      00000090H.6 SFRSYM    DATA     BIT       P1_6
      00000080H.7 SFRSYM    DATA     BIT       P0_7
      000000D8H.4 SFRSYM    DATA     BIT       REN1
      000000B9H   SFRSYM    DATA     BYTE      IPL1
      000000C0H.4 SFRSYM    DATA     BIT       P4_4
      000000B0H.5 SFRSYM    DATA     BIT       P3_5
      000000A0H.6 SFRSYM    DATA     BIT       P2_6
      00000090H.7 SFRSYM    DATA     BIT       P1_7
      000000E2H   SFRSYM    DATA     BYTE      TK0H
      0000008EH   SFRSYM    DATA     BYTE      SUSLO
      000000C0H.5 SFRSYM    DATA     BIT       P4_5
      000000B0H.6 SFRSYM    DATA     BIT       P3_6
      000000A0H.7 SFRSYM    DATA     BIT       P2_7
      000000E4H   SFRSYM    DATA     BYTE      TK1H
      000000C0H.6 SFRSYM    DATA     BIT       P4_6
      000000B0H.7 SFRSYM    DATA     BIT       P3_7
LX51 LINKER/LOCATER V4.66.41.0                                                        11/18/2021  18:51:21  PAGE 146


      000000E6H   SFRSYM    DATA     BYTE      TK2H
      000000C0H.7 SFRSYM    DATA     BIT       P4_7
      00000098H   SFRSYM    DATA     BIT       RI
      000000A8H.2 SFRSYM    DATA     BIT       E7816
      000000D0H.7 SFRSYM    DATA     BIT       CY
      000000E1H   SFRSYM    DATA     BYTE      TK0L
      00000098H.1 SFRSYM    DATA     BIT       TI
      00000091H   SFRSYM    DATA     BYTE      EADR
      000000E3H   SFRSYM    DATA     BYTE      TK1L
      000000E5H   SFRSYM    DATA     BYTE      TK2L
      000000DBH   SFRSYM    DATA     BYTE      SADEN1
      000000D8H.7 SFRSYM    DATA     BIT       SM10_FE1
      000000FBH   SFRSYM    DATA     BYTE      SADEN2
      000000B8H.4 SFRSYM    DATA     BIT       PS0L
      000000B8H.1 SFRSYM    DATA     BIT       PT0L
      000000DAH   SFRSYM    DATA     BYTE      SADDR1
      000000D8H.5 SFRSYM    DATA     BIT       SM12_TXCOL1
      000000B8H.3 SFRSYM    DATA     BIT       PT1L
      000000FAH   SFRSYM    DATA     BYTE      SADDR2
      000000CBH   SFRSYM    DATA     BYTE      RCAP2H
      000000B8H.5 SFRSYM    DATA     BIT       PT2L
      00000081H   SFRSYM    DATA     BYTE      SP
      000000D0H.2 SFRSYM    DATA     BIT       OV
      000000CAH   SFRSYM    DATA     BYTE      RCAP2L
      000000B8H   SFRSYM    DATA     BIT       PX4L
      000000C8H.1 SFRSYM    DATA     BIT       C_T2
      000000DEH   SFRSYM    DATA     BYTE      SFINE2
      000000ADH   SFRSYM    DATA     BYTE      IRCON1
      000000AFH   SFRSYM    DATA     BYTE      IRCON2
      000000ABH   SFRSYM    DATA     BYTE      EXCON1
      00000099H   SFRSYM    DATA     BYTE      SBUF
      000000ACH   SFRSYM    DATA     BYTE      EXCON2
      00000087H   SFRSYM    DATA     BYTE      PCON
      000000F1H   SFRSYM    DATA     BYTE      AUXC
      00000098H   SFRSYM    DATA     BYTE      SCON
      000000D4H   SFRSYM    DATA     BYTE      TK0BASEH
      00000089H   SFRSYM    DATA     BYTE      TMOD
      00000088H   SFRSYM    DATA     BYTE      TCON
      000000AAH   SFRSYM    DATA     BYTE      IENX
      000000EEH   SFRSYM    DATA     BYTE      IB_OFFSET
      000000D6H   SFRSYM    DATA     BYTE      TK1BASEH
      000000DCH   SFRSYM    DATA     BYTE      SBRT1H
      000000DFH   SFRSYM    DATA     BYTE      TK2BASEH
      000000FCH   SFRSYM    DATA     BYTE      SBRT2H
      000000B1H   SFRSYM    DATA     BYTE      RSTSTAT
      000000D3H   SFRSYM    DATA     BYTE      TK0BASEL
      000000D5H   SFRSYM    DATA     BYTE      TK1BASEL
      000000DDH   SFRSYM    DATA     BYTE      SBRT1L
      000000D7H   SFRSYM    DATA     BYTE      TK2BASEL
      000000FDH   SFRSYM    DATA     BYTE      SBRT2L
      00000098H.7 SFRSYM    DATA     BIT       SM0_FE
      000000B2H   SFRSYM    DATA     BYTE      CLKCON
      00000098H.5 SFRSYM    DATA     BIT       SM2_TXCOL
      000000B5H   SFRSYM    DATA     BYTE      LDOCON
      000000F0H   SFRSYM    DATA     BYTE      B
      000000C8H   SFRSYM    DATA     BIT       CP_RL2
      000000E0H   SFRSYM    DATA     BYTE      ACC
      000000A8H.4 SFRSYM    DATA     BIT       ES0
      000000A8H.1 SFRSYM    DATA     BIT       ET0
      000000A8H.3 SFRSYM    DATA     BIT       ET1
      00000088H.5 SFRSYM    DATA     BIT       TF0
      000000A8H.5 SFRSYM    DATA     BIT       ET2
      00000088H.7 SFRSYM    DATA     BIT       TF1
      000000D8H   SFRSYM    DATA     BIT       RI1
      00000098H.2 SFRSYM    DATA     BIT       RB8
LX51 LINKER/LOCATER V4.66.41.0                                                        11/18/2021  18:51:21  PAGE 147


      000000C8H.7 SFRSYM    DATA     BIT       TF2
      0000008CH   SFRSYM    DATA     BYTE      TH0
      00000086H   SFRSYM    DATA     BYTE      INSCON
      0000008DH   SFRSYM    DATA     BYTE      TH1
      000000D8H.1 SFRSYM    DATA     BIT       TI1
      00000098H.3 SFRSYM    DATA     BIT       TB8
      000000CDH   SFRSYM    DATA     BYTE      TH2
      000000D0H   SFRSYM    DATA     BIT       P
      0000008AH   SFRSYM    DATA     BYTE      TL0
      000000A8H   SFRSYM    DATA     BIT       EX4
      0000008BH   SFRSYM    DATA     BYTE      TL1
      000000A7H   SFRSYM    DATA     BYTE      FLASHCON
      000000CCH   SFRSYM    DATA     BYTE      TL2
      000000D0H.3 SFRSYM    DATA     BIT       RS0
      000000C5H   SFRSYM    DATA     BYTE      ADCDH
      00000088H.4 SFRSYM    DATA     BIT       TR0
      000000D0H.4 SFRSYM    DATA     BIT       RS1
      0000009FH   SFRSYM    DATA     BYTE      PWMCON
      00000088H.6 SFRSYM    DATA     BIT       TR1
      000000C8H.2 SFRSYM    DATA     BIT       TR2
      000000C4H   SFRSYM    DATA     BYTE      ADCDL
      000000C2H   SFRSYM    DATA     BYTE      ADT
      00000083H   SFRSYM    DATA     BYTE      DPH
      00000082H   SFRSYM    DATA     BYTE      DPL
      000000D9H   SFRSYM    DATA     BYTE      SBUF1
      000000C8H.3 SFRSYM    DATA     BIT       EXEN2
      000000F9H   SFRSYM    DATA     BYTE      SBUF2
      000000D8H.6 SFRSYM    DATA     BIT       SM11_RXOV1
      000000B8H.6 SFRSYM    DATA     BIT       PADCL
      00000098H.4 SFRSYM    DATA     BIT       REN
      000000D8H   SFRSYM    DATA     BYTE      SCON1
      000000D1H   SFRSYM    DATA     BYTE      LCDCON1
      000000C1H   SFRSYM    DATA     BYTE      ADCON
      000000F8H   SFRSYM    DATA     BYTE      SCON2
      0000008FH   SFRSYM    DATA     BYTE      TCON1
      000000D2H   SFRSYM    DATA     BYTE      LCDCON2
      00000092H   SFRSYM    DATA     BYTE      EDTAH
      000000C9H   SFRSYM    DATA     BYTE      T2MOD
      000000C8H   SFRSYM    DATA     BYTE      T2CON
      00000094H   SFRSYM    DATA     BYTE      EDTAL
      00000093H   SFRSYM    DATA     BYTE      EDTAM
      000000BCH   SFRSYM    DATA     BYTE      TK0DIFH
      0000009BH   SFRSYM    DATA     BYTE      SADEN
      000000BEH   SFRSYM    DATA     BYTE      TK1DIFH
      000000B6H   SFRSYM    DATA     BYTE      PBANK
      000000A5H   SFRSYM    DATA     BYTE      TK2DIFH
      000000A8H.6 SFRSYM    DATA     BIT       EADTP
      0000009AH   SFRSYM    DATA     BYTE      SADDR
      000000CFH   SFRSYM    DATA     BYTE      TK0DIFL
      000000BDH   SFRSYM    DATA     BYTE      TK1DIFL
      000000BFH   SFRSYM    DATA     BYTE      TK2DIFL
      000000B8H.2 SFRSYM    DATA     BIT       P7816L
      000000C6H   SFRSYM    DATA     BYTE      LPDCON1
      000000C7H   SFRSYM    DATA     BYTE      LPDCON2
      000000D0H.5 SFRSYM    DATA     BIT       F0
      000000AEH   SFRSYM    DATA     BYTE      IRDAT
      000000D0H.1 SFRSYM    DATA     BIT       F1
      00000096H   SFRSYM    DATA     BYTE      EMUIE
      0000009EH   SFRSYM    DATA     BYTE      SFINE
      000000F7H   SFRSYM    DATA     BYTE      XPAGE
      00000097H   SFRSYM    DATA     BYTE      EMUIF
      000000D0H   SFRSYM    DATA     BYTE      PSW
      000000D8H.2 SFRSYM    DATA     BIT       RB81
      000000A3H   SFRSYM    DATA     BYTE      SPDAT
      000000F2H   SFRSYM    DATA     BYTE      IB_CON1
LX51 LINKER/LOCATER V4.66.41.0                                                        11/18/2021  18:51:21  PAGE 148



      ---         MODULE    ---      ---       APPMEASURE
      00818F50H   PUBLIC    CODE/B1  ---       _ApiMS_DisOrEnable
      00819E2EH   PUBLIC    CODE/B1  ---       ApiMS_GetPowerDir
      0081A1D0H   PUBLIC    CODE/B1  ---       ApiMS_MeterICParaCheck
      008187E1H   PUBLIC    CODE/B1  ---       ApiMS_InitMeterICPara
      00818B87H   PUBLIC    CODE/B1  ---       _ApiMS_CalibrationMeterComm
      00819D67H   PUBLIC    CODE/B1  ---       ApiMS_UpdateUIP
      0081AB7DH   PUBLIC    CODE/B1  ---       _ApiMS_EnergyProcess
      00819DC5H   PUBLIC    CODE/B1  ---       ApiMS_EnergyPulseUpdate
      00819D90H   PUBLIC    CODE/B1  ---       ApiMS_MeasureTask
      000000F3H   SFRSYM    DATA     BYTE      IB_CON2
      000000D8H.3 SFRSYM    DATA     BIT       TB81
      00000080H   SFRSYM    DATA     BYTE      P0
      000000F4H   SFRSYM    DATA     BYTE      IB_CON3
      000000A4H   SFRSYM    DATA     BYTE      TKCON
      00000090H   SFRSYM    DATA     BYTE      P1
      000000F5H   SFRSYM    DATA     BYTE      IB_CON4
      000000E7H   SFRSYM    DATA     BYTE      PASLO
      000000A0H   SFRSYM    DATA     BYTE      P2
      000000FEH   SFRSYM    DATA     BYTE      OSCLO
      000000F6H   SFRSYM    DATA     BYTE      IB_CON5
      00000098H.6 SFRSYM    DATA     BIT       SM1_RXOV
      000000B0H   SFRSYM    DATA     BYTE      P3
      000000D0H.6 SFRSYM    DATA     BIT       AC
      000000C0H   SFRSYM    DATA     BYTE      P4
      000000A1H   SFRSYM    DATA     BYTE      SPCON
      0000009CH   SFRSYM    DATA     BYTE      SBRTH
      000000E9H   SFRSYM    DATA     BYTE      P5
      000000A8H.7 SFRSYM    DATA     BIT       EA
      000000EAH   SFRSYM    DATA     BYTE      P6
      000000EBH   SFRSYM    DATA     BYTE      P7
      000000EFH   SFRSYM    DATA     BYTE      IB_DATA
      000000ECH   SFRSYM    DATA     BYTE      P8
      0000009DH   SFRSYM    DATA     BYTE      SBRTL
      000000EDH   SFRSYM    DATA     BYTE      P9
      000000B7H   SFRSYM    DATA     BYTE      PBANKLO
      000000A2H   SFRSYM    DATA     BYTE      SPSTA
      000000A8H   SFRSYM    DATA     BYTE      IEN0
      000000B3H   SFRSYM    DATA     BYTE      PWRCON1
      00000095H   SFRSYM    DATA     BYTE      EMUSR
      000000A9H   SFRSYM    DATA     BYTE      IEN1
      000000B4H   SFRSYM    DATA     BYTE      PWRCON2
      00000085H   SFRSYM    DATA     BYTE      DPH1
      00000080H   SFRSYM    DATA     BIT       P0_0
      00000090H   SFRSYM    DATA     BIT       P1_0
      00000080H.1 SFRSYM    DATA     BIT       P0_1
      000000C3H   SFRSYM    DATA     BYTE      ADCH
      000000A0H   SFRSYM    DATA     BIT       P2_0
      00000090H.1 SFRSYM    DATA     BIT       P1_1
      00000080H.2 SFRSYM    DATA     BIT       P0_2
      000000BAH   SFRSYM    DATA     BYTE      IPH0
      00000084H   SFRSYM    DATA     BYTE      DPL1
      000000B0H   SFRSYM    DATA     BIT       P3_0
      000000A0H.1 SFRSYM    DATA     BIT       P2_1
      00000090H.2 SFRSYM    DATA     BIT       P1_2
      00000080H.3 SFRSYM    DATA     BIT       P0_3
      000000BBH   SFRSYM    DATA     BYTE      IPH1
      000000C0H   SFRSYM    DATA     BIT       P4_0
      000000B0H.1 SFRSYM    DATA     BIT       P3_1
      000000A0H.2 SFRSYM    DATA     BIT       P2_2
      00000090H.3 SFRSYM    DATA     BIT       P1_3
      00000080H.4 SFRSYM    DATA     BIT       P0_4
      000000E8H   SFRSYM    DATA     BYTE      EXF0
      000000C0H.1 SFRSYM    DATA     BIT       P4_1
LX51 LINKER/LOCATER V4.66.41.0                                                        11/18/2021  18:51:21  PAGE 149


      000000B0H.2 SFRSYM    DATA     BIT       P3_2
      000000A0H.3 SFRSYM    DATA     BIT       P2_3
      00000090H.4 SFRSYM    DATA     BIT       P1_4
      00000080H.5 SFRSYM    DATA     BIT       P0_5
      000000C0H.2 SFRSYM    DATA     BIT       P4_2
      000000B0H.3 SFRSYM    DATA     BIT       P3_3
      000000A0H.4 SFRSYM    DATA     BIT       P2_4
      00000090H.5 SFRSYM    DATA     BIT       P1_5
      00000080H.6 SFRSYM    DATA     BIT       P0_6
      000000C8H.6 SFRSYM    DATA     BIT       EXF2
      000000A6H   SFRSYM    DATA     BYTE      TKF0
      000000B8H   SFRSYM    DATA     BYTE      IPL0
      000000C0H.3 SFRSYM    DATA     BIT       P4_3
      000000B0H.4 SFRSYM    DATA     BIT       P3_4
      000000A0H.5 SFRSYM    DATA     BIT       P2_5
      00000090H.6 SFRSYM    DATA     BIT       P1_6
      00000080H.7 SFRSYM    DATA     BIT       P0_7
      000000D8H.4 SFRSYM    DATA     BIT       REN1
      000000B9H   SFRSYM    DATA     BYTE      IPL1
      000000C0H.4 SFRSYM    DATA     BIT       P4_4
      000000B0H.5 SFRSYM    DATA     BIT       P3_5
      000000A0H.6 SFRSYM    DATA     BIT       P2_6
      00000090H.7 SFRSYM    DATA     BIT       P1_7
      000000E2H   SFRSYM    DATA     BYTE      TK0H
      0000008EH   SFRSYM    DATA     BYTE      SUSLO
      000000C0H.5 SFRSYM    DATA     BIT       P4_5
      000000B0H.6 SFRSYM    DATA     BIT       P3_6
      000000A0H.7 SFRSYM    DATA     BIT       P2_7
      000000E4H   SFRSYM    DATA     BYTE      TK1H
      000000C0H.6 SFRSYM    DATA     BIT       P4_6
      000000B0H.7 SFRSYM    DATA     BIT       P3_7
      000000E6H   SFRSYM    DATA     BYTE      TK2H
      000000C0H.7 SFRSYM    DATA     BIT       P4_7
      00000098H   SFRSYM    DATA     BIT       RI
      000000A8H.2 SFRSYM    DATA     BIT       E7816
      000000D0H.7 SFRSYM    DATA     BIT       CY
      000000E1H   SFRSYM    DATA     BYTE      TK0L
      00000098H.1 SFRSYM    DATA     BIT       TI
      00000091H   SFRSYM    DATA     BYTE      EADR
      000000E3H   SFRSYM    DATA     BYTE      TK1L
      000000E5H   SFRSYM    DATA     BYTE      TK2L
      000000DBH   SFRSYM    DATA     BYTE      SADEN1
      000000D8H.7 SFRSYM    DATA     BIT       SM10_FE1
      000000FBH   SFRSYM    DATA     BYTE      SADEN2
      000000B8H.4 SFRSYM    DATA     BIT       PS0L
      000000B8H.1 SFRSYM    DATA     BIT       PT0L
      000000DAH   SFRSYM    DATA     BYTE      SADDR1
      000000D8H.5 SFRSYM    DATA     BIT       SM12_TXCOL1
      000000B8H.3 SFRSYM    DATA     BIT       PT1L
      000000FAH   SFRSYM    DATA     BYTE      SADDR2
      000000CBH   SFRSYM    DATA     BYTE      RCAP2H
      000000B8H.5 SFRSYM    DATA     BIT       PT2L
      00000081H   SFRSYM    DATA     BYTE      SP
      000000D0H.2 SFRSYM    DATA     BIT       OV
      000000CAH   SFRSYM    DATA     BYTE      RCAP2L
      000000B8H   SFRSYM    DATA     BIT       PX4L
      000000C8H.1 SFRSYM    DATA     BIT       C_T2
      000000DEH   SFRSYM    DATA     BYTE      SFINE2
      000000ADH   SFRSYM    DATA     BYTE      IRCON1
      000000AFH   SFRSYM    DATA     BYTE      IRCON2
      000000ABH   SFRSYM    DATA     BYTE      EXCON1
      00000099H   SFRSYM    DATA     BYTE      SBUF
      000000ACH   SFRSYM    DATA     BYTE      EXCON2
      00000087H   SFRSYM    DATA     BYTE      PCON
      000000F1H   SFRSYM    DATA     BYTE      AUXC
LX51 LINKER/LOCATER V4.66.41.0                                                        11/18/2021  18:51:21  PAGE 150


      00000098H   SFRSYM    DATA     BYTE      SCON
      000000D4H   SFRSYM    DATA     BYTE      TK0BASEH
      00000089H   SFRSYM    DATA     BYTE      TMOD
      00000088H   SFRSYM    DATA     BYTE      TCON
      000000AAH   SFRSYM    DATA     BYTE      IENX
      000000EEH   SFRSYM    DATA     BYTE      IB_OFFSET
      000000D6H   SFRSYM    DATA     BYTE      TK1BASEH
      000000DCH   SFRSYM    DATA     BYTE      SBRT1H
      000000DFH   SFRSYM    DATA     BYTE      TK2BASEH
      000000FCH   SFRSYM    DATA     BYTE      SBRT2H
      000000B1H   SFRSYM    DATA     BYTE      RSTSTAT
      000000D3H   SFRSYM    DATA     BYTE      TK0BASEL
      000000D5H   SFRSYM    DATA     BYTE      TK1BASEL
      000000DDH   SFRSYM    DATA     BYTE      SBRT1L
      000000D7H   SFRSYM    DATA     BYTE      TK2BASEL
      000000FDH   SFRSYM    DATA     BYTE      SBRT2L
      00000098H.7 SFRSYM    DATA     BIT       SM0_FE
      000000B2H   SFRSYM    DATA     BYTE      CLKCON
      00000098H.5 SFRSYM    DATA     BIT       SM2_TXCOL
      000000B5H   SFRSYM    DATA     BYTE      LDOCON
      000000F0H   SFRSYM    DATA     BYTE      B
      000000C8H   SFRSYM    DATA     BIT       CP_RL2
      000000E0H   SFRSYM    DATA     BYTE      ACC
      000000A8H.4 SFRSYM    DATA     BIT       ES0
      000000A8H.1 SFRSYM    DATA     BIT       ET0
      000000A8H.3 SFRSYM    DATA     BIT       ET1
      00000088H.5 SFRSYM    DATA     BIT       TF0
      000000A8H.5 SFRSYM    DATA     BIT       ET2
      00000088H.7 SFRSYM    DATA     BIT       TF1
      000000D8H   SFRSYM    DATA     BIT       RI1
      00000098H.2 SFRSYM    DATA     BIT       RB8
      000000C8H.7 SFRSYM    DATA     BIT       TF2
      0000008CH   SFRSYM    DATA     BYTE      TH0
      00000086H   SFRSYM    DATA     BYTE      INSCON
      0000008DH   SFRSYM    DATA     BYTE      TH1
      000000D8H.1 SFRSYM    DATA     BIT       TI1
      00000098H.3 SFRSYM    DATA     BIT       TB8
      000000CDH   SFRSYM    DATA     BYTE      TH2
      000000D0H   SFRSYM    DATA     BIT       P
      0000008AH   SFRSYM    DATA     BYTE      TL0
      000000A8H   SFRSYM    DATA     BIT       EX4
      0000008BH   SFRSYM    DATA     BYTE      TL1
      000000A7H   SFRSYM    DATA     BYTE      FLASHCON
      000000CCH   SFRSYM    DATA     BYTE      TL2
      000000D0H.3 SFRSYM    DATA     BIT       RS0
      000000C5H   SFRSYM    DATA     BYTE      ADCDH
      00000088H.4 SFRSYM    DATA     BIT       TR0
      000000D0H.4 SFRSYM    DATA     BIT       RS1
      0000009FH   SFRSYM    DATA     BYTE      PWMCON
      00000088H.6 SFRSYM    DATA     BIT       TR1
      000000C8H.2 SFRSYM    DATA     BIT       TR2
      000000C4H   SFRSYM    DATA     BYTE      ADCDL
      000000C2H   SFRSYM    DATA     BYTE      ADT
      00000083H   SFRSYM    DATA     BYTE      DPH
      00000082H   SFRSYM    DATA     BYTE      DPL
      000000D9H   SFRSYM    DATA     BYTE      SBUF1
      000000C8H.3 SFRSYM    DATA     BIT       EXEN2
      000000F9H   SFRSYM    DATA     BYTE      SBUF2
      000000D8H.6 SFRSYM    DATA     BIT       SM11_RXOV1
      000000B8H.6 SFRSYM    DATA     BIT       PADCL
      00000098H.4 SFRSYM    DATA     BIT       REN
      000000D8H   SFRSYM    DATA     BYTE      SCON1
      000000D1H   SFRSYM    DATA     BYTE      LCDCON1
      000000C1H   SFRSYM    DATA     BYTE      ADCON
      000000F8H   SFRSYM    DATA     BYTE      SCON2
LX51 LINKER/LOCATER V4.66.41.0                                                        11/18/2021  18:51:21  PAGE 151


      0000008FH   SFRSYM    DATA     BYTE      TCON1
      000000D2H   SFRSYM    DATA     BYTE      LCDCON2
      00000092H   SFRSYM    DATA     BYTE      EDTAH
      000000C9H   SFRSYM    DATA     BYTE      T2MOD
      000000C8H   SFRSYM    DATA     BYTE      T2CON
      00000094H   SFRSYM    DATA     BYTE      EDTAL
      00000093H   SFRSYM    DATA     BYTE      EDTAM
      000000BCH   SFRSYM    DATA     BYTE      TK0DIFH
      0000009BH   SFRSYM    DATA     BYTE      SADEN
      000000BEH   SFRSYM    DATA     BYTE      TK1DIFH
      000000B6H   SFRSYM    DATA     BYTE      PBANK
      000000A5H   SFRSYM    DATA     BYTE      TK2DIFH
      000000A8H.6 SFRSYM    DATA     BIT       EADTP
      0000009AH   SFRSYM    DATA     BYTE      SADDR
      000000CFH   SFRSYM    DATA     BYTE      TK0DIFL
      000000BDH   SFRSYM    DATA     BYTE      TK1DIFL
      000000BFH   SFRSYM    DATA     BYTE      TK2DIFL
      000000B8H.2 SFRSYM    DATA     BIT       P7816L
      000000C6H   SFRSYM    DATA     BYTE      LPDCON1
      000000C7H   SFRSYM    DATA     BYTE      LPDCON2
      000000D0H.5 SFRSYM    DATA     BIT       F0
      000000AEH   SFRSYM    DATA     BYTE      IRDAT
      000000D0H.1 SFRSYM    DATA     BIT       F1
      00000096H   SFRSYM    DATA     BYTE      EMUIE
      0000009EH   SFRSYM    DATA     BYTE      SFINE
      000000F7H   SFRSYM    DATA     BYTE      XPAGE
      00000097H   SFRSYM    DATA     BYTE      EMUIF
      000000D0H   SFRSYM    DATA     BYTE      PSW
      000000D8H.2 SFRSYM    DATA     BIT       RB81
      000000A3H   SFRSYM    DATA     BYTE      SPDAT
      000000F2H   SFRSYM    DATA     BYTE      IB_CON1

      00819D90H   BLOCK     CODE/B1  ---       LVL=0
      00819D90H   LINE      ---      ---       #92
      00819D90H   LINE      ---      ---       #93
      00819D90H   LINE      ---      ---       #96
      00819D92H   LINE      ---      ---       #99
      ---         BLOCKEND  ---      ---       LVL=0

      00819DC5H   BLOCK     CODE/B1  ---       LVL=0
      00819DC5H   LINE      ---      ---       #115
      00819DC5H   LINE      ---      ---       #116
      00819DC5H   BLOCK     CODE/B1  NEAR LAB  LVL=1
      00819DC5H   LINE      ---      ---       #118
      00819DCFH   LINE      ---      ---       #119
      00819DD4H   LINE      ---      ---       #121
      00819DDAH   LINE      ---      ---       #122
      00819DDAH   LINE      ---      ---       #128
      00819DE1H   LINE      ---      ---       #130
      00819DE8H   LINE      ---      ---       #131
      00819DF0H   LINE      ---      ---       #132
      00819DF5H   LINE      ---      ---       #134
      00819DFCH   LINE      ---      ---       #136
      00819E07H   LINE      ---      ---       #137
      00819E0EH   LINE      ---      ---       #138
      00819E0EH   LINE      ---      ---       #139
      00819E14H   LINE      ---      ---       #140
      00819E14H   LINE      ---      ---       #143
      00819E1DH   LINE      ---      ---       #144
      00819E1DH   LINE      ---      ---       #146
      00819E1DH   LINE      ---      ---       #147
      00819E26H   LINE      ---      ---       #148
      00819E26H   LINE      ---      ---       #150
      00819E26H   LINE      ---      ---       #153
      00819E2DH   LINE      ---      ---       #154
LX51 LINKER/LOCATER V4.66.41.0                                                        11/18/2021  18:51:21  PAGE 152


      00819E2DH   LINE      ---      ---       #155
      02000609H   SYMBOL    XDATA    BYTE      V_ucDirection
      0200060AH   SYMBOL    XDATA    DWORD     V_ulPowerReg
      0200060EH   SYMBOL    XDATA    BYTE      V_ucPulseAdd
      ---         BLOCKEND  CODE/B1  ---       LVL=1
      ---         BLOCKEND  CODE/B1  ---       LVL=0

      0081AB7DH   BLOCK     CODE/B1  ---       LVL=0
      0081AB7DH   LINE      ---      ---       #169
      0081AB88H   LINE      ---      ---       #170
      0200060FH   SYMBOL    XDATA    ---       p_strEnergyPulse
      0081AB88H   BLOCK     CODE/B1  NEAR LAB  LVL=1
      0081AB88H   LINE      ---      ---       #172
      0081AB8DH   LINE      ---      ---       #173
      0081AB93H   LINE      ---      ---       #177
      0081ABBBH   LINE      ---      ---       #178
      0081ABBBH   LINE      ---      ---       #179
      0081ABC2H   LINE      ---      ---       #180
      0081ABC5H   LINE      ---      ---       #181
      0081ABC5H   LINE      ---      ---       #182
      0081ABD4H   LINE      ---      ---       #185
      0081ABF2H   LINE      ---      ---       #186
      0081ABF2H   LINE      ---      ---       #187
      0081ABF9H   LINE      ---      ---       #188
      0081AC11H   LINE      ---      ---       #190
      0081AC24H   LINE      ---      ---       #191
      0081AC33H   LINE      ---      ---       #193
      0081AC49H   LINE      ---      ---       #194
      0081AC49H   LINE      ---      ---       #195
      0081AC58H   LINE      ---      ---       #196
      0081AC58H   LINE      ---      ---       #200
      0081AC7BH   LINE      ---      ---       #201
      0081AC7BH   LINE      ---      ---       #202
      0081AC87H   LINE      ---      ---       #204
      0081AC8EH   LINE      ---      ---       #205
      0081AC90H   LINE      ---      ---       #207
      0081AC90H   LINE      ---      ---       #208
      0081AC9DH   LINE      ---      ---       #210
      0081AC9DH   LINE      ---      ---       #212
      0081ACB2H   LINE      ---      ---       #213
      0081ACC5H   LINE      ---      ---       #214
      0081ACD5H   LINE      ---      ---       #215
      0081ACEEH   LINE      ---      ---       #218
      0081AD16H   LINE      ---      ---       #219
      0081AD16H   LINE      ---      ---       #220
      0081AD18H   LINE      ---      ---       #221
      0081AD18H   LINE      ---      ---       #222
      0081AD1AH   LINE      ---      ---       #226
      0081AD30H   LINE      ---      ---       #227
      0081AD30H   LINE      ---      ---       #228
      0081AD35H   LINE      ---      ---       #229
      0081AD37H   LINE      ---      ---       #230
      0081AD3AH   LINE      ---      ---       #231
      0081AD4FH   LINE      ---      ---       #232
      0081AD4FH   LINE      ---      ---       #233
      0081AD66H   LINE      ---      ---       #234
      0081AD68H   LINE      ---      ---       #236
      0081AD68H   LINE      ---      ---       #237
      0081AD83H   LINE      ---      ---       #238
      0081AD83H   LINE      ---      ---       #242
      0081AD90H   LINE      ---      ---       #245
      0081AD95H   LINE      ---      ---       #246
      0081ADA7H   LINE      ---      ---       #247
      0081ADB6H   LINE      ---      ---       #248
      0081ADB6H   LINE      ---      ---       #249
LX51 LINKER/LOCATER V4.66.41.0                                                        11/18/2021  18:51:21  PAGE 153


      0081ADC5H   LINE      ---      ---       #250
      0081ADCDH   LINE      ---      ---       #252
      0081ADD4H   LINE      ---      ---       #253
      0081ADD6H   LINE      ---      ---       #255
      0081ADD6H   LINE      ---      ---       #256
      0081ADEBH   LINE      ---      ---       #257
      0081ADEBH   LINE      ---      ---       #260
      0081ADEEH   LINE      ---      ---       #261
      0081ADF1H   LINE      ---      ---       #263
      0081AE09H   LINE      ---      ---       #266
      0081AE0BH   LINE      ---      ---       #267
      02000612H   SYMBOL    XDATA    ---       V_ucaTempBuff
      02000616H   SYMBOL    XDATA    BYTE      V_ucTemp08
      02000617H   SYMBOL    XDATA    BYTE      V_ucCnt_i
      02000618H   SYMBOL    XDATA    WORD      V_usE2pIndex
      ---         BLOCKEND  CODE/B1  ---       LVL=1
      ---         BLOCKEND  CODE/B1  ---       LVL=0

      00819D67H   BLOCK     CODE/B1  ---       LVL=0
      00819D67H   LINE      ---      ---       #280
      00819D67H   LINE      ---      ---       #281
      00819D67H   LINE      ---      ---       #282
      00819D83H   LINE      ---      ---       #283
      00819D83H   LINE      ---      ---       #284
      00819D8CH   LINE      ---      ---       #287
      00819D8FH   LINE      ---      ---       #289
      00819D8FH   LINE      ---      ---       #290
      ---         BLOCKEND  ---      ---       LVL=0

      00818B87H   BLOCK     CODE/B1  ---       LVL=0
      00818B87H   LINE      ---      ---       #310
      00818B8CH   LINE      ---      ---       #311
      02000629H   SYMBOL    XDATA    BYTE      v_ucChID
      00818B8CH   BLOCK     CODE/B1  NEAR LAB  LVL=1
      00818B8CH   LINE      ---      ---       #319
      00818B91H   LINE      ---      ---       #323
      00818BB5H   LINE      ---      ---       #324
      00818BFCH   LINE      ---      ---       #325
      00818C43H   LINE      ---      ---       #326
      00818C8AH   LINE      ---      ---       #331
      00818CACH   LINE      ---      ---       #332
      00818CB7H   LINE      ---      ---       #333
      00818CD7H   LINE      ---      ---       #339
      00818CF6H   LINE      ---      ---       #340
      00818CF6H   LINE      ---      ---       #343
      00818D07H   LINE      ---      ---       #346
      00818D29H   LINE      ---      ---       #347
      00818D52H   LINE      ---      ---       #348
      00818D7FH   LINE      ---      ---       #349
      00818DA8H   LINE      ---      ---       #350
      00818DADH   LINE      ---      ---       #354
      00818DADH   LINE      ---      ---       #357
      00818DCCH   LINE      ---      ---       #358
      00818DCCH   LINE      ---      ---       #361
      00818DF1H   LINE      ---      ---       #362
      00818E38H   LINE      ---      ---       #363
      00818E7FH   LINE      ---      ---       #364
      00818EB6H   LINE      ---      ---       #370
      00818EDEH   LINE      ---      ---       #371
      00818EDEH   LINE      ---      ---       #372
      00818EDEH   LINE      ---      ---       #373
      00818EDEH   LINE      ---      ---       #374
      00818EDEH   LINE      ---      ---       #376
      00818EFCH   LINE      ---      ---       #380
      00818EFEH   LINE      ---      ---       #382
LX51 LINKER/LOCATER V4.66.41.0                                                        11/18/2021  18:51:21  PAGE 154


      00818EFEH   LINE      ---      ---       #383
      00818EFEH   LINE      ---      ---       #384
      00818F19H   LINE      ---      ---       #385
      00818F19H   LINE      ---      ---       #386
      00818F19H   LINE      ---      ---       #387
      00818F19H   LINE      ---      ---       #388
      00818F1BH   LINE      ---      ---       #389
      00818F1DH   LINE      ---      ---       #396
      00818F1DH   LINE      ---      ---       #400
      00818F1DH   LINE      ---      ---       #401
      00818F1DH   LINE      ---      ---       #403
      00818F1DH   LINE      ---      ---       #404
      00818F1DH   LINE      ---      ---       #405
      00818F25H   LINE      ---      ---       #406
      00818F27H   LINE      ---      ---       #408
      00818F27H   LINE      ---      ---       #409
      00818F27H   LINE      ---      ---       #410
      00818F2FH   LINE      ---      ---       #411
      00818F31H   LINE      ---      ---       #413
      00818F31H   LINE      ---      ---       #414
      00818F31H   LINE      ---      ---       #415
      00818F37H   LINE      ---      ---       #416
      00818F37H   LINE      ---      ---       #417
      00818F37H   LINE      ---      ---       #419
      00818F37H   LINE      ---      ---       #421
      00818F3CH   LINE      ---      ---       #422
      0200062AH   SYMBOL    XDATA    WORD      V_usRegAddress
      0200062CH   SYMBOL    XDATA    DWORD     V_ulResult
      02000630H   SYMBOL    XDATA    DWORD     V_ulRegData
      02000634H   SYMBOL    XDATA    DWORD     V_ulDI3DI2DI1DI0
      02000638H   SYMBOL    XDATA    BYTE      V_ucErrorType
      ---         BLOCKEND  CODE/B1  ---       LVL=1
      ---         BLOCKEND  CODE/B1  ---       LVL=0

      008187E1H   BLOCK     CODE/B1  ---       LVL=0
      ---         BLOCKEND  ---      ---       LVL=0

      0081A1D0H   BLOCK     CODE/B1  ---       LVL=0
      0081A1D0H   LINE      ---      ---       #450
      0081A1D0H   LINE      ---      ---       #451
      0081A1D0H   LINE      ---      ---       #452
      ---         BLOCKEND  ---      ---       LVL=0

      00819E2EH   BLOCK     CODE/B1  ---       LVL=0
      ---         BLOCKEND  ---      ---       LVL=0

      00818F50H   BLOCK     CODE/B1  ---       LVL=0
      00818F50H   LINE      ---      ---       #484
      00818F50H   LINE      ---      ---       #485
      00818F50H   LINE      ---      ---       #486
      00000007H   SYMBOL    DATA     BYTE      v_ucWorkMode
      ---         BLOCKEND  ---      ---       LVL=0

      ---         MODULE    ---      ---       APPMONEY
      0081A628H   PUBLIC    CODE/B1  ---       ApiMoney_TimeingHoldMoney
      0081A5D1H   PUBLIC    CODE/B1  ---       ApiMoney_RefreshPrice
      0081AA02H   PUBLIC    CODE/B1  ---       ApiMoney_RemainMoneyProcess
      000000F3H   SFRSYM    DATA     BYTE      IB_CON2
      000000D8H.3 SFRSYM    DATA     BIT       TB81
      00000080H   SFRSYM    DATA     BYTE      P0
      000000F4H   SFRSYM    DATA     BYTE      IB_CON3
      000000A4H   SFRSYM    DATA     BYTE      TKCON
      00000090H   SFRSYM    DATA     BYTE      P1
      000000F5H   SFRSYM    DATA     BYTE      IB_CON4
      000000E7H   SFRSYM    DATA     BYTE      PASLO
LX51 LINKER/LOCATER V4.66.41.0                                                        11/18/2021  18:51:21  PAGE 155


      000000A0H   SFRSYM    DATA     BYTE      P2
      000000FEH   SFRSYM    DATA     BYTE      OSCLO
      000000F6H   SFRSYM    DATA     BYTE      IB_CON5
      00000098H.6 SFRSYM    DATA     BIT       SM1_RXOV
      000000B0H   SFRSYM    DATA     BYTE      P3
      000000D0H.6 SFRSYM    DATA     BIT       AC
      000000C0H   SFRSYM    DATA     BYTE      P4
      000000A1H   SFRSYM    DATA     BYTE      SPCON
      0000009CH   SFRSYM    DATA     BYTE      SBRTH
      000000E9H   SFRSYM    DATA     BYTE      P5
      000000A8H.7 SFRSYM    DATA     BIT       EA
      000000EAH   SFRSYM    DATA     BYTE      P6
      000000EBH   SFRSYM    DATA     BYTE      P7
      000000EFH   SFRSYM    DATA     BYTE      IB_DATA
      000000ECH   SFRSYM    DATA     BYTE      P8
      0000009DH   SFRSYM    DATA     BYTE      SBRTL
      000000EDH   SFRSYM    DATA     BYTE      P9
      000000B7H   SFRSYM    DATA     BYTE      PBANKLO
      000000A2H   SFRSYM    DATA     BYTE      SPSTA
      000000A8H   SFRSYM    DATA     BYTE      IEN0
      000000B3H   SFRSYM    DATA     BYTE      PWRCON1
      00000095H   SFRSYM    DATA     BYTE      EMUSR
      000000A9H   SFRSYM    DATA     BYTE      IEN1
      000000B4H   SFRSYM    DATA     BYTE      PWRCON2
      00000085H   SFRSYM    DATA     BYTE      DPH1
      00000080H   SFRSYM    DATA     BIT       P0_0
      00000090H   SFRSYM    DATA     BIT       P1_0
      00000080H.1 SFRSYM    DATA     BIT       P0_1
      000000C3H   SFRSYM    DATA     BYTE      ADCH
      000000A0H   SFRSYM    DATA     BIT       P2_0
      00000090H.1 SFRSYM    DATA     BIT       P1_1
      00000080H.2 SFRSYM    DATA     BIT       P0_2
      000000BAH   SFRSYM    DATA     BYTE      IPH0
      00000084H   SFRSYM    DATA     BYTE      DPL1
      000000B0H   SFRSYM    DATA     BIT       P3_0
      000000A0H.1 SFRSYM    DATA     BIT       P2_1
      00000090H.2 SFRSYM    DATA     BIT       P1_2
      00000080H.3 SFRSYM    DATA     BIT       P0_3
      000000BBH   SFRSYM    DATA     BYTE      IPH1
      000000C0H   SFRSYM    DATA     BIT       P4_0
      000000B0H.1 SFRSYM    DATA     BIT       P3_1
      000000A0H.2 SFRSYM    DATA     BIT       P2_2
      00000090H.3 SFRSYM    DATA     BIT       P1_3
      00000080H.4 SFRSYM    DATA     BIT       P0_4
      000000E8H   SFRSYM    DATA     BYTE      EXF0
      000000C0H.1 SFRSYM    DATA     BIT       P4_1
      000000B0H.2 SFRSYM    DATA     BIT       P3_2
      000000A0H.3 SFRSYM    DATA     BIT       P2_3
      00000090H.4 SFRSYM    DATA     BIT       P1_4
      00000080H.5 SFRSYM    DATA     BIT       P0_5
      000000C0H.2 SFRSYM    DATA     BIT       P4_2
      000000B0H.3 SFRSYM    DATA     BIT       P3_3
      000000A0H.4 SFRSYM    DATA     BIT       P2_4
      00000090H.5 SFRSYM    DATA     BIT       P1_5
      00000080H.6 SFRSYM    DATA     BIT       P0_6
      000000C8H.6 SFRSYM    DATA     BIT       EXF2
      000000A6H   SFRSYM    DATA     BYTE      TKF0
      000000B8H   SFRSYM    DATA     BYTE      IPL0
      000000C0H.3 SFRSYM    DATA     BIT       P4_3
      000000B0H.4 SFRSYM    DATA     BIT       P3_4
      000000A0H.5 SFRSYM    DATA     BIT       P2_5
      00000090H.6 SFRSYM    DATA     BIT       P1_6
      00000080H.7 SFRSYM    DATA     BIT       P0_7
      000000D8H.4 SFRSYM    DATA     BIT       REN1
      000000B9H   SFRSYM    DATA     BYTE      IPL1
LX51 LINKER/LOCATER V4.66.41.0                                                        11/18/2021  18:51:21  PAGE 156


      000000C0H.4 SFRSYM    DATA     BIT       P4_4
      000000B0H.5 SFRSYM    DATA     BIT       P3_5
      000000A0H.6 SFRSYM    DATA     BIT       P2_6
      00000090H.7 SFRSYM    DATA     BIT       P1_7
      000000E2H   SFRSYM    DATA     BYTE      TK0H
      0000008EH   SFRSYM    DATA     BYTE      SUSLO
      000000C0H.5 SFRSYM    DATA     BIT       P4_5
      000000B0H.6 SFRSYM    DATA     BIT       P3_6
      000000A0H.7 SFRSYM    DATA     BIT       P2_7
      000000E4H   SFRSYM    DATA     BYTE      TK1H
      000000C0H.6 SFRSYM    DATA     BIT       P4_6
      000000B0H.7 SFRSYM    DATA     BIT       P3_7
      000000E6H   SFRSYM    DATA     BYTE      TK2H
      000000C0H.7 SFRSYM    DATA     BIT       P4_7
      00000098H   SFRSYM    DATA     BIT       RI
      000000A8H.2 SFRSYM    DATA     BIT       E7816
      000000D0H.7 SFRSYM    DATA     BIT       CY
      000000E1H   SFRSYM    DATA     BYTE      TK0L
      00000098H.1 SFRSYM    DATA     BIT       TI
      00000091H   SFRSYM    DATA     BYTE      EADR
      000000E3H   SFRSYM    DATA     BYTE      TK1L
      000000E5H   SFRSYM    DATA     BYTE      TK2L
      000000DBH   SFRSYM    DATA     BYTE      SADEN1
      000000D8H.7 SFRSYM    DATA     BIT       SM10_FE1
      000000FBH   SFRSYM    DATA     BYTE      SADEN2
      000000B8H.4 SFRSYM    DATA     BIT       PS0L
      000000B8H.1 SFRSYM    DATA     BIT       PT0L
      000000DAH   SFRSYM    DATA     BYTE      SADDR1
      000000D8H.5 SFRSYM    DATA     BIT       SM12_TXCOL1
      000000B8H.3 SFRSYM    DATA     BIT       PT1L
      000000FAH   SFRSYM    DATA     BYTE      SADDR2
      000000CBH   SFRSYM    DATA     BYTE      RCAP2H
      000000B8H.5 SFRSYM    DATA     BIT       PT2L
      00000081H   SFRSYM    DATA     BYTE      SP
      000000D0H.2 SFRSYM    DATA     BIT       OV
      000000CAH   SFRSYM    DATA     BYTE      RCAP2L
      000000B8H   SFRSYM    DATA     BIT       PX4L
      000000C8H.1 SFRSYM    DATA     BIT       C_T2
      000000DEH   SFRSYM    DATA     BYTE      SFINE2
      000000ADH   SFRSYM    DATA     BYTE      IRCON1
      000000AFH   SFRSYM    DATA     BYTE      IRCON2
      000000ABH   SFRSYM    DATA     BYTE      EXCON1
      00000099H   SFRSYM    DATA     BYTE      SBUF
      000000ACH   SFRSYM    DATA     BYTE      EXCON2
      00000087H   SFRSYM    DATA     BYTE      PCON
      000000F1H   SFRSYM    DATA     BYTE      AUXC
      00000098H   SFRSYM    DATA     BYTE      SCON
      000000D4H   SFRSYM    DATA     BYTE      TK0BASEH
      00000089H   SFRSYM    DATA     BYTE      TMOD
      00000088H   SFRSYM    DATA     BYTE      TCON
      000000AAH   SFRSYM    DATA     BYTE      IENX
      000000EEH   SFRSYM    DATA     BYTE      IB_OFFSET
      000000D6H   SFRSYM    DATA     BYTE      TK1BASEH
      000000DCH   SFRSYM    DATA     BYTE      SBRT1H
      000000DFH   SFRSYM    DATA     BYTE      TK2BASEH
      000000FCH   SFRSYM    DATA     BYTE      SBRT2H
      000000B1H   SFRSYM    DATA     BYTE      RSTSTAT
      000000D3H   SFRSYM    DATA     BYTE      TK0BASEL
      000000D5H   SFRSYM    DATA     BYTE      TK1BASEL
      000000DDH   SFRSYM    DATA     BYTE      SBRT1L
      000000D7H   SFRSYM    DATA     BYTE      TK2BASEL
      000000FDH   SFRSYM    DATA     BYTE      SBRT2L
      00000098H.7 SFRSYM    DATA     BIT       SM0_FE
      000000B2H   SFRSYM    DATA     BYTE      CLKCON
      00000098H.5 SFRSYM    DATA     BIT       SM2_TXCOL
LX51 LINKER/LOCATER V4.66.41.0                                                        11/18/2021  18:51:21  PAGE 157


      000000B5H   SFRSYM    DATA     BYTE      LDOCON
      000000F0H   SFRSYM    DATA     BYTE      B
      000000C8H   SFRSYM    DATA     BIT       CP_RL2
      000000E0H   SFRSYM    DATA     BYTE      ACC
      000000A8H.4 SFRSYM    DATA     BIT       ES0
      000000A8H.1 SFRSYM    DATA     BIT       ET0
      000000A8H.3 SFRSYM    DATA     BIT       ET1
      00000088H.5 SFRSYM    DATA     BIT       TF0
      000000A8H.5 SFRSYM    DATA     BIT       ET2
      00000088H.7 SFRSYM    DATA     BIT       TF1
      000000D8H   SFRSYM    DATA     BIT       RI1
      00000098H.2 SFRSYM    DATA     BIT       RB8
      000000C8H.7 SFRSYM    DATA     BIT       TF2
      0000008CH   SFRSYM    DATA     BYTE      TH0
      00000086H   SFRSYM    DATA     BYTE      INSCON
      0000008DH   SFRSYM    DATA     BYTE      TH1
      000000D8H.1 SFRSYM    DATA     BIT       TI1
      00000098H.3 SFRSYM    DATA     BIT       TB8
      000000CDH   SFRSYM    DATA     BYTE      TH2
      000000D0H   SFRSYM    DATA     BIT       P
      0000008AH   SFRSYM    DATA     BYTE      TL0
      000000A8H   SFRSYM    DATA     BIT       EX4
      0000008BH   SFRSYM    DATA     BYTE      TL1
      000000A7H   SFRSYM    DATA     BYTE      FLASHCON
      000000CCH   SFRSYM    DATA     BYTE      TL2
      000000D0H.3 SFRSYM    DATA     BIT       RS0
      000000C5H   SFRSYM    DATA     BYTE      ADCDH
      00000088H.4 SFRSYM    DATA     BIT       TR0
      000000D0H.4 SFRSYM    DATA     BIT       RS1
      0000009FH   SFRSYM    DATA     BYTE      PWMCON
      00000088H.6 SFRSYM    DATA     BIT       TR1
      000000C8H.2 SFRSYM    DATA     BIT       TR2
      000000C4H   SFRSYM    DATA     BYTE      ADCDL
      000000C2H   SFRSYM    DATA     BYTE      ADT
      00000083H   SFRSYM    DATA     BYTE      DPH
      00000082H   SFRSYM    DATA     BYTE      DPL
      000000D9H   SFRSYM    DATA     BYTE      SBUF1
      000000C8H.3 SFRSYM    DATA     BIT       EXEN2
      000000F9H   SFRSYM    DATA     BYTE      SBUF2
      000000D8H.6 SFRSYM    DATA     BIT       SM11_RXOV1
      000000B8H.6 SFRSYM    DATA     BIT       PADCL
      00000098H.4 SFRSYM    DATA     BIT       REN
      000000D8H   SFRSYM    DATA     BYTE      SCON1
      000000D1H   SFRSYM    DATA     BYTE      LCDCON1
      000000C1H   SFRSYM    DATA     BYTE      ADCON
      000000F8H   SFRSYM    DATA     BYTE      SCON2
      0000008FH   SFRSYM    DATA     BYTE      TCON1
      000000D2H   SFRSYM    DATA     BYTE      LCDCON2
      00000092H   SFRSYM    DATA     BYTE      EDTAH
      000000C9H   SFRSYM    DATA     BYTE      T2MOD
      000000C8H   SFRSYM    DATA     BYTE      T2CON
      00000094H   SFRSYM    DATA     BYTE      EDTAL
      00000093H   SFRSYM    DATA     BYTE      EDTAM
      000000BCH   SFRSYM    DATA     BYTE      TK0DIFH
      0000009BH   SFRSYM    DATA     BYTE      SADEN
      000000BEH   SFRSYM    DATA     BYTE      TK1DIFH
      000000B6H   SFRSYM    DATA     BYTE      PBANK
      000000A5H   SFRSYM    DATA     BYTE      TK2DIFH
      000000A8H.6 SFRSYM    DATA     BIT       EADTP
      0000009AH   SFRSYM    DATA     BYTE      SADDR
      000000CFH   SFRSYM    DATA     BYTE      TK0DIFL
      000000BDH   SFRSYM    DATA     BYTE      TK1DIFL
      000000BFH   SFRSYM    DATA     BYTE      TK2DIFL
      000000B8H.2 SFRSYM    DATA     BIT       P7816L
      000000C6H   SFRSYM    DATA     BYTE      LPDCON1
LX51 LINKER/LOCATER V4.66.41.0                                                        11/18/2021  18:51:21  PAGE 158


      000000C7H   SFRSYM    DATA     BYTE      LPDCON2
      000000D0H.5 SFRSYM    DATA     BIT       F0
      000000AEH   SFRSYM    DATA     BYTE      IRDAT
      000000D0H.1 SFRSYM    DATA     BIT       F1
      00000096H   SFRSYM    DATA     BYTE      EMUIE
      0000009EH   SFRSYM    DATA     BYTE      SFINE
      000000F7H   SFRSYM    DATA     BYTE      XPAGE
      00000097H   SFRSYM    DATA     BYTE      EMUIF
      000000D0H   SFRSYM    DATA     BYTE      PSW
      000000D8H.2 SFRSYM    DATA     BIT       RB81
      000000A3H   SFRSYM    DATA     BYTE      SPDAT
      000000F2H   SFRSYM    DATA     BYTE      IB_CON1

      0081AA02H   BLOCK     CODE/B1  ---       LVL=0
      0081AA02H   LINE      ---      ---       #86
      0081AA02H   LINE      ---      ---       #87
      0081AA02H   BLOCK     CODE/B1  NEAR LAB  LVL=1
      0081AA02H   LINE      ---      ---       #96
      0081AA0BH   LINE      ---      ---       #97
      0081AA0BH   LINE      ---      ---       #99
      0081AA0BH   LINE      ---      ---       #100
      0081AA12H   LINE      ---      ---       #104
      0081AA15H   LINE      ---      ---       #105
      0081AA29H   LINE      ---      ---       #106
      0081AA44H   LINE      ---      ---       #110
      0081AA47H   LINE      ---      ---       #117
      0081AA62H   LINE      ---      ---       #119
      0081AA67H   LINE      ---      ---       #120
      0081AA69H   LINE      ---      ---       #125
      0081AA8CH   LINE      ---      ---       #126
      0081AA8CH   LINE      ---      ---       #127
      0081AAAEH   LINE      ---      ---       #128
      0081AAAEH   LINE      ---      ---       #130
      0081AAB5H   LINE      ---      ---       #131
      0081AAB5H   LINE      ---      ---       #133
      0081AAD0H   LINE      ---      ---       #134
      0081AAD2H   LINE      ---      ---       #136
      0081AAD2H   LINE      ---      ---       #137
      0081AAEDH   LINE      ---      ---       #138
      0081AB01H   LINE      ---      ---       #139
      0081AB1CH   LINE      ---      ---       #140
      0081AB1CH   LINE      ---      ---       #143
      0081AB37H   LINE      ---      ---       #144
      0081AB52H   LINE      ---      ---       #146
      0081AB63H   LINE      ---      ---       #150
      0081AB6AH   LINE      ---      ---       #151
      0081AB6AH   LINE      ---      ---       #152
      0081AB6EH   LINE      ---      ---       #154
      0081AB7CH   LINE      ---      ---       #161
      0081AB7CH   LINE      ---      ---       #163
      0200061AH   SYMBOL    XDATA    ---       V_ucaBuff_RemainMoney
      02000620H   SYMBOL    XDATA    ---       V_ucaBuff_TickMoney
      02000626H   SYMBOL    XDATA    ---       V_ucaBuff_Price
      ---         BLOCKEND  CODE/B1  ---       LVL=1
      ---         BLOCKEND  CODE/B1  ---       LVL=0

      0081A5D1H   BLOCK     CODE/B1  ---       LVL=0
      0081A5D1H   LINE      ---      ---       #202
      0081A5D1H   LINE      ---      ---       #203
      0081A5D1H   LINE      ---      ---       #204
      0081A5EEH   LINE      ---      ---       #205
      0081A5EEH   LINE      ---      ---       #206
      0081A5FFH   LINE      ---      ---       #207
      0081A5FFH   LINE      ---      ---       #208
      0081A613H   LINE      ---      ---       #209
LX51 LINKER/LOCATER V4.66.41.0                                                        11/18/2021  18:51:21  PAGE 159


      0081A619H   LINE      ---      ---       #210
      0081A627H   LINE      ---      ---       #211
      0081A627H   LINE      ---      ---       #212
      0081A627H   LINE      ---      ---       #213
      ---         BLOCKEND  ---      ---       LVL=0

      0081A628H   BLOCK     CODE/B1  ---       LVL=0
      0081A628H   LINE      ---      ---       #225
      0081A628H   LINE      ---      ---       #226
      0081A628H   BLOCK     CODE/B1  NEAR LAB  LVL=1
      0081A628H   LINE      ---      ---       #230
      0081A62EH   LINE      ---      ---       #231
      0081A634H   LINE      ---      ---       #232
      0081A634H   LINE      ---      ---       #233
      0081A636H   LINE      ---      ---       #234
      0081A636H   LINE      ---      ---       #235
      0081A63DH   LINE      ---      ---       #236
      0081A63DH   LINE      ---      ---       #237
      0081A645H   LINE      ---      ---       #238
      0081A653H   LINE      ---      ---       #239
      0081A667H   LINE      ---      ---       #240
      0081A671H   LINE      ---      ---       #241
      0081A674H   LINE      ---      ---       #243
      0081A68DH   LINE      ---      ---       #250
      0081A68DH   LINE      ---      ---       #251
      0200060AH   SYMBOL    XDATA    BYTE      V_ucTemp
      0200060BH   SYMBOL    XDATA    BYTE      V_usCRC16
      0200060CH   SYMBOL    XDATA    ---       V_MoneyDataCRC
      ---         BLOCKEND  CODE/B1  ---       LVL=1
      ---         BLOCKEND  CODE/B1  ---       LVL=0

      ---         MODULE    ---      ---       APPRELAYCONTROL
      0081B93CH   PUBLIC    CODE/B1  ---       Api_PowerLoadLimitedCheck
      0081824FH   PUBLIC    CODE/B1  ---       ApiRelay_SubtractMoneyRelayJudge
      00818685H   PUBLIC    CODE/B1  ---       ApiRelay_ControlProcess
      000000F3H   SFRSYM    DATA     BYTE      IB_CON2
      000000D8H.3 SFRSYM    DATA     BIT       TB81
      00000080H   SFRSYM    DATA     BYTE      P0
      000000F4H   SFRSYM    DATA     BYTE      IB_CON3
      000000A4H   SFRSYM    DATA     BYTE      TKCON
      00000090H   SFRSYM    DATA     BYTE      P1
      000000F5H   SFRSYM    DATA     BYTE      IB_CON4
      000000E7H   SFRSYM    DATA     BYTE      PASLO
      000000A0H   SFRSYM    DATA     BYTE      P2
      000000FEH   SFRSYM    DATA     BYTE      OSCLO
      000000F6H   SFRSYM    DATA     BYTE      IB_CON5
      00000098H.6 SFRSYM    DATA     BIT       SM1_RXOV
      000000B0H   SFRSYM    DATA     BYTE      P3
      000000D0H.6 SFRSYM    DATA     BIT       AC
      000000C0H   SFRSYM    DATA     BYTE      P4
      000000A1H   SFRSYM    DATA     BYTE      SPCON
      0000009CH   SFRSYM    DATA     BYTE      SBRTH
      000000E9H   SFRSYM    DATA     BYTE      P5
      000000A8H.7 SFRSYM    DATA     BIT       EA
      000000EAH   SFRSYM    DATA     BYTE      P6
      000000EBH   SFRSYM    DATA     BYTE      P7
      000000EFH   SFRSYM    DATA     BYTE      IB_DATA
      000000ECH   SFRSYM    DATA     BYTE      P8
      0000009DH   SFRSYM    DATA     BYTE      SBRTL
      000000EDH   SFRSYM    DATA     BYTE      P9
      000000B7H   SFRSYM    DATA     BYTE      PBANKLO
      000000A2H   SFRSYM    DATA     BYTE      SPSTA
      000000A8H   SFRSYM    DATA     BYTE      IEN0
      000000B3H   SFRSYM    DATA     BYTE      PWRCON1
      00000095H   SFRSYM    DATA     BYTE      EMUSR
LX51 LINKER/LOCATER V4.66.41.0                                                        11/18/2021  18:51:21  PAGE 160


      000000A9H   SFRSYM    DATA     BYTE      IEN1
      000000B4H   SFRSYM    DATA     BYTE      PWRCON2
      00000085H   SFRSYM    DATA     BYTE      DPH1
      00000080H   SFRSYM    DATA     BIT       P0_0
      00000090H   SFRSYM    DATA     BIT       P1_0
      00000080H.1 SFRSYM    DATA     BIT       P0_1
      000000C3H   SFRSYM    DATA     BYTE      ADCH
      000000A0H   SFRSYM    DATA     BIT       P2_0
      00000090H.1 SFRSYM    DATA     BIT       P1_1
      00000080H.2 SFRSYM    DATA     BIT       P0_2
      000000BAH   SFRSYM    DATA     BYTE      IPH0
      00000084H   SFRSYM    DATA     BYTE      DPL1
      000000B0H   SFRSYM    DATA     BIT       P3_0
      000000A0H.1 SFRSYM    DATA     BIT       P2_1
      00000090H.2 SFRSYM    DATA     BIT       P1_2
      00000080H.3 SFRSYM    DATA     BIT       P0_3
      000000BBH   SFRSYM    DATA     BYTE      IPH1
      000000C0H   SFRSYM    DATA     BIT       P4_0
      000000B0H.1 SFRSYM    DATA     BIT       P3_1
      000000A0H.2 SFRSYM    DATA     BIT       P2_2
      00000090H.3 SFRSYM    DATA     BIT       P1_3
      00000080H.4 SFRSYM    DATA     BIT       P0_4
      000000E8H   SFRSYM    DATA     BYTE      EXF0
      000000C0H.1 SFRSYM    DATA     BIT       P4_1
      000000B0H.2 SFRSYM    DATA     BIT       P3_2
      000000A0H.3 SFRSYM    DATA     BIT       P2_3
      00000090H.4 SFRSYM    DATA     BIT       P1_4
      00000080H.5 SFRSYM    DATA     BIT       P0_5
      000000C0H.2 SFRSYM    DATA     BIT       P4_2
      000000B0H.3 SFRSYM    DATA     BIT       P3_3
      000000A0H.4 SFRSYM    DATA     BIT       P2_4
      00000090H.5 SFRSYM    DATA     BIT       P1_5
      00000080H.6 SFRSYM    DATA     BIT       P0_6
      000000C8H.6 SFRSYM    DATA     BIT       EXF2
      000000A6H   SFRSYM    DATA     BYTE      TKF0
      000000B8H   SFRSYM    DATA     BYTE      IPL0
      000000C0H.3 SFRSYM    DATA     BIT       P4_3
      000000B0H.4 SFRSYM    DATA     BIT       P3_4
      000000A0H.5 SFRSYM    DATA     BIT       P2_5
      00000090H.6 SFRSYM    DATA     BIT       P1_6
      00000080H.7 SFRSYM    DATA     BIT       P0_7
      000000D8H.4 SFRSYM    DATA     BIT       REN1
      000000B9H   SFRSYM    DATA     BYTE      IPL1
      000000C0H.4 SFRSYM    DATA     BIT       P4_4
      000000B0H.5 SFRSYM    DATA     BIT       P3_5
      000000A0H.6 SFRSYM    DATA     BIT       P2_6
      00000090H.7 SFRSYM    DATA     BIT       P1_7
      000000E2H   SFRSYM    DATA     BYTE      TK0H
      0000008EH   SFRSYM    DATA     BYTE      SUSLO
      000000C0H.5 SFRSYM    DATA     BIT       P4_5
      000000B0H.6 SFRSYM    DATA     BIT       P3_6
      000000A0H.7 SFRSYM    DATA     BIT       P2_7
      000000E4H   SFRSYM    DATA     BYTE      TK1H
      000000C0H.6 SFRSYM    DATA     BIT       P4_6
      000000B0H.7 SFRSYM    DATA     BIT       P3_7
      000000E6H   SFRSYM    DATA     BYTE      TK2H
      000000C0H.7 SFRSYM    DATA     BIT       P4_7
      00000098H   SFRSYM    DATA     BIT       RI
      000000A8H.2 SFRSYM    DATA     BIT       E7816
      000000D0H.7 SFRSYM    DATA     BIT       CY
      000000E1H   SFRSYM    DATA     BYTE      TK0L
      00000098H.1 SFRSYM    DATA     BIT       TI
      00000091H   SFRSYM    DATA     BYTE      EADR
      000000E3H   SFRSYM    DATA     BYTE      TK1L
      000000E5H   SFRSYM    DATA     BYTE      TK2L
LX51 LINKER/LOCATER V4.66.41.0                                                        11/18/2021  18:51:21  PAGE 161


      000000DBH   SFRSYM    DATA     BYTE      SADEN1
      000000D8H.7 SFRSYM    DATA     BIT       SM10_FE1
      000000FBH   SFRSYM    DATA     BYTE      SADEN2
      000000B8H.4 SFRSYM    DATA     BIT       PS0L
      000000B8H.1 SFRSYM    DATA     BIT       PT0L
      000000DAH   SFRSYM    DATA     BYTE      SADDR1
      000000D8H.5 SFRSYM    DATA     BIT       SM12_TXCOL1
      000000B8H.3 SFRSYM    DATA     BIT       PT1L
      000000FAH   SFRSYM    DATA     BYTE      SADDR2
      000000CBH   SFRSYM    DATA     BYTE      RCAP2H
      000000B8H.5 SFRSYM    DATA     BIT       PT2L
      00000081H   SFRSYM    DATA     BYTE      SP
      000000D0H.2 SFRSYM    DATA     BIT       OV
      000000CAH   SFRSYM    DATA     BYTE      RCAP2L
      000000B8H   SFRSYM    DATA     BIT       PX4L
      000000C8H.1 SFRSYM    DATA     BIT       C_T2
      000000DEH   SFRSYM    DATA     BYTE      SFINE2
      000000ADH   SFRSYM    DATA     BYTE      IRCON1
      000000AFH   SFRSYM    DATA     BYTE      IRCON2
      000000ABH   SFRSYM    DATA     BYTE      EXCON1
      00000099H   SFRSYM    DATA     BYTE      SBUF
      000000ACH   SFRSYM    DATA     BYTE      EXCON2
      00000087H   SFRSYM    DATA     BYTE      PCON
      000000F1H   SFRSYM    DATA     BYTE      AUXC
      00000098H   SFRSYM    DATA     BYTE      SCON
      000000D4H   SFRSYM    DATA     BYTE      TK0BASEH
      00000089H   SFRSYM    DATA     BYTE      TMOD
      00000088H   SFRSYM    DATA     BYTE      TCON
      000000AAH   SFRSYM    DATA     BYTE      IENX
      000000EEH   SFRSYM    DATA     BYTE      IB_OFFSET
      000000D6H   SFRSYM    DATA     BYTE      TK1BASEH
      000000DCH   SFRSYM    DATA     BYTE      SBRT1H
      000000DFH   SFRSYM    DATA     BYTE      TK2BASEH
      000000FCH   SFRSYM    DATA     BYTE      SBRT2H
      000000B1H   SFRSYM    DATA     BYTE      RSTSTAT
      000000D3H   SFRSYM    DATA     BYTE      TK0BASEL
      000000D5H   SFRSYM    DATA     BYTE      TK1BASEL
      000000DDH   SFRSYM    DATA     BYTE      SBRT1L
      000000D7H   SFRSYM    DATA     BYTE      TK2BASEL
      000000FDH   SFRSYM    DATA     BYTE      SBRT2L
      00000098H.7 SFRSYM    DATA     BIT       SM0_FE
      000000B2H   SFRSYM    DATA     BYTE      CLKCON
      00000098H.5 SFRSYM    DATA     BIT       SM2_TXCOL
      000000B5H   SFRSYM    DATA     BYTE      LDOCON
      000000F0H   SFRSYM    DATA     BYTE      B
      000000C8H   SFRSYM    DATA     BIT       CP_RL2
      000000E0H   SFRSYM    DATA     BYTE      ACC
      000000A8H.4 SFRSYM    DATA     BIT       ES0
      000000A8H.1 SFRSYM    DATA     BIT       ET0
      000000A8H.3 SFRSYM    DATA     BIT       ET1
      00000088H.5 SFRSYM    DATA     BIT       TF0
      000000A8H.5 SFRSYM    DATA     BIT       ET2
      00000088H.7 SFRSYM    DATA     BIT       TF1
      000000D8H   SFRSYM    DATA     BIT       RI1
      00000098H.2 SFRSYM    DATA     BIT       RB8
      000000C8H.7 SFRSYM    DATA     BIT       TF2
      0000008CH   SFRSYM    DATA     BYTE      TH0
      00000086H   SFRSYM    DATA     BYTE      INSCON
      0000008DH   SFRSYM    DATA     BYTE      TH1
      000000D8H.1 SFRSYM    DATA     BIT       TI1
      00000098H.3 SFRSYM    DATA     BIT       TB8
      000000CDH   SFRSYM    DATA     BYTE      TH2
      000000D0H   SFRSYM    DATA     BIT       P
      0000008AH   SFRSYM    DATA     BYTE      TL0
      000000A8H   SFRSYM    DATA     BIT       EX4
LX51 LINKER/LOCATER V4.66.41.0                                                        11/18/2021  18:51:21  PAGE 162


      0000008BH   SFRSYM    DATA     BYTE      TL1
      000000A7H   SFRSYM    DATA     BYTE      FLASHCON
      000000CCH   SFRSYM    DATA     BYTE      TL2
      000000D0H.3 SFRSYM    DATA     BIT       RS0
      000000C5H   SFRSYM    DATA     BYTE      ADCDH
      00000088H.4 SFRSYM    DATA     BIT       TR0
      000000D0H.4 SFRSYM    DATA     BIT       RS1
      0000009FH   SFRSYM    DATA     BYTE      PWMCON
      00000088H.6 SFRSYM    DATA     BIT       TR1
      000000C8H.2 SFRSYM    DATA     BIT       TR2
      000000C4H   SFRSYM    DATA     BYTE      ADCDL
      000000C2H   SFRSYM    DATA     BYTE      ADT
      00000083H   SFRSYM    DATA     BYTE      DPH
      00000082H   SFRSYM    DATA     BYTE      DPL
      000000D9H   SFRSYM    DATA     BYTE      SBUF1
      000000C8H.3 SFRSYM    DATA     BIT       EXEN2
      000000F9H   SFRSYM    DATA     BYTE      SBUF2
      000000D8H.6 SFRSYM    DATA     BIT       SM11_RXOV1
      000000B8H.6 SFRSYM    DATA     BIT       PADCL
      00000098H.4 SFRSYM    DATA     BIT       REN
      000000D8H   SFRSYM    DATA     BYTE      SCON1
      000000D1H   SFRSYM    DATA     BYTE      LCDCON1
      000000C1H   SFRSYM    DATA     BYTE      ADCON
      000000F8H   SFRSYM    DATA     BYTE      SCON2
      0000008FH   SFRSYM    DATA     BYTE      TCON1
      000000D2H   SFRSYM    DATA     BYTE      LCDCON2
      00000092H   SFRSYM    DATA     BYTE      EDTAH
      000000C9H   SFRSYM    DATA     BYTE      T2MOD
      000000C8H   SFRSYM    DATA     BYTE      T2CON
      00000094H   SFRSYM    DATA     BYTE      EDTAL
      00000093H   SFRSYM    DATA     BYTE      EDTAM
      000000BCH   SFRSYM    DATA     BYTE      TK0DIFH
      0000009BH   SFRSYM    DATA     BYTE      SADEN
      000000BEH   SFRSYM    DATA     BYTE      TK1DIFH
      000000B6H   SFRSYM    DATA     BYTE      PBANK
      000000A5H   SFRSYM    DATA     BYTE      TK2DIFH
      000000A8H.6 SFRSYM    DATA     BIT       EADTP
      0000009AH   SFRSYM    DATA     BYTE      SADDR
      000000CFH   SFRSYM    DATA     BYTE      TK0DIFL
      000000BDH   SFRSYM    DATA     BYTE      TK1DIFL
      000000BFH   SFRSYM    DATA     BYTE      TK2DIFL
      000000B8H.2 SFRSYM    DATA     BIT       P7816L
      000000C6H   SFRSYM    DATA     BYTE      LPDCON1
      000000C7H   SFRSYM    DATA     BYTE      LPDCON2
      000000D0H.5 SFRSYM    DATA     BIT       F0
      000000AEH   SFRSYM    DATA     BYTE      IRDAT
      000000D0H.1 SFRSYM    DATA     BIT       F1
      00000096H   SFRSYM    DATA     BYTE      EMUIE
      0000009EH   SFRSYM    DATA     BYTE      SFINE
      000000F7H   SFRSYM    DATA     BYTE      XPAGE
      00000097H   SFRSYM    DATA     BYTE      EMUIF
      000000D0H   SFRSYM    DATA     BYTE      PSW
      000000D8H.2 SFRSYM    DATA     BIT       RB81
      000000A3H   SFRSYM    DATA     BYTE      SPDAT
      000000F2H   SFRSYM    DATA     BYTE      IB_CON1

      00818685H   BLOCK     CODE/B1  ---       LVL=0
      00818685H   LINE      ---      ---       #84
      00818685H   LINE      ---      ---       #85
      00818685H   LINE      ---      ---       #87
      0081868CH   LINE      ---      ---       #88
      0081868CH   LINE      ---      ---       #90
      00818695H   LINE      ---      ---       #91
      00818695H   LINE      ---      ---       #93
      00818695H   LINE      ---      ---       #94
LX51 LINKER/LOCATER V4.66.41.0                                                        11/18/2021  18:51:21  PAGE 163


      00818695H   LINE      ---      ---       #95
      0081869DH   LINE      ---      ---       #96
      0081869DH   LINE      ---      ---       #98
      0081869DH   LINE      ---      ---       #99
      008186CEH   LINE      ---      ---       #103
      008186CEH   LINE      ---      ---       #104
      008186D5H   LINE      ---      ---       #105
      008186D5H   LINE      ---      ---       #106
      008186D8H   LINE      ---      ---       #110
      008186DFH   LINE      ---      ---       #111
      008186E6H   LINE      ---      ---       #112
      008186EBH   LINE      ---      ---       #113
      008186EDH   LINE      ---      ---       #114
      008186F4H   LINE      ---      ---       #115
      008186F4H   LINE      ---      ---       #116
      008186FDH   LINE      ---      ---       #117
      008186FDH   LINE      ---      ---       #118
      008186FDH   LINE      ---      ---       #119
      008186FDH   LINE      ---      ---       #120
      008186FDH   LINE      ---      ---       #121
      008186FDH   LINE      ---      ---       #122
      008186FDH   LINE      ---      ---       #123
      008186FDH   LINE      ---      ---       #128
      008186FFH   LINE      ---      ---       #130
      008186FFH   LINE      ---      ---       #131
      00818706H   LINE      ---      ---       #132
      00818706H   LINE      ---      ---       #133
      00818719H   LINE      ---      ---       #136
      00818719H   LINE      ---      ---       #137
      0081871CH   LINE      ---      ---       #138
      00818722H   LINE      ---      ---       #139
      00818729H   LINE      ---      ---       #140
      00818729H   LINE      ---      ---       #141
      0081873DH   LINE      ---      ---       #142
      0081873DH   LINE      ---      ---       #143
      00818742H   LINE      ---      ---       #144
      00818749H   LINE      ---      ---       #145
      0081874DH   LINE      ---      ---       #146
      0081874DH   LINE      ---      ---       #147
      0081874FH   LINE      ---      ---       #149
      0081874FH   LINE      ---      ---       #150
      00818756H   LINE      ---      ---       #151
      00818756H   LINE      ---      ---       #152
      00818759H   LINE      ---      ---       #153
      0081875FH   LINE      ---      ---       #154
      00818764H   LINE      ---      ---       #155
      0081876BH   LINE      ---      ---       #156
      00818772H   LINE      ---      ---       #157
      00818780H   LINE      ---      ---       #158
      00818780H   LINE      ---      ---       #163
      00818780H   LINE      ---      ---       #164
      00818780H   LINE      ---      ---       #166
      00818782H   LINE      ---      ---       #168
      00818782H   LINE      ---      ---       #169
      00818789H   LINE      ---      ---       #170
      00818789H   LINE      ---      ---       #171
      00818790H   LINE      ---      ---       #172
      00818790H   LINE      ---      ---       #173
      00818793H   LINE      ---      ---       #177
      0081879AH   LINE      ---      ---       #178
      0081879AH   LINE      ---      ---       #184
      0081879CH   LINE      ---      ---       #186
      0081879CH   LINE      ---      ---       #187
      008187A3H   LINE      ---      ---       #188
      008187A3H   LINE      ---      ---       #189
LX51 LINKER/LOCATER V4.66.41.0                                                        11/18/2021  18:51:21  PAGE 164


      008187AAH   LINE      ---      ---       #190
      008187B1H   LINE      ---      ---       #191
      008187B4H   LINE      ---      ---       #192
      008187BAH   LINE      ---      ---       #196
      008187BFH   LINE      ---      ---       #197
      008187BFH   LINE      ---      ---       #199
      008187BFH   LINE      ---      ---       #210
      008187BFH   LINE      ---      ---       #211
      008187BFH   LINE      ---      ---       #212
      008187BFH   LINE      ---      ---       #214
      008187C9H   LINE      ---      ---       #215
      008187C9H   LINE      ---      ---       #216
      008187CCH   LINE      ---      ---       #217
      008187CCH   LINE      ---      ---       #218
      008187CEH   LINE      ---      ---       #220
      008187CEH   LINE      ---      ---       #221
      008187D2H   LINE      ---      ---       #222
      008187E0H   LINE      ---      ---       #223
      008187E0H   LINE      ---      ---       #224
      ---         BLOCKEND  ---      ---       LVL=0

      0081824FH   BLOCK     CODE/B1  ---       LVL=0
      0081824FH   LINE      ---      ---       #241
      0081824FH   LINE      ---      ---       #242
      0081824FH   BLOCK     CODE/B1  NEAR LAB  LVL=1
      0081824FH   LINE      ---      ---       #248
      00818254H   LINE      ---      ---       #249
      00818256H   LINE      ---      ---       #251
      00818263H   LINE      ---      ---       #254
      0081826AH   LINE      ---      ---       #255
      0081826AH   LINE      ---      ---       #256
      00818279H   LINE      ---      ---       #258
      0081828DH   LINE      ---      ---       #259
      0081828DH   LINE      ---      ---       #260
      008182A1H   LINE      ---      ---       #261
      008182A1H   LINE      ---      ---       #262
      008182A7H   LINE      ---      ---       #263
      008182AEH   LINE      ---      ---       #264
      008182B0H   LINE      ---      ---       #266
      008182B0H   LINE      ---      ---       #267
      008182B5H   LINE      ---      ---       #268
      008182B7H   LINE      ---      ---       #269
      008182BEH   LINE      ---      ---       #270
      008182C2H   LINE      ---      ---       #271
      008182C2H   LINE      ---      ---       #272
      008182C4H   LINE      ---      ---       #274
      008182C4H   LINE      ---      ---       #275
      008182CAH   LINE      ---      ---       #276
      008182D7H   LINE      ---      ---       #277
      008182D7H   LINE      ---      ---       #278
      008182D7H   LINE      ---      ---       #281
      008182E6H   LINE      ---      ---       #283
      0081830AH   LINE      ---      ---       #284
      0081830AH   LINE      ---      ---       #285
      00818311H   LINE      ---      ---       #286
      00818320H   LINE      ---      ---       #287
      00818344H   LINE      ---      ---       #288
      00818344H   LINE      ---      ---       #289
      0081834BH   LINE      ---      ---       #290
      0081834BH   LINE      ---      ---       #291
      0081834FH   LINE      ---      ---       #293
      0081834FH   LINE      ---      ---       #294
      0081836AH   LINE      ---      ---       #295
      0081836AH   LINE      ---      ---       #296
      00818371H   LINE      ---      ---       #297
LX51 LINKER/LOCATER V4.66.41.0                                                        11/18/2021  18:51:21  PAGE 165


      00818371H   LINE      ---      ---       #298
      00818375H   LINE      ---      ---       #300
      00818375H   LINE      ---      ---       #301
      00818384H   LINE      ---      ---       #302
      0081839DH   LINE      ---      ---       #303
      0081839DH   LINE      ---      ---       #304
      008183A4H   LINE      ---      ---       #305
      008183A4H   LINE      ---      ---       #306
      008183A8H   LINE      ---      ---       #307
      008183A8H   LINE      ---      ---       #308
      008183AAH   LINE      ---      ---       #310
      008183AAH   LINE      ---      ---       #311
      008183B1H   LINE      ---      ---       #312
      008183B1H   LINE      ---      ---       #313
      008183C0H   LINE      ---      ---       #314
      008183E6H   LINE      ---      ---       #315
      008183E6H   LINE      ---      ---       #316
      008183E9H   LINE      ---      ---       #318
      008183EBH   LINE      ---      ---       #320
      008183EBH   LINE      ---      ---       #321
      008183EEH   LINE      ---      ---       #322
      008183EEH   LINE      ---      ---       #323
      008183F0H   LINE      ---      ---       #325
      008183F0H   LINE      ---      ---       #326
      008183F7H   LINE      ---      ---       #327
      008183FEH   LINE      ---      ---       #328
      00818404H   LINE      ---      ---       #329
      00818404H   LINE      ---      ---       #330
      00818404H   LINE      ---      ---       #331
      00818406H   LINE      ---      ---       #333
      00818406H   LINE      ---      ---       #334
      0081840DH   LINE      ---      ---       #335
      0081840DH   LINE      ---      ---       #336
      0081840FH   LINE      ---      ---       #338
      0081840FH   LINE      ---      ---       #339
      00818416H   LINE      ---      ---       #340
      0081841DH   LINE      ---      ---       #341
      0081841DH   LINE      ---      ---       #343
      00818424H   LINE      ---      ---       #344
      00818424H   LINE      ---      ---       #345
      0081842BH   LINE      ---      ---       #346
      0081842BH   LINE      ---      ---       #347
      00818432H   LINE      ---      ---       #348
      00818432H   LINE      ---      ---       #349
      00818439H   LINE      ---      ---       #350
      00818439H   LINE      ---      ---       #352
      00818440H   LINE      ---      ---       #353
      00818440H   LINE      ---      ---       #354
      00818444H   LINE      ---      ---       #355
      00818444H   LINE      ---      ---       #356
      02000766H   SYMBOL    XDATA    ---       V_Buff
      0200077FH   SYMBOL    XDATA    BYTE      V_B_OverDraftLockRelayflag
      02000780H   SYMBOL    XDATA    BYTE      V_B_OverDraftLockRelayflag1
      02000781H   SYMBOL    XDATA    ---       V_ulBuff
      ---         BLOCKEND  CODE/B1  ---       LVL=1
      ---         BLOCKEND  CODE/B1  ---       LVL=0

      0081B93CH   BLOCK     CODE/B1  ---       LVL=0
      0081B93CH   LINE      ---      ---       #382
      0081B93CH   LINE      ---      ---       #383
      0081B93CH   BLOCK     CODE/B1  NEAR LAB  LVL=1
      0081B93CH   LINE      ---      ---       #388
      0081B95BH   LINE      ---      ---       #392
      0081B95BH   LINE      ---      ---       #393
      0081B95EH   LINE      ---      ---       #394
LX51 LINKER/LOCATER V4.66.41.0                                                        11/18/2021  18:51:21  PAGE 166


      0081B960H   LINE      ---      ---       #396
      0081B960H   LINE      ---      ---       #397
      0081B963H   LINE      ---      ---       #398
      0081B963H   LINE      ---      ---       #411
      0081B973H   LINE      ---      ---       #412
      0081B973H   LINE      ---      ---       #413
      0081B977H   LINE      ---      ---       #414
      0081B991H   LINE      ---      ---       #415
      0081B99CH   LINE      ---      ---       #419
      0081B9B0H   LINE      ---      ---       #421
      0081B9B0H   LINE      ---      ---       #422
      0081B9B6H   LINE      ---      ---       #423
      0081B9B8H   LINE      ---      ---       #425
      0081B9B8H   LINE      ---      ---       #426
      0081B9BDH   LINE      ---      ---       #427
      0081B9BDH   LINE      ---      ---       #429
      0081B9C6H   LINE      ---      ---       #430
      0081B9C6H   LINE      ---      ---       #431
      0081B9C8H   LINE      ---      ---       #433
      0081B9CFH   LINE      ---      ---       #434
      0081B9D2H   LINE      ---      ---       #435
      0081B9DBH   LINE      ---      ---       #438
      0081B9DBH   LINE      ---      ---       #439
      0081B9DBH   LINE      ---      ---       #441
      0081B9DBH   LINE      ---      ---       #442
      0081B9E2H   LINE      ---      ---       #443
      0081B9E2H   LINE      ---      ---       #444
      00000004H   SYMBOL    DATA     DWORD     v_ulTemp
      0200060AH   SYMBOL    XDATA    ---       v_ucTemp
      ---         BLOCKEND  CODE/B1  ---       LVL=1
      ---         BLOCKEND  CODE/B1  ---       LVL=0

      ---         MODULE    ---      ---       APPEVENT
      02000C57H   PUBLIC    XDATA    ---       GA_ucRelayOperCode
      02000C53H   PUBLIC    XDATA    ---       GA_ucOperCode
      02000C4FH   PUBLIC    XDATA    ---       GA_ucDICode
      02000C13H   PUBLIC    XDATA    ---       GA_ucEventRecordBuff
      010000E6H   PUBLIC    CONST    ---       GT_ucBuyMoneyRecLen
      010000E1H   PUBLIC    CONST    ---       GT_ucBuyMoneyRecOffset
      0200067EH   PUBLIC    XDATA    BYTE      ?_ReadEventRecordData?BYTE
      0081B9E3H   PUBLIC    CODE/B1  ---       _ReadEventRecordData
      0081917EH   PUBLIC    CODE/B1  ---       _ApiEvent_WriteRecord
      00819715H   PUBLIC    CODE/B1  ---       _ApiEvent_RecTotalNum_Add
      000000F3H   SFRSYM    DATA     BYTE      IB_CON2
      000000D8H.3 SFRSYM    DATA     BIT       TB81
      00000080H   SFRSYM    DATA     BYTE      P0
      000000F4H   SFRSYM    DATA     BYTE      IB_CON3
      000000A4H   SFRSYM    DATA     BYTE      TKCON
      00000090H   SFRSYM    DATA     BYTE      P1
      000000F5H   SFRSYM    DATA     BYTE      IB_CON4
      000000E7H   SFRSYM    DATA     BYTE      PASLO
      000000A0H   SFRSYM    DATA     BYTE      P2
      000000FEH   SFRSYM    DATA     BYTE      OSCLO
      000000F6H   SFRSYM    DATA     BYTE      IB_CON5
      00000098H.6 SFRSYM    DATA     BIT       SM1_RXOV
      000000B0H   SFRSYM    DATA     BYTE      P3
      000000D0H.6 SFRSYM    DATA     BIT       AC
      000000C0H   SFRSYM    DATA     BYTE      P4
      000000A1H   SFRSYM    DATA     BYTE      SPCON
      0000009CH   SFRSYM    DATA     BYTE      SBRTH
      000000E9H   SFRSYM    DATA     BYTE      P5
      000000A8H.7 SFRSYM    DATA     BIT       EA
      000000EAH   SFRSYM    DATA     BYTE      P6
      000000EBH   SFRSYM    DATA     BYTE      P7
      000000EFH   SFRSYM    DATA     BYTE      IB_DATA
LX51 LINKER/LOCATER V4.66.41.0                                                        11/18/2021  18:51:21  PAGE 167


      000000ECH   SFRSYM    DATA     BYTE      P8
      0000009DH   SFRSYM    DATA     BYTE      SBRTL
      000000EDH   SFRSYM    DATA     BYTE      P9
      000000B7H   SFRSYM    DATA     BYTE      PBANKLO
      000000A2H   SFRSYM    DATA     BYTE      SPSTA
      000000A8H   SFRSYM    DATA     BYTE      IEN0
      000000B3H   SFRSYM    DATA     BYTE      PWRCON1
      00000095H   SFRSYM    DATA     BYTE      EMUSR
      000000A9H   SFRSYM    DATA     BYTE      IEN1
      000000B4H   SFRSYM    DATA     BYTE      PWRCON2
      00000085H   SFRSYM    DATA     BYTE      DPH1
      00000080H   SFRSYM    DATA     BIT       P0_0
      00000090H   SFRSYM    DATA     BIT       P1_0
      00000080H.1 SFRSYM    DATA     BIT       P0_1
      000000C3H   SFRSYM    DATA     BYTE      ADCH
      000000A0H   SFRSYM    DATA     BIT       P2_0
      00000090H.1 SFRSYM    DATA     BIT       P1_1
      00000080H.2 SFRSYM    DATA     BIT       P0_2
      000000BAH   SFRSYM    DATA     BYTE      IPH0
      00000084H   SFRSYM    DATA     BYTE      DPL1
      000000B0H   SFRSYM    DATA     BIT       P3_0
      000000A0H.1 SFRSYM    DATA     BIT       P2_1
      00000090H.2 SFRSYM    DATA     BIT       P1_2
      00000080H.3 SFRSYM    DATA     BIT       P0_3
      000000BBH   SFRSYM    DATA     BYTE      IPH1
      000000C0H   SFRSYM    DATA     BIT       P4_0
      000000B0H.1 SFRSYM    DATA     BIT       P3_1
      000000A0H.2 SFRSYM    DATA     BIT       P2_2
      00000090H.3 SFRSYM    DATA     BIT       P1_3
      00000080H.4 SFRSYM    DATA     BIT       P0_4
      000000E8H   SFRSYM    DATA     BYTE      EXF0
      000000C0H.1 SFRSYM    DATA     BIT       P4_1
      000000B0H.2 SFRSYM    DATA     BIT       P3_2
      000000A0H.3 SFRSYM    DATA     BIT       P2_3
      00000090H.4 SFRSYM    DATA     BIT       P1_4
      00000080H.5 SFRSYM    DATA     BIT       P0_5
      000000C0H.2 SFRSYM    DATA     BIT       P4_2
      000000B0H.3 SFRSYM    DATA     BIT       P3_3
      000000A0H.4 SFRSYM    DATA     BIT       P2_4
      00000090H.5 SFRSYM    DATA     BIT       P1_5
      00000080H.6 SFRSYM    DATA     BIT       P0_6
      000000C8H.6 SFRSYM    DATA     BIT       EXF2
      000000A6H   SFRSYM    DATA     BYTE      TKF0
      000000B8H   SFRSYM    DATA     BYTE      IPL0
      000000C0H.3 SFRSYM    DATA     BIT       P4_3
      000000B0H.4 SFRSYM    DATA     BIT       P3_4
      000000A0H.5 SFRSYM    DATA     BIT       P2_5
      00000090H.6 SFRSYM    DATA     BIT       P1_6
      00000080H.7 SFRSYM    DATA     BIT       P0_7
      000000D8H.4 SFRSYM    DATA     BIT       REN1
      000000B9H   SFRSYM    DATA     BYTE      IPL1
      000000C0H.4 SFRSYM    DATA     BIT       P4_4
      000000B0H.5 SFRSYM    DATA     BIT       P3_5
      000000A0H.6 SFRSYM    DATA     BIT       P2_6
      00000090H.7 SFRSYM    DATA     BIT       P1_7
      000000E2H   SFRSYM    DATA     BYTE      TK0H
      0000008EH   SFRSYM    DATA     BYTE      SUSLO
      000000C0H.5 SFRSYM    DATA     BIT       P4_5
      000000B0H.6 SFRSYM    DATA     BIT       P3_6
      000000A0H.7 SFRSYM    DATA     BIT       P2_7
      000000E4H   SFRSYM    DATA     BYTE      TK1H
      000000C0H.6 SFRSYM    DATA     BIT       P4_6
      000000B0H.7 SFRSYM    DATA     BIT       P3_7
      000000E6H   SFRSYM    DATA     BYTE      TK2H
      000000C0H.7 SFRSYM    DATA     BIT       P4_7
LX51 LINKER/LOCATER V4.66.41.0                                                        11/18/2021  18:51:21  PAGE 168


      00000098H   SFRSYM    DATA     BIT       RI
      000000A8H.2 SFRSYM    DATA     BIT       E7816
      000000D0H.7 SFRSYM    DATA     BIT       CY
      000000E1H   SFRSYM    DATA     BYTE      TK0L
      00000098H.1 SFRSYM    DATA     BIT       TI
      00000091H   SFRSYM    DATA     BYTE      EADR
      000000E3H   SFRSYM    DATA     BYTE      TK1L
      000000E5H   SFRSYM    DATA     BYTE      TK2L
      000000DBH   SFRSYM    DATA     BYTE      SADEN1
      000000D8H.7 SFRSYM    DATA     BIT       SM10_FE1
      000000FBH   SFRSYM    DATA     BYTE      SADEN2
      000000B8H.4 SFRSYM    DATA     BIT       PS0L
      000000B8H.1 SFRSYM    DATA     BIT       PT0L
      000000DAH   SFRSYM    DATA     BYTE      SADDR1
      000000D8H.5 SFRSYM    DATA     BIT       SM12_TXCOL1
      000000B8H.3 SFRSYM    DATA     BIT       PT1L
      000000FAH   SFRSYM    DATA     BYTE      SADDR2
      000000CBH   SFRSYM    DATA     BYTE      RCAP2H
      000000B8H.5 SFRSYM    DATA     BIT       PT2L
      00000081H   SFRSYM    DATA     BYTE      SP
      000000D0H.2 SFRSYM    DATA     BIT       OV
      000000CAH   SFRSYM    DATA     BYTE      RCAP2L
      000000B8H   SFRSYM    DATA     BIT       PX4L
      000000C8H.1 SFRSYM    DATA     BIT       C_T2
      000000DEH   SFRSYM    DATA     BYTE      SFINE2
      000000ADH   SFRSYM    DATA     BYTE      IRCON1
      000000AFH   SFRSYM    DATA     BYTE      IRCON2
      000000ABH   SFRSYM    DATA     BYTE      EXCON1
      00000099H   SFRSYM    DATA     BYTE      SBUF
      000000ACH   SFRSYM    DATA     BYTE      EXCON2
      00000087H   SFRSYM    DATA     BYTE      PCON
      000000F1H   SFRSYM    DATA     BYTE      AUXC
      00000098H   SFRSYM    DATA     BYTE      SCON
      000000D4H   SFRSYM    DATA     BYTE      TK0BASEH
      00000089H   SFRSYM    DATA     BYTE      TMOD
      00000088H   SFRSYM    DATA     BYTE      TCON
      000000AAH   SFRSYM    DATA     BYTE      IENX
      000000EEH   SFRSYM    DATA     BYTE      IB_OFFSET
      000000D6H   SFRSYM    DATA     BYTE      TK1BASEH
      000000DCH   SFRSYM    DATA     BYTE      SBRT1H
      000000DFH   SFRSYM    DATA     BYTE      TK2BASEH
      000000FCH   SFRSYM    DATA     BYTE      SBRT2H
      000000B1H   SFRSYM    DATA     BYTE      RSTSTAT
      000000D3H   SFRSYM    DATA     BYTE      TK0BASEL
      000000D5H   SFRSYM    DATA     BYTE      TK1BASEL
      000000DDH   SFRSYM    DATA     BYTE      SBRT1L
      000000D7H   SFRSYM    DATA     BYTE      TK2BASEL
      000000FDH   SFRSYM    DATA     BYTE      SBRT2L
      00000098H.7 SFRSYM    DATA     BIT       SM0_FE
      000000B2H   SFRSYM    DATA     BYTE      CLKCON
      00000098H.5 SFRSYM    DATA     BIT       SM2_TXCOL
      000000B5H   SFRSYM    DATA     BYTE      LDOCON
      000000F0H   SFRSYM    DATA     BYTE      B
      000000C8H   SFRSYM    DATA     BIT       CP_RL2
      000000E0H   SFRSYM    DATA     BYTE      ACC
      000000A8H.4 SFRSYM    DATA     BIT       ES0
      000000A8H.1 SFRSYM    DATA     BIT       ET0
      000000A8H.3 SFRSYM    DATA     BIT       ET1
      00000088H.5 SFRSYM    DATA     BIT       TF0
      000000A8H.5 SFRSYM    DATA     BIT       ET2
      00000088H.7 SFRSYM    DATA     BIT       TF1
      000000D8H   SFRSYM    DATA     BIT       RI1
      00000098H.2 SFRSYM    DATA     BIT       RB8
      000000C8H.7 SFRSYM    DATA     BIT       TF2
      0000008CH   SFRSYM    DATA     BYTE      TH0
LX51 LINKER/LOCATER V4.66.41.0                                                        11/18/2021  18:51:21  PAGE 169


      00000086H   SFRSYM    DATA     BYTE      INSCON
      0000008DH   SFRSYM    DATA     BYTE      TH1
      000000D8H.1 SFRSYM    DATA     BIT       TI1
      00000098H.3 SFRSYM    DATA     BIT       TB8
      000000CDH   SFRSYM    DATA     BYTE      TH2
      000000D0H   SFRSYM    DATA     BIT       P
      0000008AH   SFRSYM    DATA     BYTE      TL0
      000000A8H   SFRSYM    DATA     BIT       EX4
      0000008BH   SFRSYM    DATA     BYTE      TL1
      000000A7H   SFRSYM    DATA     BYTE      FLASHCON
      000000CCH   SFRSYM    DATA     BYTE      TL2
      000000D0H.3 SFRSYM    DATA     BIT       RS0
      000000C5H   SFRSYM    DATA     BYTE      ADCDH
      00000088H.4 SFRSYM    DATA     BIT       TR0
      000000D0H.4 SFRSYM    DATA     BIT       RS1
      0000009FH   SFRSYM    DATA     BYTE      PWMCON
      00000088H.6 SFRSYM    DATA     BIT       TR1
      000000C8H.2 SFRSYM    DATA     BIT       TR2
      000000C4H   SFRSYM    DATA     BYTE      ADCDL
      000000C2H   SFRSYM    DATA     BYTE      ADT
      00000083H   SFRSYM    DATA     BYTE      DPH
      00000082H   SFRSYM    DATA     BYTE      DPL
      000000D9H   SFRSYM    DATA     BYTE      SBUF1
      000000C8H.3 SFRSYM    DATA     BIT       EXEN2
      000000F9H   SFRSYM    DATA     BYTE      SBUF2
      000000D8H.6 SFRSYM    DATA     BIT       SM11_RXOV1
      000000B8H.6 SFRSYM    DATA     BIT       PADCL
      00000098H.4 SFRSYM    DATA     BIT       REN
      000000D8H   SFRSYM    DATA     BYTE      SCON1
      000000D1H   SFRSYM    DATA     BYTE      LCDCON1
      000000C1H   SFRSYM    DATA     BYTE      ADCON
      000000F8H   SFRSYM    DATA     BYTE      SCON2
      0000008FH   SFRSYM    DATA     BYTE      TCON1
      000000D2H   SFRSYM    DATA     BYTE      LCDCON2
      00000092H   SFRSYM    DATA     BYTE      EDTAH
      000000C9H   SFRSYM    DATA     BYTE      T2MOD
      000000C8H   SFRSYM    DATA     BYTE      T2CON
      00000094H   SFRSYM    DATA     BYTE      EDTAL
      00000093H   SFRSYM    DATA     BYTE      EDTAM
      000000BCH   SFRSYM    DATA     BYTE      TK0DIFH
      0000009BH   SFRSYM    DATA     BYTE      SADEN
      000000BEH   SFRSYM    DATA     BYTE      TK1DIFH
      000000B6H   SFRSYM    DATA     BYTE      PBANK
      000000A5H   SFRSYM    DATA     BYTE      TK2DIFH
      000000A8H.6 SFRSYM    DATA     BIT       EADTP
      0000009AH   SFRSYM    DATA     BYTE      SADDR
      000000CFH   SFRSYM    DATA     BYTE      TK0DIFL
      000000BDH   SFRSYM    DATA     BYTE      TK1DIFL
      000000BFH   SFRSYM    DATA     BYTE      TK2DIFL
      000000B8H.2 SFRSYM    DATA     BIT       P7816L
      000000C6H   SFRSYM    DATA     BYTE      LPDCON1
      000000C7H   SFRSYM    DATA     BYTE      LPDCON2
      000000D0H.5 SFRSYM    DATA     BIT       F0
      000000AEH   SFRSYM    DATA     BYTE      IRDAT
      000000D0H.1 SFRSYM    DATA     BIT       F1
      00000096H   SFRSYM    DATA     BYTE      EMUIE
      0000009EH   SFRSYM    DATA     BYTE      SFINE
      000000F7H   SFRSYM    DATA     BYTE      XPAGE
      00000097H   SFRSYM    DATA     BYTE      EMUIF
      000000D0H   SFRSYM    DATA     BYTE      PSW
      000000D8H.2 SFRSYM    DATA     BIT       RB81
      000000A3H   SFRSYM    DATA     BYTE      SPDAT
      000000F2H   SFRSYM    DATA     BYTE      IB_CON1
      010000C3H   SYMBOL    CONST    ---       GT_EventParaData
      00819710H   SYMBOL    CODE/B1  ---       _ApiEvent_RecTotalNum_Add
LX51 LINKER/LOCATER V4.66.41.0                                                        11/18/2021  18:51:21  PAGE 170



      00819710H   BLOCK     CODE/B1  ---       LVL=0
      00819715H   LINE      ---      ---       #44
      0081971AH   LINE      ---      ---       #45
      02000986H   SYMBOL    XDATA    BYTE      V_ucEventType
      0081971AH   BLOCK     CODE/B1  NEAR LAB  LVL=1
      0081971AH   LINE      ---      ---       #47
      0081972AH   LINE      ---      ---       #48
      0081972AH   LINE      ---      ---       #49
      00819737H   LINE      ---      ---       #50
      00819737H   LINE      ---      ---       #51
      0081974CH   LINE      ---      ---       #52
      0081974CH   LINE      ---      ---       #54
      00819755H   LINE      ---      ---       #55
      0081975BH   LINE      ---      ---       #56
      00819785H   LINE      ---      ---       #58
      00819793H   LINE      ---      ---       #59
      008197A8H   LINE      ---      ---       #61
      008197A8H   LINE      ---      ---       #62
      02000987H   SYMBOL    XDATA    ---       v_ucTempData
      ---         BLOCKEND  CODE/B1  ---       LVL=1
      ---         BLOCKEND  CODE/B1  ---       LVL=0

      0081915FH   BLOCK     CODE/B1  ---       LVL=0
      0081917EH   LINE      ---      ---       #72
      00819183H   LINE      ---      ---       #73
      02000781H   SYMBOL    XDATA    BYTE      v_ucEventType
      00819183H   BLOCK     CODE/B1  NEAR LAB  LVL=1
      00819183H   LINE      ---      ---       #79
      00819186H   LINE      ---      ---       #81
      008191A7H   LINE      ---      ---       #82
      008191B2H   LINE      ---      ---       #84
      008191B9H   LINE      ---      ---       #85
      008191C9H   LINE      ---      ---       #86
      008191C9H   LINE      ---      ---       #87
      008191CCH   LINE      ---      ---       #89
      00819224H   LINE      ---      ---       #90
      0081924AH   LINE      ---      ---       #91
      0081924AH   LINE      ---      ---       #92
      00819265H   LINE      ---      ---       #93
      00819280H   LINE      ---      ---       #94
      00819294H   LINE      ---      ---       #96
      00819296H   LINE      ---      ---       #98
      008192AAH   LINE      ---      ---       #99
      008192AAH   LINE      ---      ---       #100
      008192B7H   LINE      ---      ---       #101
      008192B7H   LINE      ---      ---       #103
      008192CBH   LINE      ---      ---       #104
      008192CBH   LINE      ---      ---       #105
      008192D8H   LINE      ---      ---       #106
      008192D8H   LINE      ---      ---       #108
      008192E9H   LINE      ---      ---       #109
      008192F9H   LINE      ---      ---       #110
      008192F9H   LINE      ---      ---       #111
      00819308H   LINE      ---      ---       #112
      00819308H   LINE      ---      ---       #113
      0081930BH   LINE      ---      ---       #118
      0081930DH   LINE      ---      ---       #120
      0081930DH   LINE      ---      ---       #121
      0081930FH   LINE      ---      ---       #122
      0081930FH   LINE      ---      ---       #123
      0081933BH   LINE      ---      ---       #124
      00819340H   LINE      ---      ---       #125
      0081935BH   LINE      ---      ---       #126
      0081935BH   LINE      ---      ---       #127
LX51 LINKER/LOCATER V4.66.41.0                                                        11/18/2021  18:51:21  PAGE 171


      00819362H   LINE      ---      ---       #128
      008193AFH   LINE      ---      ---       #129
      008193AFH   LINE      ---      ---       #130
      008193AFH   LINE      ---      ---       #131
      008193AFH   LINE      ---      ---       #132
      008193AFH   LINE      ---      ---       #133
      008193B1H   LINE      ---      ---       #135
      008193B1H   LINE      ---      ---       #137
      008193B3H   LINE      ---      ---       #139
      008193B6H   LINE      ---      ---       #141
      0081940EH   LINE      ---      ---       #142
      0081942FH   LINE      ---      ---       #143
      0081942FH   LINE      ---      ---       #144
      0081942FH   LINE      ---      ---       #145
      0081942FH   LINE      ---      ---       #146
      0081944AH   LINE      ---      ---       #147
      00819465H   LINE      ---      ---       #148
      0081947DH   LINE      ---      ---       #149
      0081947FH   LINE      ---      ---       #150
      0081947FH   LINE      ---      ---       #151
      0081947FH   LINE      ---      ---       #152
      0081949AH   LINE      ---      ---       #153
      008194B5H   LINE      ---      ---       #154
      008194D0H   LINE      ---      ---       #155
      008194E0H   LINE      ---      ---       #156
      008194FBH   LINE      ---      ---       #157
      008194FDH   LINE      ---      ---       #158
      008194FDH   LINE      ---      ---       #159
      008194FDH   LINE      ---      ---       #160
      00819518H   LINE      ---      ---       #161
      00819533H   LINE      ---      ---       #162
      00819547H   LINE      ---      ---       #163
      0081954EH   LINE      ---      ---       #164
      00819550H   LINE      ---      ---       #165
      00819550H   LINE      ---      ---       #166
      00819550H   LINE      ---      ---       #167
      0081956BH   LINE      ---      ---       #168
      00819586H   LINE      ---      ---       #169
      008195A1H   LINE      ---      ---       #170
      008195BCH   LINE      ---      ---       #171
      008195BEH   LINE      ---      ---       #172
      008195BEH   LINE      ---      ---       #173
      008195BEH   LINE      ---      ---       #174
      008195BEH   LINE      ---      ---       #175
      008195D9H   LINE      ---      ---       #176
      008195F4H   LINE      ---      ---       #177
      0081960FH   LINE      ---      ---       #178
      00819623H   LINE      ---      ---       #179
      00819623H   LINE      ---      ---       #188
      00819623H   LINE      ---      ---       #189
      00819623H   LINE      ---      ---       #191
      00819637H   LINE      ---      ---       #192
      00819637H   LINE      ---      ---       #193
      00819644H   LINE      ---      ---       #194
      00819644H   LINE      ---      ---       #196
      00819658H   LINE      ---      ---       #197
      00819658H   LINE      ---      ---       #198
      00819665H   LINE      ---      ---       #199
      00819665H   LINE      ---      ---       #201
      00819676H   LINE      ---      ---       #202
      00819686H   LINE      ---      ---       #203
      00819686H   LINE      ---      ---       #204
      00819695H   LINE      ---      ---       #205
      00819695H   LINE      ---      ---       #206
      00819698H   LINE      ---      ---       #213
LX51 LINKER/LOCATER V4.66.41.0                                                        11/18/2021  18:51:21  PAGE 172


      0081969FH   LINE      ---      ---       #214
      008196C3H   LINE      ---      ---       #215
      008196E4H   LINE      ---      ---       #217
      008196EAH   LINE      ---      ---       #218
      008196F0H   LINE      ---      ---       #219
      0081970AH   LINE      ---      ---       #220
      0081970FH   LINE      ---      ---       #224
      0081970FH   LINE      ---      ---       #225
      02000782H   SYMBOL    XDATA    WORD      V_usE2addrPage
      02000784H   SYMBOL    XDATA    WORD      V_usE2addrPage1
      00000007H   SYMBOL    DATA     BYTE      i
      02000786H   SYMBOL    XDATA    ---       V_ucTempData
      00000007H   SYMBOL    DATA     BYTE      V_ucTemp1
      ---         BLOCKEND  CODE/B1  ---       LVL=1
      ---         BLOCKEND  CODE/B1  ---       LVL=0

      0081B9E3H   BLOCK     CODE/B1  ---       LVL=0
      0081B9E3H   LINE      ---      ---       #240
      0081B9F4H   LINE      ---      ---       #241
      0200067EH   SYMBOL    XDATA    DWORD     V_ulProgDIx
      02000682H   SYMBOL    XDATA    ---       DataPoint
      02000685H   SYMBOL    XDATA    ---       PtrDataLen
      0081B9F4H   BLOCK     CODE/B1  NEAR LAB  LVL=1
      0081B9F4H   LINE      ---      ---       #254
      0081B9F9H   LINE      ---      ---       #255
      0081BA04H   LINE      ---      ---       #256
      0081BA1CH   LINE      ---      ---       #257
      0081BA34H   LINE      ---      ---       #258
      0081BA4CH   LINE      ---      ---       #260
      0081BA4FH   LINE      ---      ---       #264
      0081BA6FH   LINE      ---      ---       #265
      0081BA6FH   LINE      ---      ---       #266
      0081BA75H   LINE      ---      ---       #267
      0081BA77H   LINE      ---      ---       #269
      0081BA77H   LINE      ---      ---       #270
      0081BA7CH   LINE      ---      ---       #271
      0081BA7CH   LINE      ---      ---       #272
      0081BA8BH   LINE      ---      ---       #273
      0081BA9AH   LINE      ---      ---       #275
      0081BAA9H   LINE      ---      ---       #276
      0081BAA9H   LINE      ---      ---       #277
      0081BAC2H   LINE      ---      ---       #278
      0081BAC2H   LINE      ---      ---       #279
      0081BAC2H   LINE      ---      ---       #280
      0081BAC2H   LINE      ---      ---       #281
      0081BACAH   LINE      ---      ---       #282
      0081BAD3H   LINE      ---      ---       #283
      0081BAD3H   LINE      ---      ---       #284
      0081BAD3H   LINE      ---      ---       #285
      0081BAD5H   LINE      ---      ---       #286
      0081BAD5H   LINE      ---      ---       #289
      0081BB0CH   LINE      ---      ---       #290
      0081BB0CH   LINE      ---      ---       #291
      0081BB42H   LINE      ---      ---       #292
      0081BB52H   LINE      ---      ---       #293
      0081BB55H   LINE      ---      ---       #294
      0081BB55H   LINE      ---      ---       #298
      0081BB5EH   LINE      ---      ---       #299
      0081BB5EH   LINE      ---      ---       #300
      0081BB61H   LINE      ---      ---       #301
      0081BB61H   LINE      ---      ---       #303
      0081BB7CH   LINE      ---      ---       #305
      0081BBAEH   LINE      ---      ---       #306
      0081BBAEH   LINE      ---      ---       #307
      0081BBD1H   LINE      ---      ---       #308
LX51 LINKER/LOCATER V4.66.41.0                                                        11/18/2021  18:51:21  PAGE 173


      0081BBD8H   LINE      ---      ---       #309
      0081BBD8H   LINE      ---      ---       #310
      0081BBE5H   LINE      ---      ---       #311
      0081BBE7H   LINE      ---      ---       #312
      0081BBEBH   LINE      ---      ---       #313
      0081BBEBH   LINE      ---      ---       #314
      0081BBF8H   LINE      ---      ---       #315
      0081BBFAH   LINE      ---      ---       #316
      0081BBFEH   LINE      ---      ---       #317
      0081BBFEH   LINE      ---      ---       #318
      0081BC0BH   LINE      ---      ---       #319
      0081BC0DH   LINE      ---      ---       #320
      0081BC17H   LINE      ---      ---       #321
      0081BC17H   LINE      ---      ---       #322
      0081BC27H   LINE      ---      ---       #323
      0081BC27H   LINE      ---      ---       #324
      0081BC30H   LINE      ---      ---       #325
      0081BC38H   LINE      ---      ---       #326
      0081BC42H   LINE      ---      ---       #327
      0081BC42H   LINE      ---      ---       #328
      0081BC49H   LINE      ---      ---       #329
      0081BC49H   LINE      ---      ---       #330
      0081BC53H   LINE      ---      ---       #331
      0081BC55H   LINE      ---      ---       #333
      0081BC55H   LINE      ---      ---       #334
      0081BC5FH   LINE      ---      ---       #335
      0081BC5FH   LINE      ---      ---       #336
      0081BC61H   LINE      ---      ---       #338
      0081BC61H   LINE      ---      ---       #339
      0081BC61H   LINE      ---      ---       #340
      0081BC63H   LINE      ---      ---       #341
      0081BC63H   LINE      ---      ---       #342
      0081BC63H   LINE      ---      ---       #343
      0081BC6BH   LINE      ---      ---       #344
      0081BC6BH   LINE      ---      ---       #345
      0081BC7AH   LINE      ---      ---       #346
      0081BC7AH   LINE      ---      ---       #347
      0081BC83H   LINE      ---      ---       #348
      0081BC8BH   LINE      ---      ---       #349
      0081BC95H   LINE      ---      ---       #350
      0081BC95H   LINE      ---      ---       #351
      0081BCAAH   LINE      ---      ---       #353
      0081BCACH   LINE      ---      ---       #355
      0081BCACH   LINE      ---      ---       #356
      0081BCB2H   LINE      ---      ---       #357
      0081BCB4H   LINE      ---      ---       #358
      0081BCB4H   LINE      ---      ---       #359
      0081BCB4H   LINE      ---      ---       #360
      0081BCDBH   LINE      ---      ---       #361
      0081BCDEH   LINE      ---      ---       #362
      0081BCDEH   LINE      ---      ---       #364
      0081BCDEH   LINE      ---      ---       #365
      0081BCFEH   LINE      ---      ---       #366
      0081BD28H   LINE      ---      ---       #368
      0081BD3FH   LINE      ---      ---       #369
      0081BD3FH   LINE      ---      ---       #372
      0081BD4BH   LINE      ---      ---       #373
      0081BD7DH   LINE      ---      ---       #375
      0081BD9FH   LINE      ---      ---       #376
      0081BD9FH   LINE      ---      ---       #377
      0081BD9FH   LINE      ---      ---       #378
      0081BD9FH   LINE      ---      ---       #379
      0081BDCBH   LINE      ---      ---       #380
      0081BDE4H   LINE      ---      ---       #381
      0081BDEAH   LINE      ---      ---       #382
LX51 LINKER/LOCATER V4.66.41.0                                                        11/18/2021  18:51:21  PAGE 174


      0081BDECH   LINE      ---      ---       #383
      0081BDECH   LINE      ---      ---       #384
      0081BDECH   LINE      ---      ---       #385
      0081BE18H   LINE      ---      ---       #386
      0081BE31H   LINE      ---      ---       #387
      0081BE44H   LINE      ---      ---       #388
      0081BE46H   LINE      ---      ---       #389
      0081BE46H   LINE      ---      ---       #390
      0081BE46H   LINE      ---      ---       #391
      0081BE72H   LINE      ---      ---       #392
      0081BE8BH   LINE      ---      ---       #393
      0081BEA9H   LINE      ---      ---       #394
      0081BEB9H   LINE      ---      ---       #395
      0081BEBCH   LINE      ---      ---       #396
      0081BEBCH   LINE      ---      ---       #397
      0081BEBCH   LINE      ---      ---       #398
      0081BEBCH   LINE      ---      ---       #399
      0081BECCH   LINE      ---      ---       #400
      0081BECCH   LINE      ---      ---       #401
      0081BED5H   LINE      ---      ---       #402
      0081BEDDH   LINE      ---      ---       #403
      0081BEEAH   LINE      ---      ---       #404
      0081BEEAH   LINE      ---      ---       #405
      0081BEEEH   LINE      ---      ---       #406
      0081BEEEH   LINE      ---      ---       #407
      0081BEFBH   LINE      ---      ---       #408
      0081BEFBH   LINE      ---      ---       #409
      0081BEFDH   LINE      ---      ---       #410
      0081BF0BH   LINE      ---      ---       #411
      0081BF0BH   LINE      ---      ---       #412
      0081BF16H   LINE      ---      ---       #413
      0081BF16H   LINE      ---      ---       #414
      0081BF18H   LINE      ---      ---       #416
      0081BF18H   LINE      ---      ---       #417
      0081BF23H   LINE      ---      ---       #418
      0081BF6BH   LINE      ---      ---       #419
      0081BF6BH   LINE      ---      ---       #420
      0081BF6EH   LINE      ---      ---       #432
      0081BF6EH   LINE      ---      ---       #433
      0081BF6EH   LINE      ---      ---       #434
      0081BF7EH   LINE      ---      ---       #435
      0081BF7EH   LINE      ---      ---       #436
      0081BF87H   LINE      ---      ---       #437
      0081BF8FH   LINE      ---      ---       #438
      0081BF9CH   LINE      ---      ---       #439
      0081BF9CH   LINE      ---      ---       #440
      0081BFB1H   LINE      ---      ---       #441
      0081BFB8H   LINE      ---      ---       #442
      0081BFB8H   LINE      ---      ---       #443
      0081BFDFH   LINE      ---      ---       #444
      0081BFE1H   LINE      ---      ---       #446
      0081BFE1H   LINE      ---      ---       #447
      0081C028H   LINE      ---      ---       #448
      0081C028H   LINE      ---      ---       #449
      0081C02AH   LINE      ---      ---       #451
      0081C02AH   LINE      ---      ---       #452
      0081C02AH   LINE      ---      ---       #453
      0081C02AH   LINE      ---      ---       #454
      0081C02CH   LINE      ---      ---       #456
      0081C02CH   LINE      ---      ---       #457
      0081C032H   LINE      ---      ---       #458
      0081C032H   LINE      ---      ---       #459
      0081C032H   LINE      ---      ---       #460
      0081C037H   LINE      ---      ---       #461
      02000688H   SYMBOL    XDATA    BYTE      i
LX51 LINKER/LOCATER V4.66.41.0                                                        11/18/2021  18:51:21  PAGE 175


      02000689H   SYMBOL    XDATA    BYTE      V_ucEventType
      0200068AH   SYMBOL    XDATA    WORD      V_ucEventAddress
      0200068CH   SYMBOL    XDATA    BYTE      V_ucEventOffset
      0200068DH   SYMBOL    XDATA    BYTE      V_EventLen
      0200068EH   SYMBOL    XDATA    ---       V_ucDI
      00000006H   SYMBOL    DATA     WORD      V_usDI2DI1
      02000692H   SYMBOL    XDATA    BYTE      V_ucLenJudge
      02000693H   SYMBOL    XDATA    BYTE      V_ucErrorType
      02000694H   SYMBOL    XDATA    ---       V_ucTempData
      02000894H   SYMBOL    XDATA    DWORD     V_ulTempData
      ---         BLOCKEND  CODE/B1  ---       LVL=1
      ---         BLOCKEND  CODE/B1  ---       LVL=0

      ---         MODULE    ---      ---       MAINPRO
      0200FFB7H   PUBLIC    XDATA    BYTE      RTCIF
      0200FFB6H   PUBLIC    XDATA    BYTE      RTCIE
      0200FFF9H   PUBLIC    XDATA    BYTE      P9PCR
      0200FFF8H   PUBLIC    XDATA    BYTE      P8PCR
      0200FFF7H   PUBLIC    XDATA    BYTE      P7PCR
      0200FFF6H   PUBLIC    XDATA    BYTE      P6PCR
      0200FFF5H   PUBLIC    XDATA    BYTE      P5PCR
      0200FFF4H   PUBLIC    XDATA    BYTE      P4PCR
      0200FFA7H   PUBLIC    XDATA    BYTE      DOW
      0200FFC5H   PUBLIC    XDATA    BYTE      S7816CLKDIV
      0200FFF3H   PUBLIC    XDATA    BYTE      P3PCR
      0200FFA5H   PUBLIC    XDATA    BYTE      MTH
      0200FFF2H   PUBLIC    XDATA    BYTE      P2PCR
      0200FF8FH   PUBLIC    XDATA    BYTE      P2PHM
      0200FF9FH   PUBLIC    XDATA    BYTE      TKDIV04
      0200FFF1H   PUBLIC    XDATA    BYTE      P1PCR
      0200FFFBH   PUBLIC    XDATA    BYTE      P2INM
      0200FFD0H   PUBLIC    XDATA    BYTE      SCON3
      0200FF9EH   PUBLIC    XDATA    BYTE      TKDIV03
      0200FFF0H   PUBLIC    XDATA    BYTE      P0PCR
      0200FF8EH   PUBLIC    XDATA    BYTE      P0PHM
      0200FF9DH   PUBLIC    XDATA    BYTE      TKDIV02
      0200FFC7H   PUBLIC    XDATA    BYTE      S7816ETUL
      0200FFFAH   PUBLIC    XDATA    BYTE      P0INM
      0200FF9CH   PUBLIC    XDATA    BYTE      TKDIV01
      0200FFB5H   PUBLIC    XDATA    BYTE      RTCPSW
      0200FFD1H   PUBLIC    XDATA    BYTE      SBUF3
      0200FFA2H   PUBLIC    XDATA    BYTE      MIN
      0200FF9BH   PUBLIC    XDATA    BYTE      TKRANDOM
      0200FFC6H   PUBLIC    XDATA    BYTE      S7816ETUH
      0200FFCDH   PUBLIC    XDATA    BYTE      EGTRSEND
      0200FFA4H   PUBLIC    XDATA    BYTE      DAY
      0200FFBAH   PUBLIC    XDATA    BYTE      RTCTMR
      0200FFAFH   PUBLIC    XDATA    BYTE      A0DOW
      0200FFA1H   PUBLIC    XDATA    BYTE      SEC
      0200FFB1H   PUBLIC    XDATA    BYTE      A1MIN
      0200FFACH   PUBLIC    XDATA    BYTE      A0MIN
      0200FF90H   PUBLIC    XDATA    BYTE      TKVREF
      0200FFAEH   PUBLIC    XDATA    BYTE      A0DAY
      0200FFB0H   PUBLIC    XDATA    BYTE      A1SEC
      0200FFC2H   PUBLIC    XDATA    BYTE      EGTSET
      0200FFABH   PUBLIC    XDATA    BYTE      A0SEC
      0200FFB3H   PUBLIC    XDATA    BYTE      RTCCON
      0200FF9AH   PUBLIC    XDATA    BYTE      TKST
      0200FFAAH   PUBLIC    XDATA    BYTE      RTCALM
      0200FFB8H   PUBLIC    XDATA    BYTE      RTCECL
      0200FFC0H   PUBLIC    XDATA    BYTE      S7816EN
      0200FFD5H   PUBLIC    XDATA    BYTE      SBRT3L
      0200FF8CH   PUBLIC    XDATA    BYTE      P1DRVL
      0200FFB9H   PUBLIC    XDATA    BYTE      RTCECH
      0200FFCAH   PUBLIC    XDATA    BYTE      S7816IE
LX51 LINKER/LOCATER V4.66.41.0                                                        11/18/2021  18:51:21  PAGE 176


      0200FF8DH   PUBLIC    XDATA    BYTE      P2DRVH
      0200FFD4H   PUBLIC    XDATA    BYTE      SBRT3H
      0200FF8BH   PUBLIC    XDATA    BYTE      P0DRVH
      0200FF85H   PUBLIC    XDATA    BYTE      P9SS
      0200FF84H   PUBLIC    XDATA    BYTE      P8SS
      0200FF83H   PUBLIC    XDATA    BYTE      P7SS
      0200FF82H   PUBLIC    XDATA    BYTE      P6SS
      0200FF81H   PUBLIC    XDATA    BYTE      P5SS
      0200FFA0H   PUBLIC    XDATA    BYTE      SBSC
      0200FF80H   PUBLIC    XDATA    BYTE      P4SS
      0200FF91H   PUBLIC    XDATA    BYTE      TKCH
      0200FFA6H   PUBLIC    XDATA    BYTE      YR
      0200FF8AH   PUBLIC    XDATA    BYTE      P3OS
      0200FF89H   PUBLIC    XDATA    BYTE      P2OS
      0200FF88H   PUBLIC    XDATA    BYTE      P0OS
      0200FFD2H   PUBLIC    XDATA    BYTE      SADDR3
      0200FFC4H   PUBLIC    XDATA    BYTE      S7816WTL
      0200FFD3H   PUBLIC    XDATA    BYTE      SADEN3
      0200FFE9H   PUBLIC    XDATA    BYTE      P9CR
      0200FFC3H   PUBLIC    XDATA    BYTE      S7816WTH
      0200FFE8H   PUBLIC    XDATA    BYTE      P8CR
      0200FFE7H   PUBLIC    XDATA    BYTE      P7CR
      0200FFE6H   PUBLIC    XDATA    BYTE      P6CR
      0200FFE5H   PUBLIC    XDATA    BYTE      P5CR
      0200FFE4H   PUBLIC    XDATA    BYTE      P4CR
      0200FFA3H   PUBLIC    XDATA    BYTE      HR
      0200FFE3H   PUBLIC    XDATA    BYTE      P3CR
      0200FFE2H   PUBLIC    XDATA    BYTE      P2CR
      0200FFE1H   PUBLIC    XDATA    BYTE      P1CR
      0200FFE0H   PUBLIC    XDATA    BYTE      P0CR
      0200FFB4H   PUBLIC    XDATA    BYTE      RTCWR
      0200FFCBH   PUBLIC    XDATA    BYTE      S7816STA
      0200FFA9H   PUBLIC    XDATA    BYTE      RTCDATL
      0200FF96H   PUBLIC    XDATA    BYTE      TK2THRL
      0200FF94H   PUBLIC    XDATA    BYTE      TK1THRL
      0200FFA8H   PUBLIC    XDATA    BYTE      RTCDATH
      0200FFB2H   PUBLIC    XDATA    BYTE      A1HR
      0200FF92H   PUBLIC    XDATA    BYTE      TK0THRL
      0200FFADH   PUBLIC    XDATA    BYTE      A0HR
      0200FFC1H   PUBLIC    XDATA    BYTE      S7816CON
      0200FFC9H   PUBLIC    XDATA    BYTE      TXBUF
      0200FF97H   PUBLIC    XDATA    BYTE      TK2THRH
      0200FF95H   PUBLIC    XDATA    BYTE      TK1THRH
      0200FFC8H   PUBLIC    XDATA    BYTE      RXBUF
      0200FF93H   PUBLIC    XDATA    BYTE      TK0THRH
      0200FFCCH   PUBLIC    XDATA    BYTE      S7816ERRSTA
      01001917H   PUBLIC    CODE     ---       main
      000000F3H   SFRSYM    DATA     BYTE      IB_CON2
      000000D8H.3 SFRSYM    DATA     BIT       TB81
      00000080H   SFRSYM    DATA     BYTE      P0
      000000F4H   SFRSYM    DATA     BYTE      IB_CON3
      000000A4H   SFRSYM    DATA     BYTE      TKCON
      00000090H   SFRSYM    DATA     BYTE      P1
      000000F5H   SFRSYM    DATA     BYTE      IB_CON4
      000000E7H   SFRSYM    DATA     BYTE      PASLO
      000000A0H   SFRSYM    DATA     BYTE      P2
      000000FEH   SFRSYM    DATA     BYTE      OSCLO
      000000F6H   SFRSYM    DATA     BYTE      IB_CON5
      00000098H.6 SFRSYM    DATA     BIT       SM1_RXOV
      000000B0H   SFRSYM    DATA     BYTE      P3
      000000D0H.6 SFRSYM    DATA     BIT       AC
      000000C0H   SFRSYM    DATA     BYTE      P4
      000000A1H   SFRSYM    DATA     BYTE      SPCON
      0000009CH   SFRSYM    DATA     BYTE      SBRTH
      000000E9H   SFRSYM    DATA     BYTE      P5
LX51 LINKER/LOCATER V4.66.41.0                                                        11/18/2021  18:51:21  PAGE 177


      000000A8H.7 SFRSYM    DATA     BIT       EA
      000000EAH   SFRSYM    DATA     BYTE      P6
      000000EBH   SFRSYM    DATA     BYTE      P7
      000000EFH   SFRSYM    DATA     BYTE      IB_DATA
      000000ECH   SFRSYM    DATA     BYTE      P8
      0000009DH   SFRSYM    DATA     BYTE      SBRTL
      000000EDH   SFRSYM    DATA     BYTE      P9
      000000B7H   SFRSYM    DATA     BYTE      PBANKLO
      000000A2H   SFRSYM    DATA     BYTE      SPSTA
      000000A8H   SFRSYM    DATA     BYTE      IEN0
      000000B3H   SFRSYM    DATA     BYTE      PWRCON1
      00000095H   SFRSYM    DATA     BYTE      EMUSR
      000000A9H   SFRSYM    DATA     BYTE      IEN1
      000000B4H   SFRSYM    DATA     BYTE      PWRCON2
      00000085H   SFRSYM    DATA     BYTE      DPH1
      00000080H   SFRSYM    DATA     BIT       P0_0
      00000090H   SFRSYM    DATA     BIT       P1_0
      00000080H.1 SFRSYM    DATA     BIT       P0_1
      000000C3H   SFRSYM    DATA     BYTE      ADCH
      000000A0H   SFRSYM    DATA     BIT       P2_0
      00000090H.1 SFRSYM    DATA     BIT       P1_1
      00000080H.2 SFRSYM    DATA     BIT       P0_2
      000000BAH   SFRSYM    DATA     BYTE      IPH0
      00000084H   SFRSYM    DATA     BYTE      DPL1
      000000B0H   SFRSYM    DATA     BIT       P3_0
      000000A0H.1 SFRSYM    DATA     BIT       P2_1
      00000090H.2 SFRSYM    DATA     BIT       P1_2
      00000080H.3 SFRSYM    DATA     BIT       P0_3
      000000BBH   SFRSYM    DATA     BYTE      IPH1
      000000C0H   SFRSYM    DATA     BIT       P4_0
      000000B0H.1 SFRSYM    DATA     BIT       P3_1
      000000A0H.2 SFRSYM    DATA     BIT       P2_2
      00000090H.3 SFRSYM    DATA     BIT       P1_3
      00000080H.4 SFRSYM    DATA     BIT       P0_4
      000000E8H   SFRSYM    DATA     BYTE      EXF0
      000000C0H.1 SFRSYM    DATA     BIT       P4_1
      000000B0H.2 SFRSYM    DATA     BIT       P3_2
      000000A0H.3 SFRSYM    DATA     BIT       P2_3
      00000090H.4 SFRSYM    DATA     BIT       P1_4
      00000080H.5 SFRSYM    DATA     BIT       P0_5
      000000C0H.2 SFRSYM    DATA     BIT       P4_2
      000000B0H.3 SFRSYM    DATA     BIT       P3_3
      000000A0H.4 SFRSYM    DATA     BIT       P2_4
      00000090H.5 SFRSYM    DATA     BIT       P1_5
      00000080H.6 SFRSYM    DATA     BIT       P0_6
      000000C8H.6 SFRSYM    DATA     BIT       EXF2
      000000A6H   SFRSYM    DATA     BYTE      TKF0
      000000B8H   SFRSYM    DATA     BYTE      IPL0
      000000C0H.3 SFRSYM    DATA     BIT       P4_3
      000000B0H.4 SFRSYM    DATA     BIT       P3_4
      000000A0H.5 SFRSYM    DATA     BIT       P2_5
      00000090H.6 SFRSYM    DATA     BIT       P1_6
      00000080H.7 SFRSYM    DATA     BIT       P0_7
      000000D8H.4 SFRSYM    DATA     BIT       REN1
      000000B9H   SFRSYM    DATA     BYTE      IPL1
      000000C0H.4 SFRSYM    DATA     BIT       P4_4
      000000B0H.5 SFRSYM    DATA     BIT       P3_5
      000000A0H.6 SFRSYM    DATA     BIT       P2_6
      00000090H.7 SFRSYM    DATA     BIT       P1_7
      000000E2H   SFRSYM    DATA     BYTE      TK0H
      0000008EH   SFRSYM    DATA     BYTE      SUSLO
      000000C0H.5 SFRSYM    DATA     BIT       P4_5
      000000B0H.6 SFRSYM    DATA     BIT       P3_6
      000000A0H.7 SFRSYM    DATA     BIT       P2_7
      000000E4H   SFRSYM    DATA     BYTE      TK1H
LX51 LINKER/LOCATER V4.66.41.0                                                        11/18/2021  18:51:21  PAGE 178


      000000C0H.6 SFRSYM    DATA     BIT       P4_6
      000000B0H.7 SFRSYM    DATA     BIT       P3_7
      000000E6H   SFRSYM    DATA     BYTE      TK2H
      000000C0H.7 SFRSYM    DATA     BIT       P4_7
      00000098H   SFRSYM    DATA     BIT       RI
      000000A8H.2 SFRSYM    DATA     BIT       E7816
      000000D0H.7 SFRSYM    DATA     BIT       CY
      000000E1H   SFRSYM    DATA     BYTE      TK0L
      00000098H.1 SFRSYM    DATA     BIT       TI
      00000091H   SFRSYM    DATA     BYTE      EADR
      000000E3H   SFRSYM    DATA     BYTE      TK1L
      000000E5H   SFRSYM    DATA     BYTE      TK2L
      000000DBH   SFRSYM    DATA     BYTE      SADEN1
      000000D8H.7 SFRSYM    DATA     BIT       SM10_FE1
      000000FBH   SFRSYM    DATA     BYTE      SADEN2
      000000B8H.4 SFRSYM    DATA     BIT       PS0L
      000000B8H.1 SFRSYM    DATA     BIT       PT0L
      000000DAH   SFRSYM    DATA     BYTE      SADDR1
      000000D8H.5 SFRSYM    DATA     BIT       SM12_TXCOL1
      000000B8H.3 SFRSYM    DATA     BIT       PT1L
      000000FAH   SFRSYM    DATA     BYTE      SADDR2
      000000CBH   SFRSYM    DATA     BYTE      RCAP2H
      000000B8H.5 SFRSYM    DATA     BIT       PT2L
      00000081H   SFRSYM    DATA     BYTE      SP
      000000D0H.2 SFRSYM    DATA     BIT       OV
      000000CAH   SFRSYM    DATA     BYTE      RCAP2L
      000000B8H   SFRSYM    DATA     BIT       PX4L
      000000C8H.1 SFRSYM    DATA     BIT       C_T2
      000000DEH   SFRSYM    DATA     BYTE      SFINE2
      000000ADH   SFRSYM    DATA     BYTE      IRCON1
      000000AFH   SFRSYM    DATA     BYTE      IRCON2
      000000ABH   SFRSYM    DATA     BYTE      EXCON1
      00000099H   SFRSYM    DATA     BYTE      SBUF
      000000ACH   SFRSYM    DATA     BYTE      EXCON2
      00000087H   SFRSYM    DATA     BYTE      PCON
      000000F1H   SFRSYM    DATA     BYTE      AUXC
      00000098H   SFRSYM    DATA     BYTE      SCON
      000000D4H   SFRSYM    DATA     BYTE      TK0BASEH
      00000089H   SFRSYM    DATA     BYTE      TMOD
      00000088H   SFRSYM    DATA     BYTE      TCON
      000000AAH   SFRSYM    DATA     BYTE      IENX
      000000EEH   SFRSYM    DATA     BYTE      IB_OFFSET
      000000D6H   SFRSYM    DATA     BYTE      TK1BASEH
      000000DCH   SFRSYM    DATA     BYTE      SBRT1H
      000000DFH   SFRSYM    DATA     BYTE      TK2BASEH
      000000FCH   SFRSYM    DATA     BYTE      SBRT2H
      000000B1H   SFRSYM    DATA     BYTE      RSTSTAT
      000000D3H   SFRSYM    DATA     BYTE      TK0BASEL
      000000D5H   SFRSYM    DATA     BYTE      TK1BASEL
      000000DDH   SFRSYM    DATA     BYTE      SBRT1L
      000000D7H   SFRSYM    DATA     BYTE      TK2BASEL
      000000FDH   SFRSYM    DATA     BYTE      SBRT2L
      00000098H.7 SFRSYM    DATA     BIT       SM0_FE
      000000B2H   SFRSYM    DATA     BYTE      CLKCON
      00000098H.5 SFRSYM    DATA     BIT       SM2_TXCOL
      000000B5H   SFRSYM    DATA     BYTE      LDOCON
      000000F0H   SFRSYM    DATA     BYTE      B
      000000C8H   SFRSYM    DATA     BIT       CP_RL2
      000000E0H   SFRSYM    DATA     BYTE      ACC
      000000A8H.4 SFRSYM    DATA     BIT       ES0
      000000A8H.1 SFRSYM    DATA     BIT       ET0
      000000A8H.3 SFRSYM    DATA     BIT       ET1
      00000088H.5 SFRSYM    DATA     BIT       TF0
      000000A8H.5 SFRSYM    DATA     BIT       ET2
      00000088H.7 SFRSYM    DATA     BIT       TF1
LX51 LINKER/LOCATER V4.66.41.0                                                        11/18/2021  18:51:21  PAGE 179


      000000D8H   SFRSYM    DATA     BIT       RI1
      00000098H.2 SFRSYM    DATA     BIT       RB8
      000000C8H.7 SFRSYM    DATA     BIT       TF2
      0000008CH   SFRSYM    DATA     BYTE      TH0
      00000086H   SFRSYM    DATA     BYTE      INSCON
      0000008DH   SFRSYM    DATA     BYTE      TH1
      000000D8H.1 SFRSYM    DATA     BIT       TI1
      00000098H.3 SFRSYM    DATA     BIT       TB8
      000000CDH   SFRSYM    DATA     BYTE      TH2
      000000D0H   SFRSYM    DATA     BIT       P
      0000008AH   SFRSYM    DATA     BYTE      TL0
      000000A8H   SFRSYM    DATA     BIT       EX4
      0000008BH   SFRSYM    DATA     BYTE      TL1
      000000A7H   SFRSYM    DATA     BYTE      FLASHCON
      000000CCH   SFRSYM    DATA     BYTE      TL2
      000000D0H.3 SFRSYM    DATA     BIT       RS0
      000000C5H   SFRSYM    DATA     BYTE      ADCDH
      00000088H.4 SFRSYM    DATA     BIT       TR0
      000000D0H.4 SFRSYM    DATA     BIT       RS1
      0000009FH   SFRSYM    DATA     BYTE      PWMCON
      00000088H.6 SFRSYM    DATA     BIT       TR1
      000000C8H.2 SFRSYM    DATA     BIT       TR2
      000000C4H   SFRSYM    DATA     BYTE      ADCDL
      000000C2H   SFRSYM    DATA     BYTE      ADT
      00000083H   SFRSYM    DATA     BYTE      DPH
      00000082H   SFRSYM    DATA     BYTE      DPL
      000000D9H   SFRSYM    DATA     BYTE      SBUF1
      000000C8H.3 SFRSYM    DATA     BIT       EXEN2
      000000F9H   SFRSYM    DATA     BYTE      SBUF2
      000000D8H.6 SFRSYM    DATA     BIT       SM11_RXOV1
      000000B8H.6 SFRSYM    DATA     BIT       PADCL
      00000098H.4 SFRSYM    DATA     BIT       REN
      000000D8H   SFRSYM    DATA     BYTE      SCON1
      000000D1H   SFRSYM    DATA     BYTE      LCDCON1
      000000C1H   SFRSYM    DATA     BYTE      ADCON
      000000F8H   SFRSYM    DATA     BYTE      SCON2
      0000008FH   SFRSYM    DATA     BYTE      TCON1
      000000D2H   SFRSYM    DATA     BYTE      LCDCON2
      00000092H   SFRSYM    DATA     BYTE      EDTAH
      000000C9H   SFRSYM    DATA     BYTE      T2MOD
      000000C8H   SFRSYM    DATA     BYTE      T2CON
      00000094H   SFRSYM    DATA     BYTE      EDTAL
      00000093H   SFRSYM    DATA     BYTE      EDTAM
      000000BCH   SFRSYM    DATA     BYTE      TK0DIFH
      0000009BH   SFRSYM    DATA     BYTE      SADEN
      000000BEH   SFRSYM    DATA     BYTE      TK1DIFH
      000000B6H   SFRSYM    DATA     BYTE      PBANK
      000000A5H   SFRSYM    DATA     BYTE      TK2DIFH
      000000A8H.6 SFRSYM    DATA     BIT       EADTP
      0000009AH   SFRSYM    DATA     BYTE      SADDR
      000000CFH   SFRSYM    DATA     BYTE      TK0DIFL
      000000BDH   SFRSYM    DATA     BYTE      TK1DIFL
      000000BFH   SFRSYM    DATA     BYTE      TK2DIFL
      000000B8H.2 SFRSYM    DATA     BIT       P7816L
      000000C6H   SFRSYM    DATA     BYTE      LPDCON1
      000000C7H   SFRSYM    DATA     BYTE      LPDCON2
      000000D0H.5 SFRSYM    DATA     BIT       F0
      000000AEH   SFRSYM    DATA     BYTE      IRDAT
      000000D0H.1 SFRSYM    DATA     BIT       F1
      00000096H   SFRSYM    DATA     BYTE      EMUIE
      0000009EH   SFRSYM    DATA     BYTE      SFINE
      000000F7H   SFRSYM    DATA     BYTE      XPAGE
      00000097H   SFRSYM    DATA     BYTE      EMUIF
      000000D0H   SFRSYM    DATA     BYTE      PSW
      000000D8H.2 SFRSYM    DATA     BIT       RB81
LX51 LINKER/LOCATER V4.66.41.0                                                        11/18/2021  18:51:21  PAGE 180


      000000A3H   SFRSYM    DATA     BYTE      SPDAT
      000000F2H   SFRSYM    DATA     BYTE      IB_CON1

      01001917H   BLOCK     CODE     ---       LVL=0
      01001917H   LINE      ---      ---       #153
      01001917H   LINE      ---      ---       #154
      01001917H   LINE      ---      ---       #156
      0100191DH   LINE      ---      ---       #157
      0100191DH   LINE      ---      ---       #158
      01001920H   LINE      ---      ---       #159
      01001920H   LINE      ---      ---       #165
      01001920H   LINE      ---      ---       #166
      01001920H   LINE      ---      ---       #168
      01001936H   LINE      ---      ---       #169
      01001936H   LINE      ---      ---       #170
      01001939H   LINE      ---      ---       #171
      01001939H   LINE      ---      ---       #172
      01001941H   LINE      ---      ---       #177
      01001944H   LINE      ---      ---       #179
      01001947H   LINE      ---      ---       #181
      0100194AH   LINE      ---      ---       #185
      0100194DH   LINE      ---      ---       #187
      01001950H   LINE      ---      ---       #190
      ---         BLOCKEND  ---      ---       LVL=0

      ---         MODULE    ---      ---       LIBPUBLIC
      010014E7H   PUBLIC    CONST    ---       fcstab
      020006B2H   PUBLIC    XDATA    BYTE      ?_LibPub_HEXtoAscii?BYTE
      01002E58H   PUBLIC    CODE     ---       _LibPub_HEXtoAscii
      0200065EH   PUBLIC    XDATA    BYTE      ?_LibPub_CompareNBufs?BYTE
      010021B2H   PUBLIC    CODE     ---       _LibPub_CompareNBufs
      02000781H   PUBLIC    XDATA    BYTE      ?_LibPub_HEXtoBCDBytes?BYTE
      01003B38H   PUBLIC    CODE     ---       _LibPub_HEXtoBCDBytes
      010039D1H   PUBLIC    CODE     ---       _LibPub_DECtoHEXBytes
      02000781H   PUBLIC    XDATA    BYTE      ?_LibPub_NBytesBCDSub?BYTE
      010038DDH   PUBLIC    CODE     ---       _LibPub_NBytesBCDSub
      0100384EH   PUBLIC    CODE     ---       _LibPub_Buffer4ToUlong32
      01003811H   PUBLIC    CODE     ---       _LibPub_Buffer2ToUshort16
      02000986H   PUBLIC    XDATA    BYTE      ?_LibPub_CompareData?BYTE
      010036EAH   PUBLIC    CODE     ---       _LibPub_CompareData
      01002DCEH   PUBLIC    CODE     ---       _LibPub_Delay10xus
      01002D13H   PUBLIC    CODE     ---       _LibPub_DelayNms
      01002DBFH   PUBLIC    CODE     ---       LibPub_Delay10us
      01002DC5H   PUBLIC    CODE     ---       LibPub_Delay5us
      01000006H   PUBLIC    CODE     ---       LibPub_Delay2us
      010035AAH   PUBLIC    CODE     ---       _LibPub_CheckPassword
      010034FAH   PUBLIC    CODE     ---       _LibPub_Inverse
      01003498H   PUBLIC    CODE     ---       _LibPub_IsBCD
      02000986H   PUBLIC    XDATA    BYTE      ?_LibPub_MemExchangeBytes?BYTE
      01003434H   PUBLIC    CODE     ---       _LibPub_MemExchangeBytes
      01002F7FH   PUBLIC    CODE     ---       _LibPub_CalSum
      0200098BH   PUBLIC    XDATA    BYTE      ?_LibPub_MemSetBytes?BYTE
      01002690H   PUBLIC    CODE     ---       _LibPub_MemSetBytes
      02000610H   PUBLIC    XDATA    BYTE      ?_LibPub_GetDiffTime?BYTE
      0100336CH   PUBLIC    CODE     ---       _LibPub_GetDiffTime
      01003209H   PUBLIC    CODE     ---       LibPub_GetTimerBeatInt1
      010030B1H   PUBLIC    CODE     ---       LibPub_GetTimerBeatInt0
      0100196AH   PUBLIC    CODE     ---       LibPub_GetTimerBeat
      0200098BH   PUBLIC    XDATA    BYTE      ?_LibPub_NBtyesBcdAdd?BYTE
      01003016H   PUBLIC    CODE     ---       _LibPub_NBtyesBcdAdd
      01002FEDH   PUBLIC    CODE     ---       _LibPub_1BtyeBcdAdd
      01002FDEH   PUBLIC    CODE     ---       _LibPub_1BCD_2_1HEX
      01002FBEH   PUBLIC    CODE     ---       _LibPub_1Hex_2_1BCD
      01002F0CH   PUBLIC    CODE     ---       _LibPub_0xFFCheckInt
      01002B98H   PUBLIC    CODE     ---       _LibPub_ZeroCheck
LX51 LINKER/LOCATER V4.66.41.0                                                        11/18/2021  18:51:21  PAGE 181


      02000986H   PUBLIC    XDATA    BYTE      ?_LibPub_CrcCheck?BYTE
      01002B5EH   PUBLIC    CODE     ---       _LibPub_CrcCheck
      020009D1H   PUBLIC    XDATA    BYTE      ?_LibPub_MemCopyBytes?BYTE
      0100216FH   PUBLIC    CODE     ---       _LibPub_MemCopyBytes
      01001C7AH   PUBLIC    CODE     ---       _LibPub_CRC16_CCITT
      01001F26H   PUBLIC    CODE     ---       _LibPub_ReadDataFromE2prom
      01001A57H   PUBLIC    CODE     ---       _LibPub_WriteDataToE2prom
      000000F3H   SFRSYM    DATA     BYTE      IB_CON2
      000000D8H.3 SFRSYM    DATA     BIT       TB81
      00000080H   SFRSYM    DATA     BYTE      P0
      000000F4H   SFRSYM    DATA     BYTE      IB_CON3
      000000A4H   SFRSYM    DATA     BYTE      TKCON
      00000090H   SFRSYM    DATA     BYTE      P1
      000000F5H   SFRSYM    DATA     BYTE      IB_CON4
      000000E7H   SFRSYM    DATA     BYTE      PASLO
      000000A0H   SFRSYM    DATA     BYTE      P2
      000000FEH   SFRSYM    DATA     BYTE      OSCLO
      000000F6H   SFRSYM    DATA     BYTE      IB_CON5
      00000098H.6 SFRSYM    DATA     BIT       SM1_RXOV
      000000B0H   SFRSYM    DATA     BYTE      P3
      000000D0H.6 SFRSYM    DATA     BIT       AC
      000000C0H   SFRSYM    DATA     BYTE      P4
      000000A1H   SFRSYM    DATA     BYTE      SPCON
      0000009CH   SFRSYM    DATA     BYTE      SBRTH
      000000E9H   SFRSYM    DATA     BYTE      P5
      000000A8H.7 SFRSYM    DATA     BIT       EA
      000000EAH   SFRSYM    DATA     BYTE      P6
      000000EBH   SFRSYM    DATA     BYTE      P7
      000000EFH   SFRSYM    DATA     BYTE      IB_DATA
      000000ECH   SFRSYM    DATA     BYTE      P8
      0000009DH   SFRSYM    DATA     BYTE      SBRTL
      000000EDH   SFRSYM    DATA     BYTE      P9
      000000B7H   SFRSYM    DATA     BYTE      PBANKLO
      000000A2H   SFRSYM    DATA     BYTE      SPSTA
      000000A8H   SFRSYM    DATA     BYTE      IEN0
      000000B3H   SFRSYM    DATA     BYTE      PWRCON1
      00000095H   SFRSYM    DATA     BYTE      EMUSR
      000000A9H   SFRSYM    DATA     BYTE      IEN1
      000000B4H   SFRSYM    DATA     BYTE      PWRCON2
      00000085H   SFRSYM    DATA     BYTE      DPH1
      00000080H   SFRSYM    DATA     BIT       P0_0
      00000090H   SFRSYM    DATA     BIT       P1_0
      00000080H.1 SFRSYM    DATA     BIT       P0_1
      000000C3H   SFRSYM    DATA     BYTE      ADCH
      000000A0H   SFRSYM    DATA     BIT       P2_0
      00000090H.1 SFRSYM    DATA     BIT       P1_1
      00000080H.2 SFRSYM    DATA     BIT       P0_2
      000000BAH   SFRSYM    DATA     BYTE      IPH0
      00000084H   SFRSYM    DATA     BYTE      DPL1
      000000B0H   SFRSYM    DATA     BIT       P3_0
      000000A0H.1 SFRSYM    DATA     BIT       P2_1
      00000090H.2 SFRSYM    DATA     BIT       P1_2
      00000080H.3 SFRSYM    DATA     BIT       P0_3
      000000BBH   SFRSYM    DATA     BYTE      IPH1
      000000C0H   SFRSYM    DATA     BIT       P4_0
      000000B0H.1 SFRSYM    DATA     BIT       P3_1
      000000A0H.2 SFRSYM    DATA     BIT       P2_2
      00000090H.3 SFRSYM    DATA     BIT       P1_3
      00000080H.4 SFRSYM    DATA     BIT       P0_4
      000000E8H   SFRSYM    DATA     BYTE      EXF0
      000000C0H.1 SFRSYM    DATA     BIT       P4_1
      000000B0H.2 SFRSYM    DATA     BIT       P3_2
      000000A0H.3 SFRSYM    DATA     BIT       P2_3
      00000090H.4 SFRSYM    DATA     BIT       P1_4
      00000080H.5 SFRSYM    DATA     BIT       P0_5
LX51 LINKER/LOCATER V4.66.41.0                                                        11/18/2021  18:51:21  PAGE 182


      000000C0H.2 SFRSYM    DATA     BIT       P4_2
      000000B0H.3 SFRSYM    DATA     BIT       P3_3
      000000A0H.4 SFRSYM    DATA     BIT       P2_4
      00000090H.5 SFRSYM    DATA     BIT       P1_5
      00000080H.6 SFRSYM    DATA     BIT       P0_6
      000000C8H.6 SFRSYM    DATA     BIT       EXF2
      000000A6H   SFRSYM    DATA     BYTE      TKF0
      000000B8H   SFRSYM    DATA     BYTE      IPL0
      000000C0H.3 SFRSYM    DATA     BIT       P4_3
      000000B0H.4 SFRSYM    DATA     BIT       P3_4
      000000A0H.5 SFRSYM    DATA     BIT       P2_5
      00000090H.6 SFRSYM    DATA     BIT       P1_6
      00000080H.7 SFRSYM    DATA     BIT       P0_7
      000000D8H.4 SFRSYM    DATA     BIT       REN1
      000000B9H   SFRSYM    DATA     BYTE      IPL1
      000000C0H.4 SFRSYM    DATA     BIT       P4_4
      000000B0H.5 SFRSYM    DATA     BIT       P3_5
      000000A0H.6 SFRSYM    DATA     BIT       P2_6
      00000090H.7 SFRSYM    DATA     BIT       P1_7
      000000E2H   SFRSYM    DATA     BYTE      TK0H
      0000008EH   SFRSYM    DATA     BYTE      SUSLO
      000000C0H.5 SFRSYM    DATA     BIT       P4_5
      000000B0H.6 SFRSYM    DATA     BIT       P3_6
      000000A0H.7 SFRSYM    DATA     BIT       P2_7
      000000E4H   SFRSYM    DATA     BYTE      TK1H
      000000C0H.6 SFRSYM    DATA     BIT       P4_6
      000000B0H.7 SFRSYM    DATA     BIT       P3_7
      000000E6H   SFRSYM    DATA     BYTE      TK2H
      000000C0H.7 SFRSYM    DATA     BIT       P4_7
      00000098H   SFRSYM    DATA     BIT       RI
      000000A8H.2 SFRSYM    DATA     BIT       E7816
      000000D0H.7 SFRSYM    DATA     BIT       CY
      000000E1H   SFRSYM    DATA     BYTE      TK0L
      00000098H.1 SFRSYM    DATA     BIT       TI
      00000091H   SFRSYM    DATA     BYTE      EADR
      000000E3H   SFRSYM    DATA     BYTE      TK1L
      000000E5H   SFRSYM    DATA     BYTE      TK2L
      000000DBH   SFRSYM    DATA     BYTE      SADEN1
      000000D8H.7 SFRSYM    DATA     BIT       SM10_FE1
      000000FBH   SFRSYM    DATA     BYTE      SADEN2
      000000B8H.4 SFRSYM    DATA     BIT       PS0L
      000000B8H.1 SFRSYM    DATA     BIT       PT0L
      000000DAH   SFRSYM    DATA     BYTE      SADDR1
      000000D8H.5 SFRSYM    DATA     BIT       SM12_TXCOL1
      000000B8H.3 SFRSYM    DATA     BIT       PT1L
      000000FAH   SFRSYM    DATA     BYTE      SADDR2
      000000CBH   SFRSYM    DATA     BYTE      RCAP2H
      000000B8H.5 SFRSYM    DATA     BIT       PT2L
      00000081H   SFRSYM    DATA     BYTE      SP
      000000D0H.2 SFRSYM    DATA     BIT       OV
      000000CAH   SFRSYM    DATA     BYTE      RCAP2L
      000000B8H   SFRSYM    DATA     BIT       PX4L
      000000C8H.1 SFRSYM    DATA     BIT       C_T2
      000000DEH   SFRSYM    DATA     BYTE      SFINE2
      000000ADH   SFRSYM    DATA     BYTE      IRCON1
      000000AFH   SFRSYM    DATA     BYTE      IRCON2
      000000ABH   SFRSYM    DATA     BYTE      EXCON1
      00000099H   SFRSYM    DATA     BYTE      SBUF
      000000ACH   SFRSYM    DATA     BYTE      EXCON2
      00000087H   SFRSYM    DATA     BYTE      PCON
      000000F1H   SFRSYM    DATA     BYTE      AUXC
      00000098H   SFRSYM    DATA     BYTE      SCON
      000000D4H   SFRSYM    DATA     BYTE      TK0BASEH
      00000089H   SFRSYM    DATA     BYTE      TMOD
      00000088H   SFRSYM    DATA     BYTE      TCON
LX51 LINKER/LOCATER V4.66.41.0                                                        11/18/2021  18:51:21  PAGE 183


      000000AAH   SFRSYM    DATA     BYTE      IENX
      000000EEH   SFRSYM    DATA     BYTE      IB_OFFSET
      000000D6H   SFRSYM    DATA     BYTE      TK1BASEH
      000000DCH   SFRSYM    DATA     BYTE      SBRT1H
      000000DFH   SFRSYM    DATA     BYTE      TK2BASEH
      000000FCH   SFRSYM    DATA     BYTE      SBRT2H
      000000B1H   SFRSYM    DATA     BYTE      RSTSTAT
      000000D3H   SFRSYM    DATA     BYTE      TK0BASEL
      000000D5H   SFRSYM    DATA     BYTE      TK1BASEL
      000000DDH   SFRSYM    DATA     BYTE      SBRT1L
      000000D7H   SFRSYM    DATA     BYTE      TK2BASEL
      000000FDH   SFRSYM    DATA     BYTE      SBRT2L
      00000098H.7 SFRSYM    DATA     BIT       SM0_FE
      000000B2H   SFRSYM    DATA     BYTE      CLKCON
      00000098H.5 SFRSYM    DATA     BIT       SM2_TXCOL
      000000B5H   SFRSYM    DATA     BYTE      LDOCON
      000000F0H   SFRSYM    DATA     BYTE      B
      000000C8H   SFRSYM    DATA     BIT       CP_RL2
      000000E0H   SFRSYM    DATA     BYTE      ACC
      000000A8H.4 SFRSYM    DATA     BIT       ES0
      000000A8H.1 SFRSYM    DATA     BIT       ET0
      000000A8H.3 SFRSYM    DATA     BIT       ET1
      00000088H.5 SFRSYM    DATA     BIT       TF0
      000000A8H.5 SFRSYM    DATA     BIT       ET2
      00000088H.7 SFRSYM    DATA     BIT       TF1
      000000D8H   SFRSYM    DATA     BIT       RI1
      00000098H.2 SFRSYM    DATA     BIT       RB8
      000000C8H.7 SFRSYM    DATA     BIT       TF2
      0000008CH   SFRSYM    DATA     BYTE      TH0
      00000086H   SFRSYM    DATA     BYTE      INSCON
      0000008DH   SFRSYM    DATA     BYTE      TH1
      000000D8H.1 SFRSYM    DATA     BIT       TI1
      00000098H.3 SFRSYM    DATA     BIT       TB8
      000000CDH   SFRSYM    DATA     BYTE      TH2
      000000D0H   SFRSYM    DATA     BIT       P
      0000008AH   SFRSYM    DATA     BYTE      TL0
      000000A8H   SFRSYM    DATA     BIT       EX4
      0000008BH   SFRSYM    DATA     BYTE      TL1
      000000A7H   SFRSYM    DATA     BYTE      FLASHCON
      000000CCH   SFRSYM    DATA     BYTE      TL2
      000000D0H.3 SFRSYM    DATA     BIT       RS0
      000000C5H   SFRSYM    DATA     BYTE      ADCDH
      00000088H.4 SFRSYM    DATA     BIT       TR0
      000000D0H.4 SFRSYM    DATA     BIT       RS1
      0000009FH   SFRSYM    DATA     BYTE      PWMCON
      00000088H.6 SFRSYM    DATA     BIT       TR1
      000000C8H.2 SFRSYM    DATA     BIT       TR2
      000000C4H   SFRSYM    DATA     BYTE      ADCDL
      000000C2H   SFRSYM    DATA     BYTE      ADT
      00000083H   SFRSYM    DATA     BYTE      DPH
      00000082H   SFRSYM    DATA     BYTE      DPL
      000000D9H   SFRSYM    DATA     BYTE      SBUF1
      000000C8H.3 SFRSYM    DATA     BIT       EXEN2
      000000F9H   SFRSYM    DATA     BYTE      SBUF2
      000000D8H.6 SFRSYM    DATA     BIT       SM11_RXOV1
      000000B8H.6 SFRSYM    DATA     BIT       PADCL
      00000098H.4 SFRSYM    DATA     BIT       REN
      000000D8H   SFRSYM    DATA     BYTE      SCON1
      000000D1H   SFRSYM    DATA     BYTE      LCDCON1
      000000C1H   SFRSYM    DATA     BYTE      ADCON
      000000F8H   SFRSYM    DATA     BYTE      SCON2
      0000008FH   SFRSYM    DATA     BYTE      TCON1
      000000D2H   SFRSYM    DATA     BYTE      LCDCON2
      00000092H   SFRSYM    DATA     BYTE      EDTAH
      000000C9H   SFRSYM    DATA     BYTE      T2MOD
LX51 LINKER/LOCATER V4.66.41.0                                                        11/18/2021  18:51:21  PAGE 184


      000000C8H   SFRSYM    DATA     BYTE      T2CON
      00000094H   SFRSYM    DATA     BYTE      EDTAL
      00000093H   SFRSYM    DATA     BYTE      EDTAM
      000000BCH   SFRSYM    DATA     BYTE      TK0DIFH
      0000009BH   SFRSYM    DATA     BYTE      SADEN
      000000BEH   SFRSYM    DATA     BYTE      TK1DIFH
      000000B6H   SFRSYM    DATA     BYTE      PBANK
      000000A5H   SFRSYM    DATA     BYTE      TK2DIFH
      000000A8H.6 SFRSYM    DATA     BIT       EADTP
      0000009AH   SFRSYM    DATA     BYTE      SADDR
      000000CFH   SFRSYM    DATA     BYTE      TK0DIFL
      000000BDH   SFRSYM    DATA     BYTE      TK1DIFL
      000000BFH   SFRSYM    DATA     BYTE      TK2DIFL
      000000B8H.2 SFRSYM    DATA     BIT       P7816L
      000000C6H   SFRSYM    DATA     BYTE      LPDCON1
      000000C7H   SFRSYM    DATA     BYTE      LPDCON2
      000000D0H.5 SFRSYM    DATA     BIT       F0
      000000AEH   SFRSYM    DATA     BYTE      IRDAT
      000000D0H.1 SFRSYM    DATA     BIT       F1
      00000096H   SFRSYM    DATA     BYTE      EMUIE
      0000009EH   SFRSYM    DATA     BYTE      SFINE
      000000F7H   SFRSYM    DATA     BYTE      XPAGE
      00000097H   SFRSYM    DATA     BYTE      EMUIF
      000000D0H   SFRSYM    DATA     BYTE      PSW
      000000D8H.2 SFRSYM    DATA     BIT       RB81
      000000A3H   SFRSYM    DATA     BYTE      SPDAT
      000000F2H   SFRSYM    DATA     BYTE      IB_CON1

      01001A17H   BLOCK     CODE     ---       LVL=0
      01001A57H   LINE      ---      ---       #170
      01001A6DH   LINE      ---      ---       #171
      0200098BH   SYMBOL    XDATA    WORD      v_usAddrIndex
      0200098DH   SYMBOL    XDATA    BYTE      v_ucOffset
      0200098EH   SYMBOL    XDATA    ---       ptr_ucData
      01001A6DH   BLOCK     CODE     NEAR LAB  LVL=1
      01001A6DH   LINE      ---      ---       #172
      01001A73H   LINE      ---      ---       #174
      01001A7AH   LINE      ---      ---       #176
      01001A85H   LINE      ---      ---       #177
      01001A85H   LINE      ---      ---       #178
      01001A96H   LINE      ---      ---       #179
      01001A96H   LINE      ---      ---       #180
      01001ABCH   LINE      ---      ---       #181
      01001ABCH   LINE      ---      ---       #182
      01001AD7H   LINE      ---      ---       #183
      01001AD7H   LINE      ---      ---       #184
      01001AFEH   LINE      ---      ---       #185
      01001B37H   LINE      ---      ---       #186
      01001B66H   LINE      ---      ---       #187
      01001B66H   LINE      ---      ---       #189
      01001BC8H   LINE      ---      ---       #190
      01001BC8H   LINE      ---      ---       #191
      01001BCCH   LINE      ---      ---       #192
      01001BE9H   LINE      ---      ---       #193
      01001BE9H   LINE      ---      ---       #194
      01001C3AH   LINE      ---      ---       #195
      01001C3AH   LINE      ---      ---       #198
      01001C3AH   LINE      ---      ---       #200
      01001C3AH   LINE      ---      ---       #201
      01001C40H   LINE      ---      ---       #202
      01001C40H   LINE      ---      ---       #203
      01001C40H   LINE      ---      ---       #204
      01001C40H   LINE      ---      ---       #205
      01001C42H   LINE      ---      ---       #206
      01001C42H   LINE      ---      ---       #207
LX51 LINKER/LOCATER V4.66.41.0                                                        11/18/2021  18:51:21  PAGE 185


      01001C4AH   LINE      ---      ---       #208
      01001C4AH   LINE      ---      ---       #210
      01001C4FH   LINE      ---      ---       #211
      02000991H   SYMBOL    XDATA    BYTE      V_ucResult
      02000992H   SYMBOL    XDATA    BYTE      V_ucIndex
      02000993H   SYMBOL    XDATA    WORD      V_usCRC16
      ---         BLOCKEND  CODE     ---       LVL=1
      ---         BLOCKEND  CODE     ---       LVL=0

      01001F05H   BLOCK     CODE     ---       LVL=0
      01001F26H   LINE      ---      ---       #223
      01001F3CH   LINE      ---      ---       #224
      02000986H   SYMBOL    XDATA    WORD      v_usAddrIndex
      02000988H   SYMBOL    XDATA    BYTE      v_ucOffset
      02000989H   SYMBOL    XDATA    ---       ptr_ucData
      01001F3CH   BLOCK     CODE     NEAR LAB  LVL=1
      01001F3CH   LINE      ---      ---       #225
      01001F42H   LINE      ---      ---       #226
      01001F47H   LINE      ---      ---       #228
      01001F4DH   LINE      ---      ---       #230
      01001F59H   LINE      ---      ---       #231
      01001F59H   LINE      ---      ---       #232
      01001F6BH   LINE      ---      ---       #233
      01001F6BH   LINE      ---      ---       #234
      01001F92H   LINE      ---      ---       #235
      01001F92H   LINE      ---      ---       #236
      01001F96H   LINE      ---      ---       #237
      01001F96H   LINE      ---      ---       #238
      01001FF4H   LINE      ---      ---       #239
      01001FF4H   LINE      ---      ---       #240
      01002011H   LINE      ---      ---       #241
      01002011H   LINE      ---      ---       #242
      0100205FH   LINE      ---      ---       #243
      0100205FH   LINE      ---      ---       #245
      0100205FH   LINE      ---      ---       #246
      0100205FH   LINE      ---      ---       #247
      0100205FH   LINE      ---      ---       #248
      0100205FH   LINE      ---      ---       #250
      0100205FH   LINE      ---      ---       #251
      0100205FH   LINE      ---      ---       #252
      0100205FH   LINE      ---      ---       #253
      0100205FH   LINE      ---      ---       #254
      0100205FH   LINE      ---      ---       #256
      0100205FH   LINE      ---      ---       #257
      0100205FH   LINE      ---      ---       #258
      0100205FH   LINE      ---      ---       #259
      0100206EH   LINE      ---      ---       #260
      01002077H   LINE      ---      ---       #261
      01002077H   LINE      ---      ---       #262
      0100207AH   LINE      ---      ---       #263
      0100207AH   LINE      ---      ---       #266
      01002097H   LINE      ---      ---       #267
      01002097H   LINE      ---      ---       #268
      010020B6H   LINE      ---      ---       #269
      010020CBH   LINE      ---      ---       #271
      01002101H   LINE      ---      ---       #272
      01002101H   LINE      ---      ---       #273
      01002104H   LINE      ---      ---       #274
      01002104H   LINE      ---      ---       #275
      01002104H   LINE      ---      ---       #277
      0100213FH   LINE      ---      ---       #279
      01002144H   LINE      ---      ---       #281
      01002146H   LINE      ---      ---       #282
      01002146H   LINE      ---      ---       #283
      0100214FH   LINE      ---      ---       #284
LX51 LINKER/LOCATER V4.66.41.0                                                        11/18/2021  18:51:21  PAGE 186


      0100214FH   LINE      ---      ---       #286
      01002154H   LINE      ---      ---       #287
      0200098CH   SYMBOL    XDATA    BYTE      V_ucResult
      0200098DH   SYMBOL    XDATA    BYTE      V_ucIndex
      0200098EH   SYMBOL    XDATA    BYTE      V_ucCnt
      0200098FH   SYMBOL    XDATA    ---       V_ucaE2pBuff
      020009CFH   SYMBOL    XDATA    WORD      V_usCRC16
      ---         BLOCKEND  CODE     ---       LVL=1
      ---         BLOCKEND  CODE     ---       LVL=0

      01001C50H   BLOCK     CODE     ---       LVL=0
      01001C7AH   LINE      ---      ---       #302
      01001C8BH   LINE      ---      ---       #303
      020009D1H   SYMBOL    XDATA    ---       cp
      020009D4H   SYMBOL    XDATA    WORD      len
      01001C8BH   BLOCK     CODE     NEAR LAB  LVL=1
      01001C8BH   LINE      ---      ---       #304
      01001C90H   LINE      ---      ---       #306
      01001C9EH   LINE      ---      ---       #307
      01001C9EH   LINE      ---      ---       #308
      01001CDEH   LINE      ---      ---       #309
      01001CE0H   LINE      ---      ---       #311
      01001CE8H   LINE      ---      ---       #312
      020009D6H   SYMBOL    XDATA    WORD      usVfcs
      ---         BLOCKEND  CODE     ---       LVL=1
      ---         BLOCKEND  CODE     ---       LVL=0

      01002155H   BLOCK     CODE     ---       LVL=0
      0100216FH   LINE      ---      ---       #324
      0100217AH   LINE      ---      ---       #325
      020009D1H   SYMBOL    XDATA    ---       pSourceData
      020009D4H   SYMBOL    XDATA    ---       pTargetData
      020009D7H   SYMBOL    XDATA    BYTE      len
      0100217AH   BLOCK     CODE     NEAR LAB  LVL=1
      0100217AH   LINE      ---      ---       #328
      01002186H   LINE      ---      ---       #329
      01002186H   LINE      ---      ---       #330
      010021AEH   LINE      ---      ---       #331
      010021B1H   LINE      ---      ---       #332
      00000007H   SYMBOL    DATA     BYTE      i
      ---         BLOCKEND  CODE     ---       LVL=1
      ---         BLOCKEND  CODE     ---       LVL=0

      01002B50H   BLOCK     CODE     ---       LVL=0
      01002B5EH   LINE      ---      ---       #344
      01002B6CH   LINE      ---      ---       #345
      02000986H   SYMBOL    XDATA    ---       cp
      02000989H   SYMBOL    XDATA    BYTE      len
      0200098AH   SYMBOL    XDATA    WORD      cmpcrc
      01002B6CH   BLOCK     CODE     NEAR LAB  LVL=1
      01002B6CH   LINE      ---      ---       #348
      01002B74H   LINE      ---      ---       #350
      01002B87H   LINE      ---      ---       #352
      01002B97H   LINE      ---      ---       #354
      01002B97H   LINE      ---      ---       #355
      00000006H   SYMBOL    DATA     WORD      V_usResult
      ---         BLOCKEND  CODE     ---       LVL=1
      ---         BLOCKEND  CODE     ---       LVL=0

      01002B98H   BLOCK     CODE     ---       LVL=0
      01002B98H   LINE      ---      ---       #367
      01002BA3H   LINE      ---      ---       #368
      0200098CH   SYMBOL    XDATA    ---       cp
      00000005H   SYMBOL    DATA     BYTE      len
      01002BA3H   BLOCK     CODE     NEAR LAB  LVL=1
LX51 LINKER/LOCATER V4.66.41.0                                                        11/18/2021  18:51:21  PAGE 187


      01002BA3H   LINE      ---      ---       #371
      01002BAAH   LINE      ---      ---       #372
      01002BAAH   LINE      ---      ---       #373
      01002BC2H   LINE      ---      ---       #374
      01002BC5H   LINE      ---      ---       #375
      01002BC7H   LINE      ---      ---       #376
      00000007H   SYMBOL    DATA     BYTE      i
      ---         BLOCKEND  CODE     ---       LVL=1
      ---         BLOCKEND  CODE     ---       LVL=0

      01002F0CH   BLOCK     CODE     ---       LVL=0
      01002F0CH   LINE      ---      ---       #388
      01002F17H   LINE      ---      ---       #389
      02000601H   SYMBOL    XDATA    ---       cp
      00000005H   SYMBOL    DATA     BYTE      len
      01002F17H   BLOCK     CODE     NEAR LAB  LVL=1
      01002F17H   LINE      ---      ---       #392
      01002F1EH   LINE      ---      ---       #393
      01002F1EH   LINE      ---      ---       #394
      01002F37H   LINE      ---      ---       #395
      01002F3AH   LINE      ---      ---       #396
      01002F3CH   LINE      ---      ---       #397
      00000007H   SYMBOL    DATA     BYTE      i
      ---         BLOCKEND  CODE     ---       LVL=1
      ---         BLOCKEND  CODE     ---       LVL=0

      01002FABH   BLOCK     CODE     ---       LVL=0
      01002FBEH   LINE      ---      ---       #408
      01002FBEH   LINE      ---      ---       #409
      01002FBEH   LINE      ---      ---       #410
      01002FC7H   LINE      ---      ---       #412
      01002FD9H   LINE      ---      ---       #413
      00000007H   SYMBOL    DATA     BYTE      hexdata
      ---         BLOCKEND  ---      ---       LVL=0

      01002FDAH   BLOCK     CODE     ---       LVL=0
      01002FDEH   LINE      ---      ---       #423
      01002FDEH   LINE      ---      ---       #424
      01002FDEH   LINE      ---      ---       #425
      01002FECH   LINE      ---      ---       #426
      00000007H   SYMBOL    DATA     BYTE      v_ucBcdData
      ---         BLOCKEND  ---      ---       LVL=0

      01002FEDH   BLOCK     CODE     ---       LVL=0
      01002FEDH   LINE      ---      ---       #439
      01002FEFH   LINE      ---      ---       #440
      00000004H   SYMBOL    DATA     BYTE      v_ucBcdA
      00000005H   SYMBOL    DATA     BYTE      v_ucBcdB
      00000001H   SYMBOL    DATA     ---       p_ucCarry
      01002FEFH   BLOCK     CODE     NEAR LAB  LVL=1
      01002FEFH   LINE      ---      ---       #443
      01002FFCH   LINE      ---      ---       #444
      01003001H   LINE      ---      ---       #445
      01003005H   LINE      ---      ---       #447
      0100300BH   LINE      ---      ---       #448
      0100300BH   LINE      ---      ---       #449
      01003010H   LINE      ---      ---       #450
      01003014H   LINE      ---      ---       #451
      01003014H   LINE      ---      ---       #453
      00000007H   SYMBOL    DATA     BYTE      V_ucResult
      ---         BLOCKEND  CODE     ---       LVL=1
      ---         BLOCKEND  CODE     ---       LVL=0

      01003016H   BLOCK     CODE     ---       LVL=0
      01003016H   LINE      ---      ---       #467
LX51 LINKER/LOCATER V4.66.41.0                                                        11/18/2021  18:51:21  PAGE 188


      01003021H   LINE      ---      ---       #468
      0200098BH   SYMBOL    XDATA    ---       p_ucBcdA
      0200098EH   SYMBOL    XDATA    ---       p_ucBcdB
      02000991H   SYMBOL    XDATA    BYTE      v_ucLen
      01003021H   BLOCK     CODE     NEAR LAB  LVL=1
      01003021H   LINE      ---      ---       #469
      01003026H   LINE      ---      ---       #472
      01003036H   LINE      ---      ---       #473
      01003036H   LINE      ---      ---       #474
      010030A8H   LINE      ---      ---       #475
      010030B0H   LINE      ---      ---       #477
      02000992H   SYMBOL    XDATA    BYTE      V_ucCarry
      02000993H   SYMBOL    XDATA    BYTE      V_ucCnti
      ---         BLOCKEND  CODE     ---       LVL=1
      ---         BLOCKEND  CODE     ---       LVL=0

      01001952H   BLOCK     CODE     ---       LVL=0
      0100196AH   LINE      ---      ---       #485
      0100196AH   LINE      ---      ---       #486
      0100196AH   BLOCK     CODE     NEAR LAB  LVL=1
      0100196AH   LINE      ---      ---       #490
      0100196AH   LINE      ---      ---       #491
      0100197EH   LINE      ---      ---       #492
      01001992H   LINE      ---      ---       #494
      010019ABH   LINE      ---      ---       #495
      010019ABH   LINE      ---      ---       #496
      010019D9H   LINE      ---      ---       #497
      010019D9H   LINE      ---      ---       #498
      010019DBH   LINE      ---      ---       #499
      010019DBH   LINE      ---      ---       #500
      010019DBH   LINE      ---      ---       #501
      010019DBH   LINE      ---      ---       #502
      01001A08H   LINE      ---      ---       #504
      01001A16H   LINE      ---      ---       #505
      0200067EH   SYMBOL    XDATA    DWORD     V_ulTimeOld
      02000682H   SYMBOL    XDATA    DWORD     V_ulTimeNew
      ---         BLOCKEND  CODE     ---       LVL=1
      ---         BLOCKEND  CODE     ---       LVL=0

      010030B1H   BLOCK     CODE     ---       LVL=0
      010030B1H   LINE      ---      ---       #513
      010030B1H   LINE      ---      ---       #514
      010030B1H   BLOCK     CODE     NEAR LAB  LVL=1
      010030B1H   LINE      ---      ---       #518
      010030B1H   LINE      ---      ---       #519
      010030C5H   LINE      ---      ---       #520
      010030D9H   LINE      ---      ---       #522
      010030F2H   LINE      ---      ---       #523
      010030F2H   LINE      ---      ---       #524
      01003120H   LINE      ---      ---       #525
      01003120H   LINE      ---      ---       #526
      01003122H   LINE      ---      ---       #527
      01003122H   LINE      ---      ---       #528
      01003122H   LINE      ---      ---       #529
      01003122H   LINE      ---      ---       #530
      0100314FH   LINE      ---      ---       #532
      0100315DH   LINE      ---      ---       #533
      020005F5H   SYMBOL    XDATA    DWORD     V_ulTimeOld
      020005F9H   SYMBOL    XDATA    DWORD     V_ulTimeNew
      ---         BLOCKEND  CODE     ---       LVL=1
      ---         BLOCKEND  CODE     ---       LVL=0

      01003209H   BLOCK     CODE     ---       LVL=0
      01003209H   LINE      ---      ---       #541
      01003209H   LINE      ---      ---       #542
LX51 LINKER/LOCATER V4.66.41.0                                                        11/18/2021  18:51:21  PAGE 189


      01003209H   BLOCK     CODE     NEAR LAB  LVL=1
      01003209H   LINE      ---      ---       #546
      01003209H   LINE      ---      ---       #547
      0100321DH   LINE      ---      ---       #548
      01003231H   LINE      ---      ---       #550
      0100324AH   LINE      ---      ---       #551
      0100324AH   LINE      ---      ---       #552
      01003278H   LINE      ---      ---       #553
      01003278H   LINE      ---      ---       #554
      0100327AH   LINE      ---      ---       #555
      0100327AH   LINE      ---      ---       #556
      0100327AH   LINE      ---      ---       #557
      0100327AH   LINE      ---      ---       #558
      010032A7H   LINE      ---      ---       #560
      010032B5H   LINE      ---      ---       #561
      02000601H   SYMBOL    XDATA    DWORD     V_ulTimeOld
      02000605H   SYMBOL    XDATA    DWORD     V_ulTimeNew
      ---         BLOCKEND  CODE     ---       LVL=1
      ---         BLOCKEND  CODE     ---       LVL=0

      01003361H   BLOCK     CODE     ---       LVL=0
      0100336CH   LINE      ---      ---       #573
      01003372H   LINE      ---      ---       #574
      01003372H   LINE      ---      ---       #575
      01003396H   LINE      ---      ---       #576
      01003396H   LINE      ---      ---       #577
      010033D1H   LINE      ---      ---       #578
      010033D3H   LINE      ---      ---       #580
      010033D3H   LINE      ---      ---       #581
      010033FCH   LINE      ---      ---       #582
      010033FCH   LINE      ---      ---       #584
      01003420H   LINE      ---      ---       #585
      01003420H   LINE      ---      ---       #586
      01003422H   LINE      ---      ---       #587
      01003422H   LINE      ---      ---       #589
      01003422H   LINE      ---      ---       #590
      02000610H   SYMBOL    XDATA    DWORD     timer
      02000614H   SYMBOL    XDATA    DWORD     basetimer
      02000618H   SYMBOL    XDATA    DWORD     duration
      ---         BLOCKEND  ---      ---       LVL=0

      0100266DH   BLOCK     CODE     ---       LVL=0
      01002690H   LINE      ---      ---       #602
      0100269EH   LINE      ---      ---       #603
      0200098BH   SYMBOL    XDATA    ---       p_ucdatahead
      0200098EH   SYMBOL    XDATA    BYTE      v_ucVal
      0200098FH   SYMBOL    XDATA    WORD      v_usLen
      0100269EH   BLOCK     CODE     NEAR LAB  LVL=1
      0100269EH   LINE      ---      ---       #606
      010026AEH   LINE      ---      ---       #607
      010026AEH   LINE      ---      ---       #608
      010026C6H   LINE      ---      ---       #609
      010026CDH   LINE      ---      ---       #610
      00000006H   SYMBOL    DATA     WORD      V_ucCnt_i
      ---         BLOCKEND  CODE     ---       LVL=1
      ---         BLOCKEND  CODE     ---       LVL=0

      01002F66H   BLOCK     CODE     ---       LVL=0
      01002F7FH   LINE      ---      ---       #622
      01002F8AH   LINE      ---      ---       #623
      02000778H   SYMBOL    XDATA    ---       pData
      00000005H   SYMBOL    DATA     BYTE      v_ucLen
      01002F8AH   BLOCK     CODE     NEAR LAB  LVL=1
      01002F8AH   LINE      ---      ---       #624
      01002F8CH   LINE      ---      ---       #626
LX51 LINKER/LOCATER V4.66.41.0                                                        11/18/2021  18:51:21  PAGE 190


      01002F92H   LINE      ---      ---       #627
      01002F92H   LINE      ---      ---       #628
      01002FA7H   LINE      ---      ---       #629
      01002FAAH   LINE      ---      ---       #631
      01002FAAH   LINE      ---      ---       #632
      00000006H   SYMBOL    DATA     BYTE      i
      00000007H   SYMBOL    DATA     BYTE      V_ucSum
      ---         BLOCKEND  CODE     ---       LVL=1
      ---         BLOCKEND  CODE     ---       LVL=0

      01003423H   BLOCK     CODE     ---       LVL=0
      01003434H   LINE      ---      ---       #643
      0100343FH   LINE      ---      ---       #644
      02000986H   SYMBOL    XDATA    ---       pSourceData
      02000989H   SYMBOL    XDATA    ---       pTargetData
      0200098CH   SYMBOL    XDATA    BYTE      len
      0100343FH   BLOCK     CODE     NEAR LAB  LVL=1
      0100343FH   LINE      ---      ---       #647
      01003450H   LINE      ---      ---       #648
      01003450H   LINE      ---      ---       #649
      0100348FH   LINE      ---      ---       #650
      01003497H   LINE      ---      ---       #651
      0200098DH   SYMBOL    XDATA    BYTE      V_ucCnt
      ---         BLOCKEND  CODE     ---       LVL=1
      ---         BLOCKEND  CODE     ---       LVL=0

      01003498H   BLOCK     CODE     ---       LVL=0
      01003498H   LINE      ---      ---       #661
      010034A3H   LINE      ---      ---       #662
      02000721H   SYMBOL    XDATA    ---       p_ucData
      00000005H   SYMBOL    DATA     BYTE      v_ucLen
      010034A3H   BLOCK     CODE     NEAR LAB  LVL=1
      010034A3H   LINE      ---      ---       #665
      010034AAH   LINE      ---      ---       #666
      010034AAH   LINE      ---      ---       #667
      010034CCH   LINE      ---      ---       #668
      010034CCH   LINE      ---      ---       #669
      010034CFH   LINE      ---      ---       #670
      010034CFH   LINE      ---      ---       #671
      010034D2H   LINE      ---      ---       #673
      010034D4H   LINE      ---      ---       #674
      00000007H   SYMBOL    DATA     BYTE      V_ucCnt
      ---         BLOCKEND  CODE     ---       LVL=1
      ---         BLOCKEND  CODE     ---       LVL=0

      010034D5H   BLOCK     CODE     ---       LVL=0
      010034FAH   LINE      ---      ---       #683
      01003508H   LINE      ---      ---       #684
      02000721H   SYMBOL    XDATA    ---       p_ucData
      02000724H   SYMBOL    XDATA    BYTE      DataLen
      01003508H   BLOCK     CODE     NEAR LAB  LVL=1
      01003508H   LINE      ---      ---       #687
      01003519H   LINE      ---      ---       #688
      01003519H   LINE      ---      ---       #689
      01003535H   LINE      ---      ---       #690
      0100355BH   LINE      ---      ---       #691
      01003589H   LINE      ---      ---       #692
      01003591H   LINE      ---      ---       #693
      02000725H   SYMBOL    XDATA    BYTE      V_ucCnt
      02000726H   SYMBOL    XDATA    BYTE      V_ucTemp08
      ---         BLOCKEND  CODE     ---       LVL=1
      ---         BLOCKEND  CODE     ---       LVL=0

      01003592H   BLOCK     CODE     ---       LVL=0
      010035AAH   LINE      ---      ---       #703
LX51 LINKER/LOCATER V4.66.41.0                                                        11/18/2021  18:51:21  PAGE 191


      010035B5H   LINE      ---      ---       #704
      02000670H   SYMBOL    XDATA    ---       p_ucPsw
      010035B5H   BLOCK     CODE     NEAR LAB  LVL=1
      010035B5H   LINE      ---      ---       #706
      010035C8H   LINE      ---      ---       #707
      010035C8H   LINE      ---      ---       #708
      010035D5H   LINE      ---      ---       #709
      010035D8H   LINE      ---      ---       #710
      010035D8H   LINE      ---      ---       #712
      010035E9H   LINE      ---      ---       #713
      010035E9H   LINE      ---      ---       #714
      010035ECH   LINE      ---      ---       #715
      010035ECH   LINE      ---      ---       #717
      010035FDH   LINE      ---      ---       #718
      010035FDH   LINE      ---      ---       #719
      01003601H   LINE      ---      ---       #720
      01003603H   LINE      ---      ---       #721
      01003607H   LINE      ---      ---       #722
      01003607H   LINE      ---      ---       #723
      0100360DH   LINE      ---      ---       #724
      0100360FH   LINE      ---      ---       #725
      01003613H   LINE      ---      ---       #726
      01003613H   LINE      ---      ---       #727
      01003619H   LINE      ---      ---       #728
      0100361BH   LINE      ---      ---       #730
      0100361BH   LINE      ---      ---       #731
      0100361EH   LINE      ---      ---       #732
      0100361EH   LINE      ---      ---       #734
      01003620H   LINE      ---      ---       #735
      01003620H   LINE      ---      ---       #736
      0100364CH   LINE      ---      ---       #737
      0100364CH   LINE      ---      ---       #738
      0100365CH   LINE      ---      ---       #739
      0100366CH   LINE      ---      ---       #740
      0100366CH   LINE      ---      ---       #741
      01003681H   LINE      ---      ---       #742
      01003681H   LINE      ---      ---       #743
      01003684H   LINE      ---      ---       #744
      01003684H   LINE      ---      ---       #745
      01003689H   LINE      ---      ---       #747
      010036A2H   LINE      ---      ---       #748
      010036A3H   LINE      ---      ---       #749
      02000673H   SYMBOL    XDATA    BYTE      V_ucTemp
      00000007H   SYMBOL    DATA     BYTE      V_ucCnt_i
      02000674H   SYMBOL    XDATA    ---       V_ucTempBuff
      ---         BLOCKEND  CODE     ---       LVL=1
      ---         BLOCKEND  CODE     ---       LVL=0

      01000006H   BLOCK     CODE     ---       LVL=0
      01000006H   LINE      ---      ---       #757
      01000006H   LINE      ---      ---       #758
      01000006H   LINE      ---      ---       #760
      ---         BLOCKEND  ---      ---       LVL=0

      01002DC5H   BLOCK     CODE     ---       LVL=0
      01002DC5H   LINE      ---      ---       #770
      01002DC5H   LINE      ---      ---       #771
      01002DC5H   BLOCK     CODE     NEAR LAB  LVL=1
      01002DC5H   LINE      ---      ---       #772
      01002DC7H   LINE      ---      ---       #774
      01002DCDH   LINE      ---      ---       #775
      01002DCDH   LINE      ---      ---       #777
      01002DCDH   LINE      ---      ---       #778
      00000007H   SYMBOL    DATA     BYTE      V_ucVnt
      ---         BLOCKEND  CODE     ---       LVL=1
LX51 LINKER/LOCATER V4.66.41.0                                                        11/18/2021  18:51:21  PAGE 192


      ---         BLOCKEND  CODE     ---       LVL=0

      01002DBFH   BLOCK     CODE     ---       LVL=0
      01002DBFH   LINE      ---      ---       #787
      01002DBFH   LINE      ---      ---       #788
      01002DBFH   LINE      ---      ---       #792
      01002DBFH   LINE      ---      ---       #793
      01002DC2H   LINE      ---      ---       #794
      ---         BLOCKEND  ---      ---       LVL=0

      01002D13H   BLOCK     CODE     ---       LVL=0
      01002D13H   LINE      ---      ---       #809
      01002D1BH   LINE      ---      ---       #810
      02000670H   SYMBOL    XDATA    WORD      v_uiNums
      01002D1BH   BLOCK     CODE     NEAR LAB  LVL=1
      01002D1BH   LINE      ---      ---       #813
      01002D46H   LINE      ---      ---       #814
      01002D46H   LINE      ---      ---       #815
      01002D48H   LINE      ---      ---       #816
      01002D69H   LINE      ---      ---       #817
      02000672H   SYMBOL    XDATA    DWORD     V_ulCnt
      ---         BLOCKEND  CODE     ---       LVL=1
      ---         BLOCKEND  CODE     ---       LVL=0

      01002DCEH   BLOCK     CODE     ---       LVL=0
      01002DCEH   LINE      ---      ---       #829
      01002DD2H   LINE      ---      ---       #830
      00000004H   SYMBOL    DATA     WORD      v_uiNums
      01002DD2H   BLOCK     CODE     NEAR LAB  LVL=1
      01002DD2H   LINE      ---      ---       #833
      01002DDCH   LINE      ---      ---       #834
      01002DDCH   LINE      ---      ---       #835
      01002DDEH   LINE      ---      ---       #836
      01002DE5H   LINE      ---      ---       #837
      00000002H   SYMBOL    DATA     WORD      V_ulCnt
      ---         BLOCKEND  CODE     ---       LVL=1
      ---         BLOCKEND  CODE     ---       LVL=0

      010036A4H   BLOCK     CODE     ---       LVL=0
      010036EAH   LINE      ---      ---       #850
      010036F5H   LINE      ---      ---       #851
      02000986H   SYMBOL    XDATA    ---       P_ucData1
      02000989H   SYMBOL    XDATA    ---       P_ucData2
      0200098CH   SYMBOL    XDATA    BYTE      v_ucDataLength
      0200098DH   SYMBOL    XDATA    BYTE      v_ucCmpMode
      010036F5H   BLOCK     CODE     NEAR LAB  LVL=1
      010036F5H   LINE      ---      ---       #854
      0100370BH   LINE      ---      ---       #855
      0100370BH   LINE      ---      ---       #856
      01003713H   LINE      ---      ---       #857
      01003713H   LINE      ---      ---       #858
      0100373FH   LINE      ---      ---       #859
      0100373FH   LINE      ---      ---       #860
      01003742H   LINE      ---      ---       #861
      01003742H   LINE      ---      ---       #862
      0100374AH   LINE      ---      ---       #863
      0100374AH   LINE      ---      ---       #864
      0100374DH   LINE      ---      ---       #865
      0100374DH   LINE      ---      ---       #866
      0100374DH   LINE      ---      ---       #868
      0100374DH   LINE      ---      ---       #869
      010037A6H   LINE      ---      ---       #870
      010037A6H   LINE      ---      ---       #871
      010037A9H   LINE      ---      ---       #872
      010037A9H   LINE      ---      ---       #873
LX51 LINKER/LOCATER V4.66.41.0                                                        11/18/2021  18:51:21  PAGE 193


      01003802H   LINE      ---      ---       #874
      01003802H   LINE      ---      ---       #875
      01003805H   LINE      ---      ---       #876
      01003805H   LINE      ---      ---       #877
      01003805H   LINE      ---      ---       #878
      0100380EH   LINE      ---      ---       #880
      01003810H   LINE      ---      ---       #881
      0200098EH   SYMBOL    XDATA    BYTE      V_ucCnt_i
      ---         BLOCKEND  CODE     ---       LVL=1
      ---         BLOCKEND  CODE     ---       LVL=0

      01003811H   BLOCK     CODE     ---       LVL=0
      01003811H   LINE      ---      ---       #893
      01003811H   LINE      ---      ---       #894
      00000001H   SYMBOL    DATA     ---       p_ucBytesBuffer
      01003811H   BLOCK     CODE     NEAR LAB  LVL=1
      01003811H   LINE      ---      ---       #895
      01003811H   LINE      ---      ---       #905
      0100381DH   LINE      ---      ---       #906
      01003826H   LINE      ---      ---       #907
      0100383FH   LINE      ---      ---       #908
      0100383FH   LINE      ---      ---       #911
      0100383FH   LINE      ---      ---       #912
      02000639H   SYMBOL    XDATA    WORD      v_usShort16Buffer
      ---         BLOCKEND  CODE     ---       LVL=1
      ---         BLOCKEND  CODE     ---       LVL=0

      01003840H   BLOCK     CODE     ---       LVL=0
      0100384EH   LINE      ---      ---       #995
      01003859H   LINE      ---      ---       #996
      02000898H   SYMBOL    XDATA    ---       p_ucBytesBuffer
      01003859H   BLOCK     CODE     NEAR LAB  LVL=1
      01003859H   LINE      ---      ---       #997
      01003861H   LINE      ---      ---       #1000
      01003866H   LINE      ---      ---       #1001
      01003866H   LINE      ---      ---       #1002
      0100387FH   LINE      ---      ---       #1008
      0100387FH   LINE      ---      ---       #1009
      010038C4H   LINE      ---      ---       #1010
      010038C4H   LINE      ---      ---       #1012
      010038CEH   LINE      ---      ---       #1014
      010038DCH   LINE      ---      ---       #1015
      0200089BH   SYMBOL    XDATA    DWORD     V_ulResult
      0200089FH   SYMBOL    XDATA    BYTE      V_ucCnti
      ---         BLOCKEND  CODE     ---       LVL=1
      ---         BLOCKEND  CODE     ---       LVL=0

      010038DDH   BLOCK     CODE     ---       LVL=0
      010038DDH   LINE      ---      ---       #1030
      010038E8H   LINE      ---      ---       #1031
      02000781H   SYMBOL    XDATA    ---       p_ucBufA
      02000784H   SYMBOL    XDATA    ---       p_ucBufB
      02000787H   SYMBOL    XDATA    BYTE      v_ucLen
      010038E8H   BLOCK     CODE     NEAR LAB  LVL=1
      010038E8H   LINE      ---      ---       #1033
      010038EDH   LINE      ---      ---       #1035
      010038FFH   LINE      ---      ---       #1036
      010038FFH   LINE      ---      ---       #1037
      01003919H   LINE      ---      ---       #1038
      0100391EH   LINE      ---      ---       #1040
      01003923H   LINE      ---      ---       #1041
      01003923H   LINE      ---      ---       #1042
      01003926H   LINE      ---      ---       #1043
      01003926H   LINE      ---      ---       #1045
      0100392BH   LINE      ---      ---       #1046
LX51 LINKER/LOCATER V4.66.41.0                                                        11/18/2021  18:51:21  PAGE 194


      0100394BH   LINE      ---      ---       #1047
      0100394BH   LINE      ---      ---       #1048
      01003955H   LINE      ---      ---       #1049
      01003955H   LINE      ---      ---       #1050
      01003961H   LINE      ---      ---       #1051
      01003961H   LINE      ---      ---       #1052
      01003963H   LINE      ---      ---       #1054
      01003963H   LINE      ---      ---       #1055
      0100397DH   LINE      ---      ---       #1056
      0100397DH   LINE      ---      ---       #1057
      0100397FH   LINE      ---      ---       #1059
      0100397FH   LINE      ---      ---       #1060
      01003997H   LINE      ---      ---       #1061
      01003997H   LINE      ---      ---       #1062
      010039A4H   LINE      ---      ---       #1063
      010039AAH   LINE      ---      ---       #1064
      010039ACH   LINE      ---      ---       #1066
      010039C3H   LINE      ---      ---       #1067
      010039C3H   LINE      ---      ---       #1068
      010039C9H   LINE      ---      ---       #1069
      010039C9H   LINE      ---      ---       #1070
      010039CDH   LINE      ---      ---       #1071
      010039CDH   LINE      ---      ---       #1072
      010039D0H   LINE      ---      ---       #1075
      00000007H   SYMBOL    DATA     BYTE      V_ucCnt_i
      00000005H   SYMBOL    DATA     BYTE      V_ucCnt_j
      02000788H   SYMBOL    XDATA    BYTE      V_ucCnt_k
      02000789H   SYMBOL    XDATA    BYTE      V_ucBfCarry
      ---         BLOCKEND  CODE     ---       LVL=1
      ---         BLOCKEND  CODE     ---       LVL=0

      010039D1H   BLOCK     CODE     ---       LVL=0
      010039D1H   LINE      ---      ---       #1088
      010039DEH   LINE      ---      ---       #1089
      02000766H   SYMBOL    XDATA    ---       P_ucSourceData
      00000003H   SYMBOL    DATA     BYTE      V_ucDataLength
      010039DEH   BLOCK     CODE     NEAR LAB  LVL=1
      010039DEH   LINE      ---      ---       #1090
      010039E2H   LINE      ---      ---       #1091
      010039EAH   LINE      ---      ---       #1092
      010039F4H   LINE      ---      ---       #1093
      010039F9H   LINE      ---      ---       #1095
      01003A08H   LINE      ---      ---       #1096
      01003A08H   LINE      ---      ---       #1097
      01003A15H   LINE      ---      ---       #1098
      01003A15H   LINE      ---      ---       #1099
      01003A7FH   LINE      ---      ---       #1100
      01003A9CH   LINE      ---      ---       #1101
      01003B04H   LINE      ---      ---       #1102
      01003B21H   LINE      ---      ---       #1103
      01003B29H   LINE      ---      ---       #1104
      01003B29H   LINE      ---      ---       #1105
      01003B37H   LINE      ---      ---       #1106
      02000769H   SYMBOL    XDATA    BYTE      V_ucFlagTemp
      0200076AH   SYMBOL    XDATA    DWORD     V_ulTemp
      0200076EH   SYMBOL    XDATA    DWORD     V_ulDataTemp
      02000772H   SYMBOL    XDATA    BYTE      V_ucTurnTemp
      ---         BLOCKEND  CODE     ---       LVL=1
      ---         BLOCKEND  CODE     ---       LVL=0

      01003B38H   BLOCK     CODE     ---       LVL=0
      01003B38H   LINE      ---      ---       #1118
      01003B43H   LINE      ---      ---       #1119
      00000004H   SYMBOL    DATA     DWORD     V_ulSourceData
      02000785H   SYMBOL    XDATA    ---       P_ucResultData
LX51 LINKER/LOCATER V4.66.41.0                                                        11/18/2021  18:51:21  PAGE 195


      02000788H   SYMBOL    XDATA    BYTE      V_ucLen
      01003B43H   BLOCK     CODE     NEAR LAB  LVL=1
      01003B43H   LINE      ---      ---       #1123
      01003B49H   LINE      ---      ---       #1125
      01003B5AH   LINE      ---      ---       #1126
      01003B5AH   LINE      ---      ---       #1127
      01003B90H   LINE      ---      ---       #1128
      01003BADH   LINE      ---      ---       #1129
      01003C03H   LINE      ---      ---       #1130
      01003C20H   LINE      ---      ---       #1131
      01003C28H   LINE      ---      ---       #1132
      02000789H   SYMBOL    XDATA    BYTE      V_ucTurnTemp
      0200078AH   SYMBOL    XDATA    DWORD     V_ulDataTemp
      ---         BLOCKEND  CODE     ---       LVL=1
      ---         BLOCKEND  CODE     ---       LVL=0

      010021B2H   BLOCK     CODE     ---       LVL=0
      010021B2H   LINE      ---      ---       #1147
      010021BDH   LINE      ---      ---       #1148
      0200065EH   SYMBOL    XDATA    ---       P_ucSourceData
      02000661H   SYMBOL    XDATA    ---       P_ucResultData
      02000664H   SYMBOL    XDATA    BYTE      V_ucLen
      02000665H   SYMBOL    XDATA    BYTE      V_Num
      02000666H   SYMBOL    XDATA    BYTE      V_Mode
      02000667H   SYMBOL    XDATA    BYTE      v_ucCmpMode
      010021BDH   BLOCK     CODE     NEAR LAB  LVL=1
      010021BDH   LINE      ---      ---       #1153
      010021C7H   LINE      ---      ---       #1154
      010021C7H   LINE      ---      ---       #1155
      010021CAH   LINE      ---      ---       #1156
      010021CAH   LINE      ---      ---       #1159
      01002210H   LINE      ---      ---       #1162
      01002222H   LINE      ---      ---       #1163
      01002222H   LINE      ---      ---       #1164
      0100222AH   LINE      ---      ---       #1165
      0100222AH   LINE      ---      ---       #1166
      01002231H   LINE      ---      ---       #1167
      01002231H   LINE      ---      ---       #1168
      01002231H   LINE      ---      ---       #1169
      01002231H   LINE      ---      ---       #1170
      01002233H   LINE      ---      ---       #1172
      01002233H   LINE      ---      ---       #1173
      0100223FH   LINE      ---      ---       #1174
      0100223FH   LINE      ---      ---       #1175
      01002288H   LINE      ---      ---       #1176
      01002288H   LINE      ---      ---       #1177
      01002288H   LINE      ---      ---       #1178
      01002290H   LINE      ---      ---       #1179
      01002292H   LINE      ---      ---       #1180
      02000668H   SYMBOL    XDATA    BYTE      i
      ---         BLOCKEND  CODE     ---       LVL=1
      ---         BLOCKEND  CODE     ---       LVL=0

      01002E58H   BLOCK     CODE     ---       LVL=0
      01002E58H   LINE      ---      ---       #1183
      01002E63H   LINE      ---      ---       #1184
      020006B2H   SYMBOL    XDATA    ---       p_ucSourceData
      020006B5H   SYMBOL    XDATA    ---       p_ucResultData
      020006B8H   SYMBOL    XDATA    BYTE      v_ucLen
      01002E63H   BLOCK     CODE     NEAR LAB  LVL=1
      01002E63H   LINE      ---      ---       #1188
      01002E76H   LINE      ---      ---       #1189
      01002E76H   LINE      ---      ---       #1190
      01002E91H   LINE      ---      ---       #1191
      01002E96H   LINE      ---      ---       #1193
LX51 LINKER/LOCATER V4.66.41.0                                                        11/18/2021  18:51:21  PAGE 196


      01002E98H   LINE      ---      ---       #1194
      01002E98H   LINE      ---      ---       #1195
      01002EA9H   LINE      ---      ---       #1196
      01002EA9H   LINE      ---      ---       #1197
      01002EB7H   LINE      ---      ---       #1198
      01002EB9H   LINE      ---      ---       #1199
      01002EBFH   LINE      ---      ---       #1200
      01002EBFH   LINE      ---      ---       #1201
      01002ECDH   LINE      ---      ---       #1202
      01002ECDH   LINE      ---      ---       #1203
      01002ED2H   LINE      ---      ---       #1205
      01002F03H   LINE      ---      ---       #1206
      01002F0BH   LINE      ---      ---       #1207
      020006B9H   SYMBOL    XDATA    BYTE      V_ucCnti
      00000007H   SYMBOL    DATA     BYTE      V_ucCntj
      020006BAH   SYMBOL    XDATA    ---       V_ucAscTemp
      ---         BLOCKEND  CODE     ---       LVL=1
      ---         BLOCKEND  CODE     ---       LVL=0

      ---         MODULE    ---      ---       INTERRUPT
      01003E6BH   PUBLIC    CODE     ---       Inter_EUART3
      01003E3EH   PUBLIC    CODE     ---       Inter_LPD
      01003E00H   PUBLIC    CODE     ---       Inter_RTC
      01003DA3H   PUBLIC    CODE     ---       Inter_EMU
      01003D76H   PUBLIC    CODE     ---       Inter_ADC_TPS
      01003D49H   PUBLIC    CODE     ---       Inter_Timer2
      010032B6H   PUBLIC    CODE     ---       Inter_EUART1
      0100315EH   PUBLIC    CODE     ---       Inter_EUART0
      01003C83H   PUBLIC    CODE     ---       Inter_Timer0
      01003C56H   PUBLIC    CODE     ---       Inter_Timer1
      01003C29H   PUBLIC    CODE     ---       Inter_INT4
      000000F3H   SFRSYM    DATA     BYTE      IB_CON2
      000000D8H.3 SFRSYM    DATA     BIT       TB81
      00000080H   SFRSYM    DATA     BYTE      P0
      000000F4H   SFRSYM    DATA     BYTE      IB_CON3
      000000A4H   SFRSYM    DATA     BYTE      TKCON
      00000090H   SFRSYM    DATA     BYTE      P1
      000000F5H   SFRSYM    DATA     BYTE      IB_CON4
      000000E7H   SFRSYM    DATA     BYTE      PASLO
      000000A0H   SFRSYM    DATA     BYTE      P2
      000000FEH   SFRSYM    DATA     BYTE      OSCLO
      000000F6H   SFRSYM    DATA     BYTE      IB_CON5
      00000098H.6 SFRSYM    DATA     BIT       SM1_RXOV
      000000B0H   SFRSYM    DATA     BYTE      P3
      000000D0H.6 SFRSYM    DATA     BIT       AC
      000000C0H   SFRSYM    DATA     BYTE      P4
      000000A1H   SFRSYM    DATA     BYTE      SPCON
      0000009CH   SFRSYM    DATA     BYTE      SBRTH
      000000E9H   SFRSYM    DATA     BYTE      P5
      000000A8H.7 SFRSYM    DATA     BIT       EA
      000000EAH   SFRSYM    DATA     BYTE      P6
      000000EBH   SFRSYM    DATA     BYTE      P7
      000000EFH   SFRSYM    DATA     BYTE      IB_DATA
      000000ECH   SFRSYM    DATA     BYTE      P8
      0000009DH   SFRSYM    DATA     BYTE      SBRTL
      000000EDH   SFRSYM    DATA     BYTE      P9
      000000B7H   SFRSYM    DATA     BYTE      PBANKLO
      000000A2H   SFRSYM    DATA     BYTE      SPSTA
      000000A8H   SFRSYM    DATA     BYTE      IEN0
      000000B3H   SFRSYM    DATA     BYTE      PWRCON1
      00000095H   SFRSYM    DATA     BYTE      EMUSR
      000000A9H   SFRSYM    DATA     BYTE      IEN1
      000000B4H   SFRSYM    DATA     BYTE      PWRCON2
      00000085H   SFRSYM    DATA     BYTE      DPH1
      00000080H   SFRSYM    DATA     BIT       P0_0
LX51 LINKER/LOCATER V4.66.41.0                                                        11/18/2021  18:51:21  PAGE 197


      00000090H   SFRSYM    DATA     BIT       P1_0
      00000080H.1 SFRSYM    DATA     BIT       P0_1
      000000C3H   SFRSYM    DATA     BYTE      ADCH
      000000A0H   SFRSYM    DATA     BIT       P2_0
      00000090H.1 SFRSYM    DATA     BIT       P1_1
      00000080H.2 SFRSYM    DATA     BIT       P0_2
      000000BAH   SFRSYM    DATA     BYTE      IPH0
      00000084H   SFRSYM    DATA     BYTE      DPL1
      000000B0H   SFRSYM    DATA     BIT       P3_0
      000000A0H.1 SFRSYM    DATA     BIT       P2_1
      00000090H.2 SFRSYM    DATA     BIT       P1_2
      00000080H.3 SFRSYM    DATA     BIT       P0_3
      000000BBH   SFRSYM    DATA     BYTE      IPH1
      000000C0H   SFRSYM    DATA     BIT       P4_0
      000000B0H.1 SFRSYM    DATA     BIT       P3_1
      000000A0H.2 SFRSYM    DATA     BIT       P2_2
      00000090H.3 SFRSYM    DATA     BIT       P1_3
      00000080H.4 SFRSYM    DATA     BIT       P0_4
      000000E8H   SFRSYM    DATA     BYTE      EXF0
      000000C0H.1 SFRSYM    DATA     BIT       P4_1
      000000B0H.2 SFRSYM    DATA     BIT       P3_2
      000000A0H.3 SFRSYM    DATA     BIT       P2_3
      00000090H.4 SFRSYM    DATA     BIT       P1_4
      00000080H.5 SFRSYM    DATA     BIT       P0_5
      000000C0H.2 SFRSYM    DATA     BIT       P4_2
      000000B0H.3 SFRSYM    DATA     BIT       P3_3
      000000A0H.4 SFRSYM    DATA     BIT       P2_4
      00000090H.5 SFRSYM    DATA     BIT       P1_5
      00000080H.6 SFRSYM    DATA     BIT       P0_6
      000000C8H.6 SFRSYM    DATA     BIT       EXF2
      000000A6H   SFRSYM    DATA     BYTE      TKF0
      000000B8H   SFRSYM    DATA     BYTE      IPL0
      000000C0H.3 SFRSYM    DATA     BIT       P4_3
      000000B0H.4 SFRSYM    DATA     BIT       P3_4
      000000A0H.5 SFRSYM    DATA     BIT       P2_5
      00000090H.6 SFRSYM    DATA     BIT       P1_6
      00000080H.7 SFRSYM    DATA     BIT       P0_7
      000000D8H.4 SFRSYM    DATA     BIT       REN1
      000000B9H   SFRSYM    DATA     BYTE      IPL1
      000000C0H.4 SFRSYM    DATA     BIT       P4_4
      000000B0H.5 SFRSYM    DATA     BIT       P3_5
      000000A0H.6 SFRSYM    DATA     BIT       P2_6
      00000090H.7 SFRSYM    DATA     BIT       P1_7
      000000E2H   SFRSYM    DATA     BYTE      TK0H
      0000008EH   SFRSYM    DATA     BYTE      SUSLO
      000000C0H.5 SFRSYM    DATA     BIT       P4_5
      000000B0H.6 SFRSYM    DATA     BIT       P3_6
      000000A0H.7 SFRSYM    DATA     BIT       P2_7
      000000E4H   SFRSYM    DATA     BYTE      TK1H
      000000C0H.6 SFRSYM    DATA     BIT       P4_6
      000000B0H.7 SFRSYM    DATA     BIT       P3_7
      000000E6H   SFRSYM    DATA     BYTE      TK2H
      000000C0H.7 SFRSYM    DATA     BIT       P4_7
      00000098H   SFRSYM    DATA     BIT       RI
      000000A8H.2 SFRSYM    DATA     BIT       E7816
      000000D0H.7 SFRSYM    DATA     BIT       CY
      000000E1H   SFRSYM    DATA     BYTE      TK0L
      00000098H.1 SFRSYM    DATA     BIT       TI
      00000091H   SFRSYM    DATA     BYTE      EADR
      000000E3H   SFRSYM    DATA     BYTE      TK1L
      000000E5H   SFRSYM    DATA     BYTE      TK2L
      000000DBH   SFRSYM    DATA     BYTE      SADEN1
      000000D8H.7 SFRSYM    DATA     BIT       SM10_FE1
      000000FBH   SFRSYM    DATA     BYTE      SADEN2
      000000B8H.4 SFRSYM    DATA     BIT       PS0L
LX51 LINKER/LOCATER V4.66.41.0                                                        11/18/2021  18:51:21  PAGE 198


      000000B8H.1 SFRSYM    DATA     BIT       PT0L
      000000DAH   SFRSYM    DATA     BYTE      SADDR1
      000000D8H.5 SFRSYM    DATA     BIT       SM12_TXCOL1
      000000B8H.3 SFRSYM    DATA     BIT       PT1L
      000000FAH   SFRSYM    DATA     BYTE      SADDR2
      000000CBH   SFRSYM    DATA     BYTE      RCAP2H
      000000B8H.5 SFRSYM    DATA     BIT       PT2L
      00000081H   SFRSYM    DATA     BYTE      SP
      000000D0H.2 SFRSYM    DATA     BIT       OV
      000000CAH   SFRSYM    DATA     BYTE      RCAP2L
      000000B8H   SFRSYM    DATA     BIT       PX4L
      000000C8H.1 SFRSYM    DATA     BIT       C_T2
      000000DEH   SFRSYM    DATA     BYTE      SFINE2
      000000ADH   SFRSYM    DATA     BYTE      IRCON1
      000000AFH   SFRSYM    DATA     BYTE      IRCON2
      000000ABH   SFRSYM    DATA     BYTE      EXCON1
      00000099H   SFRSYM    DATA     BYTE      SBUF
      000000ACH   SFRSYM    DATA     BYTE      EXCON2
      00000087H   SFRSYM    DATA     BYTE      PCON
      000000F1H   SFRSYM    DATA     BYTE      AUXC
      00000098H   SFRSYM    DATA     BYTE      SCON
      000000D4H   SFRSYM    DATA     BYTE      TK0BASEH
      00000089H   SFRSYM    DATA     BYTE      TMOD
      00000088H   SFRSYM    DATA     BYTE      TCON
      000000AAH   SFRSYM    DATA     BYTE      IENX
      000000EEH   SFRSYM    DATA     BYTE      IB_OFFSET
      000000D6H   SFRSYM    DATA     BYTE      TK1BASEH
      000000DCH   SFRSYM    DATA     BYTE      SBRT1H
      000000DFH   SFRSYM    DATA     BYTE      TK2BASEH
      000000FCH   SFRSYM    DATA     BYTE      SBRT2H
      000000B1H   SFRSYM    DATA     BYTE      RSTSTAT
      000000D3H   SFRSYM    DATA     BYTE      TK0BASEL
      000000D5H   SFRSYM    DATA     BYTE      TK1BASEL
      000000DDH   SFRSYM    DATA     BYTE      SBRT1L
      000000D7H   SFRSYM    DATA     BYTE      TK2BASEL
      000000FDH   SFRSYM    DATA     BYTE      SBRT2L
      00000098H.7 SFRSYM    DATA     BIT       SM0_FE
      000000B2H   SFRSYM    DATA     BYTE      CLKCON
      00000098H.5 SFRSYM    DATA     BIT       SM2_TXCOL
      000000B5H   SFRSYM    DATA     BYTE      LDOCON
      000000F0H   SFRSYM    DATA     BYTE      B
      000000C8H   SFRSYM    DATA     BIT       CP_RL2
      000000E0H   SFRSYM    DATA     BYTE      ACC
      000000A8H.4 SFRSYM    DATA     BIT       ES0
      000000A8H.1 SFRSYM    DATA     BIT       ET0
      000000A8H.3 SFRSYM    DATA     BIT       ET1
      00000088H.5 SFRSYM    DATA     BIT       TF0
      000000A8H.5 SFRSYM    DATA     BIT       ET2
      00000088H.7 SFRSYM    DATA     BIT       TF1
      000000D8H   SFRSYM    DATA     BIT       RI1
      00000098H.2 SFRSYM    DATA     BIT       RB8
      000000C8H.7 SFRSYM    DATA     BIT       TF2
      0000008CH   SFRSYM    DATA     BYTE      TH0
      00000086H   SFRSYM    DATA     BYTE      INSCON
      0000008DH   SFRSYM    DATA     BYTE      TH1
      000000D8H.1 SFRSYM    DATA     BIT       TI1
      00000098H.3 SFRSYM    DATA     BIT       TB8
      000000CDH   SFRSYM    DATA     BYTE      TH2
      000000D0H   SFRSYM    DATA     BIT       P
      0000008AH   SFRSYM    DATA     BYTE      TL0
      000000A8H   SFRSYM    DATA     BIT       EX4
      0000008BH   SFRSYM    DATA     BYTE      TL1
      000000A7H   SFRSYM    DATA     BYTE      FLASHCON
      000000CCH   SFRSYM    DATA     BYTE      TL2
      000000D0H.3 SFRSYM    DATA     BIT       RS0
LX51 LINKER/LOCATER V4.66.41.0                                                        11/18/2021  18:51:21  PAGE 199


      000000C5H   SFRSYM    DATA     BYTE      ADCDH
      00000088H.4 SFRSYM    DATA     BIT       TR0
      000000D0H.4 SFRSYM    DATA     BIT       RS1
      0000009FH   SFRSYM    DATA     BYTE      PWMCON
      00000088H.6 SFRSYM    DATA     BIT       TR1
      000000C8H.2 SFRSYM    DATA     BIT       TR2
      000000C4H   SFRSYM    DATA     BYTE      ADCDL
      000000C2H   SFRSYM    DATA     BYTE      ADT
      00000083H   SFRSYM    DATA     BYTE      DPH
      00000082H   SFRSYM    DATA     BYTE      DPL
      000000D9H   SFRSYM    DATA     BYTE      SBUF1
      000000C8H.3 SFRSYM    DATA     BIT       EXEN2
      000000F9H   SFRSYM    DATA     BYTE      SBUF2
      000000D8H.6 SFRSYM    DATA     BIT       SM11_RXOV1
      000000B8H.6 SFRSYM    DATA     BIT       PADCL
      00000098H.4 SFRSYM    DATA     BIT       REN
      000000D8H   SFRSYM    DATA     BYTE      SCON1
      000000D1H   SFRSYM    DATA     BYTE      LCDCON1
      000000C1H   SFRSYM    DATA     BYTE      ADCON
      000000F8H   SFRSYM    DATA     BYTE      SCON2
      0000008FH   SFRSYM    DATA     BYTE      TCON1
      000000D2H   SFRSYM    DATA     BYTE      LCDCON2
      00000092H   SFRSYM    DATA     BYTE      EDTAH
      000000C9H   SFRSYM    DATA     BYTE      T2MOD
      000000C8H   SFRSYM    DATA     BYTE      T2CON
      00000094H   SFRSYM    DATA     BYTE      EDTAL
      00000093H   SFRSYM    DATA     BYTE      EDTAM
      000000BCH   SFRSYM    DATA     BYTE      TK0DIFH
      0000009BH   SFRSYM    DATA     BYTE      SADEN
      000000BEH   SFRSYM    DATA     BYTE      TK1DIFH
      000000B6H   SFRSYM    DATA     BYTE      PBANK
      000000A5H   SFRSYM    DATA     BYTE      TK2DIFH
      000000A8H.6 SFRSYM    DATA     BIT       EADTP
      0000009AH   SFRSYM    DATA     BYTE      SADDR
      000000CFH   SFRSYM    DATA     BYTE      TK0DIFL
      000000BDH   SFRSYM    DATA     BYTE      TK1DIFL
      000000BFH   SFRSYM    DATA     BYTE      TK2DIFL
      000000B8H.2 SFRSYM    DATA     BIT       P7816L
      000000C6H   SFRSYM    DATA     BYTE      LPDCON1
      000000C7H   SFRSYM    DATA     BYTE      LPDCON2
      000000D0H.5 SFRSYM    DATA     BIT       F0
      000000AEH   SFRSYM    DATA     BYTE      IRDAT
      000000D0H.1 SFRSYM    DATA     BIT       F1
      00000096H   SFRSYM    DATA     BYTE      EMUIE
      0000009EH   SFRSYM    DATA     BYTE      SFINE
      000000F7H   SFRSYM    DATA     BYTE      XPAGE
      00000097H   SFRSYM    DATA     BYTE      EMUIF
      000000D0H   SFRSYM    DATA     BYTE      PSW
      000000D8H.2 SFRSYM    DATA     BIT       RB81
      000000A3H   SFRSYM    DATA     BYTE      SPDAT
      000000F2H   SFRSYM    DATA     BYTE      IB_CON1

      01003C29H   BLOCK     CODE     ---       LVL=0
      01003C32H   LINE      ---      ---       #81
      01003C32H   BLOCK     CODE     NEAR LAB  LVL=1
      01003C32H   LINE      ---      ---       #85
      01003C34H   LINE      ---      ---       #86
      01003C37H   LINE      ---      ---       #88
      01003C3AH   LINE      ---      ---       #89
      01003C3CH   LINE      ---      ---       #90
      01003C3FH   LINE      ---      ---       #110
      01003C42H   LINE      ---      ---       #111
      01003C45H   LINE      ---      ---       #114
      01003C48H   LINE      ---      ---       #115
      01003C4AH   LINE      ---      ---       #116
LX51 LINKER/LOCATER V4.66.41.0                                                        11/18/2021  18:51:21  PAGE 200


      01003C4DH   LINE      ---      ---       #118
      01003C4FH   LINE      ---      ---       #119
      00000006H   SYMBOL    DATA     BYTE      bak_PPBANK
      00000007H   SYMBOL    DATA     BYTE      FLASHCON_bak
      ---         BLOCKEND  CODE     ---       LVL=1
      ---         BLOCKEND  CODE     ---       LVL=0

      01003C56H   BLOCK     CODE     ---       LVL=0
      01003C5FH   LINE      ---      ---       #132
      01003C5FH   BLOCK     CODE     NEAR LAB  LVL=1
      01003C5FH   LINE      ---      ---       #137
      01003C61H   LINE      ---      ---       #138
      01003C64H   LINE      ---      ---       #140
      01003C67H   LINE      ---      ---       #141
      01003C69H   LINE      ---      ---       #142
      01003C6CH   LINE      ---      ---       #145
      01003C6FH   LINE      ---      ---       #146
      01003C72H   LINE      ---      ---       #149
      01003C75H   LINE      ---      ---       #150
      01003C77H   LINE      ---      ---       #151
      01003C7AH   LINE      ---      ---       #153
      01003C7CH   LINE      ---      ---       #154
      00000006H   SYMBOL    DATA     BYTE      bak_PPBANK
      00000007H   SYMBOL    DATA     BYTE      FLASHCON_bak
      ---         BLOCKEND  CODE     ---       LVL=1
      ---         BLOCKEND  CODE     ---       LVL=0

      01003C83H   BLOCK     CODE     ---       LVL=0
      01003CA0H   LINE      ---      ---       #165
      01003CA0H   BLOCK     CODE     NEAR LAB  LVL=1
      01003CA0H   LINE      ---      ---       #169
      01003CA6H   LINE      ---      ---       #170
      01003CA9H   LINE      ---      ---       #172
      01003CACH   LINE      ---      ---       #173
      01003CB2H   LINE      ---      ---       #174
      01003CB5H   LINE      ---      ---       #177
      01003CB8H   LINE      ---      ---       #179
      01003CBBH   LINE      ---      ---       #180
      01003CBEH   LINE      ---      ---       #183
      01003CC3H   LINE      ---      ---       #184
      01003CC3H   LINE      ---      ---       #185
      01003CCAH   LINE      ---      ---       #186
      01003CCAH   LINE      ---      ---       #198
      01003CDCH   LINE      ---      ---       #199
      01003CF9H   LINE      ---      ---       #200
      01003CF9H   LINE      ---      ---       #201
      01003D15H   LINE      ---      ---       #202
      01003D17H   LINE      ---      ---       #204
      01003D17H   LINE      ---      ---       #205
      01003D1EH   LINE      ---      ---       #206
      01003D1EH   LINE      ---      ---       #208
      01003D21H   LINE      ---      ---       #209
      01003D27H   LINE      ---      ---       #210
      01003D2AH   LINE      ---      ---       #212
      01003D2EH   LINE      ---      ---       #213
      020005EFH   SYMBOL    XDATA    BYTE      bak_PPBANK
      020005F0H   SYMBOL    XDATA    BYTE      FLASHCON_bak
      ---         BLOCKEND  CODE     ---       LVL=1
      ---         BLOCKEND  CODE     ---       LVL=0

      0100315EH   BLOCK     CODE     ---       LVL=0
      0100317BH   LINE      ---      ---       #224
      0100317BH   BLOCK     CODE     NEAR LAB  LVL=1
      0100317BH   LINE      ---      ---       #229
      01003181H   LINE      ---      ---       #230
LX51 LINKER/LOCATER V4.66.41.0                                                        11/18/2021  18:51:21  PAGE 201


      01003184H   LINE      ---      ---       #232
      01003187H   LINE      ---      ---       #233
      0100318DH   LINE      ---      ---       #234
      01003190H   LINE      ---      ---       #239
      01003193H   LINE      ---      ---       #240
      01003193H   LINE      ---      ---       #241
      01003195H   LINE      ---      ---       #243
      0100319BH   LINE      ---      ---       #244
      010031A6H   LINE      ---      ---       #245
      010031A6H   LINE      ---      ---       #246
      010031AEH   LINE      ---      ---       #247
      010031BDH   LINE      ---      ---       #248
      010031C0H   LINE      ---      ---       #249
      010031C0H   LINE      ---      ---       #250
      010031C2H   LINE      ---      ---       #251
      010031C4H   LINE      ---      ---       #253
      010031C4H   LINE      ---      ---       #254
      010031C6H   LINE      ---      ---       #255
      010031C6H   LINE      ---      ---       #256
      010031C8H   LINE      ---      ---       #257
      010031CAH   LINE      ---      ---       #259
      010031CAH   LINE      ---      ---       #260
      010031D0H   LINE      ---      ---       #261
      010031D0H   LINE      ---      ---       #262
      010031D0H   LINE      ---      ---       #266
      010031D3H   LINE      ---      ---       #267
      010031D3H   LINE      ---      ---       #268
      010031D5H   LINE      ---      ---       #269
      010031D7H   LINE      ---      ---       #274
      010031D7H   LINE      ---      ---       #275
      010031DEH   LINE      ---      ---       #276
      010031DEH   LINE      ---      ---       #277
      010031DEH   LINE      ---      ---       #279
      010031E1H   LINE      ---      ---       #280
      010031E7H   LINE      ---      ---       #281
      010031EAH   LINE      ---      ---       #283
      010031EEH   LINE      ---      ---       #284
      00000007H   SYMBOL    DATA     BYTE      V_ucTempData
      020005F1H   SYMBOL    XDATA    BYTE      bak_PPBANK
      020005F2H   SYMBOL    XDATA    BYTE      FLASHCON_bak
      ---         BLOCKEND  CODE     ---       LVL=1
      ---         BLOCKEND  CODE     ---       LVL=0

      010032B6H   BLOCK     CODE     ---       LVL=0
      010032D3H   LINE      ---      ---       #296
      010032D3H   BLOCK     CODE     NEAR LAB  LVL=1
      010032D3H   LINE      ---      ---       #302
      010032D9H   LINE      ---      ---       #303
      010032DCH   LINE      ---      ---       #305
      010032DFH   LINE      ---      ---       #306
      010032E5H   LINE      ---      ---       #307
      010032E8H   LINE      ---      ---       #312
      010032EBH   LINE      ---      ---       #313
      010032EBH   LINE      ---      ---       #314
      010032EDH   LINE      ---      ---       #316
      010032F3H   LINE      ---      ---       #317
      010032FEH   LINE      ---      ---       #318
      010032FEH   LINE      ---      ---       #319
      01003306H   LINE      ---      ---       #320
      01003315H   LINE      ---      ---       #321
      01003318H   LINE      ---      ---       #322
      01003318H   LINE      ---      ---       #323
      0100331AH   LINE      ---      ---       #324
      0100331CH   LINE      ---      ---       #326
      0100331CH   LINE      ---      ---       #327
LX51 LINKER/LOCATER V4.66.41.0                                                        11/18/2021  18:51:21  PAGE 202


      0100331EH   LINE      ---      ---       #328
      0100331EH   LINE      ---      ---       #329
      01003320H   LINE      ---      ---       #330
      01003322H   LINE      ---      ---       #332
      01003322H   LINE      ---      ---       #333
      01003328H   LINE      ---      ---       #334
      01003328H   LINE      ---      ---       #335
      01003328H   LINE      ---      ---       #339
      0100332BH   LINE      ---      ---       #340
      0100332BH   LINE      ---      ---       #341
      0100332DH   LINE      ---      ---       #342
      0100332FH   LINE      ---      ---       #347
      0100332FH   LINE      ---      ---       #348
      01003336H   LINE      ---      ---       #349
      01003336H   LINE      ---      ---       #350
      01003336H   LINE      ---      ---       #352
      01003339H   LINE      ---      ---       #353
      0100333FH   LINE      ---      ---       #354
      01003342H   LINE      ---      ---       #356
      01003346H   LINE      ---      ---       #357
      00000007H   SYMBOL    DATA     BYTE      V_ucTempData
      020005FDH   SYMBOL    XDATA    BYTE      bak_PPBANK
      020005FEH   SYMBOL    XDATA    BYTE      FLASHCON_bak
      ---         BLOCKEND  CODE     ---       LVL=1
      ---         BLOCKEND  CODE     ---       LVL=0

      01003D49H   BLOCK     CODE     ---       LVL=0
      01003D52H   LINE      ---      ---       #369
      01003D52H   BLOCK     CODE     NEAR LAB  LVL=1
      01003D52H   LINE      ---      ---       #373
      01003D54H   LINE      ---      ---       #374
      01003D57H   LINE      ---      ---       #376
      01003D5AH   LINE      ---      ---       #377
      01003D5CH   LINE      ---      ---       #378
      01003D5FH   LINE      ---      ---       #381
      01003D62H   LINE      ---      ---       #382
      01003D65H   LINE      ---      ---       #384
      01003D68H   LINE      ---      ---       #385
      01003D6AH   LINE      ---      ---       #386
      01003D6DH   LINE      ---      ---       #388
      01003D6FH   LINE      ---      ---       #389
      00000006H   SYMBOL    DATA     BYTE      bak_PPBANK
      00000007H   SYMBOL    DATA     BYTE      FLASHCON_bak
      ---         BLOCKEND  CODE     ---       LVL=1
      ---         BLOCKEND  CODE     ---       LVL=0

      01003D76H   BLOCK     CODE     ---       LVL=0
      01003D7FH   LINE      ---      ---       #400
      01003D7FH   BLOCK     CODE     NEAR LAB  LVL=1
      01003D7FH   LINE      ---      ---       #404
      01003D81H   LINE      ---      ---       #405
      01003D84H   LINE      ---      ---       #407
      01003D87H   LINE      ---      ---       #408
      01003D89H   LINE      ---      ---       #409
      01003D8CH   LINE      ---      ---       #412
      01003D8FH   LINE      ---      ---       #413
      01003D92H   LINE      ---      ---       #415
      01003D95H   LINE      ---      ---       #416
      01003D97H   LINE      ---      ---       #417
      01003D9AH   LINE      ---      ---       #419
      01003D9CH   LINE      ---      ---       #420
      00000006H   SYMBOL    DATA     BYTE      bak_PPBANK
      00000007H   SYMBOL    DATA     BYTE      FLASHCON_bak
      ---         BLOCKEND  CODE     ---       LVL=1
      ---         BLOCKEND  CODE     ---       LVL=0
LX51 LINKER/LOCATER V4.66.41.0                                                        11/18/2021  18:51:21  PAGE 203



      01003DA3H   BLOCK     CODE     ---       LVL=0
      01003DB4H   LINE      ---      ---       #431
      01003DB4H   BLOCK     CODE     NEAR LAB  LVL=1
      01003DB4H   LINE      ---      ---       #438
      01003DB6H   LINE      ---      ---       #439
      01003DB9H   LINE      ---      ---       #442
      01003DBCH   LINE      ---      ---       #443
      01003DBEH   LINE      ---      ---       #444
      01003DC1H   LINE      ---      ---       #447
      01003DC3H   LINE      ---      ---       #448
      01003DC6H   LINE      ---      ---       #450
      01003DCAH   LINE      ---      ---       #451
      01003DCAH   LINE      ---      ---       #452
      01003DD4H   LINE      ---      ---       #453
      01003DD4H   LINE      ---      ---       #454
      01003DD7H   LINE      ---      ---       #455
      01003DD9H   LINE      ---      ---       #457
      01003DD9H   LINE      ---      ---       #458
      01003DE1H   LINE      ---      ---       #459
      01003DE4H   LINE      ---      ---       #460
      01003DE7H   LINE      ---      ---       #461
      01003DE7H   LINE      ---      ---       #462
      01003DE7H   LINE      ---      ---       #467
      01003DEAH   LINE      ---      ---       #468
      01003DECH   LINE      ---      ---       #469
      01003DEFH   LINE      ---      ---       #472
      01003DF1H   LINE      ---      ---       #473
      00000005H   SYMBOL    DATA     BYTE      V_ucTempEMUIF
      00000006H   SYMBOL    DATA     BYTE      bak_PPBANK
      00000007H   SYMBOL    DATA     BYTE      FLASHCON_bak
      ---         BLOCKEND  CODE     ---       LVL=1
      ---         BLOCKEND  CODE     ---       LVL=0

      01003E00H   BLOCK     CODE     ---       LVL=0
      01003E0FH   LINE      ---      ---       #484
      01003E0FH   BLOCK     CODE     NEAR LAB  LVL=1
      01003E0FH   LINE      ---      ---       #488
      01003E11H   LINE      ---      ---       #489
      01003E14H   LINE      ---      ---       #491
      01003E17H   LINE      ---      ---       #492
      01003E19H   LINE      ---      ---       #493
      01003E1CH   LINE      ---      ---       #496
      01003E21H   LINE      ---      ---       #497
      01003E25H   LINE      ---      ---       #498
      01003E28H   LINE      ---      ---       #501
      01003E2BH   LINE      ---      ---       #502
      01003E2DH   LINE      ---      ---       #503
      01003E2FH   LINE      ---      ---       #506
      01003E31H   LINE      ---      ---       #507
      00000006H   SYMBOL    DATA     BYTE      bak_PPBANK
      00000007H   SYMBOL    DATA     BYTE      FLASHCON_bak
      ---         BLOCKEND  CODE     ---       LVL=1
      ---         BLOCKEND  CODE     ---       LVL=0

      01003E3EH   BLOCK     CODE     ---       LVL=0
      01003E47H   LINE      ---      ---       #519
      01003E47H   BLOCK     CODE     NEAR LAB  LVL=1
      01003E47H   LINE      ---      ---       #524
      01003E49H   LINE      ---      ---       #525
      01003E4CH   LINE      ---      ---       #527
      01003E4FH   LINE      ---      ---       #528
      01003E51H   LINE      ---      ---       #529
      01003E54H   LINE      ---      ---       #531
      01003E57H   LINE      ---      ---       #532
LX51 LINKER/LOCATER V4.66.41.0                                                        11/18/2021  18:51:21  PAGE 204


      01003E5AH   LINE      ---      ---       #541
      01003E5DH   LINE      ---      ---       #542
      01003E5FH   LINE      ---      ---       #543
      01003E62H   LINE      ---      ---       #546
      01003E64H   LINE      ---      ---       #547
      00000006H   SYMBOL    DATA     BYTE      bak_PPBANK
      00000007H   SYMBOL    DATA     BYTE      FLASHCON_bak
      ---         BLOCKEND  CODE     ---       LVL=1
      ---         BLOCKEND  CODE     ---       LVL=0

      01003E6BH   BLOCK     CODE     ---       LVL=0
      01003E7CH   LINE      ---      ---       #558
      01003E7CH   BLOCK     CODE     NEAR LAB  LVL=1
      01003E7CH   LINE      ---      ---       #563
      01003E7EH   LINE      ---      ---       #564
      01003E81H   LINE      ---      ---       #566
      01003E84H   LINE      ---      ---       #567
      01003E86H   LINE      ---      ---       #568
      01003E89H   LINE      ---      ---       #571
      01003E90H   LINE      ---      ---       #572
      01003E93H   LINE      ---      ---       #574
      01003E96H   LINE      ---      ---       #575
      01003E9AH   LINE      ---      ---       #576
      01003E9DH   LINE      ---      ---       #579
      01003EA1H   LINE      ---      ---       #580
      00000006H   SYMBOL    DATA     BYTE      bak_PPBANK
      00000004H   SYMBOL    DATA     BYTE      FLASHCON_bak
      ---         BLOCKEND  CODE     ---       LVL=1
      ---         BLOCKEND  CODE     ---       LVL=0

      ---         MODULE    ---      ---       RAMDEFINE
      020005D5H   PUBLIC    XDATA    ---       GStr_EventRecordNum
      020005BBH   PUBLIC    XDATA    ---       GStr_ENERGYDEC
      020005A2H   PUBLIC    XDATA    ---       GStr_MoneyPara
      02000592H   PUBLIC    XDATA    ---       GStr_FunConfigPara
      02000584H   PUBLIC    XDATA    ---       GStr_Money
      0200057CH   PUBLIC    XDATA    ---       GStr_EventValidPiont
      02000538H   PUBLIC    XDATA    ---       GStr_UIPGroup
      02000528H   PUBLIC    XDATA    ---       GStr_Flag
      0200051AH   PUBLIC    XDATA    ---       GStr_PRICE
      020004F1H   PUBLIC    XDATA    ---       GStr_AVAIL
      020004E7H   PUBLIC    XDATA    ---       GStr_Energy
      020004ACH   PUBLIC    XDATA    ---       GStr_Monitor
      020004A3H   PUBLIC    XDATA    ---       GStr_Counter
      02000489H   PUBLIC    XDATA    ---       GStr_BLEGroup
      02000408H   PUBLIC    XDATA    ---       GStr_DisplayPara
      020003EDH   PUBLIC    XDATA    ---       GStr_MeterIFO
      0200009FH   PUBLIC    XDATA    ---       Gstr_UartComm
      02000018H   PUBLIC    XDATA    ---       GStr_UIPDisplay
      02000010H   PUBLIC    XDATA    ---       GStr_EventNumPiont
      02000008H   PUBLIC    XDATA    ---       GStr_EnergyPulseFw
      02000000H   PUBLIC    XDATA    ---       GStr_EnergyPulseBk
      000000F3H   SFRSYM    DATA     BYTE      IB_CON2
      000000D8H.3 SFRSYM    DATA     BIT       TB81
      00000080H   SFRSYM    DATA     BYTE      P0
      000000F4H   SFRSYM    DATA     BYTE      IB_CON3
      000000A4H   SFRSYM    DATA     BYTE      TKCON
      00000090H   SFRSYM    DATA     BYTE      P1
      000000F5H   SFRSYM    DATA     BYTE      IB_CON4
      000000E7H   SFRSYM    DATA     BYTE      PASLO
      000000A0H   SFRSYM    DATA     BYTE      P2
      000000FEH   SFRSYM    DATA     BYTE      OSCLO
      000000F6H   SFRSYM    DATA     BYTE      IB_CON5
      00000098H.6 SFRSYM    DATA     BIT       SM1_RXOV
      000000B0H   SFRSYM    DATA     BYTE      P3
LX51 LINKER/LOCATER V4.66.41.0                                                        11/18/2021  18:51:21  PAGE 205


      000000D0H.6 SFRSYM    DATA     BIT       AC
      000000C0H   SFRSYM    DATA     BYTE      P4
      000000A1H   SFRSYM    DATA     BYTE      SPCON
      0000009CH   SFRSYM    DATA     BYTE      SBRTH
      000000E9H   SFRSYM    DATA     BYTE      P5
      000000A8H.7 SFRSYM    DATA     BIT       EA
      000000EAH   SFRSYM    DATA     BYTE      P6
      000000EBH   SFRSYM    DATA     BYTE      P7
      000000EFH   SFRSYM    DATA     BYTE      IB_DATA
      000000ECH   SFRSYM    DATA     BYTE      P8
      0000009DH   SFRSYM    DATA     BYTE      SBRTL
      000000EDH   SFRSYM    DATA     BYTE      P9
      000000B7H   SFRSYM    DATA     BYTE      PBANKLO
      000000A2H   SFRSYM    DATA     BYTE      SPSTA
      000000A8H   SFRSYM    DATA     BYTE      IEN0
      000000B3H   SFRSYM    DATA     BYTE      PWRCON1
      00000095H   SFRSYM    DATA     BYTE      EMUSR
      000000A9H   SFRSYM    DATA     BYTE      IEN1
      000000B4H   SFRSYM    DATA     BYTE      PWRCON2
      00000085H   SFRSYM    DATA     BYTE      DPH1
      00000080H   SFRSYM    DATA     BIT       P0_0
      00000090H   SFRSYM    DATA     BIT       P1_0
      00000080H.1 SFRSYM    DATA     BIT       P0_1
      000000C3H   SFRSYM    DATA     BYTE      ADCH
      000000A0H   SFRSYM    DATA     BIT       P2_0
      00000090H.1 SFRSYM    DATA     BIT       P1_1
      00000080H.2 SFRSYM    DATA     BIT       P0_2
      000000BAH   SFRSYM    DATA     BYTE      IPH0
      00000084H   SFRSYM    DATA     BYTE      DPL1
      000000B0H   SFRSYM    DATA     BIT       P3_0
      000000A0H.1 SFRSYM    DATA     BIT       P2_1
      00000090H.2 SFRSYM    DATA     BIT       P1_2
      00000080H.3 SFRSYM    DATA     BIT       P0_3
      000000BBH   SFRSYM    DATA     BYTE      IPH1
      000000C0H   SFRSYM    DATA     BIT       P4_0
      000000B0H.1 SFRSYM    DATA     BIT       P3_1
      000000A0H.2 SFRSYM    DATA     BIT       P2_2
      00000090H.3 SFRSYM    DATA     BIT       P1_3
      00000080H.4 SFRSYM    DATA     BIT       P0_4
      000000E8H   SFRSYM    DATA     BYTE      EXF0
      000000C0H.1 SFRSYM    DATA     BIT       P4_1
      000000B0H.2 SFRSYM    DATA     BIT       P3_2
      000000A0H.3 SFRSYM    DATA     BIT       P2_3
      00000090H.4 SFRSYM    DATA     BIT       P1_4
      00000080H.5 SFRSYM    DATA     BIT       P0_5
      000000C0H.2 SFRSYM    DATA     BIT       P4_2
      000000B0H.3 SFRSYM    DATA     BIT       P3_3
      000000A0H.4 SFRSYM    DATA     BIT       P2_4
      00000090H.5 SFRSYM    DATA     BIT       P1_5
      00000080H.6 SFRSYM    DATA     BIT       P0_6
      000000C8H.6 SFRSYM    DATA     BIT       EXF2
      000000A6H   SFRSYM    DATA     BYTE      TKF0
      000000B8H   SFRSYM    DATA     BYTE      IPL0
      000000C0H.3 SFRSYM    DATA     BIT       P4_3
      000000B0H.4 SFRSYM    DATA     BIT       P3_4
      000000A0H.5 SFRSYM    DATA     BIT       P2_5
      00000090H.6 SFRSYM    DATA     BIT       P1_6
      00000080H.7 SFRSYM    DATA     BIT       P0_7
      000000D8H.4 SFRSYM    DATA     BIT       REN1
      000000B9H   SFRSYM    DATA     BYTE      IPL1
      000000C0H.4 SFRSYM    DATA     BIT       P4_4
      000000B0H.5 SFRSYM    DATA     BIT       P3_5
      000000A0H.6 SFRSYM    DATA     BIT       P2_6
      00000090H.7 SFRSYM    DATA     BIT       P1_7
      000000E2H   SFRSYM    DATA     BYTE      TK0H
LX51 LINKER/LOCATER V4.66.41.0                                                        11/18/2021  18:51:21  PAGE 206


      0000008EH   SFRSYM    DATA     BYTE      SUSLO
      000000C0H.5 SFRSYM    DATA     BIT       P4_5
      000000B0H.6 SFRSYM    DATA     BIT       P3_6
      000000A0H.7 SFRSYM    DATA     BIT       P2_7
      000000E4H   SFRSYM    DATA     BYTE      TK1H
      000000C0H.6 SFRSYM    DATA     BIT       P4_6
      000000B0H.7 SFRSYM    DATA     BIT       P3_7
      000000E6H   SFRSYM    DATA     BYTE      TK2H
      000000C0H.7 SFRSYM    DATA     BIT       P4_7
      00000098H   SFRSYM    DATA     BIT       RI
      000000A8H.2 SFRSYM    DATA     BIT       E7816
      000000D0H.7 SFRSYM    DATA     BIT       CY
      000000E1H   SFRSYM    DATA     BYTE      TK0L
      00000098H.1 SFRSYM    DATA     BIT       TI
      00000091H   SFRSYM    DATA     BYTE      EADR
      000000E3H   SFRSYM    DATA     BYTE      TK1L
      000000E5H   SFRSYM    DATA     BYTE      TK2L
      000000DBH   SFRSYM    DATA     BYTE      SADEN1
      000000D8H.7 SFRSYM    DATA     BIT       SM10_FE1
      000000FBH   SFRSYM    DATA     BYTE      SADEN2
      000000B8H.4 SFRSYM    DATA     BIT       PS0L
      000000B8H.1 SFRSYM    DATA     BIT       PT0L
      000000DAH   SFRSYM    DATA     BYTE      SADDR1
      000000D8H.5 SFRSYM    DATA     BIT       SM12_TXCOL1
      000000B8H.3 SFRSYM    DATA     BIT       PT1L
      000000FAH   SFRSYM    DATA     BYTE      SADDR2
      000000CBH   SFRSYM    DATA     BYTE      RCAP2H
      000000B8H.5 SFRSYM    DATA     BIT       PT2L
      00000081H   SFRSYM    DATA     BYTE      SP
      000000D0H.2 SFRSYM    DATA     BIT       OV
      000000CAH   SFRSYM    DATA     BYTE      RCAP2L
      000000B8H   SFRSYM    DATA     BIT       PX4L
      000000C8H.1 SFRSYM    DATA     BIT       C_T2
      000000DEH   SFRSYM    DATA     BYTE      SFINE2
      000000ADH   SFRSYM    DATA     BYTE      IRCON1
      000000AFH   SFRSYM    DATA     BYTE      IRCON2
      000000ABH   SFRSYM    DATA     BYTE      EXCON1
      00000099H   SFRSYM    DATA     BYTE      SBUF
      000000ACH   SFRSYM    DATA     BYTE      EXCON2
      00000087H   SFRSYM    DATA     BYTE      PCON
      000000F1H   SFRSYM    DATA     BYTE      AUXC
      00000098H   SFRSYM    DATA     BYTE      SCON
      000000D4H   SFRSYM    DATA     BYTE      TK0BASEH
      00000089H   SFRSYM    DATA     BYTE      TMOD
      00000088H   SFRSYM    DATA     BYTE      TCON
      000000AAH   SFRSYM    DATA     BYTE      IENX
      000000EEH   SFRSYM    DATA     BYTE      IB_OFFSET
      000000D6H   SFRSYM    DATA     BYTE      TK1BASEH
      000000DCH   SFRSYM    DATA     BYTE      SBRT1H
      000000DFH   SFRSYM    DATA     BYTE      TK2BASEH
      000000FCH   SFRSYM    DATA     BYTE      SBRT2H
      000000B1H   SFRSYM    DATA     BYTE      RSTSTAT
      000000D3H   SFRSYM    DATA     BYTE      TK0BASEL
      000000D5H   SFRSYM    DATA     BYTE      TK1BASEL
      000000DDH   SFRSYM    DATA     BYTE      SBRT1L
      000000D7H   SFRSYM    DATA     BYTE      TK2BASEL
      000000FDH   SFRSYM    DATA     BYTE      SBRT2L
      00000098H.7 SFRSYM    DATA     BIT       SM0_FE
      000000B2H   SFRSYM    DATA     BYTE      CLKCON
      00000098H.5 SFRSYM    DATA     BIT       SM2_TXCOL
      000000B5H   SFRSYM    DATA     BYTE      LDOCON
      000000F0H   SFRSYM    DATA     BYTE      B
      000000C8H   SFRSYM    DATA     BIT       CP_RL2
      000000E0H   SFRSYM    DATA     BYTE      ACC
      000000A8H.4 SFRSYM    DATA     BIT       ES0
LX51 LINKER/LOCATER V4.66.41.0                                                        11/18/2021  18:51:21  PAGE 207


      000000A8H.1 SFRSYM    DATA     BIT       ET0
      000000A8H.3 SFRSYM    DATA     BIT       ET1
      00000088H.5 SFRSYM    DATA     BIT       TF0
      000000A8H.5 SFRSYM    DATA     BIT       ET2
      00000088H.7 SFRSYM    DATA     BIT       TF1
      000000D8H   SFRSYM    DATA     BIT       RI1
      00000098H.2 SFRSYM    DATA     BIT       RB8
      000000C8H.7 SFRSYM    DATA     BIT       TF2
      0000008CH   SFRSYM    DATA     BYTE      TH0
      00000086H   SFRSYM    DATA     BYTE      INSCON
      0000008DH   SFRSYM    DATA     BYTE      TH1
      000000D8H.1 SFRSYM    DATA     BIT       TI1
      00000098H.3 SFRSYM    DATA     BIT       TB8
      000000CDH   SFRSYM    DATA     BYTE      TH2
      000000D0H   SFRSYM    DATA     BIT       P
      0000008AH   SFRSYM    DATA     BYTE      TL0
      000000A8H   SFRSYM    DATA     BIT       EX4
      0000008BH   SFRSYM    DATA     BYTE      TL1
      000000A7H   SFRSYM    DATA     BYTE      FLASHCON
      000000CCH   SFRSYM    DATA     BYTE      TL2
      000000D0H.3 SFRSYM    DATA     BIT       RS0
      000000C5H   SFRSYM    DATA     BYTE      ADCDH
      00000088H.4 SFRSYM    DATA     BIT       TR0
      000000D0H.4 SFRSYM    DATA     BIT       RS1
      0000009FH   SFRSYM    DATA     BYTE      PWMCON
      00000088H.6 SFRSYM    DATA     BIT       TR1
      000000C8H.2 SFRSYM    DATA     BIT       TR2
      000000C4H   SFRSYM    DATA     BYTE      ADCDL
      000000C2H   SFRSYM    DATA     BYTE      ADT
      00000083H   SFRSYM    DATA     BYTE      DPH
      00000082H   SFRSYM    DATA     BYTE      DPL
      000000D9H   SFRSYM    DATA     BYTE      SBUF1
      000000C8H.3 SFRSYM    DATA     BIT       EXEN2
      000000F9H   SFRSYM    DATA     BYTE      SBUF2
      000000D8H.6 SFRSYM    DATA     BIT       SM11_RXOV1
      000000B8H.6 SFRSYM    DATA     BIT       PADCL
      00000098H.4 SFRSYM    DATA     BIT       REN
      000000D8H   SFRSYM    DATA     BYTE      SCON1
      000000D1H   SFRSYM    DATA     BYTE      LCDCON1
      000000C1H   SFRSYM    DATA     BYTE      ADCON
      000000F8H   SFRSYM    DATA     BYTE      SCON2
      0000008FH   SFRSYM    DATA     BYTE      TCON1
      000000D2H   SFRSYM    DATA     BYTE      LCDCON2
      00000092H   SFRSYM    DATA     BYTE      EDTAH
      000000C9H   SFRSYM    DATA     BYTE      T2MOD
      000000C8H   SFRSYM    DATA     BYTE      T2CON
      00000094H   SFRSYM    DATA     BYTE      EDTAL
      00000093H   SFRSYM    DATA     BYTE      EDTAM
      000000BCH   SFRSYM    DATA     BYTE      TK0DIFH
      0000009BH   SFRSYM    DATA     BYTE      SADEN
      000000BEH   SFRSYM    DATA     BYTE      TK1DIFH
      000000B6H   SFRSYM    DATA     BYTE      PBANK
      000000A5H   SFRSYM    DATA     BYTE      TK2DIFH
      000000A8H.6 SFRSYM    DATA     BIT       EADTP
      0000009AH   SFRSYM    DATA     BYTE      SADDR
      000000CFH   SFRSYM    DATA     BYTE      TK0DIFL
      000000BDH   SFRSYM    DATA     BYTE      TK1DIFL
      000000BFH   SFRSYM    DATA     BYTE      TK2DIFL
      000000B8H.2 SFRSYM    DATA     BIT       P7816L
      000000C6H   SFRSYM    DATA     BYTE      LPDCON1
      000000C7H   SFRSYM    DATA     BYTE      LPDCON2
      000000D0H.5 SFRSYM    DATA     BIT       F0
      000000AEH   SFRSYM    DATA     BYTE      IRDAT
      000000D0H.1 SFRSYM    DATA     BIT       F1
      00000096H   SFRSYM    DATA     BYTE      EMUIE
LX51 LINKER/LOCATER V4.66.41.0                                                        11/18/2021  18:51:21  PAGE 208


      0000009EH   SFRSYM    DATA     BYTE      SFINE
      000000F7H   SFRSYM    DATA     BYTE      XPAGE
      00000097H   SFRSYM    DATA     BYTE      EMUIF
      000000D0H   SFRSYM    DATA     BYTE      PSW
      000000D8H.2 SFRSYM    DATA     BIT       RB81
      000000A3H   SFRSYM    DATA     BYTE      SPDAT
      000000F2H   SFRSYM    DATA     BYTE      IB_CON1

      ---         MODULE    ---      ---       LIBEEPROMLAYOUT
      02000AEAH   PUBLIC    XDATA    ---       EEPROM_MAP_TAB
      000000F3H   SFRSYM    DATA     BYTE      IB_CON2
      000000D8H.3 SFRSYM    DATA     BIT       TB81
      00000080H   SFRSYM    DATA     BYTE      P0
      000000F4H   SFRSYM    DATA     BYTE      IB_CON3
      000000A4H   SFRSYM    DATA     BYTE      TKCON
      00000090H   SFRSYM    DATA     BYTE      P1
      000000F5H   SFRSYM    DATA     BYTE      IB_CON4
      000000E7H   SFRSYM    DATA     BYTE      PASLO
      000000A0H   SFRSYM    DATA     BYTE      P2
      000000FEH   SFRSYM    DATA     BYTE      OSCLO
      000000F6H   SFRSYM    DATA     BYTE      IB_CON5
      00000098H.6 SFRSYM    DATA     BIT       SM1_RXOV
      000000B0H   SFRSYM    DATA     BYTE      P3
      000000D0H.6 SFRSYM    DATA     BIT       AC
      000000C0H   SFRSYM    DATA     BYTE      P4
      000000A1H   SFRSYM    DATA     BYTE      SPCON
      0000009CH   SFRSYM    DATA     BYTE      SBRTH
      000000E9H   SFRSYM    DATA     BYTE      P5
      000000A8H.7 SFRSYM    DATA     BIT       EA
      000000EAH   SFRSYM    DATA     BYTE      P6
      000000EBH   SFRSYM    DATA     BYTE      P7
      000000EFH   SFRSYM    DATA     BYTE      IB_DATA
      000000ECH   SFRSYM    DATA     BYTE      P8
      0000009DH   SFRSYM    DATA     BYTE      SBRTL
      000000EDH   SFRSYM    DATA     BYTE      P9
      000000B7H   SFRSYM    DATA     BYTE      PBANKLO
      000000A2H   SFRSYM    DATA     BYTE      SPSTA
      000000A8H   SFRSYM    DATA     BYTE      IEN0
      000000B3H   SFRSYM    DATA     BYTE      PWRCON1
      00000095H   SFRSYM    DATA     BYTE      EMUSR
      000000A9H   SFRSYM    DATA     BYTE      IEN1
      000000B4H   SFRSYM    DATA     BYTE      PWRCON2
      00000085H   SFRSYM    DATA     BYTE      DPH1
      00000080H   SFRSYM    DATA     BIT       P0_0
      00000090H   SFRSYM    DATA     BIT       P1_0
      00000080H.1 SFRSYM    DATA     BIT       P0_1
      000000C3H   SFRSYM    DATA     BYTE      ADCH
      000000A0H   SFRSYM    DATA     BIT       P2_0
      00000090H.1 SFRSYM    DATA     BIT       P1_1
      00000080H.2 SFRSYM    DATA     BIT       P0_2
      000000BAH   SFRSYM    DATA     BYTE      IPH0
      00000084H   SFRSYM    DATA     BYTE      DPL1
      000000B0H   SFRSYM    DATA     BIT       P3_0
      000000A0H.1 SFRSYM    DATA     BIT       P2_1
      00000090H.2 SFRSYM    DATA     BIT       P1_2
      00000080H.3 SFRSYM    DATA     BIT       P0_3
      000000BBH   SFRSYM    DATA     BYTE      IPH1
      000000C0H   SFRSYM    DATA     BIT       P4_0
      000000B0H.1 SFRSYM    DATA     BIT       P3_1
      000000A0H.2 SFRSYM    DATA     BIT       P2_2
      00000090H.3 SFRSYM    DATA     BIT       P1_3
      00000080H.4 SFRSYM    DATA     BIT       P0_4
      000000E8H   SFRSYM    DATA     BYTE      EXF0
      000000C0H.1 SFRSYM    DATA     BIT       P4_1
      000000B0H.2 SFRSYM    DATA     BIT       P3_2
LX51 LINKER/LOCATER V4.66.41.0                                                        11/18/2021  18:51:21  PAGE 209


      000000A0H.3 SFRSYM    DATA     BIT       P2_3
      00000090H.4 SFRSYM    DATA     BIT       P1_4
      00000080H.5 SFRSYM    DATA     BIT       P0_5
      000000C0H.2 SFRSYM    DATA     BIT       P4_2
      000000B0H.3 SFRSYM    DATA     BIT       P3_3
      000000A0H.4 SFRSYM    DATA     BIT       P2_4
      00000090H.5 SFRSYM    DATA     BIT       P1_5
      00000080H.6 SFRSYM    DATA     BIT       P0_6
      000000C8H.6 SFRSYM    DATA     BIT       EXF2
      000000A6H   SFRSYM    DATA     BYTE      TKF0
      000000B8H   SFRSYM    DATA     BYTE      IPL0
      000000C0H.3 SFRSYM    DATA     BIT       P4_3
      000000B0H.4 SFRSYM    DATA     BIT       P3_4
      000000A0H.5 SFRSYM    DATA     BIT       P2_5
      00000090H.6 SFRSYM    DATA     BIT       P1_6
      00000080H.7 SFRSYM    DATA     BIT       P0_7
      000000D8H.4 SFRSYM    DATA     BIT       REN1
      000000B9H   SFRSYM    DATA     BYTE      IPL1
      000000C0H.4 SFRSYM    DATA     BIT       P4_4
      000000B0H.5 SFRSYM    DATA     BIT       P3_5
      000000A0H.6 SFRSYM    DATA     BIT       P2_6
      00000090H.7 SFRSYM    DATA     BIT       P1_7
      000000E2H   SFRSYM    DATA     BYTE      TK0H
      0000008EH   SFRSYM    DATA     BYTE      SUSLO
      000000C0H.5 SFRSYM    DATA     BIT       P4_5
      000000B0H.6 SFRSYM    DATA     BIT       P3_6
      000000A0H.7 SFRSYM    DATA     BIT       P2_7
      000000E4H   SFRSYM    DATA     BYTE      TK1H
      000000C0H.6 SFRSYM    DATA     BIT       P4_6
      000000B0H.7 SFRSYM    DATA     BIT       P3_7
      000000E6H   SFRSYM    DATA     BYTE      TK2H
      000000C0H.7 SFRSYM    DATA     BIT       P4_7
      00000098H   SFRSYM    DATA     BIT       RI
      000000A8H.2 SFRSYM    DATA     BIT       E7816
      000000D0H.7 SFRSYM    DATA     BIT       CY
      000000E1H   SFRSYM    DATA     BYTE      TK0L
      00000098H.1 SFRSYM    DATA     BIT       TI
      00000091H   SFRSYM    DATA     BYTE      EADR
      000000E3H   SFRSYM    DATA     BYTE      TK1L
      000000E5H   SFRSYM    DATA     BYTE      TK2L
      000000DBH   SFRSYM    DATA     BYTE      SADEN1
      000000D8H.7 SFRSYM    DATA     BIT       SM10_FE1
      000000FBH   SFRSYM    DATA     BYTE      SADEN2
      000000B8H.4 SFRSYM    DATA     BIT       PS0L
      000000B8H.1 SFRSYM    DATA     BIT       PT0L
      000000DAH   SFRSYM    DATA     BYTE      SADDR1
      000000D8H.5 SFRSYM    DATA     BIT       SM12_TXCOL1
      000000B8H.3 SFRSYM    DATA     BIT       PT1L
      000000FAH   SFRSYM    DATA     BYTE      SADDR2
      000000CBH   SFRSYM    DATA     BYTE      RCAP2H
      000000B8H.5 SFRSYM    DATA     BIT       PT2L
      00000081H   SFRSYM    DATA     BYTE      SP
      000000D0H.2 SFRSYM    DATA     BIT       OV
      000000CAH   SFRSYM    DATA     BYTE      RCAP2L
      000000B8H   SFRSYM    DATA     BIT       PX4L
      000000C8H.1 SFRSYM    DATA     BIT       C_T2
      000000DEH   SFRSYM    DATA     BYTE      SFINE2
      000000ADH   SFRSYM    DATA     BYTE      IRCON1
      000000AFH   SFRSYM    DATA     BYTE      IRCON2
      000000ABH   SFRSYM    DATA     BYTE      EXCON1
      00000099H   SFRSYM    DATA     BYTE      SBUF
      000000ACH   SFRSYM    DATA     BYTE      EXCON2
      00000087H   SFRSYM    DATA     BYTE      PCON
      000000F1H   SFRSYM    DATA     BYTE      AUXC
      00000098H   SFRSYM    DATA     BYTE      SCON
LX51 LINKER/LOCATER V4.66.41.0                                                        11/18/2021  18:51:21  PAGE 210


      000000D4H   SFRSYM    DATA     BYTE      TK0BASEH
      00000089H   SFRSYM    DATA     BYTE      TMOD
      00000088H   SFRSYM    DATA     BYTE      TCON
      000000AAH   SFRSYM    DATA     BYTE      IENX
      000000EEH   SFRSYM    DATA     BYTE      IB_OFFSET
      000000D6H   SFRSYM    DATA     BYTE      TK1BASEH
      000000DCH   SFRSYM    DATA     BYTE      SBRT1H
      000000DFH   SFRSYM    DATA     BYTE      TK2BASEH
      000000FCH   SFRSYM    DATA     BYTE      SBRT2H
      000000B1H   SFRSYM    DATA     BYTE      RSTSTAT
      000000D3H   SFRSYM    DATA     BYTE      TK0BASEL
      000000D5H   SFRSYM    DATA     BYTE      TK1BASEL
      000000DDH   SFRSYM    DATA     BYTE      SBRT1L
      000000D7H   SFRSYM    DATA     BYTE      TK2BASEL
      000000FDH   SFRSYM    DATA     BYTE      SBRT2L
      00000098H.7 SFRSYM    DATA     BIT       SM0_FE
      000000B2H   SFRSYM    DATA     BYTE      CLKCON
      00000098H.5 SFRSYM    DATA     BIT       SM2_TXCOL
      000000B5H   SFRSYM    DATA     BYTE      LDOCON
      000000F0H   SFRSYM    DATA     BYTE      B
      000000C8H   SFRSYM    DATA     BIT       CP_RL2
      000000E0H   SFRSYM    DATA     BYTE      ACC
      000000A8H.4 SFRSYM    DATA     BIT       ES0
      000000A8H.1 SFRSYM    DATA     BIT       ET0
      000000A8H.3 SFRSYM    DATA     BIT       ET1
      00000088H.5 SFRSYM    DATA     BIT       TF0
      000000A8H.5 SFRSYM    DATA     BIT       ET2
      00000088H.7 SFRSYM    DATA     BIT       TF1
      000000D8H   SFRSYM    DATA     BIT       RI1
      00000098H.2 SFRSYM    DATA     BIT       RB8
      000000C8H.7 SFRSYM    DATA     BIT       TF2
      0000008CH   SFRSYM    DATA     BYTE      TH0
      00000086H   SFRSYM    DATA     BYTE      INSCON
      0000008DH   SFRSYM    DATA     BYTE      TH1
      000000D8H.1 SFRSYM    DATA     BIT       TI1
      00000098H.3 SFRSYM    DATA     BIT       TB8
      000000CDH   SFRSYM    DATA     BYTE      TH2
      000000D0H   SFRSYM    DATA     BIT       P
      0000008AH   SFRSYM    DATA     BYTE      TL0
      000000A8H   SFRSYM    DATA     BIT       EX4
      0000008BH   SFRSYM    DATA     BYTE      TL1
      000000A7H   SFRSYM    DATA     BYTE      FLASHCON
      000000CCH   SFRSYM    DATA     BYTE      TL2
      000000D0H.3 SFRSYM    DATA     BIT       RS0
      000000C5H   SFRSYM    DATA     BYTE      ADCDH
      00000088H.4 SFRSYM    DATA     BIT       TR0
      000000D0H.4 SFRSYM    DATA     BIT       RS1
      0000009FH   SFRSYM    DATA     BYTE      PWMCON
      00000088H.6 SFRSYM    DATA     BIT       TR1
      000000C8H.2 SFRSYM    DATA     BIT       TR2
      000000C4H   SFRSYM    DATA     BYTE      ADCDL
      000000C2H   SFRSYM    DATA     BYTE      ADT
      00000083H   SFRSYM    DATA     BYTE      DPH
      00000082H   SFRSYM    DATA     BYTE      DPL
      000000D9H   SFRSYM    DATA     BYTE      SBUF1
      000000C8H.3 SFRSYM    DATA     BIT       EXEN2
      000000F9H   SFRSYM    DATA     BYTE      SBUF2
      000000D8H.6 SFRSYM    DATA     BIT       SM11_RXOV1
      000000B8H.6 SFRSYM    DATA     BIT       PADCL
      00000098H.4 SFRSYM    DATA     BIT       REN
      000000D8H   SFRSYM    DATA     BYTE      SCON1
      000000D1H   SFRSYM    DATA     BYTE      LCDCON1
      000000C1H   SFRSYM    DATA     BYTE      ADCON
      000000F8H   SFRSYM    DATA     BYTE      SCON2
      0000008FH   SFRSYM    DATA     BYTE      TCON1
LX51 LINKER/LOCATER V4.66.41.0                                                        11/18/2021  18:51:21  PAGE 211


      000000D2H   SFRSYM    DATA     BYTE      LCDCON2
      00000092H   SFRSYM    DATA     BYTE      EDTAH
      000000C9H   SFRSYM    DATA     BYTE      T2MOD
      000000C8H   SFRSYM    DATA     BYTE      T2CON
      00000094H   SFRSYM    DATA     BYTE      EDTAL
      00000093H   SFRSYM    DATA     BYTE      EDTAM
      000000BCH   SFRSYM    DATA     BYTE      TK0DIFH
      0000009BH   SFRSYM    DATA     BYTE      SADEN
      000000BEH   SFRSYM    DATA     BYTE      TK1DIFH
      000000B6H   SFRSYM    DATA     BYTE      PBANK
      000000A5H   SFRSYM    DATA     BYTE      TK2DIFH
      000000A8H.6 SFRSYM    DATA     BIT       EADTP
      0000009AH   SFRSYM    DATA     BYTE      SADDR
      000000CFH   SFRSYM    DATA     BYTE      TK0DIFL
      000000BDH   SFRSYM    DATA     BYTE      TK1DIFL
      000000BFH   SFRSYM    DATA     BYTE      TK2DIFL
      000000B8H.2 SFRSYM    DATA     BIT       P7816L
      000000C6H   SFRSYM    DATA     BYTE      LPDCON1
      000000C7H   SFRSYM    DATA     BYTE      LPDCON2
      000000D0H.5 SFRSYM    DATA     BIT       F0
      000000AEH   SFRSYM    DATA     BYTE      IRDAT
      000000D0H.1 SFRSYM    DATA     BIT       F1
      00000096H   SFRSYM    DATA     BYTE      EMUIE
      0000009EH   SFRSYM    DATA     BYTE      SFINE
      000000F7H   SFRSYM    DATA     BYTE      XPAGE
      00000097H   SFRSYM    DATA     BYTE      EMUIF
      000000D0H   SFRSYM    DATA     BYTE      PSW
      000000D8H.2 SFRSYM    DATA     BIT       RB81
      000000A3H   SFRSYM    DATA     BYTE      SPDAT
      000000F2H   SFRSYM    DATA     BYTE      IB_CON1

      ---         MODULE    ---      ---       BLEDRV
      010012A4H   PUBLIC    CONST    ---       C_StrBle_MAP_TAB
      01001291H   PUBLIC    CONST    ---       C_cBlePayload_Head
      01002CECH   PUBLIC    CODE     ---       BleDrv_BleReset
      01002831H   PUBLIC    CODE     ---       _BleDrv_BleComm
      01002746H   PUBLIC    CODE     ---       BleDrv_SetBleRunPara
      01002D6AH   PUBLIC    CODE     ---       BleDrv_InitBleRunPara
      01002F53H   PUBLIC    CODE     ---       BleDrv_GetBleUartSta
      01002C16H   PUBLIC    CODE     ---       BleDrv_BleStatuChk
      01002BC8H   PUBLIC    CODE     ---       _BleDrv_BleParaChk
      01000066H   PUBLIC    CODE     ---       BleDrv_InitPwn
      01002F4AH   PUBLIC    CODE     ---       _BleDrv_GetBleTPL
      01002F43H   PUBLIC    CODE     ---       _BleDrv_CommGetBlePara
      01003F84H   PUBLIC    CODE     ---       _BleDrv_CommSetBlePara
      01003F30H   PUBLIC    CODE     ---       _BleDrv_SetBleTPL
      01003FDFH   PUBLIC    CODE     ---       _BleDrv_GetBleName
      01002F41H   PUBLIC    CODE     ---       _BleDrv_GetBleMac
      01003F26H   PUBLIC    CODE     ---       _BleDrv_SetBleMac
      010027C2H   PUBLIC    CODE     ---       BleDrv_SetBleStat
      0100005CH   PUBLIC    CODE     ---       BleDrv_GetBleStat
      01002DEEH   PUBLIC    CODE     ---       _BleDrv_GetBlePara
      01003EB0H   PUBLIC    CODE     ---       _BleDrv_SetBlePara
      000000F3H   SFRSYM    DATA     BYTE      IB_CON2
      000000D8H.3 SFRSYM    DATA     BIT       TB81
      00000080H   SFRSYM    DATA     BYTE      P0
      000000F4H   SFRSYM    DATA     BYTE      IB_CON3
      000000A4H   SFRSYM    DATA     BYTE      TKCON
      00000090H   SFRSYM    DATA     BYTE      P1
      000000F5H   SFRSYM    DATA     BYTE      IB_CON4
      000000E7H   SFRSYM    DATA     BYTE      PASLO
      000000A0H   SFRSYM    DATA     BYTE      P2
      000000FEH   SFRSYM    DATA     BYTE      OSCLO
      000000F6H   SFRSYM    DATA     BYTE      IB_CON5
      00000098H.6 SFRSYM    DATA     BIT       SM1_RXOV
LX51 LINKER/LOCATER V4.66.41.0                                                        11/18/2021  18:51:21  PAGE 212


      000000B0H   SFRSYM    DATA     BYTE      P3
      000000D0H.6 SFRSYM    DATA     BIT       AC
      000000C0H   SFRSYM    DATA     BYTE      P4
      000000A1H   SFRSYM    DATA     BYTE      SPCON
      0000009CH   SFRSYM    DATA     BYTE      SBRTH
      000000E9H   SFRSYM    DATA     BYTE      P5
      000000A8H.7 SFRSYM    DATA     BIT       EA
      000000EAH   SFRSYM    DATA     BYTE      P6
      000000EBH   SFRSYM    DATA     BYTE      P7
      000000EFH   SFRSYM    DATA     BYTE      IB_DATA
      000000ECH   SFRSYM    DATA     BYTE      P8
      0000009DH   SFRSYM    DATA     BYTE      SBRTL
      000000EDH   SFRSYM    DATA     BYTE      P9
      000000B7H   SFRSYM    DATA     BYTE      PBANKLO
      000000A2H   SFRSYM    DATA     BYTE      SPSTA
      000000A8H   SFRSYM    DATA     BYTE      IEN0
      000000B3H   SFRSYM    DATA     BYTE      PWRCON1
      00000095H   SFRSYM    DATA     BYTE      EMUSR
      000000A9H   SFRSYM    DATA     BYTE      IEN1
      000000B4H   SFRSYM    DATA     BYTE      PWRCON2
      00000085H   SFRSYM    DATA     BYTE      DPH1
      00000080H   SFRSYM    DATA     BIT       P0_0
      00000090H   SFRSYM    DATA     BIT       P1_0
      00000080H.1 SFRSYM    DATA     BIT       P0_1
      000000C3H   SFRSYM    DATA     BYTE      ADCH
      000000A0H   SFRSYM    DATA     BIT       P2_0
      00000090H.1 SFRSYM    DATA     BIT       P1_1
      00000080H.2 SFRSYM    DATA     BIT       P0_2
      000000BAH   SFRSYM    DATA     BYTE      IPH0
      00000084H   SFRSYM    DATA     BYTE      DPL1
      000000B0H   SFRSYM    DATA     BIT       P3_0
      000000A0H.1 SFRSYM    DATA     BIT       P2_1
      00000090H.2 SFRSYM    DATA     BIT       P1_2
      00000080H.3 SFRSYM    DATA     BIT       P0_3
      000000BBH   SFRSYM    DATA     BYTE      IPH1
      000000C0H   SFRSYM    DATA     BIT       P4_0
      000000B0H.1 SFRSYM    DATA     BIT       P3_1
      000000A0H.2 SFRSYM    DATA     BIT       P2_2
      00000090H.3 SFRSYM    DATA     BIT       P1_3
      00000080H.4 SFRSYM    DATA     BIT       P0_4
      000000E8H   SFRSYM    DATA     BYTE      EXF0
      000000C0H.1 SFRSYM    DATA     BIT       P4_1
      000000B0H.2 SFRSYM    DATA     BIT       P3_2
      000000A0H.3 SFRSYM    DATA     BIT       P2_3
      00000090H.4 SFRSYM    DATA     BIT       P1_4
      00000080H.5 SFRSYM    DATA     BIT       P0_5
      000000C0H.2 SFRSYM    DATA     BIT       P4_2
      000000B0H.3 SFRSYM    DATA     BIT       P3_3
      000000A0H.4 SFRSYM    DATA     BIT       P2_4
      00000090H.5 SFRSYM    DATA     BIT       P1_5
      00000080H.6 SFRSYM    DATA     BIT       P0_6
      000000C8H.6 SFRSYM    DATA     BIT       EXF2
      000000A6H   SFRSYM    DATA     BYTE      TKF0
      000000B8H   SFRSYM    DATA     BYTE      IPL0
      000000C0H.3 SFRSYM    DATA     BIT       P4_3
      000000B0H.4 SFRSYM    DATA     BIT       P3_4
      000000A0H.5 SFRSYM    DATA     BIT       P2_5
      00000090H.6 SFRSYM    DATA     BIT       P1_6
      00000080H.7 SFRSYM    DATA     BIT       P0_7
      000000D8H.4 SFRSYM    DATA     BIT       REN1
      000000B9H   SFRSYM    DATA     BYTE      IPL1
      000000C0H.4 SFRSYM    DATA     BIT       P4_4
      000000B0H.5 SFRSYM    DATA     BIT       P3_5
      000000A0H.6 SFRSYM    DATA     BIT       P2_6
      00000090H.7 SFRSYM    DATA     BIT       P1_7
LX51 LINKER/LOCATER V4.66.41.0                                                        11/18/2021  18:51:21  PAGE 213


      000000E2H   SFRSYM    DATA     BYTE      TK0H
      0000008EH   SFRSYM    DATA     BYTE      SUSLO
      000000C0H.5 SFRSYM    DATA     BIT       P4_5
      000000B0H.6 SFRSYM    DATA     BIT       P3_6
      000000A0H.7 SFRSYM    DATA     BIT       P2_7
      000000E4H   SFRSYM    DATA     BYTE      TK1H
      000000C0H.6 SFRSYM    DATA     BIT       P4_6
      000000B0H.7 SFRSYM    DATA     BIT       P3_7
      000000E6H   SFRSYM    DATA     BYTE      TK2H
      000000C0H.7 SFRSYM    DATA     BIT       P4_7
      00000098H   SFRSYM    DATA     BIT       RI
      000000A8H.2 SFRSYM    DATA     BIT       E7816
      000000D0H.7 SFRSYM    DATA     BIT       CY
      000000E1H   SFRSYM    DATA     BYTE      TK0L
      00000098H.1 SFRSYM    DATA     BIT       TI
      00000091H   SFRSYM    DATA     BYTE      EADR
      000000E3H   SFRSYM    DATA     BYTE      TK1L
      000000E5H   SFRSYM    DATA     BYTE      TK2L
      000000DBH   SFRSYM    DATA     BYTE      SADEN1
      000000D8H.7 SFRSYM    DATA     BIT       SM10_FE1
      000000FBH   SFRSYM    DATA     BYTE      SADEN2
      000000B8H.4 SFRSYM    DATA     BIT       PS0L
      000000B8H.1 SFRSYM    DATA     BIT       PT0L
      000000DAH   SFRSYM    DATA     BYTE      SADDR1
      000000D8H.5 SFRSYM    DATA     BIT       SM12_TXCOL1
      000000B8H.3 SFRSYM    DATA     BIT       PT1L
      000000FAH   SFRSYM    DATA     BYTE      SADDR2
      000000CBH   SFRSYM    DATA     BYTE      RCAP2H
      000000B8H.5 SFRSYM    DATA     BIT       PT2L
      00000081H   SFRSYM    DATA     BYTE      SP
      000000D0H.2 SFRSYM    DATA     BIT       OV
      000000CAH   SFRSYM    DATA     BYTE      RCAP2L
      000000B8H   SFRSYM    DATA     BIT       PX4L
      000000C8H.1 SFRSYM    DATA     BIT       C_T2
      000000DEH   SFRSYM    DATA     BYTE      SFINE2
      000000ADH   SFRSYM    DATA     BYTE      IRCON1
      000000AFH   SFRSYM    DATA     BYTE      IRCON2
      000000ABH   SFRSYM    DATA     BYTE      EXCON1
      00000099H   SFRSYM    DATA     BYTE      SBUF
      000000ACH   SFRSYM    DATA     BYTE      EXCON2
      00000087H   SFRSYM    DATA     BYTE      PCON
      000000F1H   SFRSYM    DATA     BYTE      AUXC
      00000098H   SFRSYM    DATA     BYTE      SCON
      000000D4H   SFRSYM    DATA     BYTE      TK0BASEH
      00000089H   SFRSYM    DATA     BYTE      TMOD
      00000088H   SFRSYM    DATA     BYTE      TCON
      000000AAH   SFRSYM    DATA     BYTE      IENX
      000000EEH   SFRSYM    DATA     BYTE      IB_OFFSET
      000000D6H   SFRSYM    DATA     BYTE      TK1BASEH
      000000DCH   SFRSYM    DATA     BYTE      SBRT1H
      000000DFH   SFRSYM    DATA     BYTE      TK2BASEH
      000000FCH   SFRSYM    DATA     BYTE      SBRT2H
      000000B1H   SFRSYM    DATA     BYTE      RSTSTAT
      000000D3H   SFRSYM    DATA     BYTE      TK0BASEL
      000000D5H   SFRSYM    DATA     BYTE      TK1BASEL
      000000DDH   SFRSYM    DATA     BYTE      SBRT1L
      000000D7H   SFRSYM    DATA     BYTE      TK2BASEL
      000000FDH   SFRSYM    DATA     BYTE      SBRT2L
      00000098H.7 SFRSYM    DATA     BIT       SM0_FE
      000000B2H   SFRSYM    DATA     BYTE      CLKCON
      00000098H.5 SFRSYM    DATA     BIT       SM2_TXCOL
      000000B5H   SFRSYM    DATA     BYTE      LDOCON
      000000F0H   SFRSYM    DATA     BYTE      B
      000000C8H   SFRSYM    DATA     BIT       CP_RL2
      000000E0H   SFRSYM    DATA     BYTE      ACC
LX51 LINKER/LOCATER V4.66.41.0                                                        11/18/2021  18:51:21  PAGE 214


      000000A8H.4 SFRSYM    DATA     BIT       ES0
      000000A8H.1 SFRSYM    DATA     BIT       ET0
      000000A8H.3 SFRSYM    DATA     BIT       ET1
      00000088H.5 SFRSYM    DATA     BIT       TF0
      000000A8H.5 SFRSYM    DATA     BIT       ET2
      00000088H.7 SFRSYM    DATA     BIT       TF1
      000000D8H   SFRSYM    DATA     BIT       RI1
      00000098H.2 SFRSYM    DATA     BIT       RB8
      000000C8H.7 SFRSYM    DATA     BIT       TF2
      0000008CH   SFRSYM    DATA     BYTE      TH0
      00000086H   SFRSYM    DATA     BYTE      INSCON
      0000008DH   SFRSYM    DATA     BYTE      TH1
      000000D8H.1 SFRSYM    DATA     BIT       TI1
      00000098H.3 SFRSYM    DATA     BIT       TB8
      000000CDH   SFRSYM    DATA     BYTE      TH2
      000000D0H   SFRSYM    DATA     BIT       P
      0000008AH   SFRSYM    DATA     BYTE      TL0
      000000A8H   SFRSYM    DATA     BIT       EX4
      0000008BH   SFRSYM    DATA     BYTE      TL1
      000000A7H   SFRSYM    DATA     BYTE      FLASHCON
      000000CCH   SFRSYM    DATA     BYTE      TL2
      000000D0H.3 SFRSYM    DATA     BIT       RS0
      000000C5H   SFRSYM    DATA     BYTE      ADCDH
      00000088H.4 SFRSYM    DATA     BIT       TR0
      000000D0H.4 SFRSYM    DATA     BIT       RS1
      0000009FH   SFRSYM    DATA     BYTE      PWMCON
      00000088H.6 SFRSYM    DATA     BIT       TR1
      000000C8H.2 SFRSYM    DATA     BIT       TR2
      000000C4H   SFRSYM    DATA     BYTE      ADCDL
      000000C2H   SFRSYM    DATA     BYTE      ADT
      00000083H   SFRSYM    DATA     BYTE      DPH
      00000082H   SFRSYM    DATA     BYTE      DPL
      000000D9H   SFRSYM    DATA     BYTE      SBUF1
      000000C8H.3 SFRSYM    DATA     BIT       EXEN2
      000000F9H   SFRSYM    DATA     BYTE      SBUF2
      000000D8H.6 SFRSYM    DATA     BIT       SM11_RXOV1
      000000B8H.6 SFRSYM    DATA     BIT       PADCL
      00000098H.4 SFRSYM    DATA     BIT       REN
      000000D8H   SFRSYM    DATA     BYTE      SCON1
      000000D1H   SFRSYM    DATA     BYTE      LCDCON1
      000000C1H   SFRSYM    DATA     BYTE      ADCON
      000000F8H   SFRSYM    DATA     BYTE      SCON2
      0000008FH   SFRSYM    DATA     BYTE      TCON1
      000000D2H   SFRSYM    DATA     BYTE      LCDCON2
      00000092H   SFRSYM    DATA     BYTE      EDTAH
      000000C9H   SFRSYM    DATA     BYTE      T2MOD
      000000C8H   SFRSYM    DATA     BYTE      T2CON
      00000094H   SFRSYM    DATA     BYTE      EDTAL
      00000093H   SFRSYM    DATA     BYTE      EDTAM
      000000BCH   SFRSYM    DATA     BYTE      TK0DIFH
      0000009BH   SFRSYM    DATA     BYTE      SADEN
      000000BEH   SFRSYM    DATA     BYTE      TK1DIFH
      000000B6H   SFRSYM    DATA     BYTE      PBANK
      000000A5H   SFRSYM    DATA     BYTE      TK2DIFH
      000000A8H.6 SFRSYM    DATA     BIT       EADTP
      0000009AH   SFRSYM    DATA     BYTE      SADDR
      000000CFH   SFRSYM    DATA     BYTE      TK0DIFL
      000000BDH   SFRSYM    DATA     BYTE      TK1DIFL
      000000BFH   SFRSYM    DATA     BYTE      TK2DIFL
      000000B8H.2 SFRSYM    DATA     BIT       P7816L
      000000C6H   SFRSYM    DATA     BYTE      LPDCON1
      000000C7H   SFRSYM    DATA     BYTE      LPDCON2
      000000D0H.5 SFRSYM    DATA     BIT       F0
      000000AEH   SFRSYM    DATA     BYTE      IRDAT
      000000D0H.1 SFRSYM    DATA     BIT       F1
LX51 LINKER/LOCATER V4.66.41.0                                                        11/18/2021  18:51:21  PAGE 215


      00000096H   SFRSYM    DATA     BYTE      EMUIE
      0000009EH   SFRSYM    DATA     BYTE      SFINE
      000000F7H   SFRSYM    DATA     BYTE      XPAGE
      00000097H   SFRSYM    DATA     BYTE      EMUIF
      000000D0H   SFRSYM    DATA     BYTE      PSW
      000000D8H.2 SFRSYM    DATA     BIT       RB81
      000000A3H   SFRSYM    DATA     BYTE      SPDAT
      000000F2H   SFRSYM    DATA     BYTE      IB_CON1
      010012D5H   SYMBOL    CONST    ---       _?ix1000
      01001339H   SYMBOL    CONST    ---       _?ix1001
      0100139DH   SYMBOL    CONST    ---       _?ix1002
      010013C5H   SYMBOL    CONST    ---       _?ix1003
      01002831H   SYMBOL    CODE     ---       _BleDrv_BleComm
      010013DEH   SYMBOL    CONST    ---       _?ix1004
      010013E3H   SYMBOL    CONST    ---       _?ix1005
      01001406H   SYMBOL    CONST    ---       _?ix1006
      0100146AH   SYMBOL    CONST    ---       _?ix1007
      01001483H   SYMBOL    CONST    ---       _?ix1008
      01002DE6H   SYMBOL    CODE     ---       _BleDrv_GetBlePara
      01003EB0H   SYMBOL    CODE     ---       _BleDrv_SetBlePara

      01003EB0H   BLOCK     CODE     ---       LVL=0
      01003EB0H   LINE      ---      ---       #144
      01003EBEH   LINE      ---      ---       #145
      02000692H   SYMBOL    XDATA    BYTE      V_ucCmdIndex
      02000693H   SYMBOL    XDATA    ---       p_ucDataBuf
      02000696H   SYMBOL    XDATA    BYTE      v_ucLen
      01003EBEH   BLOCK     CODE     NEAR LAB  LVL=1
      01003EBEH   LINE      ---      ---       #146
      01003ED1H   LINE      ---      ---       #147
      01003EDFH   LINE      ---      ---       #148
      01003EE3H   LINE      ---      ---       #150
      01003EEAH   LINE      ---      ---       #151
      01003EEAH   LINE      ---      ---       #152
      01003F09H   LINE      ---      ---       #153
      01003F09H   LINE      ---      ---       #155
      01003F1CH   LINE      ---      ---       #156
      01003F1CH   LINE      ---      ---       #157
      01003F20H   LINE      ---      ---       #158
      01003F20H   LINE      ---      ---       #160
      01003F25H   LINE      ---      ---       #161
      02000697H   SYMBOL    XDATA    ---       V_ucTempBuff
      020006FBH   SYMBOL    XDATA    ---       P_ucDataEcho
      020006FEH   SYMBOL    XDATA    BYTE      V_ucResult
      ---         BLOCKEND  CODE     ---       LVL=1
      ---         BLOCKEND  CODE     ---       LVL=0

      01002DE6H   BLOCK     CODE     ---       LVL=0
      01002DEEH   LINE      ---      ---       #174
      01002DFCH   LINE      ---      ---       #175
      02000670H   SYMBOL    XDATA    BYTE      V_ucCmdIndex
      02000671H   SYMBOL    XDATA    ---       p_ucDataBuf
      02000674H   SYMBOL    XDATA    BYTE      v_ucLen
      01002DFCH   BLOCK     CODE     NEAR LAB  LVL=1
      01002DFCH   LINE      ---      ---       #176
      01002E0FH   LINE      ---      ---       #177
      01002E15H   LINE      ---      ---       #179
      01002E27H   LINE      ---      ---       #180
      01002E27H   LINE      ---      ---       #181
      01002E4DH   LINE      ---      ---       #182
      01002E52H   LINE      ---      ---       #183
      01002E52H   LINE      ---      ---       #185
      01002E57H   LINE      ---      ---       #186
      02000675H   SYMBOL    XDATA    ---       V_ucTempBuff
      020006D9H   SYMBOL    XDATA    BYTE      V_ucResult
LX51 LINKER/LOCATER V4.66.41.0                                                        11/18/2021  18:51:21  PAGE 216


      ---         BLOCKEND  CODE     ---       LVL=1
      ---         BLOCKEND  CODE     ---       LVL=0

      0100005CH   BLOCK     CODE     ---       LVL=0
      0100005CH   LINE      ---      ---       #196
      0100005CH   LINE      ---      ---       #197
      0100005CH   LINE      ---      ---       #198
      01000061H   LINE      ---      ---       #199
      ---         BLOCKEND  ---      ---       LVL=0

      010027C2H   BLOCK     CODE     ---       LVL=0
      010027C2H   LINE      ---      ---       #213
      010027C2H   LINE      ---      ---       #214
      010027C2H   BLOCK     CODE     NEAR LAB  LVL=1
      010027C2H   LINE      ---      ---       #215
      010027D5H   LINE      ---      ---       #216
      010027DBH   LINE      ---      ---       #218
      010027F3H   LINE      ---      ---       #219
      0100280EH   LINE      ---      ---       #221
      0100281DH   LINE      ---      ---       #222
      0100281DH   LINE      ---      ---       #223
      01002821H   LINE      ---      ---       #224
      01002826H   LINE      ---      ---       #225
      0100282BH   LINE      ---      ---       #226
      0100282BH   LINE      ---      ---       #227
      01002830H   LINE      ---      ---       #228
      02000689H   SYMBOL    XDATA    ---       V_ucTempBuff
      020006B1H   SYMBOL    XDATA    BYTE      V_ucResult
      ---         BLOCKEND  CODE     ---       LVL=1
      ---         BLOCKEND  CODE     ---       LVL=0

      01003F26H   BLOCK     CODE     ---       LVL=0
      01003F26H   LINE      ---      ---       #242
      01003F26H   LINE      ---      ---       #243
      01003F26H   LINE      ---      ---       #244
      00000001H   SYMBOL    DATA     ---       p_ucDataBuf
      ---         BLOCKEND  ---      ---       LVL=0

      01002F3DH   BLOCK     CODE     ---       LVL=0
      01002F41H   LINE      ---      ---       #258
      01002F41H   LINE      ---      ---       #259
      01002F41H   LINE      ---      ---       #260
      00000001H   SYMBOL    DATA     ---       p_ucDataBuf
      ---         BLOCKEND  ---      ---       LVL=0

      01003FDFH   BLOCK     CODE     ---       LVL=0
      01003FDFH   LINE      ---      ---       #322
      01003FEAH   LINE      ---      ---       #323
      02000634H   SYMBOL    XDATA    ---       p_ucDataBuf
      01003FEAH   BLOCK     CODE     NEAR LAB  LVL=1
      01003FEAH   LINE      ---      ---       #324
      01003FEEH   LINE      ---      ---       #325
      01004000H   LINE      ---      ---       #327
      0100400EH   LINE      ---      ---       #329
      01004010H   LINE      ---      ---       #330
      01004010H   LINE      ---      ---       #331
      01004032H   LINE      ---      ---       #332
      01004032H   LINE      ---      ---       #333
      01004037H   LINE      ---      ---       #334
      02000637H   SYMBOL    XDATA    BYTE      V_ucReasult
      02000638H   SYMBOL    XDATA    ---       V_ucTempBuff
      ---         BLOCKEND  CODE     ---       LVL=1
      ---         BLOCKEND  CODE     ---       LVL=0

      01003F30H   BLOCK     CODE     ---       LVL=0
LX51 LINKER/LOCATER V4.66.41.0                                                        11/18/2021  18:51:21  PAGE 217


      01003F30H   LINE      ---      ---       #434
      01003F3BH   LINE      ---      ---       #435
      02000689H   SYMBOL    XDATA    ---       p_ucDataBuf
      01003F3BH   BLOCK     CODE     NEAR LAB  LVL=1
      01003F3BH   LINE      ---      ---       #436
      01003F3FH   LINE      ---      ---       #437
      01003F51H   LINE      ---      ---       #439
      01003F75H   LINE      ---      ---       #440
      0200068CH   SYMBOL    XDATA    BYTE      V_ucLen
      0200068DH   SYMBOL    XDATA    ---       V_ucTempBuff
      ---         BLOCKEND  CODE     ---       LVL=1
      ---         BLOCKEND  CODE     ---       LVL=0

      01003F84H   BLOCK     CODE     ---       LVL=0
      01003F84H   LINE      ---      ---       #456
      01003F95H   LINE      ---      ---       #457
      02000634H   SYMBOL    XDATA    BYTE      v_ucComIndex
      02000635H   SYMBOL    XDATA    BYTE      v_ucLen
      02000636H   SYMBOL    XDATA    ---       p_ucDataBuf
      01003F95H   BLOCK     CODE     NEAR LAB  LVL=1
      01003F95H   LINE      ---      ---       #458
      01003FA8H   LINE      ---      ---       #460
      01003FCCH   LINE      ---      ---       #462
      02000639H   SYMBOL    XDATA    ---       V_ucTempBuff
      ---         BLOCKEND  CODE     ---       LVL=1
      ---         BLOCKEND  CODE     ---       LVL=0

      01002F43H   BLOCK     CODE     ---       LVL=0
      01002F43H   LINE      ---      ---       #478
      01002F43H   LINE      ---      ---       #479
      01002F43H   LINE      ---      ---       #480
      00000007H   SYMBOL    DATA     BYTE      v_ucComIndex
      00000005H   SYMBOL    DATA     BYTE      v_ucLen
      00000001H   SYMBOL    DATA     ---       p_ucDataBuf
      ---         BLOCKEND  ---      ---       LVL=0

      01002F4AH   BLOCK     CODE     ---       LVL=0
      01002F4AH   LINE      ---      ---       #495
      01002F4AH   LINE      ---      ---       #496
      01002F4AH   LINE      ---      ---       #497
      00000001H   SYMBOL    DATA     ---       p_ucDataBuf
      ---         BLOCKEND  ---      ---       LVL=0

      01000066H   BLOCK     CODE     ---       LVL=0
      01000066H   LINE      ---      ---       #560
      01000066H   LINE      ---      ---       #561
      01000066H   LINE      ---      ---       #565
      0100006BH   LINE      ---      ---       #569
      0100006EH   LINE      ---      ---       #573
      ---         BLOCKEND  ---      ---       LVL=0

      01002BC8H   BLOCK     CODE     ---       LVL=0
      01002BC8H   LINE      ---      ---       #587
      01002BCDH   LINE      ---      ---       #588
      0200060AH   SYMBOL    XDATA    BYTE      v_ucMode
      01002BCDH   BLOCK     CODE     NEAR LAB  LVL=1
      01002BCDH   LINE      ---      ---       #589
      01002BD0H   LINE      ---      ---       #595
      01002BF2H   LINE      ---      ---       #597
      01002BF2H   LINE      ---      ---       #598
      01002C03H   LINE      ---      ---       #599
      01002C03H   LINE      ---      ---       #600
      01002C09H   LINE      ---      ---       #601
      01002C09H   LINE      ---      ---       #604
      01002C0BH   LINE      ---      ---       #605
LX51 LINKER/LOCATER V4.66.41.0                                                        11/18/2021  18:51:21  PAGE 218


      01002C0DH   LINE      ---      ---       #606
      01002C10H   LINE      ---      ---       #607
      01002C10H   LINE      ---      ---       #609
      01002C15H   LINE      ---      ---       #610
      0200060BH   SYMBOL    XDATA    BYTE      V_ucResult
      ---         BLOCKEND  CODE     ---       LVL=1
      ---         BLOCKEND  CODE     ---       LVL=0

      01002C16H   BLOCK     CODE     ---       LVL=0
      01002C16H   LINE      ---      ---       #623
      01002C16H   LINE      ---      ---       #624
      01002C16H   BLOCK     CODE     NEAR LAB  LVL=1
      01002C16H   LINE      ---      ---       #625
      01002C1CH   LINE      ---      ---       #626
      01002C2EH   LINE      ---      ---       #627
      01002C33H   LINE      ---      ---       #629
      01002C3BH   LINE      ---      ---       #631
      01002C3BH   LINE      ---      ---       #633
      01002C49H   LINE      ---      ---       #634
      01002C49H   LINE      ---      ---       #635
      01002C49H   LINE      ---      ---       #636
      01002C49H   LINE      ---      ---       #638
      01002C4CH   LINE      ---      ---       #639
      01002C4CH   LINE      ---      ---       #640
      01002C50H   LINE      ---      ---       #641
      01002C53H   LINE      ---      ---       #642
      01002C55H   LINE      ---      ---       #643
      01002C5DH   LINE      ---      ---       #644
      01002C5DH   LINE      ---      ---       #645
      01002C62H   LINE      ---      ---       #647
      01002C6BH   LINE      ---      ---       #648
      01002C6BH   LINE      ---      ---       #649
      01002C6BH   LINE      ---      ---       #650
      01002C6BH   LINE      ---      ---       #651
      01002C6DH   LINE      ---      ---       #652
      01002C71H   LINE      ---      ---       #653
      01002C71H   LINE      ---      ---       #654
      01002C83H   LINE      ---      ---       #656
      01002C83H   LINE      ---      ---       #657
      01002C85H   LINE      ---      ---       #658
      01002C8BH   LINE      ---      ---       #659
      01002C8BH   LINE      ---      ---       #660
      01002C8BH   LINE      ---      ---       #663
      01002C95H   LINE      ---      ---       #664
      01002C95H   LINE      ---      ---       #665
      01002C95H   LINE      ---      ---       #666
      01002C95H   LINE      ---      ---       #669
      01002CA0H   LINE      ---      ---       #670
      01002CA0H   LINE      ---      ---       #671
      01002CAEH   LINE      ---      ---       #672
      01002CAEH   LINE      ---      ---       #673
      01002CD4H   LINE      ---      ---       #674
      01002CD4H   LINE      ---      ---       #675
      01002CDCH   LINE      ---      ---       #676
      01002CE2H   LINE      ---      ---       #677
      01002CE2H   LINE      ---      ---       #678
      01002CE2H   LINE      ---      ---       #679
      01002CE2H   LINE      ---      ---       #680
      01002CE2H   LINE      ---      ---       #681
      01002CE2H   LINE      ---      ---       #682
      01002CE4H   LINE      ---      ---       #684
      01002CE4H   LINE      ---      ---       #685
      01002CE6H   LINE      ---      ---       #686
      01002CE8H   LINE      ---      ---       #687
      01002CEBH   LINE      ---      ---       #688
LX51 LINKER/LOCATER V4.66.41.0                                                        11/18/2021  18:51:21  PAGE 219


      01002CEBH   LINE      ---      ---       #689
      01002CEBH   LINE      ---      ---       #690
      0200060AH   SYMBOL    XDATA    BYTE      V_ucBleStatus
      0200060BH   SYMBOL    XDATA    ---       p_ucDataBuf
      0200066FH   SYMBOL    XDATA    BYTE      i
      ---         BLOCKEND  CODE     ---       LVL=1
      ---         BLOCKEND  CODE     ---       LVL=0

      01002F53H   BLOCK     CODE     ---       LVL=0
      01002F53H   LINE      ---      ---       #701
      01002F53H   LINE      ---      ---       #702
      01002F53H   LINE      ---      ---       #703
      01002F60H   LINE      ---      ---       #705
      01002F60H   LINE      ---      ---       #706
      01002F63H   LINE      ---      ---       #707
      01002F63H   LINE      ---      ---       #708
      01002F65H   LINE      ---      ---       #709
      ---         BLOCKEND  ---      ---       LVL=0

      01002D6AH   BLOCK     CODE     ---       LVL=0
      01002D6AH   LINE      ---      ---       #721
      01002D6AH   LINE      ---      ---       #722
      01002D6AH   LINE      ---      ---       #725
      01002D85H   LINE      ---      ---       #730
      01002D9FH   LINE      ---      ---       #734
      01002DA4H   LINE      ---      ---       #735
      01002DA6H   LINE      ---      ---       #736
      01002DA8H   LINE      ---      ---       #740
      01002DAEH   LINE      ---      ---       #751
      01002DB1H   LINE      ---      ---       #753
      ---         BLOCKEND  ---      ---       LVL=0

      01002746H   BLOCK     CODE     ---       LVL=0
      01002746H   LINE      ---      ---       #766
      01002746H   LINE      ---      ---       #767
      01002746H   BLOCK     CODE     NEAR LAB  LVL=1
      01002746H   LINE      ---      ---       #768
      01002759H   LINE      ---      ---       #774
      01002774H   LINE      ---      ---       #775
      0100278EH   LINE      ---      ---       #776
      010027A8H   LINE      ---      ---       #777
      010027B1H   LINE      ---      ---       #779
      010027B9H   LINE      ---      ---       #782
      02000670H   SYMBOL    XDATA    ---       V_ucTempBufA
      ---         BLOCKEND  CODE     ---       LVL=1
      ---         BLOCKEND  CODE     ---       LVL=0

      01002831H   BLOCK     CODE     ---       LVL=0
      01002831H   LINE      ---      ---       #846
      01002842H   LINE      ---      ---       #847
      020006FFH   SYMBOL    XDATA    BYTE      v_ucOptIndex
      02000700H   SYMBOL    XDATA    BYTE      C_cBleCmd
      02000701H   SYMBOL    XDATA    ---       p_ucDataBuff
      01002842H   BLOCK     CODE     NEAR LAB  LVL=1
      01002842H   LINE      ---      ---       #848
      01002848H   LINE      ---      ---       #849
      01002851H   LINE      ---      ---       #850
      01002863H   LINE      ---      ---       #851
      01002871H   LINE      ---      ---       #857
      01002878H   LINE      ---      ---       #858
      01002878H   LINE      ---      ---       #859
      0100287AH   LINE      ---      ---       #860
      0100287AH   LINE      ---      ---       #862
      0100287FH   LINE      ---      ---       #863
      0100287FH   LINE      ---      ---       #864
LX51 LINKER/LOCATER V4.66.41.0                                                        11/18/2021  18:51:21  PAGE 220


      01002882H   LINE      ---      ---       #865
      01002882H   LINE      ---      ---       #867
      01002882H   LINE      ---      ---       #869
      01002891H   LINE      ---      ---       #870
      01002891H   LINE      ---      ---       #871
      010028ABH   LINE      ---      ---       #872
      010028ABH   LINE      ---      ---       #873
      010028C6H   LINE      ---      ---       #874
      010028DAH   LINE      ---      ---       #875
      010028DCH   LINE      ---      ---       #876
      010028DCH   LINE      ---      ---       #877
      010028E4H   LINE      ---      ---       #878
      010028EFH   LINE      ---      ---       #879
      010028EFH   LINE      ---      ---       #880
      010028EFH   LINE      ---      ---       #881
      010028EFH   LINE      ---      ---       #884
      010028F4H   LINE      ---      ---       #885
      010028F4H   LINE      ---      ---       #887
      010028FDH   LINE      ---      ---       #888
      010028FDH   LINE      ---      ---       #889
      010028FDH   LINE      ---      ---       #890
      010028FDH   LINE      ---      ---       #892
      01002904H   LINE      ---      ---       #893
      0100290BH   LINE      ---      ---       #894
      0100290BH   LINE      ---      ---       #895
      01002911H   LINE      ---      ---       #896
      01002911H   LINE      ---      ---       #898
      01002925H   LINE      ---      ---       #899
      0100292BH   LINE      ---      ---       #900
      01002933H   LINE      ---      ---       #901
      01002936H   LINE      ---      ---       #902
      01002949H   LINE      ---      ---       #903
      0100294EH   LINE      ---      ---       #904
      01002950H   LINE      ---      ---       #905
      01002954H   LINE      ---      ---       #906
      0100295CH   LINE      ---      ---       #907
      01002974H   LINE      ---      ---       #908
      0100298CH   LINE      ---      ---       #909
      010029A4H   LINE      ---      ---       #910
      010029AFH   LINE      ---      ---       #911
      010029D5H   LINE      ---      ---       #912
      010029F4H   LINE      ---      ---       #913
      01002A01H   LINE      ---      ---       #915
      01002A08H   LINE      ---      ---       #918
      01002A0DH   LINE      ---      ---       #919
      01002A10H   LINE      ---      ---       #922
      01002A23H   LINE      ---      ---       #923
      01002A23H   LINE      ---      ---       #924
      01002A2FH   LINE      ---      ---       #925
      01002A32H   LINE      ---      ---       #926
      01002A32H   LINE      ---      ---       #927
      01002A34H   LINE      ---      ---       #928
      01002A36H   LINE      ---      ---       #930
      01002A36H   LINE      ---      ---       #931
      01002A38H   LINE      ---      ---       #932
      01002A38H   LINE      ---      ---       #933
      01002A3AH   LINE      ---      ---       #934
      01002A41H   LINE      ---      ---       #935
      01002A41H   LINE      ---      ---       #936
      01002A44H   LINE      ---      ---       #937
      01002A44H   LINE      ---      ---       #938
      01002A46H   LINE      ---      ---       #939
      01002A48H   LINE      ---      ---       #940
      01002A48H   LINE      ---      ---       #941
      01002A4BH   LINE      ---      ---       #942
LX51 LINKER/LOCATER V4.66.41.0                                                        11/18/2021  18:51:21  PAGE 221


      01002A68H   LINE      ---      ---       #943
      01002A77H   LINE      ---      ---       #944
      01002A77H   LINE      ---      ---       #945
      01002A77H   LINE      ---      ---       #946
      01002A77H   LINE      ---      ---       #947
      01002A7FH   LINE      ---      ---       #950
      01002A82H   LINE      ---      ---       #951
      01002A85H   LINE      ---      ---       #953
      01002A8BH   LINE      ---      ---       #956
      01002A9DH   LINE      ---      ---       #957
      01002A9DH   LINE      ---      ---       #958
      01002AB4H   LINE      ---      ---       #959
      01002AB4H   LINE      ---      ---       #960
      01002AB7H   LINE      ---      ---       #961
      01002AB7H   LINE      ---      ---       #962
      01002AB9H   LINE      ---      ---       #963
      01002AC9H   LINE      ---      ---       #965
      01002ACEH   LINE      ---      ---       #966
      01002AD0H   LINE      ---      ---       #967
      01002AD0H   LINE      ---      ---       #968
      01002AE0H   LINE      ---      ---       #969
      01002AE9H   LINE      ---      ---       #970
      01002AE9H   LINE      ---      ---       #971
      01002AE9H   LINE      ---      ---       #972
      01002AE9H   LINE      ---      ---       #973
      01002AF1H   LINE      ---      ---       #974
      01002AF7H   LINE      ---      ---       #975
      01002AF7H   LINE      ---      ---       #976
      01002AFBH   LINE      ---      ---       #977
      01002B01H   LINE      ---      ---       #978
      01002B01H   LINE      ---      ---       #980
      01002B07H   LINE      ---      ---       #981
      01002B07H   LINE      ---      ---       #982
      01002B3CH   LINE      ---      ---       #983
      01002B3CH   LINE      ---      ---       #987
      01002B4AH   LINE      ---      ---       #988
      01002B4AH   LINE      ---      ---       #991
      01002B4FH   LINE      ---      ---       #992
      02000704H   SYMBOL    XDATA    BYTE      V_ucResult
      02000705H   SYMBOL    XDATA    BYTE      V_ucRxFlg
      02000706H   SYMBOL    XDATA    BYTE      V_ucCnti
      02000707H   SYMBOL    XDATA    BYTE      V_ucCntk
      02000708H   SYMBOL    XDATA    BYTE      V_ucLen
      02000709H   SYMBOL    XDATA    BYTE      v_ucLen
      0200070AH   SYMBOL    XDATA    ---       V_ucTempDataBuf
      0200076EH   SYMBOL    XDATA    ---       P_ucTempDataBuf
      02000771H   SYMBOL    XDATA    BYTE      V_ucIndex
      02000772H   SYMBOL    XDATA    WORD      V_usCntj
      02000774H   SYMBOL    XDATA    DWORD     V_ucDataId
      ---         BLOCKEND  CODE     ---       LVL=1
      ---         BLOCKEND  CODE     ---       LVL=0

      01002CECH   BLOCK     CODE     ---       LVL=0
      01002CECH   LINE      ---      ---       #1035
      01002CECH   LINE      ---      ---       #1036
      01002CECH   LINE      ---      ---       #1037
      01002CF6H   LINE      ---      ---       #1038
      01002CFCH   LINE      ---      ---       #1039
      01002D06H   LINE      ---      ---       #1040
      01002D0CH   LINE      ---      ---       #1041
      01002D12H   LINE      ---      ---       #1042
      ---         BLOCKEND  ---      ---       LVL=0

      ---         MODULE    ---      ---       IICDRV
      02000CBAH   PUBLIC    XDATA    BYTE      ?_DrvE2p_ReadData?BYTE
LX51 LINKER/LOCATER V4.66.41.0                                                        11/18/2021  18:51:21  PAGE 222


      01001CE9H   PUBLIC    CODE     ---       _DrvE2p_ReadData
      02000CC5H   PUBLIC    XDATA    BYTE      ?_DrvE2p_WriteData?BYTE
      01004336H   PUBLIC    CODE     ---       _DrvE2p_WriteData
      010041B5H   PUBLIC    CODE     ---       _DrvE2p_WRDataTemp
      01004300H   PUBLIC    CODE     ---       DrvE2p_ChkBusBusy
      01004165H   PUBLIC    CODE     ---       DrvI2C_Init
      000000F3H   SFRSYM    DATA     BYTE      IB_CON2
      000000D8H.3 SFRSYM    DATA     BIT       TB81
      00000080H   SFRSYM    DATA     BYTE      P0
      000000F4H   SFRSYM    DATA     BYTE      IB_CON3
      000000A4H   SFRSYM    DATA     BYTE      TKCON
      00000090H   SFRSYM    DATA     BYTE      P1
      000000F5H   SFRSYM    DATA     BYTE      IB_CON4
      000000E7H   SFRSYM    DATA     BYTE      PASLO
      000000A0H   SFRSYM    DATA     BYTE      P2
      000000FEH   SFRSYM    DATA     BYTE      OSCLO
      000000F6H   SFRSYM    DATA     BYTE      IB_CON5
      00000098H.6 SFRSYM    DATA     BIT       SM1_RXOV
      000000B0H   SFRSYM    DATA     BYTE      P3
      000000D0H.6 SFRSYM    DATA     BIT       AC
      000000C0H   SFRSYM    DATA     BYTE      P4
      000000A1H   SFRSYM    DATA     BYTE      SPCON
      0000009CH   SFRSYM    DATA     BYTE      SBRTH
      000000E9H   SFRSYM    DATA     BYTE      P5
      000000A8H.7 SFRSYM    DATA     BIT       EA
      000000EAH   SFRSYM    DATA     BYTE      P6
      000000EBH   SFRSYM    DATA     BYTE      P7
      000000EFH   SFRSYM    DATA     BYTE      IB_DATA
      000000ECH   SFRSYM    DATA     BYTE      P8
      0000009DH   SFRSYM    DATA     BYTE      SBRTL
      000000EDH   SFRSYM    DATA     BYTE      P9
      000000B7H   SFRSYM    DATA     BYTE      PBANKLO
      000000A2H   SFRSYM    DATA     BYTE      SPSTA
      000000A8H   SFRSYM    DATA     BYTE      IEN0
      000000B3H   SFRSYM    DATA     BYTE      PWRCON1
      00000095H   SFRSYM    DATA     BYTE      EMUSR
      000000A9H   SFRSYM    DATA     BYTE      IEN1
      000000B4H   SFRSYM    DATA     BYTE      PWRCON2
      00000085H   SFRSYM    DATA     BYTE      DPH1
      00000080H   SFRSYM    DATA     BIT       P0_0
      00000090H   SFRSYM    DATA     BIT       P1_0
      00000080H.1 SFRSYM    DATA     BIT       P0_1
      000000C3H   SFRSYM    DATA     BYTE      ADCH
      000000A0H   SFRSYM    DATA     BIT       P2_0
      00000090H.1 SFRSYM    DATA     BIT       P1_1
      00000080H.2 SFRSYM    DATA     BIT       P0_2
      000000BAH   SFRSYM    DATA     BYTE      IPH0
      00000084H   SFRSYM    DATA     BYTE      DPL1
      000000B0H   SFRSYM    DATA     BIT       P3_0
      000000A0H.1 SFRSYM    DATA     BIT       P2_1
      00000090H.2 SFRSYM    DATA     BIT       P1_2
      00000080H.3 SFRSYM    DATA     BIT       P0_3
      000000BBH   SFRSYM    DATA     BYTE      IPH1
      000000C0H   SFRSYM    DATA     BIT       P4_0
      000000B0H.1 SFRSYM    DATA     BIT       P3_1
      000000A0H.2 SFRSYM    DATA     BIT       P2_2
      00000090H.3 SFRSYM    DATA     BIT       P1_3
      00000080H.4 SFRSYM    DATA     BIT       P0_4
      000000E8H   SFRSYM    DATA     BYTE      EXF0
      000000C0H.1 SFRSYM    DATA     BIT       P4_1
      000000B0H.2 SFRSYM    DATA     BIT       P3_2
      000000A0H.3 SFRSYM    DATA     BIT       P2_3
      00000090H.4 SFRSYM    DATA     BIT       P1_4
      00000080H.5 SFRSYM    DATA     BIT       P0_5
      000000C0H.2 SFRSYM    DATA     BIT       P4_2
LX51 LINKER/LOCATER V4.66.41.0                                                        11/18/2021  18:51:21  PAGE 223


      000000B0H.3 SFRSYM    DATA     BIT       P3_3
      000000A0H.4 SFRSYM    DATA     BIT       P2_4
      00000090H.5 SFRSYM    DATA     BIT       P1_5
      00000080H.6 SFRSYM    DATA     BIT       P0_6
      000000C8H.6 SFRSYM    DATA     BIT       EXF2
      000000A6H   SFRSYM    DATA     BYTE      TKF0
      000000B8H   SFRSYM    DATA     BYTE      IPL0
      000000C0H.3 SFRSYM    DATA     BIT       P4_3
      000000B0H.4 SFRSYM    DATA     BIT       P3_4
      000000A0H.5 SFRSYM    DATA     BIT       P2_5
      00000090H.6 SFRSYM    DATA     BIT       P1_6
      00000080H.7 SFRSYM    DATA     BIT       P0_7
      000000D8H.4 SFRSYM    DATA     BIT       REN1
      000000B9H   SFRSYM    DATA     BYTE      IPL1
      000000C0H.4 SFRSYM    DATA     BIT       P4_4
      000000B0H.5 SFRSYM    DATA     BIT       P3_5
      000000A0H.6 SFRSYM    DATA     BIT       P2_6
      00000090H.7 SFRSYM    DATA     BIT       P1_7
      000000E2H   SFRSYM    DATA     BYTE      TK0H
      0000008EH   SFRSYM    DATA     BYTE      SUSLO
      000000C0H.5 SFRSYM    DATA     BIT       P4_5
      000000B0H.6 SFRSYM    DATA     BIT       P3_6
      000000A0H.7 SFRSYM    DATA     BIT       P2_7
      000000E4H   SFRSYM    DATA     BYTE      TK1H
      000000C0H.6 SFRSYM    DATA     BIT       P4_6
      000000B0H.7 SFRSYM    DATA     BIT       P3_7
      000000E6H   SFRSYM    DATA     BYTE      TK2H
      000000C0H.7 SFRSYM    DATA     BIT       P4_7
      00000098H   SFRSYM    DATA     BIT       RI
      000000A8H.2 SFRSYM    DATA     BIT       E7816
      000000D0H.7 SFRSYM    DATA     BIT       CY
      000000E1H   SFRSYM    DATA     BYTE      TK0L
      00000098H.1 SFRSYM    DATA     BIT       TI
      00000091H   SFRSYM    DATA     BYTE      EADR
      000000E3H   SFRSYM    DATA     BYTE      TK1L
      000000E5H   SFRSYM    DATA     BYTE      TK2L
      000000DBH   SFRSYM    DATA     BYTE      SADEN1
      000000D8H.7 SFRSYM    DATA     BIT       SM10_FE1
      000000FBH   SFRSYM    DATA     BYTE      SADEN2
      000000B8H.4 SFRSYM    DATA     BIT       PS0L
      000000B8H.1 SFRSYM    DATA     BIT       PT0L
      000000DAH   SFRSYM    DATA     BYTE      SADDR1
      000000D8H.5 SFRSYM    DATA     BIT       SM12_TXCOL1
      000000B8H.3 SFRSYM    DATA     BIT       PT1L
      000000FAH   SFRSYM    DATA     BYTE      SADDR2
      000000CBH   SFRSYM    DATA     BYTE      RCAP2H
      000000B8H.5 SFRSYM    DATA     BIT       PT2L
      00000081H   SFRSYM    DATA     BYTE      SP
      000000D0H.2 SFRSYM    DATA     BIT       OV
      000000CAH   SFRSYM    DATA     BYTE      RCAP2L
      000000B8H   SFRSYM    DATA     BIT       PX4L
      000000C8H.1 SFRSYM    DATA     BIT       C_T2
      000000DEH   SFRSYM    DATA     BYTE      SFINE2
      000000ADH   SFRSYM    DATA     BYTE      IRCON1
      000000AFH   SFRSYM    DATA     BYTE      IRCON2
      000000ABH   SFRSYM    DATA     BYTE      EXCON1
      00000099H   SFRSYM    DATA     BYTE      SBUF
      000000ACH   SFRSYM    DATA     BYTE      EXCON2
      00000087H   SFRSYM    DATA     BYTE      PCON
      000000F1H   SFRSYM    DATA     BYTE      AUXC
      00000098H   SFRSYM    DATA     BYTE      SCON
      000000D4H   SFRSYM    DATA     BYTE      TK0BASEH
      00000089H   SFRSYM    DATA     BYTE      TMOD
      00000088H   SFRSYM    DATA     BYTE      TCON
      000000AAH   SFRSYM    DATA     BYTE      IENX
LX51 LINKER/LOCATER V4.66.41.0                                                        11/18/2021  18:51:21  PAGE 224


      000000EEH   SFRSYM    DATA     BYTE      IB_OFFSET
      000000D6H   SFRSYM    DATA     BYTE      TK1BASEH
      000000DCH   SFRSYM    DATA     BYTE      SBRT1H
      000000DFH   SFRSYM    DATA     BYTE      TK2BASEH
      000000FCH   SFRSYM    DATA     BYTE      SBRT2H
      000000B1H   SFRSYM    DATA     BYTE      RSTSTAT
      000000D3H   SFRSYM    DATA     BYTE      TK0BASEL
      000000D5H   SFRSYM    DATA     BYTE      TK1BASEL
      000000DDH   SFRSYM    DATA     BYTE      SBRT1L
      000000D7H   SFRSYM    DATA     BYTE      TK2BASEL
      000000FDH   SFRSYM    DATA     BYTE      SBRT2L
      00000098H.7 SFRSYM    DATA     BIT       SM0_FE
      000000B2H   SFRSYM    DATA     BYTE      CLKCON
      00000098H.5 SFRSYM    DATA     BIT       SM2_TXCOL
      000000B5H   SFRSYM    DATA     BYTE      LDOCON
      000000F0H   SFRSYM    DATA     BYTE      B
      000000C8H   SFRSYM    DATA     BIT       CP_RL2
      000000E0H   SFRSYM    DATA     BYTE      ACC
      000000A8H.4 SFRSYM    DATA     BIT       ES0
      000000A8H.1 SFRSYM    DATA     BIT       ET0
      000000A8H.3 SFRSYM    DATA     BIT       ET1
      00000088H.5 SFRSYM    DATA     BIT       TF0
      000000A8H.5 SFRSYM    DATA     BIT       ET2
      00000088H.7 SFRSYM    DATA     BIT       TF1
      000000D8H   SFRSYM    DATA     BIT       RI1
      00000098H.2 SFRSYM    DATA     BIT       RB8
      000000C8H.7 SFRSYM    DATA     BIT       TF2
      0000008CH   SFRSYM    DATA     BYTE      TH0
      00000086H   SFRSYM    DATA     BYTE      INSCON
      0000008DH   SFRSYM    DATA     BYTE      TH1
      000000D8H.1 SFRSYM    DATA     BIT       TI1
      00000098H.3 SFRSYM    DATA     BIT       TB8
      000000CDH   SFRSYM    DATA     BYTE      TH2
      000000D0H   SFRSYM    DATA     BIT       P
      0000008AH   SFRSYM    DATA     BYTE      TL0
      000000A8H   SFRSYM    DATA     BIT       EX4
      0000008BH   SFRSYM    DATA     BYTE      TL1
      000000A7H   SFRSYM    DATA     BYTE      FLASHCON
      000000CCH   SFRSYM    DATA     BYTE      TL2
      000000D0H.3 SFRSYM    DATA     BIT       RS0
      000000C5H   SFRSYM    DATA     BYTE      ADCDH
      00000088H.4 SFRSYM    DATA     BIT       TR0
      000000D0H.4 SFRSYM    DATA     BIT       RS1
      0000009FH   SFRSYM    DATA     BYTE      PWMCON
      00000088H.6 SFRSYM    DATA     BIT       TR1
      000000C8H.2 SFRSYM    DATA     BIT       TR2
      000000C4H   SFRSYM    DATA     BYTE      ADCDL
      000000C2H   SFRSYM    DATA     BYTE      ADT
      00000083H   SFRSYM    DATA     BYTE      DPH
      00000082H   SFRSYM    DATA     BYTE      DPL
      000000D9H   SFRSYM    DATA     BYTE      SBUF1
      000000C8H.3 SFRSYM    DATA     BIT       EXEN2
      000000F9H   SFRSYM    DATA     BYTE      SBUF2
      000000D8H.6 SFRSYM    DATA     BIT       SM11_RXOV1
      000000B8H.6 SFRSYM    DATA     BIT       PADCL
      00000098H.4 SFRSYM    DATA     BIT       REN
      000000D8H   SFRSYM    DATA     BYTE      SCON1
      000000D1H   SFRSYM    DATA     BYTE      LCDCON1
      000000C1H   SFRSYM    DATA     BYTE      ADCON
      000000F8H   SFRSYM    DATA     BYTE      SCON2
      0000008FH   SFRSYM    DATA     BYTE      TCON1
      000000D2H   SFRSYM    DATA     BYTE      LCDCON2
      00000092H   SFRSYM    DATA     BYTE      EDTAH
      000000C9H   SFRSYM    DATA     BYTE      T2MOD
      000000C8H   SFRSYM    DATA     BYTE      T2CON
LX51 LINKER/LOCATER V4.66.41.0                                                        11/18/2021  18:51:21  PAGE 225


      00000094H   SFRSYM    DATA     BYTE      EDTAL
      00000093H   SFRSYM    DATA     BYTE      EDTAM
      000000BCH   SFRSYM    DATA     BYTE      TK0DIFH
      0000009BH   SFRSYM    DATA     BYTE      SADEN
      000000BEH   SFRSYM    DATA     BYTE      TK1DIFH
      000000B6H   SFRSYM    DATA     BYTE      PBANK
      000000A5H   SFRSYM    DATA     BYTE      TK2DIFH
      000000A8H.6 SFRSYM    DATA     BIT       EADTP
      0000009AH   SFRSYM    DATA     BYTE      SADDR
      000000CFH   SFRSYM    DATA     BYTE      TK0DIFL
      000000BDH   SFRSYM    DATA     BYTE      TK1DIFL
      000000BFH   SFRSYM    DATA     BYTE      TK2DIFL
      000000B8H.2 SFRSYM    DATA     BIT       P7816L
      000000C6H   SFRSYM    DATA     BYTE      LPDCON1
      000000C7H   SFRSYM    DATA     BYTE      LPDCON2
      000000D0H.5 SFRSYM    DATA     BIT       F0
      000000AEH   SFRSYM    DATA     BYTE      IRDAT
      000000D0H.1 SFRSYM    DATA     BIT       F1
      00000096H   SFRSYM    DATA     BYTE      EMUIE
      0000009EH   SFRSYM    DATA     BYTE      SFINE
      000000F7H   SFRSYM    DATA     BYTE      XPAGE
      00000097H   SFRSYM    DATA     BYTE      EMUIF
      000000D0H   SFRSYM    DATA     BYTE      PSW
      000000D8H.2 SFRSYM    DATA     BIT       RB81
      000000A3H   SFRSYM    DATA     BYTE      SPDAT
      000000F2H   SFRSYM    DATA     BYTE      IB_CON1
      0100403FH   SYMBOL    CODE     ---       DrvE2p_ReadOneByteNoAck
      01000007H   SYMBOL    CODE     ---       DrvE2p_I2CDelay_2us
      01004038H   SYMBOL    CODE     ---       DrvE2p_I2CDelay_3us
      010000ECH   SYMBOL    CODE     ---       DrvE2p_I2CDelay_5us
      010041B5H   SYMBOL    CODE     ---       _DrvE2p_WRDataTemp
      01001E6CH   SYMBOL    CODE     ---       _DrvE2p_WriteOneByte
      010040CBH   SYMBOL    CODE     ---       DrvE2p_ReadOneByteAck
      01004184H   SYMBOL    CODE     ---       DrvE2p_I2CStart
      01001E03H   SYMBOL    CODE     ---       DrvE2p_I2CStop
      01004300H   SYMBOL    CODE     ---       DrvE2p_ChkBusBusy

      010000ECH   BLOCK     CODE     ---       LVL=0
      010000ECH   LINE      ---      ---       #140
      010000ECH   LINE      ---      ---       #141
      010000ECH   BLOCK     CODE     NEAR LAB  LVL=1
      010000ECH   LINE      ---      ---       #142
      010000F2H   LINE      ---      ---       #143
      010000FCH   LINE      ---      ---       #144
      010000FCH   LINE      ---      ---       #145
      010000FCH   LINE      ---      ---       #146
      02000CE7H   SYMBOL    XDATA    BYTE      i
      ---         BLOCKEND  CODE     ---       LVL=1
      ---         BLOCKEND  CODE     ---       LVL=0

      01004038H   BLOCK     CODE     ---       LVL=0
      01004038H   LINE      ---      ---       #148
      01004038H   LINE      ---      ---       #149
      01004038H   BLOCK     CODE     NEAR LAB  LVL=1
      01004038H   LINE      ---      ---       #150
      0100403EH   LINE      ---      ---       #156
      02000CE8H   SYMBOL    XDATA    BYTE      i
      ---         BLOCKEND  CODE     ---       LVL=1
      ---         BLOCKEND  CODE     ---       LVL=0

      01000007H   BLOCK     CODE     ---       LVL=0
      01000007H   LINE      ---      ---       #158
      01000007H   LINE      ---      ---       #159
      01000007H   LINE      ---      ---       #161
      ---         BLOCKEND  ---      ---       LVL=0
LX51 LINKER/LOCATER V4.66.41.0                                                        11/18/2021  18:51:21  PAGE 226



      01004165H   BLOCK     CODE     ---       LVL=0
      01004165H   LINE      ---      ---       #165
      01004165H   LINE      ---      ---       #166
      01004165H   LINE      ---      ---       #167
      01004173H   LINE      ---      ---       #168
      01004181H   LINE      ---      ---       #169
      01004182H   LINE      ---      ---       #170
      01004183H   LINE      ---      ---       #171
      ---         BLOCKEND  ---      ---       LVL=0

      01004300H   BLOCK     CODE     ---       LVL=0
      01004300H   LINE      ---      ---       #179
      01004300H   LINE      ---      ---       #180
      01004300H   BLOCK     CODE     NEAR LAB  LVL=1
      01004300H   LINE      ---      ---       #182
      01004306H   LINE      ---      ---       #184
      0100431AH   LINE      ---      ---       #185
      0100431AH   LINE      ---      ---       #186
      0100431CH   LINE      ---      ---       #187
      01004324H   LINE      ---      ---       #188
      01004324H   LINE      ---      ---       #189
      01004327H   LINE      ---      ---       #190
      01004327H   LINE      ---      ---       #191
      01004327H   LINE      ---      ---       #192
      0100432FH   LINE      ---      ---       #193
      02000CE0H   SYMBOL    XDATA    BYTE      v_ucCnt
      02000CE1H   SYMBOL    XDATA    BYTE      v_ucCst
      ---         BLOCKEND  CODE     ---       LVL=1
      ---         BLOCKEND  CODE     ---       LVL=0

      01004184H   BLOCK     CODE     ---       LVL=0
      01004184H   LINE      ---      ---       #202
      01004184H   LINE      ---      ---       #203
      01004184H   LINE      ---      ---       #204
      01004186H   LINE      ---      ---       #206
      01004194H   LINE      ---      ---       #207
      01004197H   LINE      ---      ---       #208
      010041A5H   LINE      ---      ---       #209
      010041A8H   LINE      ---      ---       #210
      010041ABH   LINE      ---      ---       #211
      010041AEH   LINE      ---      ---       #212
      010041B1H   LINE      ---      ---       #213
      010041B4H   LINE      ---      ---       #214
      ---         BLOCKEND  ---      ---       LVL=0

      01001E03H   BLOCK     CODE     ---       LVL=0
      01001E03H   LINE      ---      ---       #222
      01001E03H   LINE      ---      ---       #223
      01001E03H   BLOCK     CODE     NEAR LAB  LVL=1
      01001E03H   LINE      ---      ---       #224
      01001E08H   LINE      ---      ---       #226
      01001E16H   LINE      ---      ---       #228
      01001E27H   LINE      ---      ---       #229
      01001E27H   LINE      ---      ---       #231
      01001E2CH   LINE      ---      ---       #232
      01001E2CH   LINE      ---      ---       #233
      01001E2CH   LINE      ---      ---       #234
      01001E2CH   LINE      ---      ---       #235
      01001E2FH   LINE      ---      ---       #236
      01001E32H   LINE      ---      ---       #237
      01001E35H   LINE      ---      ---       #238
      01001E3DH   LINE      ---      ---       #239
      01001E4BH   LINE      ---      ---       #240
      01001E59H   LINE      ---      ---       #241
LX51 LINKER/LOCATER V4.66.41.0                                                        11/18/2021  18:51:21  PAGE 227


      01001E5CH   LINE      ---      ---       #242
      01001E5FH   LINE      ---      ---       #243
      01001E62H   LINE      ---      ---       #244
      01001E65H   LINE      ---      ---       #245
      01001E68H   LINE      ---      ---       #246
      01001E6BH   LINE      ---      ---       #247
      02000CE9H   SYMBOL    XDATA    BYTE      V_Couter
      ---         BLOCKEND  CODE     ---       LVL=1
      ---         BLOCKEND  CODE     ---       LVL=0

      010040CBH   BLOCK     CODE     ---       LVL=0
      010040CBH   LINE      ---      ---       #256
      010040CBH   LINE      ---      ---       #257
      010040CBH   BLOCK     CODE     NEAR LAB  LVL=1
      010040CBH   LINE      ---      ---       #258
      010040D0H   LINE      ---      ---       #259
      010040D6H   LINE      ---      ---       #261
      010040E4H   LINE      ---      ---       #262
      010040F2H   LINE      ---      ---       #263
      010040F5H   LINE      ---      ---       #265
      01004105H   LINE      ---      ---       #266
      01004105H   LINE      ---      ---       #267
      01004107H   LINE      ---      ---       #268
      01004115H   LINE      ---      ---       #269
      01004118H   LINE      ---      ---       #270
      0100411DH   LINE      ---      ---       #271
      0100411DH   LINE      ---      ---       #272
      0100412BH   LINE      ---      ---       #273
      0100412BH   LINE      ---      ---       #274
      0100412DH   LINE      ---      ---       #275
      01004137H   LINE      ---      ---       #276
      0100413AH   LINE      ---      ---       #277
      01004142H   LINE      ---      ---       #279
      01004150H   LINE      ---      ---       #280
      01004153H   LINE      ---      ---       #281
      01004156H   LINE      ---      ---       #282
      01004159H   LINE      ---      ---       #283
      0100415CH   LINE      ---      ---       #284
      0100415FH   LINE      ---      ---       #286
      01004164H   LINE      ---      ---       #287
      02000CE2H   SYMBOL    XDATA    BYTE      V_ucResult
      02000CE3H   SYMBOL    XDATA    BYTE      V_ucCnt_i
      ---         BLOCKEND  CODE     ---       LVL=1
      ---         BLOCKEND  CODE     ---       LVL=0

      0100403FH   BLOCK     CODE     ---       LVL=0
      0100403FH   LINE      ---      ---       #295
      0100403FH   LINE      ---      ---       #296
      0100403FH   BLOCK     CODE     NEAR LAB  LVL=1
      0100403FH   LINE      ---      ---       #297
      01004044H   LINE      ---      ---       #298
      01004049H   LINE      ---      ---       #300
      01004057H   LINE      ---      ---       #301
      01004065H   LINE      ---      ---       #302
      01004068H   LINE      ---      ---       #304
      01004078H   LINE      ---      ---       #305
      01004078H   LINE      ---      ---       #306
      0100407AH   LINE      ---      ---       #307
      01004088H   LINE      ---      ---       #308
      0100408BH   LINE      ---      ---       #310
      01004090H   LINE      ---      ---       #311
      01004090H   LINE      ---      ---       #312
      0100409EH   LINE      ---      ---       #313
      0100409EH   LINE      ---      ---       #314
      010040A0H   LINE      ---      ---       #315
LX51 LINKER/LOCATER V4.66.41.0                                                        11/18/2021  18:51:21  PAGE 228


      010040A3H   LINE      ---      ---       #316
      010040ABH   LINE      ---      ---       #317
      010040B9H   LINE      ---      ---       #318
      010040BCH   LINE      ---      ---       #319
      010040BFH   LINE      ---      ---       #320
      010040C2H   LINE      ---      ---       #321
      010040C5H   LINE      ---      ---       #323
      010040CAH   LINE      ---      ---       #324
      02000CE4H   SYMBOL    XDATA    BYTE      V_ucResult
      02000CE5H   SYMBOL    XDATA    BYTE      V_ucCnt_i
      ---         BLOCKEND  CODE     ---       LVL=1
      ---         BLOCKEND  CODE     ---       LVL=0

      01001E6CH   BLOCK     CODE     ---       LVL=0
      01001E6CH   LINE      ---      ---       #333
      01001E71H   LINE      ---      ---       #334
      02000CDBH   SYMBOL    XDATA    BYTE      v_ucData
      01001E71H   BLOCK     CODE     NEAR LAB  LVL=1
      01001E71H   LINE      ---      ---       #335
      01001E76H   LINE      ---      ---       #336
      01001E7BH   LINE      ---      ---       #338
      01001E89H   LINE      ---      ---       #339
      01001E8CH   LINE      ---      ---       #340
      01001E9AH   LINE      ---      ---       #342
      01001EAAH   LINE      ---      ---       #343
      01001EAAH   LINE      ---      ---       #344
      01001EB3H   LINE      ---      ---       #345
      01001EB3H   LINE      ---      ---       #346
      01001EB6H   LINE      ---      ---       #347
      01001EB8H   LINE      ---      ---       #349
      01001EB8H   LINE      ---      ---       #350
      01001EBBH   LINE      ---      ---       #351
      01001EBBH   LINE      ---      ---       #353
      01001EBEH   LINE      ---      ---       #354
      01001ECCH   LINE      ---      ---       #355
      01001ECFH   LINE      ---      ---       #356
      01001ED2H   LINE      ---      ---       #357
      01001EDAH   LINE      ---      ---       #358
      01001EDDH   LINE      ---      ---       #359
      01001EEBH   LINE      ---      ---       #360
      01001EEEH   LINE      ---      ---       #362
      01001EF1H   LINE      ---      ---       #364
      01001EF6H   LINE      ---      ---       #365
      01001EF6H   LINE      ---      ---       #366
      01001EFCH   LINE      ---      ---       #367
      01001EFCH   LINE      ---      ---       #368
      01001EFFH   LINE      ---      ---       #369
      01001F04H   LINE      ---      ---       #370
      02000CDCH   SYMBOL    XDATA    BYTE      V_ucOprResult
      02000CDDH   SYMBOL    XDATA    BYTE      V_ucCnt_i
      ---         BLOCKEND  CODE     ---       LVL=1
      ---         BLOCKEND  CODE     ---       LVL=0

      010041B5H   BLOCK     CODE     ---       LVL=0
      010041B5H   LINE      ---      ---       #382
      010041C8H   LINE      ---      ---       #383
      02000CAEH   SYMBOL    XDATA    WORD      v_usAddress
      02000CB0H   SYMBOL    XDATA    ---       p_ucDatabuf
      02000CB3H   SYMBOL    XDATA    BYTE      v_ucLen
      010041C8H   BLOCK     CODE     NEAR LAB  LVL=1
      010041C8H   LINE      ---      ---       #386
      010041CDH   LINE      ---      ---       #388
      010041E0H   LINE      ---      ---       #389
      010041E0H   LINE      ---      ---       #390
      010041E3H   LINE      ---      ---       #391
LX51 LINKER/LOCATER V4.66.41.0                                                        11/18/2021  18:51:21  PAGE 229


      010041E3H   LINE      ---      ---       #392
      010041F4H   LINE      ---      ---       #393
      010041F4H   LINE      ---      ---       #394
      010041F7H   LINE      ---      ---       #395
      010041F7H   LINE      ---      ---       #396
      01004228H   LINE      ---      ---       #397
      01004228H   LINE      ---      ---       #398
      0100422AH   LINE      ---      ---       #400
      0100424EH   LINE      ---      ---       #401
      01004265H   LINE      ---      ---       #403
      01004270H   LINE      ---      ---       #404
      01004270H   LINE      ---      ---       #405
      01004276H   LINE      ---      ---       #406
      01004276H   LINE      ---      ---       #408
      01004284H   LINE      ---      ---       #409
      01004284H   LINE      ---      ---       #410
      0100428AH   LINE      ---      ---       #411
      0100428AH   LINE      ---      ---       #412
      010042A0H   LINE      ---      ---       #413
      010042BEH   LINE      ---      ---       #414
      010042BEH   LINE      ---      ---       #415
      010042D3H   LINE      ---      ---       #416
      010042D3H   LINE      ---      ---       #417
      010042D6H   LINE      ---      ---       #418
      010042D9H   LINE      ---      ---       #419
      010042D9H   LINE      ---      ---       #420
      010042E3H   LINE      ---      ---       #421
      010042F3H   LINE      ---      ---       #422
      010042F6H   LINE      ---      ---       #423
      010042F8H   LINE      ---      ---       #424
      010042FAH   LINE      ---      ---       #427
      010042FAH   LINE      ---      ---       #428
      010042FDH   LINE      ---      ---       #429
      010042FDH   LINE      ---      ---       #431
      010042FFH   LINE      ---      ---       #432
      02000CB4H   SYMBOL    XDATA    WORD      i
      02000CB6H   SYMBOL    XDATA    ---       j
      02000CB9H   SYMBOL    XDATA    BYTE      Temp
      ---         BLOCKEND  CODE     ---       LVL=1
      ---         BLOCKEND  CODE     ---       LVL=0

      01004330H   BLOCK     CODE     ---       LVL=0
      01004336H   LINE      ---      ---       #444
      01004349H   LINE      ---      ---       #445
      02000CC5H   SYMBOL    XDATA    WORD      v_usAddress
      02000CC7H   SYMBOL    XDATA    ---       p_ucDatabuf
      02000CCAH   SYMBOL    XDATA    BYTE      v_ucLen
      01004349H   BLOCK     CODE     NEAR LAB  LVL=1
      01004349H   LINE      ---      ---       #452
      01004359H   LINE      ---      ---       #453
      0100436FH   LINE      ---      ---       #454
      01004374H   LINE      ---      ---       #455
      01004383H   LINE      ---      ---       #456
      01004383H   LINE      ---      ---       #457
      0100438DH   LINE      ---      ---       #458
      0100438DH   LINE      ---      ---       #461
      0100438DH   LINE      ---      ---       #462
      010043BDH   LINE      ---      ---       #463
      010043BDH   LINE      ---      ---       #464
      010043C0H   LINE      ---      ---       #465
      010043C0H   LINE      ---      ---       #467
      010043CBH   LINE      ---      ---       #468
      010043E8H   LINE      ---      ---       #469
      010043FBH   LINE      ---      ---       #470
      01004406H   LINE      ---      ---       #471
LX51 LINKER/LOCATER V4.66.41.0                                                        11/18/2021  18:51:21  PAGE 230


      01004406H   LINE      ---      ---       #472
      0100440CH   LINE      ---      ---       #473
      0100440CH   LINE      ---      ---       #475
      01004416H   LINE      ---      ---       #521
      01004418H   LINE      ---      ---       #522
      02000CCBH   SYMBOL    XDATA    WORD      V_usEEAdr
      02000CCDH   SYMBOL    XDATA    BYTE      V_ucDataLen
      02000CCEH   SYMBOL    XDATA    BYTE      V_ucCnti
      ---         BLOCKEND  CODE     ---       LVL=1
      ---         BLOCKEND  CODE     ---       LVL=0

      01001CE9H   BLOCK     CODE     ---       LVL=0
      01001CE9H   LINE      ---      ---       #530
      01001CFCH   LINE      ---      ---       #531
      02000CBAH   SYMBOL    XDATA    WORD      v_usAddress
      02000CBCH   SYMBOL    XDATA    ---       p_ucDatabuf
      02000CBFH   SYMBOL    XDATA    BYTE      v_ucLen
      01001CFCH   BLOCK     CODE     NEAR LAB  LVL=1
      01001CFCH   LINE      ---      ---       #532
      01001D01H   LINE      ---      ---       #536
      01001D09H   LINE      ---      ---       #537
      01001D09H   LINE      ---      ---       #538
      01001D0CH   LINE      ---      ---       #539
      01001D0CH   LINE      ---      ---       #541
      01001D2AH   LINE      ---      ---       #542
      01001D2AH   LINE      ---      ---       #543
      01001D2DH   LINE      ---      ---       #544
      01001D2DH   LINE      ---      ---       #546
      01001D42H   LINE      ---      ---       #548
      01001D50H   LINE      ---      ---       #550
      01001D53H   LINE      ---      ---       #552
      01001D61H   LINE      ---      ---       #553
      01001D66H   LINE      ---      ---       #556
      01001D73H   LINE      ---      ---       #557
      01001D78H   LINE      ---      ---       #559
      01001D7BH   LINE      ---      ---       #561
      01001D89H   LINE      ---      ---       #562
      01001D8EH   LINE      ---      ---       #564
      01001DA4H   LINE      ---      ---       #566
      01001DBBH   LINE      ---      ---       #567
      01001DBBH   LINE      ---      ---       #568
      01001DD7H   LINE      ---      ---       #569
      01001DDFH   LINE      ---      ---       #570
      01001DFBH   LINE      ---      ---       #572
      01001DFDH   LINE      ---      ---       #574
      01001E02H   LINE      ---      ---       #575
      02000CC0H   SYMBOL    XDATA    BYTE      V_ucOprResult
      02000CC1H   SYMBOL    XDATA    BYTE      V_ucCnt
      02000CC2H   SYMBOL    XDATA    ---       P_ucTempData
      ---         BLOCKEND  CODE     ---       LVL=1
      ---         BLOCKEND  CODE     ---       LVL=0

      ---         MODULE    ---      ---       INTERNALE2DRV
      010045D8H   PUBLIC    CODE     ---       _Hal_EraseFlashSector
      02000986H   PUBLIC    XDATA    BYTE      ?_Hal_ReadEEPROM?BYTE
      01004550H   PUBLIC    CODE     ---       _Hal_ReadEEPROM
      0100451AH   PUBLIC    CODE     ---       _Hal_ReadFlash_byte
      02000986H   PUBLIC    XDATA    BYTE      ?_Hal_WriteEEPROM?BYTE
      01004477H   PUBLIC    CODE     ---       _Hal_WriteEEPROM
      01004419H   PUBLIC    CODE     ---       _Hal_WriteFlash_byte
      000000F3H   SFRSYM    DATA     BYTE      IB_CON2
      000000D8H.3 SFRSYM    DATA     BIT       TB81
      00000080H   SFRSYM    DATA     BYTE      P0
      000000F4H   SFRSYM    DATA     BYTE      IB_CON3
      000000A4H   SFRSYM    DATA     BYTE      TKCON
LX51 LINKER/LOCATER V4.66.41.0                                                        11/18/2021  18:51:21  PAGE 231


      00000090H   SFRSYM    DATA     BYTE      P1
      000000F5H   SFRSYM    DATA     BYTE      IB_CON4
      000000E7H   SFRSYM    DATA     BYTE      PASLO
      000000A0H   SFRSYM    DATA     BYTE      P2
      000000FEH   SFRSYM    DATA     BYTE      OSCLO
      000000F6H   SFRSYM    DATA     BYTE      IB_CON5
      00000098H.6 SFRSYM    DATA     BIT       SM1_RXOV
      000000B0H   SFRSYM    DATA     BYTE      P3
      000000D0H.6 SFRSYM    DATA     BIT       AC
      000000C0H   SFRSYM    DATA     BYTE      P4
      000000A1H   SFRSYM    DATA     BYTE      SPCON
      0000009CH   SFRSYM    DATA     BYTE      SBRTH
      000000E9H   SFRSYM    DATA     BYTE      P5
      000000A8H.7 SFRSYM    DATA     BIT       EA
      000000EAH   SFRSYM    DATA     BYTE      P6
      000000EBH   SFRSYM    DATA     BYTE      P7
      000000EFH   SFRSYM    DATA     BYTE      IB_DATA
      000000ECH   SFRSYM    DATA     BYTE      P8
      0000009DH   SFRSYM    DATA     BYTE      SBRTL
      000000EDH   SFRSYM    DATA     BYTE      P9
      000000B7H   SFRSYM    DATA     BYTE      PBANKLO
      000000A2H   SFRSYM    DATA     BYTE      SPSTA
      000000A8H   SFRSYM    DATA     BYTE      IEN0
      000000B3H   SFRSYM    DATA     BYTE      PWRCON1
      00000095H   SFRSYM    DATA     BYTE      EMUSR
      000000A9H   SFRSYM    DATA     BYTE      IEN1
      000000B4H   SFRSYM    DATA     BYTE      PWRCON2
      00000085H   SFRSYM    DATA     BYTE      DPH1
      00000080H   SFRSYM    DATA     BIT       P0_0
      00000090H   SFRSYM    DATA     BIT       P1_0
      00000080H.1 SFRSYM    DATA     BIT       P0_1
      000000C3H   SFRSYM    DATA     BYTE      ADCH
      000000A0H   SFRSYM    DATA     BIT       P2_0
      00000090H.1 SFRSYM    DATA     BIT       P1_1
      00000080H.2 SFRSYM    DATA     BIT       P0_2
      000000BAH   SFRSYM    DATA     BYTE      IPH0
      00000084H   SFRSYM    DATA     BYTE      DPL1
      000000B0H   SFRSYM    DATA     BIT       P3_0
      000000A0H.1 SFRSYM    DATA     BIT       P2_1
      00000090H.2 SFRSYM    DATA     BIT       P1_2
      00000080H.3 SFRSYM    DATA     BIT       P0_3
      000000BBH   SFRSYM    DATA     BYTE      IPH1
      000000C0H   SFRSYM    DATA     BIT       P4_0
      000000B0H.1 SFRSYM    DATA     BIT       P3_1
      000000A0H.2 SFRSYM    DATA     BIT       P2_2
      00000090H.3 SFRSYM    DATA     BIT       P1_3
      00000080H.4 SFRSYM    DATA     BIT       P0_4
      000000E8H   SFRSYM    DATA     BYTE      EXF0
      000000C0H.1 SFRSYM    DATA     BIT       P4_1
      000000B0H.2 SFRSYM    DATA     BIT       P3_2
      000000A0H.3 SFRSYM    DATA     BIT       P2_3
      00000090H.4 SFRSYM    DATA     BIT       P1_4
      00000080H.5 SFRSYM    DATA     BIT       P0_5
      000000C0H.2 SFRSYM    DATA     BIT       P4_2
      000000B0H.3 SFRSYM    DATA     BIT       P3_3
      000000A0H.4 SFRSYM    DATA     BIT       P2_4
      00000090H.5 SFRSYM    DATA     BIT       P1_5
      00000080H.6 SFRSYM    DATA     BIT       P0_6
      000000C8H.6 SFRSYM    DATA     BIT       EXF2
      000000A6H   SFRSYM    DATA     BYTE      TKF0
      000000B8H   SFRSYM    DATA     BYTE      IPL0
      000000C0H.3 SFRSYM    DATA     BIT       P4_3
      000000B0H.4 SFRSYM    DATA     BIT       P3_4
      000000A0H.5 SFRSYM    DATA     BIT       P2_5
      00000090H.6 SFRSYM    DATA     BIT       P1_6
LX51 LINKER/LOCATER V4.66.41.0                                                        11/18/2021  18:51:21  PAGE 232


      00000080H.7 SFRSYM    DATA     BIT       P0_7
      000000D8H.4 SFRSYM    DATA     BIT       REN1
      000000B9H   SFRSYM    DATA     BYTE      IPL1
      000000C0H.4 SFRSYM    DATA     BIT       P4_4
      000000B0H.5 SFRSYM    DATA     BIT       P3_5
      000000A0H.6 SFRSYM    DATA     BIT       P2_6
      00000090H.7 SFRSYM    DATA     BIT       P1_7
      000000E2H   SFRSYM    DATA     BYTE      TK0H
      0000008EH   SFRSYM    DATA     BYTE      SUSLO
      000000C0H.5 SFRSYM    DATA     BIT       P4_5
      000000B0H.6 SFRSYM    DATA     BIT       P3_6
      000000A0H.7 SFRSYM    DATA     BIT       P2_7
      000000E4H   SFRSYM    DATA     BYTE      TK1H
      000000C0H.6 SFRSYM    DATA     BIT       P4_6
      000000B0H.7 SFRSYM    DATA     BIT       P3_7
      000000E6H   SFRSYM    DATA     BYTE      TK2H
      000000C0H.7 SFRSYM    DATA     BIT       P4_7
      00000098H   SFRSYM    DATA     BIT       RI
      000000A8H.2 SFRSYM    DATA     BIT       E7816
      000000D0H.7 SFRSYM    DATA     BIT       CY
      000000E1H   SFRSYM    DATA     BYTE      TK0L
      00000098H.1 SFRSYM    DATA     BIT       TI
      00000091H   SFRSYM    DATA     BYTE      EADR
      000000E3H   SFRSYM    DATA     BYTE      TK1L
      000000E5H   SFRSYM    DATA     BYTE      TK2L
      000000DBH   SFRSYM    DATA     BYTE      SADEN1
      000000D8H.7 SFRSYM    DATA     BIT       SM10_FE1
      000000FBH   SFRSYM    DATA     BYTE      SADEN2
      000000B8H.4 SFRSYM    DATA     BIT       PS0L
      000000B8H.1 SFRSYM    DATA     BIT       PT0L
      000000DAH   SFRSYM    DATA     BYTE      SADDR1
      000000D8H.5 SFRSYM    DATA     BIT       SM12_TXCOL1
      000000B8H.3 SFRSYM    DATA     BIT       PT1L
      000000FAH   SFRSYM    DATA     BYTE      SADDR2
      000000CBH   SFRSYM    DATA     BYTE      RCAP2H
      000000B8H.5 SFRSYM    DATA     BIT       PT2L
      00000081H   SFRSYM    DATA     BYTE      SP
      000000D0H.2 SFRSYM    DATA     BIT       OV
      000000CAH   SFRSYM    DATA     BYTE      RCAP2L
      000000B8H   SFRSYM    DATA     BIT       PX4L
      000000C8H.1 SFRSYM    DATA     BIT       C_T2
      000000DEH   SFRSYM    DATA     BYTE      SFINE2
      000000ADH   SFRSYM    DATA     BYTE      IRCON1
      000000AFH   SFRSYM    DATA     BYTE      IRCON2
      000000ABH   SFRSYM    DATA     BYTE      EXCON1
      00000099H   SFRSYM    DATA     BYTE      SBUF
      000000ACH   SFRSYM    DATA     BYTE      EXCON2
      00000087H   SFRSYM    DATA     BYTE      PCON
      000000F1H   SFRSYM    DATA     BYTE      AUXC
      00000098H   SFRSYM    DATA     BYTE      SCON
      000000D4H   SFRSYM    DATA     BYTE      TK0BASEH
      00000089H   SFRSYM    DATA     BYTE      TMOD
      00000088H   SFRSYM    DATA     BYTE      TCON
      000000AAH   SFRSYM    DATA     BYTE      IENX
      000000EEH   SFRSYM    DATA     BYTE      IB_OFFSET
      000000D6H   SFRSYM    DATA     BYTE      TK1BASEH
      000000DCH   SFRSYM    DATA     BYTE      SBRT1H
      000000DFH   SFRSYM    DATA     BYTE      TK2BASEH
      000000FCH   SFRSYM    DATA     BYTE      SBRT2H
      000000B1H   SFRSYM    DATA     BYTE      RSTSTAT
      000000D3H   SFRSYM    DATA     BYTE      TK0BASEL
      000000D5H   SFRSYM    DATA     BYTE      TK1BASEL
      000000DDH   SFRSYM    DATA     BYTE      SBRT1L
      000000D7H   SFRSYM    DATA     BYTE      TK2BASEL
      000000FDH   SFRSYM    DATA     BYTE      SBRT2L
LX51 LINKER/LOCATER V4.66.41.0                                                        11/18/2021  18:51:21  PAGE 233


      00000098H.7 SFRSYM    DATA     BIT       SM0_FE
      000000B2H   SFRSYM    DATA     BYTE      CLKCON
      00000098H.5 SFRSYM    DATA     BIT       SM2_TXCOL
      000000B5H   SFRSYM    DATA     BYTE      LDOCON
      000000F0H   SFRSYM    DATA     BYTE      B
      000000C8H   SFRSYM    DATA     BIT       CP_RL2
      000000E0H   SFRSYM    DATA     BYTE      ACC
      000000A8H.4 SFRSYM    DATA     BIT       ES0
      000000A8H.1 SFRSYM    DATA     BIT       ET0
      000000A8H.3 SFRSYM    DATA     BIT       ET1
      00000088H.5 SFRSYM    DATA     BIT       TF0
      000000A8H.5 SFRSYM    DATA     BIT       ET2
      00000088H.7 SFRSYM    DATA     BIT       TF1
      000000D8H   SFRSYM    DATA     BIT       RI1
      00000098H.2 SFRSYM    DATA     BIT       RB8
      000000C8H.7 SFRSYM    DATA     BIT       TF2
      0000008CH   SFRSYM    DATA     BYTE      TH0
      00000086H   SFRSYM    DATA     BYTE      INSCON
      0000008DH   SFRSYM    DATA     BYTE      TH1
      000000D8H.1 SFRSYM    DATA     BIT       TI1
      00000098H.3 SFRSYM    DATA     BIT       TB8
      000000CDH   SFRSYM    DATA     BYTE      TH2
      000000D0H   SFRSYM    DATA     BIT       P
      0000008AH   SFRSYM    DATA     BYTE      TL0
      000000A8H   SFRSYM    DATA     BIT       EX4
      0000008BH   SFRSYM    DATA     BYTE      TL1
      000000A7H   SFRSYM    DATA     BYTE      FLASHCON
      000000CCH   SFRSYM    DATA     BYTE      TL2
      000000D0H.3 SFRSYM    DATA     BIT       RS0
      000000C5H   SFRSYM    DATA     BYTE      ADCDH
      00000088H.4 SFRSYM    DATA     BIT       TR0
      000000D0H.4 SFRSYM    DATA     BIT       RS1
      0000009FH   SFRSYM    DATA     BYTE      PWMCON
      00000088H.6 SFRSYM    DATA     BIT       TR1
      000000C8H.2 SFRSYM    DATA     BIT       TR2
      000000C4H   SFRSYM    DATA     BYTE      ADCDL
      000000C2H   SFRSYM    DATA     BYTE      ADT
      00000083H   SFRSYM    DATA     BYTE      DPH
      00000082H   SFRSYM    DATA     BYTE      DPL
      000000D9H   SFRSYM    DATA     BYTE      SBUF1
      000000C8H.3 SFRSYM    DATA     BIT       EXEN2
      000000F9H   SFRSYM    DATA     BYTE      SBUF2
      000000D8H.6 SFRSYM    DATA     BIT       SM11_RXOV1
      000000B8H.6 SFRSYM    DATA     BIT       PADCL
      00000098H.4 SFRSYM    DATA     BIT       REN
      000000D8H   SFRSYM    DATA     BYTE      SCON1
      000000D1H   SFRSYM    DATA     BYTE      LCDCON1
      000000C1H   SFRSYM    DATA     BYTE      ADCON
      000000F8H   SFRSYM    DATA     BYTE      SCON2
      0000008FH   SFRSYM    DATA     BYTE      TCON1
      000000D2H   SFRSYM    DATA     BYTE      LCDCON2
      00000092H   SFRSYM    DATA     BYTE      EDTAH
      000000C9H   SFRSYM    DATA     BYTE      T2MOD
      000000C8H   SFRSYM    DATA     BYTE      T2CON
      00000094H   SFRSYM    DATA     BYTE      EDTAL
      00000093H   SFRSYM    DATA     BYTE      EDTAM
      000000BCH   SFRSYM    DATA     BYTE      TK0DIFH
      0000009BH   SFRSYM    DATA     BYTE      SADEN
      000000BEH   SFRSYM    DATA     BYTE      TK1DIFH
      000000B6H   SFRSYM    DATA     BYTE      PBANK
      000000A5H   SFRSYM    DATA     BYTE      TK2DIFH
      000000A8H.6 SFRSYM    DATA     BIT       EADTP
      0000009AH   SFRSYM    DATA     BYTE      SADDR
      000000CFH   SFRSYM    DATA     BYTE      TK0DIFL
      000000BDH   SFRSYM    DATA     BYTE      TK1DIFL
LX51 LINKER/LOCATER V4.66.41.0                                                        11/18/2021  18:51:21  PAGE 234


      000000BFH   SFRSYM    DATA     BYTE      TK2DIFL
      000000B8H.2 SFRSYM    DATA     BIT       P7816L
      000000C6H   SFRSYM    DATA     BYTE      LPDCON1
      000000C7H   SFRSYM    DATA     BYTE      LPDCON2
      000000D0H.5 SFRSYM    DATA     BIT       F0
      000000AEH   SFRSYM    DATA     BYTE      IRDAT
      000000D0H.1 SFRSYM    DATA     BIT       F1
      00000096H   SFRSYM    DATA     BYTE      EMUIE
      0000009EH   SFRSYM    DATA     BYTE      SFINE
      000000F7H   SFRSYM    DATA     BYTE      XPAGE
      00000097H   SFRSYM    DATA     BYTE      EMUIF
      000000D0H   SFRSYM    DATA     BYTE      PSW
      000000D8H.2 SFRSYM    DATA     BIT       RB81
      000000A3H   SFRSYM    DATA     BYTE      SPDAT
      000000F2H   SFRSYM    DATA     BYTE      IB_CON1

      01004419H   BLOCK     CODE     ---       LVL=0
      01004419H   LINE      ---      ---       #115
      0100442BH   LINE      ---      ---       #116
      0100442BH   LINE      ---      ---       #118
      0100442DH   LINE      ---      ---       #120
      01004434H   LINE      ---      ---       #121
      01004441H   LINE      ---      ---       #122
      0100444FH   LINE      ---      ---       #123
      01004452H   LINE      ---      ---       #126
      01004455H   LINE      ---      ---       #127
      01004458H   LINE      ---      ---       #128
      0100445BH   LINE      ---      ---       #129
      0100445EH   LINE      ---      ---       #130
      01004467H   LINE      ---      ---       #131
      01004467H   LINE      ---      ---       #132
      0100446AH   LINE      ---      ---       #133
      0100446BH   LINE      ---      ---       #134
      0100446CH   LINE      ---      ---       #135
      0100446DH   LINE      ---      ---       #136
      0100446EH   LINE      ---      ---       #137
      0100446EH   LINE      ---      ---       #139
      01004471H   LINE      ---      ---       #140
      01004474H   LINE      ---      ---       #141
      01004476H   LINE      ---      ---       #143
      02000CCFH   SYMBOL    XDATA    WORD      adr
      02000CD1H   SYMBOL    XDATA    BYTE      dat
      02000CD2H   SYMBOL    XDATA    BYTE      sta
      ---         BLOCKEND  ---      ---       LVL=0

      01004477H   BLOCK     CODE     ---       LVL=0
      01004477H   LINE      ---      ---       #159
      01004488H   LINE      ---      ---       #160
      02000986H   SYMBOL    XDATA    WORD      Dst
      02000988H   SYMBOL    XDATA    ---       Src
      0200098BH   SYMBOL    XDATA    WORD      Len
      01004488H   BLOCK     CODE     NEAR LAB  LVL=1
      01004488H   LINE      ---      ---       #161
      01004488H   LINE      ---      ---       #163
      0100448BH   LINE      ---      ---       #165
      0100448EH   LINE      ---      ---       #169
      0100448FH   LINE      ---      ---       #170
      01004490H   LINE      ---      ---       #171
      01004495H   LINE      ---      ---       #172
      01004495H   LINE      ---      ---       #173
      01004498H   LINE      ---      ---       #174
      01004498H   LINE      ---      ---       #176
      010044A0H   LINE      ---      ---       #177
      010044A0H   LINE      ---      ---       #178
      010044A3H   LINE      ---      ---       #179
LX51 LINKER/LOCATER V4.66.41.0                                                        11/18/2021  18:51:21  PAGE 235


      010044A3H   LINE      ---      ---       #181
      010044C0H   LINE      ---      ---       #182
      010044C0H   LINE      ---      ---       #183
      010044C3H   LINE      ---      ---       #184
      010044C3H   LINE      ---      ---       #185
      010044D2H   LINE      ---      ---       #186
      010044D2H   LINE      ---      ---       #187
      010044E1H   LINE      ---      ---       #188
      010044EFH   LINE      ---      ---       #189
      010044FDH   LINE      ---      ---       #190
      01004507H   LINE      ---      ---       #191
      01004515H   LINE      ---      ---       #192
      01004517H   LINE      ---      ---       #194
      01004519H   LINE      ---      ---       #195
      00000004H   SYMBOL    DATA     BYTE      Dat
      ---         BLOCKEND  CODE     ---       LVL=1
      ---         BLOCKEND  CODE     ---       LVL=0

      0100451AH   BLOCK     CODE     ---       LVL=0
      0100451AH   LINE      ---      ---       #210
      0100451EH   LINE      ---      ---       #211
      00000082H   SYMBOL    DATA     WORD      adr
      00000005H   SYMBOL    DATA     BYTE      sta
      0100451EH   BLOCK     CODE     NEAR LAB  LVL=1
      0100451EH   LINE      ---      ---       #212
      01004520H   LINE      ---      ---       #214
      01004524H   LINE      ---      ---       #215
      01004524H   LINE      ---      ---       #217
      01004526H   LINE      ---      ---       #218
      01004529H   LINE      ---      ---       #219
      0100452CH   LINE      ---      ---       #220
      0100452FH   LINE      ---      ---       #221
      01004531H   LINE      ---      ---       #223
      01004531H   LINE      ---      ---       #225
      01004531H   LINE      ---      ---       #226
      00000007H   SYMBOL    DATA     BYTE      t_tmp
      ---         BLOCKEND  CODE     ---       LVL=1
      ---         BLOCKEND  CODE     ---       LVL=0

      01004532H   BLOCK     CODE     ---       LVL=0
      01004550H   LINE      ---      ---       #242
      01004558H   LINE      ---      ---       #243
      01004558H   LINE      ---      ---       #245
      0100455BH   LINE      ---      ---       #247
      0100455EH   LINE      ---      ---       #251
      0100455FH   LINE      ---      ---       #252
      01004560H   LINE      ---      ---       #253
      01004565H   LINE      ---      ---       #254
      01004565H   LINE      ---      ---       #255
      01004568H   LINE      ---      ---       #256
      01004568H   LINE      ---      ---       #258
      01004585H   LINE      ---      ---       #259
      01004585H   LINE      ---      ---       #260
      01004588H   LINE      ---      ---       #261
      01004588H   LINE      ---      ---       #263
      01004597H   LINE      ---      ---       #264
      01004597H   LINE      ---      ---       #265
      010045A7H   LINE      ---      ---       #266
      010045AEH   LINE      ---      ---       #267
      010045BCH   LINE      ---      ---       #268
      010045CAH   LINE      ---      ---       #269
      010045CCH   LINE      ---      ---       #271
      010045CEH   LINE      ---      ---       #272
      00000001H   SYMBOL    DATA     ---       Dst
      02000989H   SYMBOL    XDATA    WORD      Src
LX51 LINKER/LOCATER V4.66.41.0                                                        11/18/2021  18:51:21  PAGE 236


      0200098BH   SYMBOL    XDATA    WORD      Len
      ---         BLOCKEND  ---      ---       LVL=0

      010045CFH   BLOCK     CODE     ---       LVL=0
      010045D8H   LINE      ---      ---       #290
      010045EAH   LINE      ---      ---       #291
      010045EAH   LINE      ---      ---       #294
      010045EDH   LINE      ---      ---       #296
      010045F0H   LINE      ---      ---       #300
      010045F1H   LINE      ---      ---       #301
      010045F2H   LINE      ---      ---       #302
      010045F7H   LINE      ---      ---       #303
      010045F7H   LINE      ---      ---       #305
      010045F7H   LINE      ---      ---       #306
      01004601H   LINE      ---      ---       #307
      01004601H   LINE      ---      ---       #309
      01004601H   LINE      ---      ---       #312
      01004603H   LINE      ---      ---       #313
      0100460AH   LINE      ---      ---       #314
      01004617H   LINE      ---      ---       #315
      01004625H   LINE      ---      ---       #316
      01004628H   LINE      ---      ---       #319
      0100462BH   LINE      ---      ---       #320
      0100462EH   LINE      ---      ---       #321
      01004631H   LINE      ---      ---       #322
      01004634H   LINE      ---      ---       #324
      0100463DH   LINE      ---      ---       #325
      0100463DH   LINE      ---      ---       #326
      01004640H   LINE      ---      ---       #327
      01004641H   LINE      ---      ---       #328
      01004642H   LINE      ---      ---       #329
      01004643H   LINE      ---      ---       #330
      01004644H   LINE      ---      ---       #331
      01004644H   LINE      ---      ---       #333
      01004647H   LINE      ---      ---       #334
      0100464AH   LINE      ---      ---       #335
      0100464CH   LINE      ---      ---       #337
      02000CD3H   SYMBOL    XDATA    WORD      adr
      02000CD5H   SYMBOL    XDATA    BYTE      dat
      02000CD6H   SYMBOL    XDATA    BYTE      sta
      ---         BLOCKEND  ---      ---       LVL=0

      ---         MODULE    ---      ---       KEYDRV
      0100465CH   PUBLIC    CODE     ---       DrvKey_DisplayKeyMonitor
      010046FCH   PUBLIC    CODE     ---       DrvKey_FactoryKeyMonitor
      0100464DH   PUBLIC    CODE     ---       DrvKey_DisplayKeyInit
      01000008H   PUBLIC    CODE     ---       DrvKey_FactoryKeyInit
      000000F3H   SFRSYM    DATA     BYTE      IB_CON2
      000000D8H.3 SFRSYM    DATA     BIT       TB81
      00000080H   SFRSYM    DATA     BYTE      P0
      000000F4H   SFRSYM    DATA     BYTE      IB_CON3
      000000A4H   SFRSYM    DATA     BYTE      TKCON
      00000090H   SFRSYM    DATA     BYTE      P1
      000000F5H   SFRSYM    DATA     BYTE      IB_CON4
      000000E7H   SFRSYM    DATA     BYTE      PASLO
      000000A0H   SFRSYM    DATA     BYTE      P2
      000000FEH   SFRSYM    DATA     BYTE      OSCLO
      000000F6H   SFRSYM    DATA     BYTE      IB_CON5
      00000098H.6 SFRSYM    DATA     BIT       SM1_RXOV
      000000B0H   SFRSYM    DATA     BYTE      P3
      000000D0H.6 SFRSYM    DATA     BIT       AC
      000000C0H   SFRSYM    DATA     BYTE      P4
      000000A1H   SFRSYM    DATA     BYTE      SPCON
      0000009CH   SFRSYM    DATA     BYTE      SBRTH
      000000E9H   SFRSYM    DATA     BYTE      P5
LX51 LINKER/LOCATER V4.66.41.0                                                        11/18/2021  18:51:21  PAGE 237


      000000A8H.7 SFRSYM    DATA     BIT       EA
      000000EAH   SFRSYM    DATA     BYTE      P6
      000000EBH   SFRSYM    DATA     BYTE      P7
      000000EFH   SFRSYM    DATA     BYTE      IB_DATA
      000000ECH   SFRSYM    DATA     BYTE      P8
      0000009DH   SFRSYM    DATA     BYTE      SBRTL
      000000EDH   SFRSYM    DATA     BYTE      P9
      000000B7H   SFRSYM    DATA     BYTE      PBANKLO
      000000A2H   SFRSYM    DATA     BYTE      SPSTA
      000000A8H   SFRSYM    DATA     BYTE      IEN0
      000000B3H   SFRSYM    DATA     BYTE      PWRCON1
      00000095H   SFRSYM    DATA     BYTE      EMUSR
      000000A9H   SFRSYM    DATA     BYTE      IEN1
      000000B4H   SFRSYM    DATA     BYTE      PWRCON2
      00000085H   SFRSYM    DATA     BYTE      DPH1
      00000080H   SFRSYM    DATA     BIT       P0_0
      00000090H   SFRSYM    DATA     BIT       P1_0
      00000080H.1 SFRSYM    DATA     BIT       P0_1
      000000C3H   SFRSYM    DATA     BYTE      ADCH
      000000A0H   SFRSYM    DATA     BIT       P2_0
      00000090H.1 SFRSYM    DATA     BIT       P1_1
      00000080H.2 SFRSYM    DATA     BIT       P0_2
      000000BAH   SFRSYM    DATA     BYTE      IPH0
      00000084H   SFRSYM    DATA     BYTE      DPL1
      000000B0H   SFRSYM    DATA     BIT       P3_0
      000000A0H.1 SFRSYM    DATA     BIT       P2_1
      00000090H.2 SFRSYM    DATA     BIT       P1_2
      00000080H.3 SFRSYM    DATA     BIT       P0_3
      000000BBH   SFRSYM    DATA     BYTE      IPH1
      000000C0H   SFRSYM    DATA     BIT       P4_0
      000000B0H.1 SFRSYM    DATA     BIT       P3_1
      000000A0H.2 SFRSYM    DATA     BIT       P2_2
      00000090H.3 SFRSYM    DATA     BIT       P1_3
      00000080H.4 SFRSYM    DATA     BIT       P0_4
      000000E8H   SFRSYM    DATA     BYTE      EXF0
      000000C0H.1 SFRSYM    DATA     BIT       P4_1
      000000B0H.2 SFRSYM    DATA     BIT       P3_2
      000000A0H.3 SFRSYM    DATA     BIT       P2_3
      00000090H.4 SFRSYM    DATA     BIT       P1_4
      00000080H.5 SFRSYM    DATA     BIT       P0_5
      000000C0H.2 SFRSYM    DATA     BIT       P4_2
      000000B0H.3 SFRSYM    DATA     BIT       P3_3
      000000A0H.4 SFRSYM    DATA     BIT       P2_4
      00000090H.5 SFRSYM    DATA     BIT       P1_5
      00000080H.6 SFRSYM    DATA     BIT       P0_6
      000000C8H.6 SFRSYM    DATA     BIT       EXF2
      000000A6H   SFRSYM    DATA     BYTE      TKF0
      000000B8H   SFRSYM    DATA     BYTE      IPL0
      000000C0H.3 SFRSYM    DATA     BIT       P4_3
      000000B0H.4 SFRSYM    DATA     BIT       P3_4
      000000A0H.5 SFRSYM    DATA     BIT       P2_5
      00000090H.6 SFRSYM    DATA     BIT       P1_6
      00000080H.7 SFRSYM    DATA     BIT       P0_7
      000000D8H.4 SFRSYM    DATA     BIT       REN1
      000000B9H   SFRSYM    DATA     BYTE      IPL1
      000000C0H.4 SFRSYM    DATA     BIT       P4_4
      000000B0H.5 SFRSYM    DATA     BIT       P3_5
      000000A0H.6 SFRSYM    DATA     BIT       P2_6
      00000090H.7 SFRSYM    DATA     BIT       P1_7
      000000E2H   SFRSYM    DATA     BYTE      TK0H
      0000008EH   SFRSYM    DATA     BYTE      SUSLO
      000000C0H.5 SFRSYM    DATA     BIT       P4_5
      000000B0H.6 SFRSYM    DATA     BIT       P3_6
      000000A0H.7 SFRSYM    DATA     BIT       P2_7
      000000E4H   SFRSYM    DATA     BYTE      TK1H
LX51 LINKER/LOCATER V4.66.41.0                                                        11/18/2021  18:51:21  PAGE 238


      000000C0H.6 SFRSYM    DATA     BIT       P4_6
      000000B0H.7 SFRSYM    DATA     BIT       P3_7
      000000E6H   SFRSYM    DATA     BYTE      TK2H
      000000C0H.7 SFRSYM    DATA     BIT       P4_7
      00000098H   SFRSYM    DATA     BIT       RI
      000000A8H.2 SFRSYM    DATA     BIT       E7816
      000000D0H.7 SFRSYM    DATA     BIT       CY
      000000E1H   SFRSYM    DATA     BYTE      TK0L
      00000098H.1 SFRSYM    DATA     BIT       TI
      00000091H   SFRSYM    DATA     BYTE      EADR
      000000E3H   SFRSYM    DATA     BYTE      TK1L
      000000E5H   SFRSYM    DATA     BYTE      TK2L
      000000DBH   SFRSYM    DATA     BYTE      SADEN1
      000000D8H.7 SFRSYM    DATA     BIT       SM10_FE1
      000000FBH   SFRSYM    DATA     BYTE      SADEN2
      000000B8H.4 SFRSYM    DATA     BIT       PS0L
      000000B8H.1 SFRSYM    DATA     BIT       PT0L
      000000DAH   SFRSYM    DATA     BYTE      SADDR1
      000000D8H.5 SFRSYM    DATA     BIT       SM12_TXCOL1
      000000B8H.3 SFRSYM    DATA     BIT       PT1L
      000000FAH   SFRSYM    DATA     BYTE      SADDR2
      000000CBH   SFRSYM    DATA     BYTE      RCAP2H
      000000B8H.5 SFRSYM    DATA     BIT       PT2L
      00000081H   SFRSYM    DATA     BYTE      SP
      000000D0H.2 SFRSYM    DATA     BIT       OV
      000000CAH   SFRSYM    DATA     BYTE      RCAP2L
      000000B8H   SFRSYM    DATA     BIT       PX4L
      000000C8H.1 SFRSYM    DATA     BIT       C_T2
      000000DEH   SFRSYM    DATA     BYTE      SFINE2
      000000ADH   SFRSYM    DATA     BYTE      IRCON1
      000000AFH   SFRSYM    DATA     BYTE      IRCON2
      000000ABH   SFRSYM    DATA     BYTE      EXCON1
      00000099H   SFRSYM    DATA     BYTE      SBUF
      000000ACH   SFRSYM    DATA     BYTE      EXCON2
      00000087H   SFRSYM    DATA     BYTE      PCON
      000000F1H   SFRSYM    DATA     BYTE      AUXC
      00000098H   SFRSYM    DATA     BYTE      SCON
      000000D4H   SFRSYM    DATA     BYTE      TK0BASEH
      00000089H   SFRSYM    DATA     BYTE      TMOD
      00000088H   SFRSYM    DATA     BYTE      TCON
      000000AAH   SFRSYM    DATA     BYTE      IENX
      000000EEH   SFRSYM    DATA     BYTE      IB_OFFSET
      000000D6H   SFRSYM    DATA     BYTE      TK1BASEH
      000000DCH   SFRSYM    DATA     BYTE      SBRT1H
      000000DFH   SFRSYM    DATA     BYTE      TK2BASEH
      000000FCH   SFRSYM    DATA     BYTE      SBRT2H
      000000B1H   SFRSYM    DATA     BYTE      RSTSTAT
      000000D3H   SFRSYM    DATA     BYTE      TK0BASEL
      000000D5H   SFRSYM    DATA     BYTE      TK1BASEL
      000000DDH   SFRSYM    DATA     BYTE      SBRT1L
      000000D7H   SFRSYM    DATA     BYTE      TK2BASEL
      000000FDH   SFRSYM    DATA     BYTE      SBRT2L
      00000098H.7 SFRSYM    DATA     BIT       SM0_FE
      000000B2H   SFRSYM    DATA     BYTE      CLKCON
      00000098H.5 SFRSYM    DATA     BIT       SM2_TXCOL
      000000B5H   SFRSYM    DATA     BYTE      LDOCON
      000000F0H   SFRSYM    DATA     BYTE      B
      000000C8H   SFRSYM    DATA     BIT       CP_RL2
      000000E0H   SFRSYM    DATA     BYTE      ACC
      000000A8H.4 SFRSYM    DATA     BIT       ES0
      000000A8H.1 SFRSYM    DATA     BIT       ET0
      000000A8H.3 SFRSYM    DATA     BIT       ET1
      00000088H.5 SFRSYM    DATA     BIT       TF0
      000000A8H.5 SFRSYM    DATA     BIT       ET2
      00000088H.7 SFRSYM    DATA     BIT       TF1
LX51 LINKER/LOCATER V4.66.41.0                                                        11/18/2021  18:51:21  PAGE 239


      000000D8H   SFRSYM    DATA     BIT       RI1
      00000098H.2 SFRSYM    DATA     BIT       RB8
      000000C8H.7 SFRSYM    DATA     BIT       TF2
      0000008CH   SFRSYM    DATA     BYTE      TH0
      00000086H   SFRSYM    DATA     BYTE      INSCON
      0000008DH   SFRSYM    DATA     BYTE      TH1
      000000D8H.1 SFRSYM    DATA     BIT       TI1
      00000098H.3 SFRSYM    DATA     BIT       TB8
      000000CDH   SFRSYM    DATA     BYTE      TH2
      000000D0H   SFRSYM    DATA     BIT       P
      0000008AH   SFRSYM    DATA     BYTE      TL0
      000000A8H   SFRSYM    DATA     BIT       EX4
      0000008BH   SFRSYM    DATA     BYTE      TL1
      000000A7H   SFRSYM    DATA     BYTE      FLASHCON
      000000CCH   SFRSYM    DATA     BYTE      TL2
      000000D0H.3 SFRSYM    DATA     BIT       RS0
      000000C5H   SFRSYM    DATA     BYTE      ADCDH
      00000088H.4 SFRSYM    DATA     BIT       TR0
      000000D0H.4 SFRSYM    DATA     BIT       RS1
      0000009FH   SFRSYM    DATA     BYTE      PWMCON
      00000088H.6 SFRSYM    DATA     BIT       TR1
      000000C8H.2 SFRSYM    DATA     BIT       TR2
      000000C4H   SFRSYM    DATA     BYTE      ADCDL
      000000C2H   SFRSYM    DATA     BYTE      ADT
      00000083H   SFRSYM    DATA     BYTE      DPH
      00000082H   SFRSYM    DATA     BYTE      DPL
      000000D9H   SFRSYM    DATA     BYTE      SBUF1
      000000C8H.3 SFRSYM    DATA     BIT       EXEN2
      000000F9H   SFRSYM    DATA     BYTE      SBUF2
      000000D8H.6 SFRSYM    DATA     BIT       SM11_RXOV1
      000000B8H.6 SFRSYM    DATA     BIT       PADCL
      00000098H.4 SFRSYM    DATA     BIT       REN
      000000D8H   SFRSYM    DATA     BYTE      SCON1
      000000D1H   SFRSYM    DATA     BYTE      LCDCON1
      000000C1H   SFRSYM    DATA     BYTE      ADCON
      000000F8H   SFRSYM    DATA     BYTE      SCON2
      0000008FH   SFRSYM    DATA     BYTE      TCON1
      000000D2H   SFRSYM    DATA     BYTE      LCDCON2
      00000092H   SFRSYM    DATA     BYTE      EDTAH
      000000C9H   SFRSYM    DATA     BYTE      T2MOD
      000000C8H   SFRSYM    DATA     BYTE      T2CON
      00000094H   SFRSYM    DATA     BYTE      EDTAL
      00000093H   SFRSYM    DATA     BYTE      EDTAM
      000000BCH   SFRSYM    DATA     BYTE      TK0DIFH
      0000009BH   SFRSYM    DATA     BYTE      SADEN
      000000BEH   SFRSYM    DATA     BYTE      TK1DIFH
      000000B6H   SFRSYM    DATA     BYTE      PBANK
      000000A5H   SFRSYM    DATA     BYTE      TK2DIFH
      000000A8H.6 SFRSYM    DATA     BIT       EADTP
      0000009AH   SFRSYM    DATA     BYTE      SADDR
      000000CFH   SFRSYM    DATA     BYTE      TK0DIFL
      000000BDH   SFRSYM    DATA     BYTE      TK1DIFL
      000000BFH   SFRSYM    DATA     BYTE      TK2DIFL
      000000B8H.2 SFRSYM    DATA     BIT       P7816L
      000000C6H   SFRSYM    DATA     BYTE      LPDCON1
      000000C7H   SFRSYM    DATA     BYTE      LPDCON2
      000000D0H.5 SFRSYM    DATA     BIT       F0
      000000AEH   SFRSYM    DATA     BYTE      IRDAT
      000000D0H.1 SFRSYM    DATA     BIT       F1
      00000096H   SFRSYM    DATA     BYTE      EMUIE
      0000009EH   SFRSYM    DATA     BYTE      SFINE
      000000F7H   SFRSYM    DATA     BYTE      XPAGE
      00000097H   SFRSYM    DATA     BYTE      EMUIF
      000000D0H   SFRSYM    DATA     BYTE      PSW
      000000D8H.2 SFRSYM    DATA     BIT       RB81
LX51 LINKER/LOCATER V4.66.41.0                                                        11/18/2021  18:51:21  PAGE 240


      000000A3H   SFRSYM    DATA     BYTE      SPDAT
      000000F2H   SFRSYM    DATA     BYTE      IB_CON1

      01000008H   BLOCK     CODE     ---       LVL=0
      01000008H   LINE      ---      ---       #86
      01000008H   LINE      ---      ---       #87
      01000008H   LINE      ---      ---       #88
      01000009H   LINE      ---      ---       #89
      0100000AH   LINE      ---      ---       #90
      ---         BLOCKEND  ---      ---       LVL=0

      0100464DH   BLOCK     CODE     ---       LVL=0
      0100464DH   LINE      ---      ---       #102
      0100464DH   LINE      ---      ---       #103
      0100464DH   LINE      ---      ---       #104
      01004654H   LINE      ---      ---       #105
      0100465BH   LINE      ---      ---       #106
      ---         BLOCKEND  ---      ---       LVL=0

      010046FCH   BLOCK     CODE     ---       LVL=0
      010046FCH   LINE      ---      ---       #119
      010046FCH   LINE      ---      ---       #120
      010046FCH   LINE      ---      ---       #122
      010046FFH   LINE      ---      ---       #124
      010046FFH   LINE      ---      ---       #125
      01004706H   LINE      ---      ---       #126
      01004706H   LINE      ---      ---       #146
      ---         BLOCKEND  ---      ---       LVL=0

      0100465CH   BLOCK     CODE     ---       LVL=0
      0100465CH   LINE      ---      ---       #158
      0100465CH   LINE      ---      ---       #159
      0100465CH   LINE      ---      ---       #161
      0100465EH   LINE      ---      ---       #164
      01004665H   LINE      ---      ---       #165
      01004665H   LINE      ---      ---       #166
      0100466CH   LINE      ---      ---       #167
      0100466CH   LINE      ---      ---       #168
      01004670H   LINE      ---      ---       #169
      01004674H   LINE      ---      ---       #170
      01004679H   LINE      ---      ---       #171
      01004679H   LINE      ---      ---       #172
      0100467AH   LINE      ---      ---       #173
      01004681H   LINE      ---      ---       #174
      01004681H   LINE      ---      ---       #175
      01004686H   LINE      ---      ---       #176
      01004686H   LINE      ---      ---       #177
      0100468CH   LINE      ---      ---       #178
      01004694H   LINE      ---      ---       #179
      01004694H   LINE      ---      ---       #180
      0100469BH   LINE      ---      ---       #181
      0100469FH   LINE      ---      ---       #183
      010046A4H   LINE      ---      ---       #184
      010046ABH   LINE      ---      ---       #185
      010046B5H   LINE      ---      ---       #186
      010046BBH   LINE      ---      ---       #188
      010046C1H   LINE      ---      ---       #189
      010046C1H   LINE      ---      ---       #190
      010046C5H   LINE      ---      ---       #191
      010046CBH   LINE      ---      ---       #192
      010046CCH   LINE      ---      ---       #194
      010046CCH   LINE      ---      ---       #195
      010046D2H   LINE      ---      ---       #196
      010046DFH   LINE      ---      ---       #197
      010046DFH   LINE      ---      ---       #198
LX51 LINKER/LOCATER V4.66.41.0                                                        11/18/2021  18:51:21  PAGE 241


      010046E1H   LINE      ---      ---       #199
      010046E1H   LINE      ---      ---       #200
      010046E1H   LINE      ---      ---       #201
      010046E1H   LINE      ---      ---       #202
      010046E2H   LINE      ---      ---       #210
      010046E9H   LINE      ---      ---       #211
      010046E9H   LINE      ---      ---       #212
      010046EEH   LINE      ---      ---       #213
      010046EEH   LINE      ---      ---       #214
      010046EEH   LINE      ---      ---       #215
      010046EEH   LINE      ---      ---       #216
      010046EEH   LINE      ---      ---       #217
      010046F0H   LINE      ---      ---       #219
      010046F0H   LINE      ---      ---       #220
      010046F5H   LINE      ---      ---       #221
      010046FBH   LINE      ---      ---       #222
      010046FBH   LINE      ---      ---       #224
      ---         BLOCKEND  ---      ---       LVL=0

      ---         MODULE    ---      ---       LCDDRV
      01004743H   PUBLIC    CODE     ---       LCDDrv_DispRamUpdata
      0100478FH   PUBLIC    CODE     ---       LCDDrv_PwOnRegCfg
      01004730H   PUBLIC    CODE     ---       _LCDDrv_SetLcdBuff
      01004776H   PUBLIC    CODE     ---       LCDDrv_SgeComConfig
      01004707H   PUBLIC    CODE     ---       _LCDDrv_Init
      000000F3H   SFRSYM    DATA     BYTE      IB_CON2
      000000D8H.3 SFRSYM    DATA     BIT       TB81
      00000080H   SFRSYM    DATA     BYTE      P0
      000000F4H   SFRSYM    DATA     BYTE      IB_CON3
      000000A4H   SFRSYM    DATA     BYTE      TKCON
      00000090H   SFRSYM    DATA     BYTE      P1
      000000F5H   SFRSYM    DATA     BYTE      IB_CON4
      000000E7H   SFRSYM    DATA     BYTE      PASLO
      000000A0H   SFRSYM    DATA     BYTE      P2
      000000FEH   SFRSYM    DATA     BYTE      OSCLO
      000000F6H   SFRSYM    DATA     BYTE      IB_CON5
      00000098H.6 SFRSYM    DATA     BIT       SM1_RXOV
      000000B0H   SFRSYM    DATA     BYTE      P3
      000000D0H.6 SFRSYM    DATA     BIT       AC
      000000C0H   SFRSYM    DATA     BYTE      P4
      000000A1H   SFRSYM    DATA     BYTE      SPCON
      0000009CH   SFRSYM    DATA     BYTE      SBRTH
      000000E9H   SFRSYM    DATA     BYTE      P5
      000000A8H.7 SFRSYM    DATA     BIT       EA
      000000EAH   SFRSYM    DATA     BYTE      P6
      000000EBH   SFRSYM    DATA     BYTE      P7
      000000EFH   SFRSYM    DATA     BYTE      IB_DATA
      000000ECH   SFRSYM    DATA     BYTE      P8
      0000009DH   SFRSYM    DATA     BYTE      SBRTL
      000000EDH   SFRSYM    DATA     BYTE      P9
      000000B7H   SFRSYM    DATA     BYTE      PBANKLO
      000000A2H   SFRSYM    DATA     BYTE      SPSTA
      000000A8H   SFRSYM    DATA     BYTE      IEN0
      000000B3H   SFRSYM    DATA     BYTE      PWRCON1
      00000095H   SFRSYM    DATA     BYTE      EMUSR
      000000A9H   SFRSYM    DATA     BYTE      IEN1
      000000B4H   SFRSYM    DATA     BYTE      PWRCON2
      00000085H   SFRSYM    DATA     BYTE      DPH1
      00000080H   SFRSYM    DATA     BIT       P0_0
      00000090H   SFRSYM    DATA     BIT       P1_0
      00000080H.1 SFRSYM    DATA     BIT       P0_1
      000000C3H   SFRSYM    DATA     BYTE      ADCH
      000000A0H   SFRSYM    DATA     BIT       P2_0
      00000090H.1 SFRSYM    DATA     BIT       P1_1
      00000080H.2 SFRSYM    DATA     BIT       P0_2
LX51 LINKER/LOCATER V4.66.41.0                                                        11/18/2021  18:51:21  PAGE 242


      000000BAH   SFRSYM    DATA     BYTE      IPH0
      00000084H   SFRSYM    DATA     BYTE      DPL1
      000000B0H   SFRSYM    DATA     BIT       P3_0
      000000A0H.1 SFRSYM    DATA     BIT       P2_1
      00000090H.2 SFRSYM    DATA     BIT       P1_2
      00000080H.3 SFRSYM    DATA     BIT       P0_3
      000000BBH   SFRSYM    DATA     BYTE      IPH1
      000000C0H   SFRSYM    DATA     BIT       P4_0
      000000B0H.1 SFRSYM    DATA     BIT       P3_1
      000000A0H.2 SFRSYM    DATA     BIT       P2_2
      00000090H.3 SFRSYM    DATA     BIT       P1_3
      00000080H.4 SFRSYM    DATA     BIT       P0_4
      000000E8H   SFRSYM    DATA     BYTE      EXF0
      000000C0H.1 SFRSYM    DATA     BIT       P4_1
      000000B0H.2 SFRSYM    DATA     BIT       P3_2
      000000A0H.3 SFRSYM    DATA     BIT       P2_3
      00000090H.4 SFRSYM    DATA     BIT       P1_4
      00000080H.5 SFRSYM    DATA     BIT       P0_5
      000000C0H.2 SFRSYM    DATA     BIT       P4_2
      000000B0H.3 SFRSYM    DATA     BIT       P3_3
      000000A0H.4 SFRSYM    DATA     BIT       P2_4
      00000090H.5 SFRSYM    DATA     BIT       P1_5
      00000080H.6 SFRSYM    DATA     BIT       P0_6
      000000C8H.6 SFRSYM    DATA     BIT       EXF2
      000000A6H   SFRSYM    DATA     BYTE      TKF0
      000000B8H   SFRSYM    DATA     BYTE      IPL0
      000000C0H.3 SFRSYM    DATA     BIT       P4_3
      000000B0H.4 SFRSYM    DATA     BIT       P3_4
      000000A0H.5 SFRSYM    DATA     BIT       P2_5
      00000090H.6 SFRSYM    DATA     BIT       P1_6
      00000080H.7 SFRSYM    DATA     BIT       P0_7
      000000D8H.4 SFRSYM    DATA     BIT       REN1
      000000B9H   SFRSYM    DATA     BYTE      IPL1
      000000C0H.4 SFRSYM    DATA     BIT       P4_4
      000000B0H.5 SFRSYM    DATA     BIT       P3_5
      000000A0H.6 SFRSYM    DATA     BIT       P2_6
      00000090H.7 SFRSYM    DATA     BIT       P1_7
      000000E2H   SFRSYM    DATA     BYTE      TK0H
      0000008EH   SFRSYM    DATA     BYTE      SUSLO
      000000C0H.5 SFRSYM    DATA     BIT       P4_5
      000000B0H.6 SFRSYM    DATA     BIT       P3_6
      000000A0H.7 SFRSYM    DATA     BIT       P2_7
      000000E4H   SFRSYM    DATA     BYTE      TK1H
      000000C0H.6 SFRSYM    DATA     BIT       P4_6
      000000B0H.7 SFRSYM    DATA     BIT       P3_7
      000000E6H   SFRSYM    DATA     BYTE      TK2H
      000000C0H.7 SFRSYM    DATA     BIT       P4_7
      00000098H   SFRSYM    DATA     BIT       RI
      000000A8H.2 SFRSYM    DATA     BIT       E7816
      000000D0H.7 SFRSYM    DATA     BIT       CY
      000000E1H   SFRSYM    DATA     BYTE      TK0L
      00000098H.1 SFRSYM    DATA     BIT       TI
      00000091H   SFRSYM    DATA     BYTE      EADR
      000000E3H   SFRSYM    DATA     BYTE      TK1L
      000000E5H   SFRSYM    DATA     BYTE      TK2L
      000000DBH   SFRSYM    DATA     BYTE      SADEN1
      000000D8H.7 SFRSYM    DATA     BIT       SM10_FE1
      000000FBH   SFRSYM    DATA     BYTE      SADEN2
      000000B8H.4 SFRSYM    DATA     BIT       PS0L
      000000B8H.1 SFRSYM    DATA     BIT       PT0L
      000000DAH   SFRSYM    DATA     BYTE      SADDR1
      000000D8H.5 SFRSYM    DATA     BIT       SM12_TXCOL1
      000000B8H.3 SFRSYM    DATA     BIT       PT1L
      000000FAH   SFRSYM    DATA     BYTE      SADDR2
      000000CBH   SFRSYM    DATA     BYTE      RCAP2H
LX51 LINKER/LOCATER V4.66.41.0                                                        11/18/2021  18:51:21  PAGE 243


      000000B8H.5 SFRSYM    DATA     BIT       PT2L
      00000081H   SFRSYM    DATA     BYTE      SP
      000000D0H.2 SFRSYM    DATA     BIT       OV
      000000CAH   SFRSYM    DATA     BYTE      RCAP2L
      000000B8H   SFRSYM    DATA     BIT       PX4L
      000000C8H.1 SFRSYM    DATA     BIT       C_T2
      000000DEH   SFRSYM    DATA     BYTE      SFINE2
      000000ADH   SFRSYM    DATA     BYTE      IRCON1
      000000AFH   SFRSYM    DATA     BYTE      IRCON2
      000000ABH   SFRSYM    DATA     BYTE      EXCON1
      00000099H   SFRSYM    DATA     BYTE      SBUF
      000000ACH   SFRSYM    DATA     BYTE      EXCON2
      00000087H   SFRSYM    DATA     BYTE      PCON
      000000F1H   SFRSYM    DATA     BYTE      AUXC
      00000098H   SFRSYM    DATA     BYTE      SCON
      000000D4H   SFRSYM    DATA     BYTE      TK0BASEH
      00000089H   SFRSYM    DATA     BYTE      TMOD
      00000088H   SFRSYM    DATA     BYTE      TCON
      000000AAH   SFRSYM    DATA     BYTE      IENX
      000000EEH   SFRSYM    DATA     BYTE      IB_OFFSET
      000000D6H   SFRSYM    DATA     BYTE      TK1BASEH
      000000DCH   SFRSYM    DATA     BYTE      SBRT1H
      000000DFH   SFRSYM    DATA     BYTE      TK2BASEH
      000000FCH   SFRSYM    DATA     BYTE      SBRT2H
      000000B1H   SFRSYM    DATA     BYTE      RSTSTAT
      000000D3H   SFRSYM    DATA     BYTE      TK0BASEL
      000000D5H   SFRSYM    DATA     BYTE      TK1BASEL
      000000DDH   SFRSYM    DATA     BYTE      SBRT1L
      000000D7H   SFRSYM    DATA     BYTE      TK2BASEL
      000000FDH   SFRSYM    DATA     BYTE      SBRT2L
      00000098H.7 SFRSYM    DATA     BIT       SM0_FE
      000000B2H   SFRSYM    DATA     BYTE      CLKCON
      00000098H.5 SFRSYM    DATA     BIT       SM2_TXCOL
      000000B5H   SFRSYM    DATA     BYTE      LDOCON
      000000F0H   SFRSYM    DATA     BYTE      B
      000000C8H   SFRSYM    DATA     BIT       CP_RL2
      000000E0H   SFRSYM    DATA     BYTE      ACC
      000000A8H.4 SFRSYM    DATA     BIT       ES0
      000000A8H.1 SFRSYM    DATA     BIT       ET0
      000000A8H.3 SFRSYM    DATA     BIT       ET1
      00000088H.5 SFRSYM    DATA     BIT       TF0
      000000A8H.5 SFRSYM    DATA     BIT       ET2
      00000088H.7 SFRSYM    DATA     BIT       TF1
      000000D8H   SFRSYM    DATA     BIT       RI1
      00000098H.2 SFRSYM    DATA     BIT       RB8
      000000C8H.7 SFRSYM    DATA     BIT       TF2
      0000008CH   SFRSYM    DATA     BYTE      TH0
      00000086H   SFRSYM    DATA     BYTE      INSCON
      0000008DH   SFRSYM    DATA     BYTE      TH1
      000000D8H.1 SFRSYM    DATA     BIT       TI1
      00000098H.3 SFRSYM    DATA     BIT       TB8
      000000CDH   SFRSYM    DATA     BYTE      TH2
      000000D0H   SFRSYM    DATA     BIT       P
      0000008AH   SFRSYM    DATA     BYTE      TL0
      000000A8H   SFRSYM    DATA     BIT       EX4
      0000008BH   SFRSYM    DATA     BYTE      TL1
      000000A7H   SFRSYM    DATA     BYTE      FLASHCON
      000000CCH   SFRSYM    DATA     BYTE      TL2
      000000D0H.3 SFRSYM    DATA     BIT       RS0
      000000C5H   SFRSYM    DATA     BYTE      ADCDH
      00000088H.4 SFRSYM    DATA     BIT       TR0
      000000D0H.4 SFRSYM    DATA     BIT       RS1
      0000009FH   SFRSYM    DATA     BYTE      PWMCON
      00000088H.6 SFRSYM    DATA     BIT       TR1
      000000C8H.2 SFRSYM    DATA     BIT       TR2
LX51 LINKER/LOCATER V4.66.41.0                                                        11/18/2021  18:51:21  PAGE 244


      000000C4H   SFRSYM    DATA     BYTE      ADCDL
      000000C2H   SFRSYM    DATA     BYTE      ADT
      00000083H   SFRSYM    DATA     BYTE      DPH
      00000082H   SFRSYM    DATA     BYTE      DPL
      000000D9H   SFRSYM    DATA     BYTE      SBUF1
      000000C8H.3 SFRSYM    DATA     BIT       EXEN2
      000000F9H   SFRSYM    DATA     BYTE      SBUF2
      000000D8H.6 SFRSYM    DATA     BIT       SM11_RXOV1
      000000B8H.6 SFRSYM    DATA     BIT       PADCL
      00000098H.4 SFRSYM    DATA     BIT       REN
      000000D8H   SFRSYM    DATA     BYTE      SCON1
      000000D1H   SFRSYM    DATA     BYTE      LCDCON1
      000000C1H   SFRSYM    DATA     BYTE      ADCON
      000000F8H   SFRSYM    DATA     BYTE      SCON2
      0000008FH   SFRSYM    DATA     BYTE      TCON1
      000000D2H   SFRSYM    DATA     BYTE      LCDCON2
      00000092H   SFRSYM    DATA     BYTE      EDTAH
      000000C9H   SFRSYM    DATA     BYTE      T2MOD
      000000C8H   SFRSYM    DATA     BYTE      T2CON
      00000094H   SFRSYM    DATA     BYTE      EDTAL
      00000093H   SFRSYM    DATA     BYTE      EDTAM
      000000BCH   SFRSYM    DATA     BYTE      TK0DIFH
      0000009BH   SFRSYM    DATA     BYTE      SADEN
      000000BEH   SFRSYM    DATA     BYTE      TK1DIFH
      000000B6H   SFRSYM    DATA     BYTE      PBANK
      000000A5H   SFRSYM    DATA     BYTE      TK2DIFH
      000000A8H.6 SFRSYM    DATA     BIT       EADTP
      0000009AH   SFRSYM    DATA     BYTE      SADDR
      000000CFH   SFRSYM    DATA     BYTE      TK0DIFL
      000000BDH   SFRSYM    DATA     BYTE      TK1DIFL
      000000BFH   SFRSYM    DATA     BYTE      TK2DIFL
      000000B8H.2 SFRSYM    DATA     BIT       P7816L
      000000C6H   SFRSYM    DATA     BYTE      LPDCON1
      000000C7H   SFRSYM    DATA     BYTE      LPDCON2
      000000D0H.5 SFRSYM    DATA     BIT       F0
      000000AEH   SFRSYM    DATA     BYTE      IRDAT
      000000D0H.1 SFRSYM    DATA     BIT       F1
      00000096H   SFRSYM    DATA     BYTE      EMUIE
      0000009EH   SFRSYM    DATA     BYTE      SFINE
      000000F7H   SFRSYM    DATA     BYTE      XPAGE
      00000097H   SFRSYM    DATA     BYTE      EMUIF
      000000D0H   SFRSYM    DATA     BYTE      PSW
      000000D8H.2 SFRSYM    DATA     BIT       RB81
      000000A3H   SFRSYM    DATA     BYTE      SPDAT
      000000F2H   SFRSYM    DATA     BYTE      IB_CON1
      01004771H   SYMBOL    CODE     ---       LCDDrv_SgeComConfig
      0100478FH   SYMBOL    CODE     ---       LCDDrv_PwOnRegCfg

      01004707H   BLOCK     CODE     ---       LVL=0
      01004707H   LINE      ---      ---       #88
      01004707H   LINE      ---      ---       #89
      01004707H   LINE      ---      ---       #91
      0100470EH   LINE      ---      ---       #92
      0100470EH   LINE      ---      ---       #93
      0100470EH   LINE      ---      ---       #94
      0100470EH   LINE      ---      ---       #95
      01004710H   LINE      ---      ---       #98
      01004714H   LINE      ---      ---       #99
      01004717H   LINE      ---      ---       #100
      01004721H   LINE      ---      ---       #101
      01004728H   LINE      ---      ---       #105
      01004729H   LINE      ---      ---       #107
      01004729H   LINE      ---      ---       #108
      01004729H   LINE      ---      ---       #109
      0100472BH   LINE      ---      ---       #112
LX51 LINKER/LOCATER V4.66.41.0                                                        11/18/2021  18:51:21  PAGE 245


      0100472FH   LINE      ---      ---       #114
      0100472FH   LINE      ---      ---       #116
      0100472FH   LINE      ---      ---       #117
      0100472FH   LINE      ---      ---       #118
      00000007H   SYMBOL    DATA     BYTE      v_ucPowerStatus
      ---         BLOCKEND  ---      ---       LVL=0

      01004771H   BLOCK     CODE     ---       LVL=0
      01004776H   LINE      ---      ---       #129
      01004776H   LINE      ---      ---       #130
      01004776H   LINE      ---      ---       #150
      0100477CH   LINE      ---      ---       #151
      01004782H   LINE      ---      ---       #153
      01004788H   LINE      ---      ---       #155
      0100478EH   LINE      ---      ---       #157
      ---         BLOCKEND  ---      ---       LVL=0

      01004730H   BLOCK     CODE     ---       LVL=0
      01004730H   LINE      ---      ---       #171
      01004730H   LINE      ---      ---       #172
      00000007H   SYMBOL    DATA     BYTE      v_ucVal
      01004730H   BLOCK     CODE     NEAR LAB  LVL=1
      01004730H   LINE      ---      ---       #175
      01004732H   LINE      ---      ---       #176
      01004732H   LINE      ---      ---       #177
      0100473EH   LINE      ---      ---       #178
      00000006H   SYMBOL    DATA     BYTE      V_ucCnti
      ---         BLOCKEND  CODE     ---       LVL=1
      ---         BLOCKEND  CODE     ---       LVL=0

      0100478FH   BLOCK     CODE     ---       LVL=0
      0100478FH   LINE      ---      ---       #193
      0100478FH   LINE      ---      ---       #194
      0100478FH   LINE      ---      ---       #195
      01004797H   LINE      ---      ---       #196
      01004797H   LINE      ---      ---       #197
      0100479AH   LINE      ---      ---       #198
      0100479DH   LINE      ---      ---       #199
      0100479DH   LINE      ---      ---       #201
      010047A5H   LINE      ---      ---       #202
      010047A5H   LINE      ---      ---       #203
      010047A8H   LINE      ---      ---       #204
      010047ABH   LINE      ---      ---       #205
      010047ABH   LINE      ---      ---       #207
      010047B3H   LINE      ---      ---       #208
      010047B3H   LINE      ---      ---       #209
      010047B6H   LINE      ---      ---       #210
      010047B9H   LINE      ---      ---       #211
      010047B9H   LINE      ---      ---       #213
      ---         BLOCKEND  ---      ---       LVL=0

      01004743H   BLOCK     CODE     ---       LVL=0
      01004743H   LINE      ---      ---       #225
      01004743H   LINE      ---      ---       #226
      01004743H   BLOCK     CODE     NEAR LAB  LVL=1
      01004743H   LINE      ---      ---       #227
      01004747H   LINE      ---      ---       #230
      01004749H   LINE      ---      ---       #231
      01004749H   LINE      ---      ---       #232
      0100475FH   LINE      ---      ---       #233
      0100476BH   LINE      ---      ---       #234
      01004770H   LINE      ---      ---       #235
      00000006H   SYMBOL    DATA     ---       P_ucLcdBuf
      00000005H   SYMBOL    DATA     BYTE      V_ucCnti
      ---         BLOCKEND  CODE     ---       LVL=1
LX51 LINKER/LOCATER V4.66.41.0                                                        11/18/2021  18:51:21  PAGE 246


      ---         BLOCKEND  CODE     ---       LVL=0

      ---         MODULE    ---      ---       RELAYDRV
      010047D4H   PUBLIC    CODE     ---       RelayDrv_DelayTimeMonitor
      010047CCH   PUBLIC    CODE     ---       RelayDrv_RelayNormal
      010047C3H   PUBLIC    CODE     ---       RelayDrv_Openrelay
      010047BAH   PUBLIC    CODE     ---       RelayDrv_Closerelay
      000000F3H   SFRSYM    DATA     BYTE      IB_CON2
      000000D8H.3 SFRSYM    DATA     BIT       TB81
      00000080H   SFRSYM    DATA     BYTE      P0
      000000F4H   SFRSYM    DATA     BYTE      IB_CON3
      000000A4H   SFRSYM    DATA     BYTE      TKCON
      00000090H   SFRSYM    DATA     BYTE      P1
      000000F5H   SFRSYM    DATA     BYTE      IB_CON4
      000000E7H   SFRSYM    DATA     BYTE      PASLO
      000000A0H   SFRSYM    DATA     BYTE      P2
      000000FEH   SFRSYM    DATA     BYTE      OSCLO
      000000F6H   SFRSYM    DATA     BYTE      IB_CON5
      00000098H.6 SFRSYM    DATA     BIT       SM1_RXOV
      000000B0H   SFRSYM    DATA     BYTE      P3
      000000D0H.6 SFRSYM    DATA     BIT       AC
      000000C0H   SFRSYM    DATA     BYTE      P4
      000000A1H   SFRSYM    DATA     BYTE      SPCON
      0000009CH   SFRSYM    DATA     BYTE      SBRTH
      000000E9H   SFRSYM    DATA     BYTE      P5
      000000A8H.7 SFRSYM    DATA     BIT       EA
      000000EAH   SFRSYM    DATA     BYTE      P6
      000000EBH   SFRSYM    DATA     BYTE      P7
      000000EFH   SFRSYM    DATA     BYTE      IB_DATA
      000000ECH   SFRSYM    DATA     BYTE      P8
      0000009DH   SFRSYM    DATA     BYTE      SBRTL
      000000EDH   SFRSYM    DATA     BYTE      P9
      000000B7H   SFRSYM    DATA     BYTE      PBANKLO
      000000A2H   SFRSYM    DATA     BYTE      SPSTA
      000000A8H   SFRSYM    DATA     BYTE      IEN0
      000000B3H   SFRSYM    DATA     BYTE      PWRCON1
      00000095H   SFRSYM    DATA     BYTE      EMUSR
      000000A9H   SFRSYM    DATA     BYTE      IEN1
      000000B4H   SFRSYM    DATA     BYTE      PWRCON2
      00000085H   SFRSYM    DATA     BYTE      DPH1
      00000080H   SFRSYM    DATA     BIT       P0_0
      00000090H   SFRSYM    DATA     BIT       P1_0
      00000080H.1 SFRSYM    DATA     BIT       P0_1
      000000C3H   SFRSYM    DATA     BYTE      ADCH
      000000A0H   SFRSYM    DATA     BIT       P2_0
      00000090H.1 SFRSYM    DATA     BIT       P1_1
      00000080H.2 SFRSYM    DATA     BIT       P0_2
      000000BAH   SFRSYM    DATA     BYTE      IPH0
      00000084H   SFRSYM    DATA     BYTE      DPL1
      000000B0H   SFRSYM    DATA     BIT       P3_0
      000000A0H.1 SFRSYM    DATA     BIT       P2_1
      00000090H.2 SFRSYM    DATA     BIT       P1_2
      00000080H.3 SFRSYM    DATA     BIT       P0_3
      000000BBH   SFRSYM    DATA     BYTE      IPH1
      000000C0H   SFRSYM    DATA     BIT       P4_0
      000000B0H.1 SFRSYM    DATA     BIT       P3_1
      000000A0H.2 SFRSYM    DATA     BIT       P2_2
      00000090H.3 SFRSYM    DATA     BIT       P1_3
      00000080H.4 SFRSYM    DATA     BIT       P0_4
      000000E8H   SFRSYM    DATA     BYTE      EXF0
      000000C0H.1 SFRSYM    DATA     BIT       P4_1
      000000B0H.2 SFRSYM    DATA     BIT       P3_2
      000000A0H.3 SFRSYM    DATA     BIT       P2_3
      00000090H.4 SFRSYM    DATA     BIT       P1_4
      00000080H.5 SFRSYM    DATA     BIT       P0_5
LX51 LINKER/LOCATER V4.66.41.0                                                        11/18/2021  18:51:21  PAGE 247


      000000C0H.2 SFRSYM    DATA     BIT       P4_2
      000000B0H.3 SFRSYM    DATA     BIT       P3_3
      000000A0H.4 SFRSYM    DATA     BIT       P2_4
      00000090H.5 SFRSYM    DATA     BIT       P1_5
      00000080H.6 SFRSYM    DATA     BIT       P0_6
      000000C8H.6 SFRSYM    DATA     BIT       EXF2
      000000A6H   SFRSYM    DATA     BYTE      TKF0
      000000B8H   SFRSYM    DATA     BYTE      IPL0
      000000C0H.3 SFRSYM    DATA     BIT       P4_3
      000000B0H.4 SFRSYM    DATA     BIT       P3_4
      000000A0H.5 SFRSYM    DATA     BIT       P2_5
      00000090H.6 SFRSYM    DATA     BIT       P1_6
      00000080H.7 SFRSYM    DATA     BIT       P0_7
      000000D8H.4 SFRSYM    DATA     BIT       REN1
      000000B9H   SFRSYM    DATA     BYTE      IPL1
      000000C0H.4 SFRSYM    DATA     BIT       P4_4
      000000B0H.5 SFRSYM    DATA     BIT       P3_5
      000000A0H.6 SFRSYM    DATA     BIT       P2_6
      00000090H.7 SFRSYM    DATA     BIT       P1_7
      000000E2H   SFRSYM    DATA     BYTE      TK0H
      0000008EH   SFRSYM    DATA     BYTE      SUSLO
      000000C0H.5 SFRSYM    DATA     BIT       P4_5
      000000B0H.6 SFRSYM    DATA     BIT       P3_6
      000000A0H.7 SFRSYM    DATA     BIT       P2_7
      000000E4H   SFRSYM    DATA     BYTE      TK1H
      000000C0H.6 SFRSYM    DATA     BIT       P4_6
      000000B0H.7 SFRSYM    DATA     BIT       P3_7
      000000E6H   SFRSYM    DATA     BYTE      TK2H
      000000C0H.7 SFRSYM    DATA     BIT       P4_7
      00000098H   SFRSYM    DATA     BIT       RI
      000000A8H.2 SFRSYM    DATA     BIT       E7816
      000000D0H.7 SFRSYM    DATA     BIT       CY
      000000E1H   SFRSYM    DATA     BYTE      TK0L
      00000098H.1 SFRSYM    DATA     BIT       TI
      00000091H   SFRSYM    DATA     BYTE      EADR
      000000E3H   SFRSYM    DATA     BYTE      TK1L
      000000E5H   SFRSYM    DATA     BYTE      TK2L
      000000DBH   SFRSYM    DATA     BYTE      SADEN1
      000000D8H.7 SFRSYM    DATA     BIT       SM10_FE1
      000000FBH   SFRSYM    DATA     BYTE      SADEN2
      000000B8H.4 SFRSYM    DATA     BIT       PS0L
      000000B8H.1 SFRSYM    DATA     BIT       PT0L
      000000DAH   SFRSYM    DATA     BYTE      SADDR1
      000000D8H.5 SFRSYM    DATA     BIT       SM12_TXCOL1
      000000B8H.3 SFRSYM    DATA     BIT       PT1L
      000000FAH   SFRSYM    DATA     BYTE      SADDR2
      000000CBH   SFRSYM    DATA     BYTE      RCAP2H
      000000B8H.5 SFRSYM    DATA     BIT       PT2L
      00000081H   SFRSYM    DATA     BYTE      SP
      000000D0H.2 SFRSYM    DATA     BIT       OV
      000000CAH   SFRSYM    DATA     BYTE      RCAP2L
      000000B8H   SFRSYM    DATA     BIT       PX4L
      000000C8H.1 SFRSYM    DATA     BIT       C_T2
      000000DEH   SFRSYM    DATA     BYTE      SFINE2
      000000ADH   SFRSYM    DATA     BYTE      IRCON1
      000000AFH   SFRSYM    DATA     BYTE      IRCON2
      000000ABH   SFRSYM    DATA     BYTE      EXCON1
      00000099H   SFRSYM    DATA     BYTE      SBUF
      000000ACH   SFRSYM    DATA     BYTE      EXCON2
      00000087H   SFRSYM    DATA     BYTE      PCON
      000000F1H   SFRSYM    DATA     BYTE      AUXC
      00000098H   SFRSYM    DATA     BYTE      SCON
      000000D4H   SFRSYM    DATA     BYTE      TK0BASEH
      00000089H   SFRSYM    DATA     BYTE      TMOD
      00000088H   SFRSYM    DATA     BYTE      TCON
LX51 LINKER/LOCATER V4.66.41.0                                                        11/18/2021  18:51:21  PAGE 248


      000000AAH   SFRSYM    DATA     BYTE      IENX
      000000EEH   SFRSYM    DATA     BYTE      IB_OFFSET
      000000D6H   SFRSYM    DATA     BYTE      TK1BASEH
      000000DCH   SFRSYM    DATA     BYTE      SBRT1H
      000000DFH   SFRSYM    DATA     BYTE      TK2BASEH
      000000FCH   SFRSYM    DATA     BYTE      SBRT2H
      000000B1H   SFRSYM    DATA     BYTE      RSTSTAT
      000000D3H   SFRSYM    DATA     BYTE      TK0BASEL
      000000D5H   SFRSYM    DATA     BYTE      TK1BASEL
      000000DDH   SFRSYM    DATA     BYTE      SBRT1L
      000000D7H   SFRSYM    DATA     BYTE      TK2BASEL
      000000FDH   SFRSYM    DATA     BYTE      SBRT2L
      00000098H.7 SFRSYM    DATA     BIT       SM0_FE
      000000B2H   SFRSYM    DATA     BYTE      CLKCON
      00000098H.5 SFRSYM    DATA     BIT       SM2_TXCOL
      000000B5H   SFRSYM    DATA     BYTE      LDOCON
      000000F0H   SFRSYM    DATA     BYTE      B
      000000C8H   SFRSYM    DATA     BIT       CP_RL2
      000000E0H   SFRSYM    DATA     BYTE      ACC
      000000A8H.4 SFRSYM    DATA     BIT       ES0
      000000A8H.1 SFRSYM    DATA     BIT       ET0
      000000A8H.3 SFRSYM    DATA     BIT       ET1
      00000088H.5 SFRSYM    DATA     BIT       TF0
      000000A8H.5 SFRSYM    DATA     BIT       ET2
      00000088H.7 SFRSYM    DATA     BIT       TF1
      000000D8H   SFRSYM    DATA     BIT       RI1
      00000098H.2 SFRSYM    DATA     BIT       RB8
      000000C8H.7 SFRSYM    DATA     BIT       TF2
      0000008CH   SFRSYM    DATA     BYTE      TH0
      00000086H   SFRSYM    DATA     BYTE      INSCON
      0000008DH   SFRSYM    DATA     BYTE      TH1
      000000D8H.1 SFRSYM    DATA     BIT       TI1
      00000098H.3 SFRSYM    DATA     BIT       TB8
      000000CDH   SFRSYM    DATA     BYTE      TH2
      000000D0H   SFRSYM    DATA     BIT       P
      0000008AH   SFRSYM    DATA     BYTE      TL0
      000000A8H   SFRSYM    DATA     BIT       EX4
      0000008BH   SFRSYM    DATA     BYTE      TL1
      000000A7H   SFRSYM    DATA     BYTE      FLASHCON
      000000CCH   SFRSYM    DATA     BYTE      TL2
      000000D0H.3 SFRSYM    DATA     BIT       RS0
      000000C5H   SFRSYM    DATA     BYTE      ADCDH
      00000088H.4 SFRSYM    DATA     BIT       TR0
      000000D0H.4 SFRSYM    DATA     BIT       RS1
      0000009FH   SFRSYM    DATA     BYTE      PWMCON
      00000088H.6 SFRSYM    DATA     BIT       TR1
      000000C8H.2 SFRSYM    DATA     BIT       TR2
      000000C4H   SFRSYM    DATA     BYTE      ADCDL
      000000C2H   SFRSYM    DATA     BYTE      ADT
      00000083H   SFRSYM    DATA     BYTE      DPH
      00000082H   SFRSYM    DATA     BYTE      DPL
      000000D9H   SFRSYM    DATA     BYTE      SBUF1
      000000C8H.3 SFRSYM    DATA     BIT       EXEN2
      000000F9H   SFRSYM    DATA     BYTE      SBUF2
      000000D8H.6 SFRSYM    DATA     BIT       SM11_RXOV1
      000000B8H.6 SFRSYM    DATA     BIT       PADCL
      00000098H.4 SFRSYM    DATA     BIT       REN
      000000D8H   SFRSYM    DATA     BYTE      SCON1
      000000D1H   SFRSYM    DATA     BYTE      LCDCON1
      000000C1H   SFRSYM    DATA     BYTE      ADCON
      000000F8H   SFRSYM    DATA     BYTE      SCON2
      0000008FH   SFRSYM    DATA     BYTE      TCON1
      000000D2H   SFRSYM    DATA     BYTE      LCDCON2
      00000092H   SFRSYM    DATA     BYTE      EDTAH
      000000C9H   SFRSYM    DATA     BYTE      T2MOD
LX51 LINKER/LOCATER V4.66.41.0                                                        11/18/2021  18:51:21  PAGE 249


      000000C8H   SFRSYM    DATA     BYTE      T2CON
      00000094H   SFRSYM    DATA     BYTE      EDTAL
      00000093H   SFRSYM    DATA     BYTE      EDTAM
      000000BCH   SFRSYM    DATA     BYTE      TK0DIFH
      0000009BH   SFRSYM    DATA     BYTE      SADEN
      000000BEH   SFRSYM    DATA     BYTE      TK1DIFH
      000000B6H   SFRSYM    DATA     BYTE      PBANK
      000000A5H   SFRSYM    DATA     BYTE      TK2DIFH
      000000A8H.6 SFRSYM    DATA     BIT       EADTP
      0000009AH   SFRSYM    DATA     BYTE      SADDR
      000000CFH   SFRSYM    DATA     BYTE      TK0DIFL
      000000BDH   SFRSYM    DATA     BYTE      TK1DIFL
      000000BFH   SFRSYM    DATA     BYTE      TK2DIFL
      000000B8H.2 SFRSYM    DATA     BIT       P7816L
      000000C6H   SFRSYM    DATA     BYTE      LPDCON1
      000000C7H   SFRSYM    DATA     BYTE      LPDCON2
      000000D0H.5 SFRSYM    DATA     BIT       F0
      000000AEH   SFRSYM    DATA     BYTE      IRDAT
      000000D0H.1 SFRSYM    DATA     BIT       F1
      00000096H   SFRSYM    DATA     BYTE      EMUIE
      0000009EH   SFRSYM    DATA     BYTE      SFINE
      000000F7H   SFRSYM    DATA     BYTE      XPAGE
      00000097H   SFRSYM    DATA     BYTE      EMUIF
      000000D0H   SFRSYM    DATA     BYTE      PSW
      000000D8H.2 SFRSYM    DATA     BIT       RB81
      000000A3H   SFRSYM    DATA     BYTE      SPDAT
      000000F2H   SFRSYM    DATA     BYTE      IB_CON1
      010047CCH   SYMBOL    CODE     ---       RelayDrv_RelayNormal

      010047BAH   BLOCK     CODE     ---       LVL=0
      010047BAH   LINE      ---      ---       #95
      010047BAH   LINE      ---      ---       #96
      010047BAH   LINE      ---      ---       #98
      010047BDH   LINE      ---      ---       #99
      010047BEH   LINE      ---      ---       #100
      010047BFH   LINE      ---      ---       #101
      010047C2H   LINE      ---      ---       #107
      ---         BLOCKEND  ---      ---       LVL=0

      010047C3H   BLOCK     CODE     ---       LVL=0
      010047C3H   LINE      ---      ---       #111
      010047C3H   LINE      ---      ---       #112
      010047C3H   LINE      ---      ---       #114
      010047C6H   LINE      ---      ---       #115
      010047C7H   LINE      ---      ---       #116
      010047C8H   LINE      ---      ---       #117
      010047CBH   LINE      ---      ---       #123
      ---         BLOCKEND  ---      ---       LVL=0

      010047CCH   BLOCK     CODE     ---       LVL=0
      010047CCH   LINE      ---      ---       #125
      010047CCH   LINE      ---      ---       #126
      010047CCH   LINE      ---      ---       #127
      010047CFH   LINE      ---      ---       #128
      010047D0H   LINE      ---      ---       #129
      010047D3H   LINE      ---      ---       #133
      ---         BLOCKEND  ---      ---       LVL=0

      010047D4H   BLOCK     CODE     ---       LVL=0
      010047D4H   LINE      ---      ---       #135
      010047D4H   LINE      ---      ---       #136
      010047D4H   LINE      ---      ---       #137
      010047DAH   LINE      ---      ---       #138
      010047DAH   LINE      ---      ---       #139
      010047DDH   LINE      ---      ---       #140
LX51 LINKER/LOCATER V4.66.41.0                                                        11/18/2021  18:51:21  PAGE 250


      010047E7H   LINE      ---      ---       #141
      010047E7H   LINE      ---      ---       #142
      010047E7H   LINE      ---      ---       #143
      010047E7H   LINE      ---      ---       #150
      010047E9H   LINE      ---      ---       #152
      010047E9H   LINE      ---      ---       #153
      010047EBH   LINE      ---      ---       #154
      010047EBH   LINE      ---      ---       #155
      ---         BLOCKEND  ---      ---       LVL=0

      ---         MODULE    ---      ---       SPIDRV
      000000F3H   SFRSYM    DATA     BYTE      IB_CON2
      000000D8H.3 SFRSYM    DATA     BIT       TB81
      00000080H   SFRSYM    DATA     BYTE      P0
      000000F4H   SFRSYM    DATA     BYTE      IB_CON3
      000000A4H   SFRSYM    DATA     BYTE      TKCON
      00000090H   SFRSYM    DATA     BYTE      P1
      000000F5H   SFRSYM    DATA     BYTE      IB_CON4
      000000E7H   SFRSYM    DATA     BYTE      PASLO
      000000A0H   SFRSYM    DATA     BYTE      P2
      000000FEH   SFRSYM    DATA     BYTE      OSCLO
      000000F6H   SFRSYM    DATA     BYTE      IB_CON5
      00000098H.6 SFRSYM    DATA     BIT       SM1_RXOV
      000000B0H   SFRSYM    DATA     BYTE      P3
      000000D0H.6 SFRSYM    DATA     BIT       AC
      000000C0H   SFRSYM    DATA     BYTE      P4
      000000A1H   SFRSYM    DATA     BYTE      SPCON
      0000009CH   SFRSYM    DATA     BYTE      SBRTH
      000000E9H   SFRSYM    DATA     BYTE      P5
      000000A8H.7 SFRSYM    DATA     BIT       EA
      000000EAH   SFRSYM    DATA     BYTE      P6
      000000EBH   SFRSYM    DATA     BYTE      P7
      000000EFH   SFRSYM    DATA     BYTE      IB_DATA
      000000ECH   SFRSYM    DATA     BYTE      P8
      0000009DH   SFRSYM    DATA     BYTE      SBRTL
      000000EDH   SFRSYM    DATA     BYTE      P9
      000000B7H   SFRSYM    DATA     BYTE      PBANKLO
      000000A2H   SFRSYM    DATA     BYTE      SPSTA
      000000A8H   SFRSYM    DATA     BYTE      IEN0
      000000B3H   SFRSYM    DATA     BYTE      PWRCON1
      00000095H   SFRSYM    DATA     BYTE      EMUSR
      000000A9H   SFRSYM    DATA     BYTE      IEN1
      000000B4H   SFRSYM    DATA     BYTE      PWRCON2
      00000085H   SFRSYM    DATA     BYTE      DPH1
      00000080H   SFRSYM    DATA     BIT       P0_0
      00000090H   SFRSYM    DATA     BIT       P1_0
      00000080H.1 SFRSYM    DATA     BIT       P0_1
      000000C3H   SFRSYM    DATA     BYTE      ADCH
      000000A0H   SFRSYM    DATA     BIT       P2_0
      00000090H.1 SFRSYM    DATA     BIT       P1_1
      00000080H.2 SFRSYM    DATA     BIT       P0_2
      000000BAH   SFRSYM    DATA     BYTE      IPH0
      00000084H   SFRSYM    DATA     BYTE      DPL1
      000000B0H   SFRSYM    DATA     BIT       P3_0
      000000A0H.1 SFRSYM    DATA     BIT       P2_1
      00000090H.2 SFRSYM    DATA     BIT       P1_2
      00000080H.3 SFRSYM    DATA     BIT       P0_3
      000000BBH   SFRSYM    DATA     BYTE      IPH1
      000000C0H   SFRSYM    DATA     BIT       P4_0
      000000B0H.1 SFRSYM    DATA     BIT       P3_1
      000000A0H.2 SFRSYM    DATA     BIT       P2_2
      00000090H.3 SFRSYM    DATA     BIT       P1_3
      00000080H.4 SFRSYM    DATA     BIT       P0_4
      000000E8H   SFRSYM    DATA     BYTE      EXF0
      000000C0H.1 SFRSYM    DATA     BIT       P4_1
LX51 LINKER/LOCATER V4.66.41.0                                                        11/18/2021  18:51:21  PAGE 251


      000000B0H.2 SFRSYM    DATA     BIT       P3_2
      000000A0H.3 SFRSYM    DATA     BIT       P2_3
      00000090H.4 SFRSYM    DATA     BIT       P1_4
      00000080H.5 SFRSYM    DATA     BIT       P0_5
      000000C0H.2 SFRSYM    DATA     BIT       P4_2
      000000B0H.3 SFRSYM    DATA     BIT       P3_3
      000000A0H.4 SFRSYM    DATA     BIT       P2_4
      00000090H.5 SFRSYM    DATA     BIT       P1_5
      00000080H.6 SFRSYM    DATA     BIT       P0_6
      000000C8H.6 SFRSYM    DATA     BIT       EXF2
      000000A6H   SFRSYM    DATA     BYTE      TKF0
      000000B8H   SFRSYM    DATA     BYTE      IPL0
      000000C0H.3 SFRSYM    DATA     BIT       P4_3
      000000B0H.4 SFRSYM    DATA     BIT       P3_4
      000000A0H.5 SFRSYM    DATA     BIT       P2_5
      00000090H.6 SFRSYM    DATA     BIT       P1_6
      00000080H.7 SFRSYM    DATA     BIT       P0_7
      000000D8H.4 SFRSYM    DATA     BIT       REN1
      000000B9H   SFRSYM    DATA     BYTE      IPL1
      000000C0H.4 SFRSYM    DATA     BIT       P4_4
      000000B0H.5 SFRSYM    DATA     BIT       P3_5
      000000A0H.6 SFRSYM    DATA     BIT       P2_6
      00000090H.7 SFRSYM    DATA     BIT       P1_7
      000000E2H   SFRSYM    DATA     BYTE      TK0H
      0000008EH   SFRSYM    DATA     BYTE      SUSLO
      000000C0H.5 SFRSYM    DATA     BIT       P4_5
      000000B0H.6 SFRSYM    DATA     BIT       P3_6
      000000A0H.7 SFRSYM    DATA     BIT       P2_7
      000000E4H   SFRSYM    DATA     BYTE      TK1H
      000000C0H.6 SFRSYM    DATA     BIT       P4_6
      000000B0H.7 SFRSYM    DATA     BIT       P3_7
      000000E6H   SFRSYM    DATA     BYTE      TK2H
      000000C0H.7 SFRSYM    DATA     BIT       P4_7
      00000098H   SFRSYM    DATA     BIT       RI
      000000A8H.2 SFRSYM    DATA     BIT       E7816
      000000D0H.7 SFRSYM    DATA     BIT       CY
      000000E1H   SFRSYM    DATA     BYTE      TK0L
      00000098H.1 SFRSYM    DATA     BIT       TI
      00000091H   SFRSYM    DATA     BYTE      EADR
      000000E3H   SFRSYM    DATA     BYTE      TK1L
      000000E5H   SFRSYM    DATA     BYTE      TK2L
      000000DBH   SFRSYM    DATA     BYTE      SADEN1
      000000D8H.7 SFRSYM    DATA     BIT       SM10_FE1
      000000FBH   SFRSYM    DATA     BYTE      SADEN2
      000000B8H.4 SFRSYM    DATA     BIT       PS0L
      000000B8H.1 SFRSYM    DATA     BIT       PT0L
      000000DAH   SFRSYM    DATA     BYTE      SADDR1
      000000D8H.5 SFRSYM    DATA     BIT       SM12_TXCOL1
      000000B8H.3 SFRSYM    DATA     BIT       PT1L
      000000FAH   SFRSYM    DATA     BYTE      SADDR2
      000000CBH   SFRSYM    DATA     BYTE      RCAP2H
      000000B8H.5 SFRSYM    DATA     BIT       PT2L
      00000081H   SFRSYM    DATA     BYTE      SP
      000000D0H.2 SFRSYM    DATA     BIT       OV
      000000CAH   SFRSYM    DATA     BYTE      RCAP2L
      000000B8H   SFRSYM    DATA     BIT       PX4L
      000000C8H.1 SFRSYM    DATA     BIT       C_T2
      000000DEH   SFRSYM    DATA     BYTE      SFINE2
      000000ADH   SFRSYM    DATA     BYTE      IRCON1
      000000AFH   SFRSYM    DATA     BYTE      IRCON2
      000000ABH   SFRSYM    DATA     BYTE      EXCON1
      00000099H   SFRSYM    DATA     BYTE      SBUF
      000000ACH   SFRSYM    DATA     BYTE      EXCON2
      00000087H   SFRSYM    DATA     BYTE      PCON
      000000F1H   SFRSYM    DATA     BYTE      AUXC
LX51 LINKER/LOCATER V4.66.41.0                                                        11/18/2021  18:51:21  PAGE 252


      00000098H   SFRSYM    DATA     BYTE      SCON
      000000D4H   SFRSYM    DATA     BYTE      TK0BASEH
      00000089H   SFRSYM    DATA     BYTE      TMOD
      00000088H   SFRSYM    DATA     BYTE      TCON
      000000AAH   SFRSYM    DATA     BYTE      IENX
      000000EEH   SFRSYM    DATA     BYTE      IB_OFFSET
      000000D6H   SFRSYM    DATA     BYTE      TK1BASEH
      000000DCH   SFRSYM    DATA     BYTE      SBRT1H
      000000DFH   SFRSYM    DATA     BYTE      TK2BASEH
      000000FCH   SFRSYM    DATA     BYTE      SBRT2H
      000000B1H   SFRSYM    DATA     BYTE      RSTSTAT
      000000D3H   SFRSYM    DATA     BYTE      TK0BASEL
      000000D5H   SFRSYM    DATA     BYTE      TK1BASEL
      000000DDH   SFRSYM    DATA     BYTE      SBRT1L
      000000D7H   SFRSYM    DATA     BYTE      TK2BASEL
      000000FDH   SFRSYM    DATA     BYTE      SBRT2L
      00000098H.7 SFRSYM    DATA     BIT       SM0_FE
      000000B2H   SFRSYM    DATA     BYTE      CLKCON
      00000098H.5 SFRSYM    DATA     BIT       SM2_TXCOL
      000000B5H   SFRSYM    DATA     BYTE      LDOCON
      000000F0H   SFRSYM    DATA     BYTE      B
      000000C8H   SFRSYM    DATA     BIT       CP_RL2
      000000E0H   SFRSYM    DATA     BYTE      ACC
      000000A8H.4 SFRSYM    DATA     BIT       ES0
      000000A8H.1 SFRSYM    DATA     BIT       ET0
      000000A8H.3 SFRSYM    DATA     BIT       ET1
      00000088H.5 SFRSYM    DATA     BIT       TF0
      000000A8H.5 SFRSYM    DATA     BIT       ET2
      00000088H.7 SFRSYM    DATA     BIT       TF1
      000000D8H   SFRSYM    DATA     BIT       RI1
      00000098H.2 SFRSYM    DATA     BIT       RB8
      000000C8H.7 SFRSYM    DATA     BIT       TF2
      0000008CH   SFRSYM    DATA     BYTE      TH0
      00000086H   SFRSYM    DATA     BYTE      INSCON
      0000008DH   SFRSYM    DATA     BYTE      TH1
      000000D8H.1 SFRSYM    DATA     BIT       TI1
      00000098H.3 SFRSYM    DATA     BIT       TB8
      000000CDH   SFRSYM    DATA     BYTE      TH2
      000000D0H   SFRSYM    DATA     BIT       P
      0000008AH   SFRSYM    DATA     BYTE      TL0
      000000A8H   SFRSYM    DATA     BIT       EX4
      0000008BH   SFRSYM    DATA     BYTE      TL1
      000000A7H   SFRSYM    DATA     BYTE      FLASHCON
      000000CCH   SFRSYM    DATA     BYTE      TL2
      000000D0H.3 SFRSYM    DATA     BIT       RS0
      000000C5H   SFRSYM    DATA     BYTE      ADCDH
      00000088H.4 SFRSYM    DATA     BIT       TR0
      000000D0H.4 SFRSYM    DATA     BIT       RS1
      0000009FH   SFRSYM    DATA     BYTE      PWMCON
      00000088H.6 SFRSYM    DATA     BIT       TR1
      000000C8H.2 SFRSYM    DATA     BIT       TR2
      000000C4H   SFRSYM    DATA     BYTE      ADCDL
      000000C2H   SFRSYM    DATA     BYTE      ADT
      00000083H   SFRSYM    DATA     BYTE      DPH
      00000082H   SFRSYM    DATA     BYTE      DPL
      000000D9H   SFRSYM    DATA     BYTE      SBUF1
      000000C8H.3 SFRSYM    DATA     BIT       EXEN2
      000000F9H   SFRSYM    DATA     BYTE      SBUF2
      000000D8H.6 SFRSYM    DATA     BIT       SM11_RXOV1
      000000B8H.6 SFRSYM    DATA     BIT       PADCL
      00000098H.4 SFRSYM    DATA     BIT       REN
      000000D8H   SFRSYM    DATA     BYTE      SCON1
      000000D1H   SFRSYM    DATA     BYTE      LCDCON1
      000000C1H   SFRSYM    DATA     BYTE      ADCON
      000000F8H   SFRSYM    DATA     BYTE      SCON2
LX51 LINKER/LOCATER V4.66.41.0                                                        11/18/2021  18:51:21  PAGE 253


      0000008FH   SFRSYM    DATA     BYTE      TCON1
      000000D2H   SFRSYM    DATA     BYTE      LCDCON2
      00000092H   SFRSYM    DATA     BYTE      EDTAH
      000000C9H   SFRSYM    DATA     BYTE      T2MOD
      000000C8H   SFRSYM    DATA     BYTE      T2CON
      00000094H   SFRSYM    DATA     BYTE      EDTAL
      00000093H   SFRSYM    DATA     BYTE      EDTAM
      000000BCH   SFRSYM    DATA     BYTE      TK0DIFH
      0000009BH   SFRSYM    DATA     BYTE      SADEN
      000000BEH   SFRSYM    DATA     BYTE      TK1DIFH
      000000B6H   SFRSYM    DATA     BYTE      PBANK
      000000A5H   SFRSYM    DATA     BYTE      TK2DIFH
      000000A8H.6 SFRSYM    DATA     BIT       EADTP
      0000009AH   SFRSYM    DATA     BYTE      SADDR
      000000CFH   SFRSYM    DATA     BYTE      TK0DIFL
      000000BDH   SFRSYM    DATA     BYTE      TK1DIFL
      000000BFH   SFRSYM    DATA     BYTE      TK2DIFL
      000000B8H.2 SFRSYM    DATA     BIT       P7816L
      000000C6H   SFRSYM    DATA     BYTE      LPDCON1
      000000C7H   SFRSYM    DATA     BYTE      LPDCON2
      000000D0H.5 SFRSYM    DATA     BIT       F0
      000000AEH   SFRSYM    DATA     BYTE      IRDAT
      000000D0H.1 SFRSYM    DATA     BIT       F1
      00000096H   SFRSYM    DATA     BYTE      EMUIE
      0000009EH   SFRSYM    DATA     BYTE      SFINE
      000000F7H   SFRSYM    DATA     BYTE      XPAGE
      00000097H   SFRSYM    DATA     BYTE      EMUIF
      000000D0H   SFRSYM    DATA     BYTE      PSW
      000000D8H.2 SFRSYM    DATA     BIT       RB81
      000000A3H   SFRSYM    DATA     BYTE      SPDAT
      000000F2H   SFRSYM    DATA     BYTE      IB_CON1

      ---         MODULE    ---      ---       ?BANK?SWITCHING
      01000100H   PUBLIC    CODE     ---       ?B_BANK0
      01000123H   PUBLIC    CODE     ---       ?B_BANK1
      01000146H   PUBLIC    CODE     ---       ?B_BANK2
      01000169H   PUBLIC    CODE     ---       ?B_BANK3
      00000008H   PUBLIC    DATA     ---       ?B_CURRENTBANK
      00000000H   PUBLIC    NUMBER   ---       ?B_FACTOR
      00000003H   PUBLIC    NUMBER   ---       ?B_MASK
      00000004H   PUBLIC    NUMBER   ---       ?B_MODE
      00000004H   PUBLIC    NUMBER   ---       ?B_NBANKS
      000000FFH   PUBLIC    NUMBER   ---       ?B_RST_BANK
      0100010AH   PUBLIC    CODE     ---       ?B_SWITCH0
      0100012DH   PUBLIC    CODE     ---       ?B_SWITCH1
      01000150H   PUBLIC    CODE     ---       ?B_SWITCH2
      01000173H   PUBLIC    CODE     ---       ?B_SWITCH3
      0100000EH   PUBLIC    CODE     ---       _SWITCHBANK
      00000000H   SYMBOL    NUMBER   ---       ?BANK?SWITCHING
      00000000H   SYMBOL    NUMBER   ---       ?B_FIRSTBIT
      00000000H   SYMBOL    NUMBER   ---       ?B_RTX
      00000000H   SYMBOL    NUMBER   ---       ?B_VAR_BANKING
      000000E0H   SYMBOL    DATA     ---       ACC
      000000F0H   SYMBOL    DATA     ---       B
      0000008CH   SYMBOL    NUMBER   ---       B_SWITCH_SIZE
      01000100H   SYMBOL    CODE     ---       B_SWITCH_START
      00000004H   SYMBOL    NUMBER   ---       CNT
      00000083H   SYMBOL    DATA     ---       DPH
      00000082H   SYMBOL    DATA     ---       DPL
      000000A8H.7 SYMBOL    BIT      ---       EA
      000000A8H   SYMBOL    DATA     ---       IE
      00000003H   SYMBOL    NUMBER   ---       MASK
      000000B6H   SYMBOL    DATA     ---       PBANK
      000000B7H   SYMBOL    DATA     ---       PBANKLO
      01000016H   SYMBOL    CODE     ---       SWITCH_TAB
LX51 LINKER/LOCATER V4.66.41.0                                                        11/18/2021  18:51:21  PAGE 254


      0100000FH   SYMBOL    CODE     ---       _SWITCHBANK_A

      ---         MODULE    ---      ---       ?C_STARTUP
      01000000H   PUBLIC    CODE     ---       ?C_STARTUP
      000000E0H   SYMBOL    DATA     ---       ACC
      000000F0H   SYMBOL    DATA     ---       B
      00000083H   SYMBOL    DATA     ---       DPH
      00000082H   SYMBOL    DATA     ---       DPL
      00000000H   SYMBOL    NUMBER   ---       IBPSTACK
      00000100H   SYMBOL    NUMBER   ---       IBPSTACKTOP
      00000080H   SYMBOL    NUMBER   ---       IDATALEN
      01000B80H   SYMBOL    CODE     ---       IDATALOOP
      00000000H   SYMBOL    NUMBER   ---       PBPSTACK
      00000100H   SYMBOL    NUMBER   ---       PBPSTACKTOP
      00000000H   SYMBOL    NUMBER   ---       PDATALEN
      00000000H   SYMBOL    NUMBER   ---       PDATASTART
      00000000H   SYMBOL    NUMBER   ---       PPAGE
      00000000H   SYMBOL    NUMBER   ---       PPAGEENABLE
      000000A0H   SYMBOL    DATA     ---       PPAGE_SFR
      00000081H   SYMBOL    DATA     ---       SP
      01000B7DH   SYMBOL    CODE     ---       STARTUP1
      00000000H   SYMBOL    NUMBER   ---       XBPSTACK
      00000000H   SYMBOL    NUMBER   ---       XBPSTACKTOP
      00000000H   SYMBOL    NUMBER   ---       XDATALEN
      00000000H   SYMBOL    NUMBER   ---       XDATASTART
      01000000H   LINE      CODE     ---       #126
      01000B7DH   LINE      CODE     ---       #133
      01000B7FH   LINE      CODE     ---       #134
      01000B80H   LINE      CODE     ---       #135
      01000B81H   LINE      CODE     ---       #136
      01000B83H   LINE      CODE     ---       #185
      01000B86H   LINE      CODE     ---       #193
      01000B89H   LINE      CODE     ---       #196

      ---         MODULE    ---      ---       TRIPLEDES
      02000AE2H   PUBLIC    XDATA    ---       GA_ucDesTata
      00000020H   PUBLIC    DATA     BYTE      GV_bDesRepbit
      02000AD2H   PUBLIC    XDATA    ---       GA_ucDesKey
      020009D8H   PUBLIC    XDATA    ---       GA_uc7816CommBuffer
      01000D8CH   PUBLIC    CONST    ---       GT_ucSBox
      01000D6CH   PUBLIC    CONST    ---       GT_ucPBoxLocation
      01000D4CH   PUBLIC    CONST    ---       GT_ucPBoxValue
      01000D1CH   PUBLIC    CONST    ---       GT_ucEBoxLocation
      01000CECH   PUBLIC    CONST    ---       GT_ucEBoxValue
      01000CDCH   PUBLIC    CONST    ---       GT_ucShiftTable
      01000CACH   PUBLIC    CONST    ---       GT_ucPC_2Value
      01000C7CH   PUBLIC    CONST    ---       GT_ucPC_2Location
      01000C44H   PUBLIC    CONST    ---       GT_ucPC_1Value
      01000C0CH   PUBLIC    CONST    ---       GT_ucPC_1Location
      0200076DH   PUBLIC    XDATA    BYTE      ?_Data_MAC?BYTE
      0100249FH   PUBLIC    CODE     ---       _Data_MAC
      0200077AH   PUBLIC    XDATA    BYTE      ?_TripleDES_DeOrEncryption?BYTE
      01002448H   PUBLIC    CODE     ---       _TripleDES_DeOrEncryption
      02000781H   PUBLIC    XDATA    BYTE      ?_DES_DeOrEncryption?BYTE
      010022B4H   PUBLIC    CODE     ---       _DES_DeOrEncryption
      0200079AH   PUBLIC    XDATA    BYTE      ?_DES_F?BYTE
      0100490AH   PUBLIC    CODE     ---       _DES_F
      010023A5H   PUBLIC    CODE     ---       _DES_IP_1
      01004B52H   PUBLIC    CODE     ---       _DES_CycLRShifting
      020007ADH   PUBLIC    XDATA    BYTE      ?_DES_Transposition?BYTE
      01004837H   PUBLIC    CODE     ---       _DES_Transposition
      01004819H   PUBLIC    CODE     ---       _DES_PC_1
      010026CEH   PUBLIC    CODE     ---       _DES_IP
      010047F1H   PUBLIC    CODE     ---       _DES_ReplaceMent
      000000F3H   SFRSYM    DATA     BYTE      IB_CON2
LX51 LINKER/LOCATER V4.66.41.0                                                        11/18/2021  18:51:21  PAGE 255


      000000D8H.3 SFRSYM    DATA     BIT       TB81
      00000080H   SFRSYM    DATA     BYTE      P0
      000000F4H   SFRSYM    DATA     BYTE      IB_CON3
      000000A4H   SFRSYM    DATA     BYTE      TKCON
      00000090H   SFRSYM    DATA     BYTE      P1
      000000F5H   SFRSYM    DATA     BYTE      IB_CON4
      000000E7H   SFRSYM    DATA     BYTE      PASLO
      000000A0H   SFRSYM    DATA     BYTE      P2
      000000FEH   SFRSYM    DATA     BYTE      OSCLO
      000000F6H   SFRSYM    DATA     BYTE      IB_CON5
      00000098H.6 SFRSYM    DATA     BIT       SM1_RXOV
      000000B0H   SFRSYM    DATA     BYTE      P3
      000000D0H.6 SFRSYM    DATA     BIT       AC
      000000C0H   SFRSYM    DATA     BYTE      P4
      000000A1H   SFRSYM    DATA     BYTE      SPCON
      0000009CH   SFRSYM    DATA     BYTE      SBRTH
      000000E9H   SFRSYM    DATA     BYTE      P5
      000000A8H.7 SFRSYM    DATA     BIT       EA
      000000EAH   SFRSYM    DATA     BYTE      P6
      000000EBH   SFRSYM    DATA     BYTE      P7
      000000EFH   SFRSYM    DATA     BYTE      IB_DATA
      000000ECH   SFRSYM    DATA     BYTE      P8
      0000009DH   SFRSYM    DATA     BYTE      SBRTL
      000000EDH   SFRSYM    DATA     BYTE      P9
      000000B7H   SFRSYM    DATA     BYTE      PBANKLO
      000000A2H   SFRSYM    DATA     BYTE      SPSTA
      000000A8H   SFRSYM    DATA     BYTE      IEN0
      000000B3H   SFRSYM    DATA     BYTE      PWRCON1
      00000095H   SFRSYM    DATA     BYTE      EMUSR
      000000A9H   SFRSYM    DATA     BYTE      IEN1
      000000B4H   SFRSYM    DATA     BYTE      PWRCON2
      00000085H   SFRSYM    DATA     BYTE      DPH1
      00000080H   SFRSYM    DATA     BIT       P0_0
      00000090H   SFRSYM    DATA     BIT       P1_0
      00000080H.1 SFRSYM    DATA     BIT       P0_1
      000000C3H   SFRSYM    DATA     BYTE      ADCH
      000000A0H   SFRSYM    DATA     BIT       P2_0
      00000090H.1 SFRSYM    DATA     BIT       P1_1
      00000080H.2 SFRSYM    DATA     BIT       P0_2
      000000BAH   SFRSYM    DATA     BYTE      IPH0
      00000084H   SFRSYM    DATA     BYTE      DPL1
      000000B0H   SFRSYM    DATA     BIT       P3_0
      000000A0H.1 SFRSYM    DATA     BIT       P2_1
      00000090H.2 SFRSYM    DATA     BIT       P1_2
      00000080H.3 SFRSYM    DATA     BIT       P0_3
      000000BBH   SFRSYM    DATA     BYTE      IPH1
      000000C0H   SFRSYM    DATA     BIT       P4_0
      000000B0H.1 SFRSYM    DATA     BIT       P3_1
      000000A0H.2 SFRSYM    DATA     BIT       P2_2
      00000090H.3 SFRSYM    DATA     BIT       P1_3
      00000080H.4 SFRSYM    DATA     BIT       P0_4
      000000E8H   SFRSYM    DATA     BYTE      EXF0
      000000C0H.1 SFRSYM    DATA     BIT       P4_1
      000000B0H.2 SFRSYM    DATA     BIT       P3_2
      000000A0H.3 SFRSYM    DATA     BIT       P2_3
      00000090H.4 SFRSYM    DATA     BIT       P1_4
      00000080H.5 SFRSYM    DATA     BIT       P0_5
      000000C0H.2 SFRSYM    DATA     BIT       P4_2
      000000B0H.3 SFRSYM    DATA     BIT       P3_3
      000000A0H.4 SFRSYM    DATA     BIT       P2_4
      00000090H.5 SFRSYM    DATA     BIT       P1_5
      00000080H.6 SFRSYM    DATA     BIT       P0_6
      000000C8H.6 SFRSYM    DATA     BIT       EXF2
      000000A6H   SFRSYM    DATA     BYTE      TKF0
      000000B8H   SFRSYM    DATA     BYTE      IPL0
LX51 LINKER/LOCATER V4.66.41.0                                                        11/18/2021  18:51:21  PAGE 256


      000000C0H.3 SFRSYM    DATA     BIT       P4_3
      000000B0H.4 SFRSYM    DATA     BIT       P3_4
      000000A0H.5 SFRSYM    DATA     BIT       P2_5
      00000090H.6 SFRSYM    DATA     BIT       P1_6
      00000080H.7 SFRSYM    DATA     BIT       P0_7
      000000D8H.4 SFRSYM    DATA     BIT       REN1
      000000B9H   SFRSYM    DATA     BYTE      IPL1
      000000C0H.4 SFRSYM    DATA     BIT       P4_4
      000000B0H.5 SFRSYM    DATA     BIT       P3_5
      000000A0H.6 SFRSYM    DATA     BIT       P2_6
      00000090H.7 SFRSYM    DATA     BIT       P1_7
      000000E2H   SFRSYM    DATA     BYTE      TK0H
      0000008EH   SFRSYM    DATA     BYTE      SUSLO
      000000C0H.5 SFRSYM    DATA     BIT       P4_5
      000000B0H.6 SFRSYM    DATA     BIT       P3_6
      000000A0H.7 SFRSYM    DATA     BIT       P2_7
      000000E4H   SFRSYM    DATA     BYTE      TK1H
      000000C0H.6 SFRSYM    DATA     BIT       P4_6
      000000B0H.7 SFRSYM    DATA     BIT       P3_7
      000000E6H   SFRSYM    DATA     BYTE      TK2H
      000000C0H.7 SFRSYM    DATA     BIT       P4_7
      00000098H   SFRSYM    DATA     BIT       RI
      000000A8H.2 SFRSYM    DATA     BIT       E7816
      000000D0H.7 SFRSYM    DATA     BIT       CY
      000000E1H   SFRSYM    DATA     BYTE      TK0L
      00000098H.1 SFRSYM    DATA     BIT       TI
      00000091H   SFRSYM    DATA     BYTE      EADR
      000000E3H   SFRSYM    DATA     BYTE      TK1L
      000000E5H   SFRSYM    DATA     BYTE      TK2L
      000000DBH   SFRSYM    DATA     BYTE      SADEN1
      000000D8H.7 SFRSYM    DATA     BIT       SM10_FE1
      000000FBH   SFRSYM    DATA     BYTE      SADEN2
      000000B8H.4 SFRSYM    DATA     BIT       PS0L
      000000B8H.1 SFRSYM    DATA     BIT       PT0L
      000000DAH   SFRSYM    DATA     BYTE      SADDR1
      000000D8H.5 SFRSYM    DATA     BIT       SM12_TXCOL1
      000000B8H.3 SFRSYM    DATA     BIT       PT1L
      000000FAH   SFRSYM    DATA     BYTE      SADDR2
      000000CBH   SFRSYM    DATA     BYTE      RCAP2H
      000000B8H.5 SFRSYM    DATA     BIT       PT2L
      00000081H   SFRSYM    DATA     BYTE      SP
      000000D0H.2 SFRSYM    DATA     BIT       OV
      000000CAH   SFRSYM    DATA     BYTE      RCAP2L
      000000B8H   SFRSYM    DATA     BIT       PX4L
      000000C8H.1 SFRSYM    DATA     BIT       C_T2
      000000DEH   SFRSYM    DATA     BYTE      SFINE2
      000000ADH   SFRSYM    DATA     BYTE      IRCON1
      000000AFH   SFRSYM    DATA     BYTE      IRCON2
      000000ABH   SFRSYM    DATA     BYTE      EXCON1
      00000099H   SFRSYM    DATA     BYTE      SBUF
      000000ACH   SFRSYM    DATA     BYTE      EXCON2
      00000087H   SFRSYM    DATA     BYTE      PCON
      000000F1H   SFRSYM    DATA     BYTE      AUXC
      00000098H   SFRSYM    DATA     BYTE      SCON
      000000D4H   SFRSYM    DATA     BYTE      TK0BASEH
      00000089H   SFRSYM    DATA     BYTE      TMOD
      00000088H   SFRSYM    DATA     BYTE      TCON
      000000AAH   SFRSYM    DATA     BYTE      IENX
      000000EEH   SFRSYM    DATA     BYTE      IB_OFFSET
      000000D6H   SFRSYM    DATA     BYTE      TK1BASEH
      000000DCH   SFRSYM    DATA     BYTE      SBRT1H
      000000DFH   SFRSYM    DATA     BYTE      TK2BASEH
      000000FCH   SFRSYM    DATA     BYTE      SBRT2H
      000000B1H   SFRSYM    DATA     BYTE      RSTSTAT
      000000D3H   SFRSYM    DATA     BYTE      TK0BASEL
LX51 LINKER/LOCATER V4.66.41.0                                                        11/18/2021  18:51:21  PAGE 257


      000000D5H   SFRSYM    DATA     BYTE      TK1BASEL
      000000DDH   SFRSYM    DATA     BYTE      SBRT1L
      000000D7H   SFRSYM    DATA     BYTE      TK2BASEL
      000000FDH   SFRSYM    DATA     BYTE      SBRT2L
      00000098H.7 SFRSYM    DATA     BIT       SM0_FE
      000000B2H   SFRSYM    DATA     BYTE      CLKCON
      00000098H.5 SFRSYM    DATA     BIT       SM2_TXCOL
      000000B5H   SFRSYM    DATA     BYTE      LDOCON
      000000F0H   SFRSYM    DATA     BYTE      B
      000000C8H   SFRSYM    DATA     BIT       CP_RL2
      000000E0H   SFRSYM    DATA     BYTE      ACC
      000000A8H.4 SFRSYM    DATA     BIT       ES0
      000000A8H.1 SFRSYM    DATA     BIT       ET0
      000000A8H.3 SFRSYM    DATA     BIT       ET1
      00000088H.5 SFRSYM    DATA     BIT       TF0
      000000A8H.5 SFRSYM    DATA     BIT       ET2
      00000088H.7 SFRSYM    DATA     BIT       TF1
      000000D8H   SFRSYM    DATA     BIT       RI1
      00000098H.2 SFRSYM    DATA     BIT       RB8
      000000C8H.7 SFRSYM    DATA     BIT       TF2
      0000008CH   SFRSYM    DATA     BYTE      TH0
      00000086H   SFRSYM    DATA     BYTE      INSCON
      0000008DH   SFRSYM    DATA     BYTE      TH1
      000000D8H.1 SFRSYM    DATA     BIT       TI1
      00000098H.3 SFRSYM    DATA     BIT       TB8
      000000CDH   SFRSYM    DATA     BYTE      TH2
      000000D0H   SFRSYM    DATA     BIT       P
      0000008AH   SFRSYM    DATA     BYTE      TL0
      000000A8H   SFRSYM    DATA     BIT       EX4
      0000008BH   SFRSYM    DATA     BYTE      TL1
      000000A7H   SFRSYM    DATA     BYTE      FLASHCON
      000000CCH   SFRSYM    DATA     BYTE      TL2
      000000D0H.3 SFRSYM    DATA     BIT       RS0
      000000C5H   SFRSYM    DATA     BYTE      ADCDH
      00000088H.4 SFRSYM    DATA     BIT       TR0
      000000D0H.4 SFRSYM    DATA     BIT       RS1
      0000009FH   SFRSYM    DATA     BYTE      PWMCON
      00000088H.6 SFRSYM    DATA     BIT       TR1
      000000C8H.2 SFRSYM    DATA     BIT       TR2
      000000C4H   SFRSYM    DATA     BYTE      ADCDL
      000000C2H   SFRSYM    DATA     BYTE      ADT
      00000083H   SFRSYM    DATA     BYTE      DPH
      00000082H   SFRSYM    DATA     BYTE      DPL
      000000D9H   SFRSYM    DATA     BYTE      SBUF1
      000000C8H.3 SFRSYM    DATA     BIT       EXEN2
      000000F9H   SFRSYM    DATA     BYTE      SBUF2
      000000D8H.6 SFRSYM    DATA     BIT       SM11_RXOV1
      000000B8H.6 SFRSYM    DATA     BIT       PADCL
      00000098H.4 SFRSYM    DATA     BIT       REN
      000000D8H   SFRSYM    DATA     BYTE      SCON1
      000000D1H   SFRSYM    DATA     BYTE      LCDCON1
      000000C1H   SFRSYM    DATA     BYTE      ADCON
      000000F8H   SFRSYM    DATA     BYTE      SCON2
      0000008FH   SFRSYM    DATA     BYTE      TCON1
      000000D2H   SFRSYM    DATA     BYTE      LCDCON2
      00000092H   SFRSYM    DATA     BYTE      EDTAH
      000000C9H   SFRSYM    DATA     BYTE      T2MOD
      000000C8H   SFRSYM    DATA     BYTE      T2CON
      00000094H   SFRSYM    DATA     BYTE      EDTAL
      00000093H   SFRSYM    DATA     BYTE      EDTAM
      000000BCH   SFRSYM    DATA     BYTE      TK0DIFH
      0000009BH   SFRSYM    DATA     BYTE      SADEN
      000000BEH   SFRSYM    DATA     BYTE      TK1DIFH
      000000B6H   SFRSYM    DATA     BYTE      PBANK
      000000A5H   SFRSYM    DATA     BYTE      TK2DIFH
LX51 LINKER/LOCATER V4.66.41.0                                                        11/18/2021  18:51:21  PAGE 258


      000000A8H.6 SFRSYM    DATA     BIT       EADTP
      0000009AH   SFRSYM    DATA     BYTE      SADDR
      000000CFH   SFRSYM    DATA     BYTE      TK0DIFL
      000000BDH   SFRSYM    DATA     BYTE      TK1DIFL
      000000BFH   SFRSYM    DATA     BYTE      TK2DIFL
      000000B8H.2 SFRSYM    DATA     BIT       P7816L
      000000C6H   SFRSYM    DATA     BYTE      LPDCON1
      000000C7H   SFRSYM    DATA     BYTE      LPDCON2
      000000D0H.5 SFRSYM    DATA     BIT       F0
      000000AEH   SFRSYM    DATA     BYTE      IRDAT
      000000D0H.1 SFRSYM    DATA     BIT       F1
      00000096H   SFRSYM    DATA     BYTE      EMUIE
      0000009EH   SFRSYM    DATA     BYTE      SFINE
      000000F7H   SFRSYM    DATA     BYTE      XPAGE
      00000097H   SFRSYM    DATA     BYTE      EMUIF
      000000D0H   SFRSYM    DATA     BYTE      PSW
      000000D8H.2 SFRSYM    DATA     BIT       RB81
      000000A3H   SFRSYM    DATA     BYTE      SPDAT
      000000F2H   SFRSYM    DATA     BYTE      IB_CON1

      010047ECH   BLOCK     CODE     ---       LVL=0
      010047F1H   LINE      ---      ---       #241
      010047F6H   LINE      ---      ---       #242
      00000001H   SYMBOL    DATA     ---       P_ucSData
      020007A7H   SYMBOL    XDATA    BYTE      V_ucRepMode
      010047F6H   BLOCK     CODE     NEAR LAB  LVL=1
      010047F6H   LINE      ---      ---       #245
      010047F8H   LINE      ---      ---       #246
      010047FAH   LINE      ---      ---       #247
      010047FAH   LINE      ---      ---       #248
      010047FEH   LINE      ---      ---       #249
      01004816H   LINE      ---      ---       #250
      01004818H   LINE      ---      ---       #252
      01004818H   LINE      ---      ---       #253
      00000006H   SYMBOL    DATA     BYTE      V_ucCnti
      00000007H   SYMBOL    DATA     BYTE      V_ucDesRepbit
      ---         BLOCKEND  CODE     ---       LVL=1
      ---         BLOCKEND  CODE     ---       LVL=0

      010026CEH   BLOCK     CODE     ---       LVL=0
      010026CEH   LINE      ---      ---       #264
      010026D9H   LINE      ---      ---       #265
      0200079AH   SYMBOL    XDATA    ---       P_ucSorceData
      010026D9H   BLOCK     CODE     NEAR LAB  LVL=1
      010026D9H   LINE      ---      ---       #269
      010026DFH   LINE      ---      ---       #270
      010026EEH   LINE      ---      ---       #271
      010026EEH   LINE      ---      ---       #272
      010026F6H   LINE      ---      ---       #274
      01002713H   LINE      ---      ---       #276
      0100271DH   LINE      ---      ---       #277
      01002725H   LINE      ---      ---       #279
      0200079DH   SYMBOL    XDATA    BYTE      V_ucCnti
      0200079EH   SYMBOL    XDATA    BYTE      V_ucTempData
      0200079FH   SYMBOL    XDATA    ---       V_ucTemp
      ---         BLOCKEND  CODE     ---       LVL=1
      ---         BLOCKEND  CODE     ---       LVL=0

      01004819H   BLOCK     CODE     ---       LVL=0
      01004819H   LINE      ---      ---       #291
      01004819H   LINE      ---      ---       #292
      01004819H   LINE      ---      ---       #293
      00000001H   SYMBOL    DATA     ---       P_ucSorceData
      ---         BLOCKEND  ---      ---       LVL=0

LX51 LINKER/LOCATER V4.66.41.0                                                        11/18/2021  18:51:21  PAGE 259


      01004837H   BLOCK     CODE     ---       LVL=0
      01004837H   LINE      ---      ---       #310
      01004842H   LINE      ---      ---       #311
      020007ADH   SYMBOL    XDATA    ---       P_ucSorceData
      020007B0H   SYMBOL    XDATA    ---       P_ucLocattion
      020007B3H   SYMBOL    XDATA    ---       P_ucValue
      020007B6H   SYMBOL    XDATA    BYTE      V_ucOutLen
      01004842H   BLOCK     CODE     NEAR LAB  LVL=1
      01004842H   LINE      ---      ---       #315
      01004845H   LINE      ---      ---       #316
      01004867H   LINE      ---      ---       #317
      01004867H   LINE      ---      ---       #318
      0100486DH   LINE      ---      ---       #319
      010048BEH   LINE      ---      ---       #320
      010048C7H   LINE      ---      ---       #321
      010048C7H   LINE      ---      ---       #322
      010048D9H   LINE      ---      ---       #323
      010048DCH   LINE      ---      ---       #324
      010048DCH   LINE      ---      ---       #325
      010048E4H   LINE      ---      ---       #326
      020007B7H   SYMBOL    XDATA    BYTE      i
      020007B8H   SYMBOL    XDATA    ---       V_ucTemp
      ---         BLOCKEND  CODE     ---       LVL=1
      ---         BLOCKEND  CODE     ---       LVL=0

      01004B52H   BLOCK     CODE     ---       LVL=0
      01004B52H   LINE      ---      ---       #340
      01004B60H   LINE      ---      ---       #341
      0200079AH   SYMBOL    XDATA    ---       P_ucData
      0200079DH   SYMBOL    XDATA    BYTE      V_ucMode
      01004B60H   BLOCK     CODE     NEAR LAB  LVL=1
      01004B60H   LINE      ---      ---       #346
      01004B67H   LINE      ---      ---       #347
      01004B71H   LINE      ---      ---       #348
      01004B7BH   LINE      ---      ---       #349
      01004B87H   LINE      ---      ---       #350
      01004B8AH   LINE      ---      ---       #351
      01004B8AH   LINE      ---      ---       #352
      01004BA3H   LINE      ---      ---       #353
      01004BBBH   LINE      ---      ---       #354
      01004BBDH   LINE      ---      ---       #356
      01004BBDH   LINE      ---      ---       #357
      01004BD6H   LINE      ---      ---       #358
      01004BDDH   LINE      ---      ---       #359
      01004BF8H   LINE      ---      ---       #360
      01004BF8H   LINE      ---      ---       #363
      01004C0FH   LINE      ---      ---       #364
      01004C19H   LINE      ---      ---       #365
      01004C23H   LINE      ---      ---       #366
      01004C2DH   LINE      ---      ---       #367
      01004C35H   LINE      ---      ---       #368
      01004C35H   LINE      ---      ---       #369
      01004C4EH   LINE      ---      ---       #370
      01004C55H   LINE      ---      ---       #371
      01004C70H   LINE      ---      ---       #372
      01004C72H   LINE      ---      ---       #374
      01004C72H   LINE      ---      ---       #375
      01004C8BH   LINE      ---      ---       #376
      01004CA6H   LINE      ---      ---       #377
      01004CA6H   LINE      ---      ---       #380
      01004CB4H   LINE      ---      ---       #381
      01004CBCH   LINE      ---      ---       #382
      01004CC4H   LINE      ---      ---       #383
      01004CCCH   LINE      ---      ---       #385
      0200079EH   SYMBOL    XDATA    ---       V_unTemp32
LX51 LINKER/LOCATER V4.66.41.0                                                        11/18/2021  18:51:21  PAGE 260


      ---         BLOCKEND  CODE     ---       LVL=1
      ---         BLOCKEND  CODE     ---       LVL=0

      010023A5H   BLOCK     CODE     ---       LVL=0
      010023A5H   LINE      ---      ---       #397
      010023B0H   LINE      ---      ---       #398
      0200079AH   SYMBOL    XDATA    ---       P_ucSorceData
      010023B0H   BLOCK     CODE     NEAR LAB  LVL=1
      010023B0H   LINE      ---      ---       #401
      010023B3H   LINE      ---      ---       #403
      010023B8H   LINE      ---      ---       #405
      010023BFH   LINE      ---      ---       #406
      010023C9H   LINE      ---      ---       #407
      010023D3H   LINE      ---      ---       #408
      010023DDH   LINE      ---      ---       #409
      010023E7H   LINE      ---      ---       #410
      010023F1H   LINE      ---      ---       #411
      010023FBH   LINE      ---      ---       #412
      01002405H   LINE      ---      ---       #413
      0100240AH   LINE      ---      ---       #414
      0100240AH   LINE      ---      ---       #415
      01002429H   LINE      ---      ---       #416
      01002430H   LINE      ---      ---       #417
      0100243CH   LINE      ---      ---       #418
      0100243FH   LINE      ---      ---       #419
      0200079DH   SYMBOL    XDATA    BYTE      i
      0200079EH   SYMBOL    XDATA    BYTE      n
      0200079FH   SYMBOL    XDATA    ---       V_ucTemp
      ---         BLOCKEND  CODE     ---       LVL=1
      ---         BLOCKEND  CODE     ---       LVL=0

      0100490AH   BLOCK     CODE     ---       LVL=0
      0100490AH   LINE      ---      ---       #431
      01004915H   LINE      ---      ---       #432
      0200079AH   SYMBOL    XDATA    ---       P_ucData
      0200079DH   SYMBOL    XDATA    ---       P_Key
      01004915H   BLOCK     CODE     NEAR LAB  LVL=1
      01004915H   LINE      ---      ---       #436
      01004930H   LINE      ---      ---       #438
      01004956H   LINE      ---      ---       #441
      0100495BH   LINE      ---      ---       #442
      0100495BH   LINE      ---      ---       #443
      0100498AH   LINE      ---      ---       #444
      01004994H   LINE      ---      ---       #447
      010049A5H   LINE      ---      ---       #448
      010049A5H   LINE      ---      ---       #449
      010049CFH   LINE      ---      ---       #450
      01004A31H   LINE      ---      ---       #452
      01004A5FH   LINE      ---      ---       #453
      01004AB9H   LINE      ---      ---       #454
      01004AC1H   LINE      ---      ---       #457
      01004AE7H   LINE      ---      ---       #459
      01004AF6H   LINE      ---      ---       #460
      01004AF6H   LINE      ---      ---       #461
      01004B13H   LINE      ---      ---       #462
      01004B3BH   LINE      ---      ---       #463
      01004B49H   LINE      ---      ---       #464
      01004B51H   LINE      ---      ---       #466
      020007A0H   SYMBOL    XDATA    BYTE      i
      020007A1H   SYMBOL    XDATA    ---       V_ucTempData
      020007A9H   SYMBOL    XDATA    ---       V_ucTempSData
      ---         BLOCKEND  CODE     ---       LVL=1
      ---         BLOCKEND  CODE     ---       LVL=0

      01002293H   BLOCK     CODE     ---       LVL=0
LX51 LINKER/LOCATER V4.66.41.0                                                        11/18/2021  18:51:21  PAGE 261


      010022B4H   LINE      ---      ---       #480
      010022BFH   LINE      ---      ---       #482
      02000781H   SYMBOL    XDATA    ---       P_ucData
      02000784H   SYMBOL    XDATA    ---       P_Key
      02000787H   SYMBOL    XDATA    BYTE      V_ucMode
      010022BFH   BLOCK     CODE     NEAR LAB  LVL=1
      010022BFH   LINE      ---      ---       #488
      010022DEH   LINE      ---      ---       #491
      010022EBH   LINE      ---      ---       #494
      010022F4H   LINE      ---      ---       #497
      010022F9H   LINE      ---      ---       #498
      010022F9H   LINE      ---      ---       #500
      01002310H   LINE      ---      ---       #501
      01002310H   LINE      ---      ---       #502
      0100231BH   LINE      ---      ---       #503
      01002324H   LINE      ---      ---       #504
      0100232CH   LINE      ---      ---       #506
      01002346H   LINE      ---      ---       #508
      0100236DH   LINE      ---      ---       #510
      01002389H   LINE      ---      ---       #511
      0100238CH   LINE      ---      ---       #512
      0100239AH   LINE      ---      ---       #515
      02000788H   SYMBOL    XDATA    BYTE      i
      02000789H   SYMBOL    XDATA    BYTE      j
      0200078AH   SYMBOL    XDATA    ---       V_ucTempBuff
      02000792H   SYMBOL    XDATA    ---       V_ucTempKey
      ---         BLOCKEND  CODE     ---       LVL=1
      ---         BLOCKEND  CODE     ---       LVL=0

      01002440H   BLOCK     CODE     ---       LVL=0
      01002448H   LINE      ---      ---       #527
      01002453H   LINE      ---      ---       #528
      00000007H   SYMBOL    DATA     BYTE      V_ucKeyNum
      0200077BH   SYMBOL    XDATA    ---       P_ucData
      0200077EH   SYMBOL    XDATA    BYTE      V_ucMode
      01002453H   BLOCK     CODE     NEAR LAB  LVL=1
      01002453H   LINE      ---      ---       #532
      01002458H   LINE      ---      ---       #533
      01002458H   LINE      ---      ---       #534
      01002469H   LINE      ---      ---       #535
      01002469H   LINE      ---      ---       #536
      0100246CH   LINE      ---      ---       #537
      0100246CH   LINE      ---      ---       #538
      0100246CH   LINE      ---      ---       #541
      01002473H   LINE      ---      ---       #542
      01002473H   LINE      ---      ---       #543
      01002477H   LINE      ---      ---       #544
      0100247AH   LINE      ---      ---       #545
      0100247CH   LINE      ---      ---       #547
      0100247CH   LINE      ---      ---       #548
      01002482H   LINE      ---      ---       #549
      01002485H   LINE      ---      ---       #550
      01002485H   LINE      ---      ---       #552
      01002487H   LINE      ---      ---       #554
      0100249AH   LINE      ---      ---       #556
      0100249CH   LINE      ---      ---       #558
      0100249EH   LINE      ---      ---       #559
      0200077FH   SYMBOL    XDATA    BYTE      V_ucMode1
      02000780H   SYMBOL    XDATA    BYTE      V_ucMode2
      ---         BLOCKEND  CODE     ---       LVL=1
      ---         BLOCKEND  CODE     ---       LVL=0

      0100249FH   BLOCK     CODE     ---       LVL=0
      0100249FH   LINE      ---      ---       #573
      010024ADH   LINE      ---      ---       #574
LX51 LINKER/LOCATER V4.66.41.0                                                        11/18/2021  18:51:21  PAGE 262


      0200076DH   SYMBOL    XDATA    ---       P_ucData
      02000770H   SYMBOL    XDATA    BYTE      V_ucLen
      02000771H   SYMBOL    XDATA    ---       P_ucRand
      02000774H   SYMBOL    XDATA    BYTE      V_ucType
      010024ADH   BLOCK     CODE     NEAR LAB  LVL=1
      010024ADH   LINE      ---      ---       #578
      010024B5H   LINE      ---      ---       #579
      010024C3H   LINE      ---      ---       #582
      010024E2H   LINE      ---      ---       #583
      010024F3H   LINE      ---      ---       #584
      010024F6H   LINE      ---      ---       #587
      01002520H   LINE      ---      ---       #588
      0100253AH   LINE      ---      ---       #589
      01002556H   LINE      ---      ---       #590
      01002564H   LINE      ---      ---       #593
      01002566H   LINE      ---      ---       #594
      01002566H   LINE      ---      ---       #595
      01002591H   LINE      ---      ---       #596
      01002596H   LINE      ---      ---       #597
      010025A9H   LINE      ---      ---       #598
      010025A9H   LINE      ---      ---       #600
      010025C3H   LINE      ---      ---       #601
      010025C5H   LINE      ---      ---       #602
      010025C5H   LINE      ---      ---       #603
      0100260AH   LINE      ---      ---       #604
      0100260FH   LINE      ---      ---       #605
      01002617H   LINE      ---      ---       #608
      01002627H   LINE      ---      ---       #611
      0100262FH   LINE      ---      ---       #612
      0100262FH   LINE      ---      ---       #613
      01002664H   LINE      ---      ---       #614
      01002667H   LINE      ---      ---       #616
      0100266AH   LINE      ---      ---       #617
      0100266AH   LINE      ---      ---       #619
      0100266CH   LINE      ---      ---       #620
      02000775H   SYMBOL    XDATA    BYTE      i
      02000776H   SYMBOL    XDATA    BYTE      j
      00000005H   SYMBOL    DATA     BYTE      k
      02000777H   SYMBOL    XDATA    ---       P_ucTempBuff
      ---         BLOCKEND  CODE     ---       LVL=1
      ---         BLOCKEND  CODE     ---       LVL=0

      ---         MODULE    ---      ---       ?C?FPADD
      01000202H   PUBLIC    CODE     ---       ?C?FPADD
      010001FEH   PUBLIC    CODE     ---       ?C?FPSUB

      ---         MODULE    ---      ---       ?C?FPMUL
      010002F3H   PUBLIC    CODE     ---       ?C?FPMUL

      ---         MODULE    ---      ---       ?C?FPDIV
      010003FCH   PUBLIC    CODE     ---       ?C?FPDIV

      ---         MODULE    ---      ---       ?C?FCAST
      010004A3H   PUBLIC    CODE     ---       ?C?FCASTC
      0100049EH   PUBLIC    CODE     ---       ?C?FCASTI
      01000499H   PUBLIC    CODE     ---       ?C?FCASTL

      ---         MODULE    ---      ---       ?C?CASTF
      010004D7H   PUBLIC    CODE     ---       ?C?CASTF

      ---         MODULE    ---      ---       SQRT
      01000AD5H   PUBLIC    CODE     ---       _SQRT

      ---         MODULE    ---      ---       ?C?FPGETOPN
      0100050EH   PUBLIC    CODE     ---       ?C?FPGETOPN2
LX51 LINKER/LOCATER V4.66.41.0                                                        11/18/2021  18:51:21  PAGE 263


      01000543H   PUBLIC    CODE     ---       ?C?FPNANRESULT
      0100054DH   PUBLIC    CODE     ---       ?C?FPOVERFLOW
      01000525H   PUBLIC    CODE     ---       ?C?FPRESULT
      01000539H   PUBLIC    CODE     ---       ?C?FPRESULT2
      0100054AH   PUBLIC    CODE     ---       ?C?FPUNDERFLOW

      ---         MODULE    ---      ---       ?C_INIT
      01000BC7H   PUBLIC    CODE     ---       ?C_START

      ---         MODULE    ---      ---       ?C?COPY
      01000628H   PUBLIC    CODE     ---       ?C?COPY

      ---         MODULE    ---      ---       ?C?CLDPTR
      0100064EH   PUBLIC    CODE     ---       ?C?CLDPTR

      ---         MODULE    ---      ---       ?C?CLDOPTR
      01000667H   PUBLIC    CODE     ---       ?C?CLDOPTR

      ---         MODULE    ---      ---       ?C?CILDOPTR
      01000694H   PUBLIC    CODE     ---       ?C?CILDOPTR

      ---         MODULE    ---      ---       ?C?CSTPTR
      010006C7H   PUBLIC    CODE     ---       ?C?CSTPTR

      ---         MODULE    ---      ---       ?C?CSTOPTR
      010006D9H   PUBLIC    CODE     ---       ?C?CSTOPTR

      ---         MODULE    ---      ---       ?C?IMUL
      010006FBH   PUBLIC    CODE     ---       ?C?IMUL

      ---         MODULE    ---      ---       ?C?UIDIV
      0100070DH   PUBLIC    CODE     ---       ?C?UIDIV

      ---         MODULE    ---      ---       ?C?IILDX
      01000762H   PUBLIC    CODE     ---       ?C?IILDX

      ---         MODULE    ---      ---       ?C?ILDIX
      01000778H   PUBLIC    CODE     ---       ?C?ILDIX

      ---         MODULE    ---      ---       ?C?LMUL
      0100078EH   PUBLIC    CODE     ---       ?C?LMUL

      ---         MODULE    ---      ---       ?C?ULDIV
      01000819H   PUBLIC    CODE     ---       ?C?ULDIV

      ---         MODULE    ---      ---       ?C?LNOT
      010008ABH   PUBLIC    CODE     ---       ?C?LNOT

      ---         MODULE    ---      ---       ?C?LNEG
      010008B8H   PUBLIC    CODE     ---       ?C?LNEG

      ---         MODULE    ---      ---       ?C?ULCMP
      010008C6H   PUBLIC    CODE     ---       ?C?ULCMP

      ---         MODULE    ---      ---       ?C?ULSHR
      010008D7H   PUBLIC    CODE     ---       ?C?ULSHR

      ---         MODULE    ---      ---       ?C?LSHL
      010008EAH   PUBLIC    CODE     ---       ?C?LSHL

      ---         MODULE    ---      ---       ?C?LLDXDATA
      010008FDH   PUBLIC    CODE     ---       ?C?LLDXDATA

      ---         MODULE    ---      ---       ?C?LLDCODE
      01000909H   PUBLIC    CODE     ---       ?C?LLDCODE
LX51 LINKER/LOCATER V4.66.41.0                                                        11/18/2021  18:51:21  PAGE 264



      ---         MODULE    ---      ---       ?C?LSTXDATA
      01000919H   PUBLIC    CODE     ---       ?C?LSTXDATA

      ---         MODULE    ---      ---       ?C?LSTKXDATA
      01000925H   PUBLIC    CODE     ---       ?C?LSTKXDATA

      ---         MODULE    ---      ---       ?C?CCASE
      01000956H   PUBLIC    CODE     ---       ?C?CCASE

      ---         MODULE    ---      ---       ?C?LCASE
      0100097CH   PUBLIC    CODE     ---       ?C?LCASE

      ---         MODULE    ---      ---       RAND
      02000CD7H   PUBLIC    XDATA    ---       ?SRAND?BYTE
      01000076H   PUBLIC    CODE     ---       RAND
      010000B4H   PUBLIC    CODE     ---       _SRAND

Program Size: data=11.0 xdata=3403 const=3394 code=62872
LX51 RUN COMPLETE.  0 WARNING(S),  0 ERROR(S)
