LX51 LINKER/LOCATER V4.66.41.0                                                          11/18/2021  18:54:16  PAGE 1


LX51 LINKER/LOCATER V4.66.41.0, INVOKED BY:
C:\PROGRAM FILES (X86)\KEIL_V5 FMSH\C51\BIN\LX51.EXE BANK2 {.\AppComm.obj}, BANK2 {.\AppDLT645.obj}, BANK2 {.\AppVirtual
>> Esam.obj}, BANK2 {.\AppDisplay.obj}, BANK1 {.\AppMonitor.obj}, BANK1 {.\AppPowerOn.obj}, BANK1 {.\AppPowerOff.obj}, B
>> ANK1 {.\AppEMU7021A.obj}, BANK1 {.\AppEMUAtt7036.obj}, BANK1 {.\AppMeasure.obj}, BANK1 {.\AppMoney.obj}, BANK1 {.\App
>> RelayControl.obj}, BANK1 {.\AppEvent.obj}, COMMON {.\MainPro.obj}, COMMON {.\LibPublic.obj}, COMMON {.\Interrupt.obj}
>> , COMMON {.\RamDefine.obj}, COMMON {.\LibEepromLayout.obj}, COMMON {.\BLEDrv.obj}, COMMON {.\IICDrv.obj}, COMMON {.\I
>> nternalE2Drv.obj}, COMMON {.\KeyDrv.obj}, COMMON {.\LCDDrv.obj}, COMMON {.\RelayDrv.obj}, COMMON {.\SPIDrv.obj}, COMM
>> ON {.\L51_BANK.obj}, COMMON {.\STARTUP.obj}, COMMON {.\TripleDES.obj} TO DTSY666-2019 BANKAREA (0X008000, 0X00FFFF)


CPU MODE:     8051 MODE
MEMORY MODEL: LARGE WITH FLOATING POINT ARITHMETIC


INPUT MODULES INCLUDED:
  .\AppComm.obj (APPCOMM)
         COMMENT TYPE 0: C51 V9.54
  .\AppDLT645.obj (APPDLT645)
         COMMENT TYPE 0: C51 V9.54
  .\AppVirtualEsam.obj (APPVIRTUALESAM)
         COMMENT TYPE 0: C51 V9.54
  .\AppDisplay.obj (APPDISPLAY)
         COMMENT TYPE 0: C51 V9.54
  .\AppMonitor.obj (APPMONITOR)
         COMMENT TYPE 0: C51 V9.54
  .\AppPowerOn.obj (APPPOWERON)
         COMMENT TYPE 0: C51 V9.54
  .\AppPowerOff.obj (APPPOWEROFF)
         COMMENT TYPE 0: C51 V9.54
  .\AppEMU7021A.obj (APPEMU7021A)
         COMMENT TYPE 0: C51 V9.54
  .\AppEMUAtt7036.obj (APPEMUATT7036)
         COMMENT TYPE 0: C51 V9.54
  .\AppMeasure.obj (APPMEASURE)
         COMMENT TYPE 0: C51 V9.54
  .\AppMoney.obj (APPMONEY)
         COMMENT TYPE 0: C51 V9.54
  .\AppRelayControl.obj (APPRELAYCONTROL)
         COMMENT TYPE 0: C51 V9.54
  .\AppEvent.obj (APPEVENT)
         COMMENT TYPE 0: C51 V9.54
  .\MainPro.obj (MAINPRO)
         COMMENT TYPE 0: C51 V9.54
  .\LibPublic.obj (LIBPUBLIC)
         COMMENT TYPE 0: C51 V9.54
  .\Interrupt.obj (INTERRUPT)
         COMMENT TYPE 0: C51 V9.54
  .\RamDefine.obj (RAMDEFINE)
         COMMENT TYPE 0: C51 V9.54
  .\LibEepromLayout.obj (LIBEEPROMLAYOUT)
         COMMENT TYPE 0: C51 V9.54
  .\BLEDrv.obj (BLEDRV)
         COMMENT TYPE 0: C51 V9.54
  .\IICDrv.obj (IICDRV)
         COMMENT TYPE 0: C51 V9.54
  .\InternalE2Drv.obj (INTERNALE2DRV)
         COMMENT TYPE 0: C51 V9.54
  .\KeyDrv.obj (KEYDRV)
         COMMENT TYPE 0: C51 V9.54
  .\LCDDrv.obj (LCDDRV)
         COMMENT TYPE 0: C51 V9.54
  .\RelayDrv.obj (RELAYDRV)
         COMMENT TYPE 0: C51 V9.54
  .\SPIDrv.obj (SPIDRV)
         COMMENT TYPE 0: C51 V9.54
  .\L51_BANK.obj (?BANK?SWITCHING)
LX51 LINKER/LOCATER V4.66.41.0                                                        11/18/2021  18:54:16  PAGE 2


         COMMENT TYPE 1: A51 / ASM51 Assembler
  .\STARTUP.obj (?C_STARTUP)
         COMMENT TYPE 1: A51 / ASM51 Assembler
  .\TripleDES.obj (TRIPLEDES)
         COMMENT TYPE 0: C51 V9.54
  C:\PROGRAM FILES (X86)\KEIL_V5 FMSH\C51\LIB\C51FPL.LIB (?C?FPMUL)
         COMMENT TYPE 1: A51 / ASM51 Assembler
  C:\PROGRAM FILES (X86)\KEIL_V5 FMSH\C51\LIB\C51FPL.LIB (?C?FPDIV)
         COMMENT TYPE 1: A51 / ASM51 Assembler
  C:\PROGRAM FILES (X86)\KEIL_V5 FMSH\C51\LIB\C51FPL.LIB (?C?FCAST)
         COMMENT TYPE 1: A51 / ASM51 Assembler
  C:\PROGRAM FILES (X86)\KEIL_V5 FMSH\C51\LIB\C51FPL.LIB (?C?CASTF)
         COMMENT TYPE 1: A51 / ASM51 Assembler
  C:\PROGRAM FILES (X86)\KEIL_V5 FMSH\C51\LIB\C51FPL.LIB (?C?FPGETOPN)
         COMMENT TYPE 1: A51 / ASM51 Assembler
  C:\PROGRAM FILES (X86)\KEIL_V5 FMSH\C51\LIB\C51L.LIB (?C_INIT)
         COMMENT TYPE 1: A51 / ASM51 Assembler
  C:\PROGRAM FILES (X86)\KEIL_V5 FMSH\C51\LIB\C51L.LIB (?C?COPY)
         COMMENT TYPE 1: A51 / ASM51 Assembler
  C:\PROGRAM FILES (X86)\KEIL_V5 FMSH\C51\LIB\C51L.LIB (?C?CLDPTR)
         COMMENT TYPE 1: A51 / ASM51 Assembler
  C:\PROGRAM FILES (X86)\KEIL_V5 FMSH\C51\LIB\C51L.LIB (?C?CLDOPTR)
         COMMENT TYPE 1: A51 / ASM51 Assembler
  C:\PROGRAM FILES (X86)\KEIL_V5 FMSH\C51\LIB\C51L.LIB (?C?CILDOPTR)
         COMMENT TYPE 1: A51 / ASM51 Assembler
  C:\PROGRAM FILES (X86)\KEIL_V5 FMSH\C51\LIB\C51L.LIB (?C?CSTPTR)
         COMMENT TYPE 1: A51 / ASM51 Assembler
  C:\PROGRAM FILES (X86)\KEIL_V5 FMSH\C51\LIB\C51L.LIB (?C?CSTOPTR)
         COMMENT TYPE 1: A51 / ASM51 Assembler
  C:\PROGRAM FILES (X86)\KEIL_V5 FMSH\C51\LIB\C51L.LIB (?C?IMUL)
         COMMENT TYPE 1: A51 / ASM51 Assembler
  C:\PROGRAM FILES (X86)\KEIL_V5 FMSH\C51\LIB\C51L.LIB (?C?UIDIV)
         COMMENT TYPE 1: A51 / ASM51 Assembler
  C:\PROGRAM FILES (X86)\KEIL_V5 FMSH\C51\LIB\C51L.LIB (?C?IILDX)
         COMMENT TYPE 1: A51 / ASM51 Assembler
  C:\PROGRAM FILES (X86)\KEIL_V5 FMSH\C51\LIB\C51L.LIB (?C?ILDIX)
         COMMENT TYPE 1: A51 / ASM51 Assembler
  C:\PROGRAM FILES (X86)\KEIL_V5 FMSH\C51\LIB\C51L.LIB (?C?LMUL)
         COMMENT TYPE 1: A51 / ASM51 Assembler
  C:\PROGRAM FILES (X86)\KEIL_V5 FMSH\C51\LIB\C51L.LIB (?C?ULDIV)
         COMMENT TYPE 1: A51 / ASM51 Assembler
  C:\PROGRAM FILES (X86)\KEIL_V5 FMSH\C51\LIB\C51L.LIB (?C?LNEG)
         COMMENT TYPE 1: A51 / ASM51 Assembler
  C:\PROGRAM FILES (X86)\KEIL_V5 FMSH\C51\LIB\C51L.LIB (?C?ULCMP)
         COMMENT TYPE 1: A51 / ASM51 Assembler
  C:\PROGRAM FILES (X86)\KEIL_V5 FMSH\C51\LIB\C51L.LIB (?C?ULSHR)
         COMMENT TYPE 1: A51 / ASM51 Assembler
  C:\PROGRAM FILES (X86)\KEIL_V5 FMSH\C51\LIB\C51L.LIB (?C?LSHL)
         COMMENT TYPE 1: A51 / ASM51 Assembler
  C:\PROGRAM FILES (X86)\KEIL_V5 FMSH\C51\LIB\C51L.LIB (?C?LLDPTR)
         COMMENT TYPE 1: A51 / ASM51 Assembler
  C:\PROGRAM FILES (X86)\KEIL_V5 FMSH\C51\LIB\C51L.LIB (?C?LSTPTR)
         COMMENT TYPE 1: A51 / ASM51 Assembler
  C:\PROGRAM FILES (X86)\KEIL_V5 FMSH\C51\LIB\C51L.LIB (?C?LLDCODE)
         COMMENT TYPE 1: A51 / ASM51 Assembler
  C:\PROGRAM FILES (X86)\KEIL_V5 FMSH\C51\LIB\C51L.LIB (?C?LSTXDATA)
         COMMENT TYPE 1: A51 / ASM51 Assembler
  C:\PROGRAM FILES (X86)\KEIL_V5 FMSH\C51\LIB\C51L.LIB (?C?LSTKXDATA)
         COMMENT TYPE 1: A51 / ASM51 Assembler
  C:\PROGRAM FILES (X86)\KEIL_V5 FMSH\C51\LIB\C51L.LIB (?C?CCASE)
         COMMENT TYPE 1: A51 / ASM51 Assembler
  C:\PROGRAM FILES (X86)\KEIL_V5 FMSH\C51\LIB\C51L.LIB (?C?LCASE)
         COMMENT TYPE 1: A51 / ASM51 Assembler
  C:\PROGRAM FILES (X86)\KEIL_V5 FMSH\C51\LIB\C51L.LIB (RAND)
         COMMENT TYPE 1: A51 / ASM51 Assembler
LX51 LINKER/LOCATER V4.66.41.0                                                        11/18/2021  18:54:16  PAGE 3


  C:\PROGRAM FILES (X86)\KEIL_V5 FMSH\C51\LIB\C51L.LIB (?C?LLDIDATA)
         COMMENT TYPE 1: A51 / ASM51 Assembler
  C:\PROGRAM FILES (X86)\KEIL_V5 FMSH\C51\LIB\C51L.LIB (?C?LLDXDATA)
         COMMENT TYPE 1: A51 / ASM51 Assembler
  C:\PROGRAM FILES (X86)\KEIL_V5 FMSH\C51\LIB\C51L.LIB (?C?LLDPDATA)
         COMMENT TYPE 1: A51 / ASM51 Assembler
  C:\PROGRAM FILES (X86)\KEIL_V5 FMSH\C51\LIB\C51L.LIB (?C?LSTIDATA)
         COMMENT TYPE 1: A51 / ASM51 Assembler
  C:\PROGRAM FILES (X86)\KEIL_V5 FMSH\C51\LIB\C51L.LIB (?C?LSTPDATA)
         COMMENT TYPE 1: A51 / ASM51 Assembler


ACTIVE MEMORY CLASSES OF MODULE:  DTSY666-2019 (APPCOMM)

BASE        START       END         USED      MEMORY CLASS
==========================================================
C:000000H   C:000000H   C:00FFFFH   0104E3H   CODE
X:000000H   X:000000H   X:00FFFFH   000E38H   XDATA
C:000000H   C:000000H   C:00FFFFH   000DFDH   CONST
I:000000H   I:000000H   I:00007FH   00000AH   DATA
I:000000H   I:000000H   I:0000FFH   000001H   IDATA


MEMORY MAP OF MODULE:  DTSY666-2019 (APPCOMM)


START     STOP      LENGTH    ALIGN  RELOC    MEMORY CLASS   SEGMENT NAME
=========================================================================

* * * * * * * * * * *   D A T A   M E M O R Y   * * * * * * * * * * * * *
000000H   000007H   000008H   ---    AT..     DATA           "REG BANK 0"
000008H   000008H   000001H   BYTE   UNIT     DATA           ?BANK?DATA
000009H   00001FH   000017H   ---    ---      **GAP**
000020H   000020H   000001H   BYTE   BITADDR  DATA           ?BA?TRIPLEDES
000021H   000021H   000001H   BYTE   UNIT     IDATA          ?STACK

* * * * * * * * * * *   C O D E   M E M O R Y   * * * * * * * * * * * * *

***   CODE BANK 1   ***
008000H   008042H   000043H   BYTE   UNIT     CODE/B1        ?PR?_APIPWON_UART_SENDEN?APPPOWERON
008043H   0080D5H   000093H   BYTE   UNIT     CODE/B1        ?PR?_APIPWON_MCUUARTXINIT?APPPOWERON
0080D6H   008129H   000054H   BYTE   UNIT     CODE/B1        ?PR?_APIPWON_MCUUARTXSETBPS?APPPOWERON
00812AH   008139H   000010H   BYTE   UNIT     CODE/B1        ?PR?APIPWON_MCUUARTINIT?APPPOWERON
00813AH   00815BH   000022H   BYTE   UNIT     CODE/B1        ?PR?APIPWON_SYSTEMINIT?APPPOWERON
00815CH   ---       000000H   BYTE   UNIT     CODE/B1        ?PR?APIPWON_EMUINIT?APPPOWERON
00815CH   ---       000000H   BYTE   UNIT     CODE/B1        ?PR?APIMS_INITMETERICPARA?APPMEASURE
00815CH   008270H   000115H   BYTE   UNIT     CODE/B1        ?PR?APIEMU_EMUINIT?APPEMUATT7036
008271H   008275H   000005H   BYTE   UNIT     CODE/B1        ?PR?APIPWON_MCUDISPINIT?APPPOWERON
008276H   008287H   000012H   BYTE   UNIT     CODE/B1        ?PR?APIPWON_MCUINTERRUPTINIT?APPPOWERON
008288H   008308H   000081H   BYTE   UNIT     CODE/B1        ?PR?_APPEMU_WRITEONEREG_METERIC?APPEMUATT7036
008309H   00833AH   000032H   BYTE   UNIT     CODE/B1        ?PR?APPEMU_WRITEDISABLE_METERIC?APPEMUATT7036
00833BH   0083A5H   00006BH   BYTE   UNIT     CODE/B1        ?PR?APPEMU_CLEARCALREG_METERIC?APPEMUATT7036
0083A6H   0083C1H   00001CH   BYTE   UNIT     CODE/B1        ?PR?APPEMU_SOFTWARERESET_METERIC?APPEMUATT7036
0083C2H   0083F6H   000035H   BYTE   UNIT     CODE/B1        ?PR?APIPWON_MCULPDINIT?APPPOWERON
0083F7H   0083FCH   000006H   BYTE   UNIT     CODE/B1        ?PR?APIPWON_MCURESET?APPPOWERON
0083FDH   00860FH   000213H   BYTE   UNIT     CODE/B1        ?PR?_APIMS_CALIBRATIONMETERCOMM?APPMEASURE
008610H   00870AH   0000FBH   BYTE   UNIT     CODE/B1        ?PR?_APPEMU_TRIPCOMMSETREG?APPEMUATT7036
00870BH   008834H   00012AH   BYTE   UNIT     CODE/B1        ?PR?_APPEMU_WRITEREGTOEE?APPEMUATT7036
008835H   008A51H   00021DH   BYTE   UNIT     CODE/B1        ?PR?APIPWON_METERCLEAR?APPPOWERON
008A52H   009017H   0005C6H   BYTE   UNIT     CODE/B1        ?PR?_APIEVENT_WRITERECORD?APPEVENT
009018H   009173H   00015CH   BYTE   UNIT     CODE/B1        ?PR?APIRELAY_CONTROLPROCESS?APPRELAYCONTROL
009174H   00922CH   0000B9H   BYTE   UNIT     CODE/B1        ?PR?APIMNTR_PERIPHERALMONITOR?APPMONITOR
00922DH   00942FH   000203H   BYTE   UNIT     CODE/B1        ?PR?APIRELAY_SUBTRACTMONEYRELAYJUDGE?APPRELAYCONTROL
009430H   0096D7H   0002A8H   BYTE   UNIT     CODE/B1        ?PR?APIMNTR_MONITORTASK?APPMONITOR
0096D8H   00990EH   000237H   BYTE   UNIT     CODE/B1        ?PR?APIPWON_METERINITINFACTORY?APPPOWERON
LX51 LINKER/LOCATER V4.66.41.0                                                        11/18/2021  18:54:16  PAGE 4


00990FH   00995AH   00004CH   BYTE   UNIT     CODE/B1        ?PR?APIPWON_SYSCLKINIT?APPPOWERON
00995BH   009FAAH   000650H   BYTE   UNIT     CODE/B1        ?PR?_READEVENTRECORDDATA?APPEVENT
009FABH   00A0EDH   000143H   BYTE   UNIT     CODE/B1        ?PR?APIPWON_MCURAMINIT?APPPOWERON
00A0EEH   00A1B4H   0000C7H   BYTE   UNIT     CODE/B1        ?PR?APIPWON_EVENTPOINTCHECK?APPPOWERON
00A1B5H   ---       000000H   BYTE   UNIT     CODE/B1        ?PR?APIPWON_EMUPARACHECK?APPPOWERON
00A1B5H   ---       000000H   BYTE   UNIT     CODE/B1        ?PR?APIMS_METERICPARACHECK?APPMEASURE
00A1B5H   00A288H   0000D4H   BYTE   UNIT     CODE/B1        ?PR?APIEMU_EMUPARACHECK?APPEMUATT7036
00A289H   00A309H   000081H   BYTE   UNIT     CODE/B1        ?PR?_APPEMU_READONEREG_METERIC?APPEMUATT7036
00A30AH   00A5EDH   0002E4H   BYTE   UNIT     CODE/B1        ?PR?APIPWON_MCUGPIOINIT?APPPOWERON
00A5EEH   00B32FH   000D42H   BYTE   UNIT     CODE/B1        ?PR?APIEMU_UPDATEUIP?APPEMUATT7036
00B330H   00B36EH   00003FH   BYTE   UNIT     CODE/B1        ?PR?APIPWON_MCUTIMERINIT?APPPOWERON
00B36FH   00B422H   0000B4H   BYTE   UNIT     CODE/B1        ?PR?APIPWON_METERINFOPARACHECK?APPPOWERON
00B423H   00B51AH   0000F8H   BYTE   UNIT     CODE/B1        ?PR?APIPWON_DISPLAYPARACHECK?APPPOWERON
00B51BH   00B5B1H   000097H   BYTE   UNIT     CODE/B1        ?PR?APIPWON_MONEYPARACHECK?APPPOWERON
00B5B2H   00B61EH   00006DH   BYTE   UNIT     CODE/B1        ?PR?APIPWON_KEYSTATUSCHECK?APPPOWERON
00B61FH   00B66CH   00004EH   BYTE   UNIT     CODE/B1        ?PR?APIPWON_FUNCONFIGPARACHECK?APPPOWERON
00B66DH   00B6C3H   000057H   BYTE   UNIT     CODE/B1        ?PR?APIMONEY_REFRESHPRICE?APPMONEY
00B6C4H   00B79DH   0000DAH   BYTE   UNIT     CODE/B1        ?PR?_APIPWON_DLXS_READ?APPPOWERON
00B79EH   00B7D7H   00003AH   BYTE   UNIT     CODE/B1        ?PR?APIPWON_ENERGYZSCHECK?APPPOWERON
00B7D8H   00B87BH   0000A4H   BYTE   UNIT     CODE/B1        ?PR?APIPWON_ENERGYCHECK?APPPOWERON
00B87CH   00B896H   00001BH   BYTE   UNIT     CODE/B1        ?PR?APIPWON_POWERCHK?APPPOWERON
00B897H   00B8F6H   000060H   BYTE   UNIT     CODE/B1        ?PR?APIPWOFF_POWEROFFTASK?APPPOWEROFF
00B8F7H   00B8FEH   000008H   BYTE   UNIT     CODE/B1        ?PR?APIPWOFF_CLOSEDEVICES?APPPOWEROFF
00B8FFH   00B903H   000005H   BYTE   UNIT     CODE/B1        ?PR?APIPWOFF_MCUDISPINIT?APPPOWEROFF
00B904H   00B90FH   00000CH   BYTE   UNIT     CODE/B1        ?PR?APIPWOFF_ENTERSLEEP?APPPOWEROFF
00B910H   00B910H   000001H   BYTE   UNIT     CODE/B1        ?PR?APIPWOFF_MCUENTERSLEEP?APPPOWEROFF
00B911H   ---       000000H   BYTE   UNIT     CODE/B1        ?PR?APIPWOFF_PERIPHERALINIT?APPPOWEROFF
00B911H   00BBF1H   0002E1H   BYTE   UNIT     CODE/B1        ?PR?APIPWOFF_MCUGPIOINIT?APPPOWEROFF
00BBF2H   00BBF3H   000002H   BYTE   UNIT     CODE/B1        ?PR?APIPWOFF_EMUINIT?APPPOWEROFF
00BBF4H   ---       000000H   BYTE   UNIT     CODE/B1        ?PR?_APIMS_DISORENABLE?APPMEASURE
00BBF4H   00BBFDH   00000AH   BYTE   UNIT     CODE/B1        ?PR?_APIEMU_DISORENABLE?APPEMUATT7036
00BBFEH   00BC4BH   00004EH   BYTE   UNIT     CODE/B1        ?PR?APIPWOFF_DATASAVE?APPPOWEROFF
00BC4CH   00BC4CH   000001H   BYTE   UNIT     CODE/B1        ?PR?APIPWOFF_DATAPROCESS?APPPOWEROFF
00BC4DH   00BC4DH   000001H   BYTE   UNIT     CODE/B1        ?PR?APIPWOFF_DISPLAY?APPPOWEROFF
00BC4EH   00BC4EH   000001H   BYTE   UNIT     CODE/B1        ?PR?APIPWOFF_SYSCLKINIT?APPPOWEROFF
00BC4FH   00BC59H   00000BH   BYTE   UNIT     CODE/B1        ?PR?APIPWOFF_BLEPOWERINIT?APPPOWEROFF
00BC5AH   00BC66H   00000DH   BYTE   UNIT     CODE/B1        ?PR?APIPWOFF_MCUUARTINIT?APPPOWEROFF
00BC67H   00BC75H   00000FH   BYTE   UNIT     CODE/B1        ?PR?APIPWOFF_MCUTIMERINIT?APPPOWEROFF
00BC76H   00BC96H   000021H   BYTE   UNIT     CODE/B1        ?PR?APIPWOFF_MCULPDINIT?APPPOWEROFF
00BC97H   00BC99H   000003H   BYTE   UNIT     CODE/B1        ?PR?APIPWON_BLEINIT?APPPOWERON
00BC9AH   00BCB6H   00001DH   BYTE   UNIT     CODE/B1        ?PR?APIPWON_BLEPARACHK?APPPOWERON
00BCB7H   00BF12H   00025CH   BYTE   UNIT     CODE/B1        ?PR?APIPWON_REMAINMONEYCHECK?APPPOWERON
00BF13H   00BF4CH   00003AH   BYTE   UNIT     CODE/B1        ?PR?APPEMU_WRITEENABLE_METERIC?APPEMUATT7036
00BF4DH   00BF9EH   000052H   BYTE   UNIT     CODE/B1        ?PR?_APPEMU_READDATAMODESET?APPEMUATT7036
00BF9FH   00BFD0H   000032H   BYTE   UNIT     CODE/B1        ?PR?APPEMU_CLEARENERGYDATA_METERIC?APPEMUATT7036
00BFD1H   00BFDEH   00000EH   BYTE   UNIT     CODE/B1        ?PR?_APIEMU_COMMENDCAL?APPEMUATT7036
00BFDFH   00C009H   00002BH   BYTE   UNIT     CODE/B1        ?PR?APPEMU_TRIPCHECKCALPARACRC?APPEMUATT7036
00C00AH   00C0A2H   000099H   BYTE   UNIT     CODE/B1        ?PR?_APIEMU_COMMSTARTCAL?APPEMUATT7036
00C0A3H   00C2A9H   000207H   BYTE   UNIT     CODE/B1        ?PR?_APIEMU_COMMERRCAL?APPEMUATT7036
00C2AAH   00C598H   0002EFH   BYTE   UNIT     CODE/B1        ?PR?_APPEMU_TRIPREADEMUREG?APPEMUATT7036
00C599H   00C5B4H   00001CH   BYTE   UNIT     CODE/B1        ?PR?APIEMU_GETDIRP?APPEMUATT7036
00C5B5H   00C5B6H   000002H   BYTE   UNIT     CODE/B1        ?PR?APIMS_GETPOWERDIR?APPMEASURE
00C5B7H   00C623H   00006DH   BYTE   UNIT     CODE/B1        ?PR?APIMS_ENERGYPULSEUPDATE?APPMEASURE
00C624H   00C625H   000002H   BYTE   UNIT     CODE/B1        ?PR?APIMS_MEASURETASK?APPMEASURE
00C626H   00C64EH   000029H   BYTE   UNIT     CODE/B1        ?PR?APIMS_UPDATEUIP?APPMEASURE
00C64FH   00C8E0H   000292H   BYTE   UNIT     CODE/B1        ?PR?_APIMS_ENERGYPROCESS?APPMEASURE
00C8E1H   00CA95H   0001B5H   BYTE   UNIT     CODE/B1        ?PR?APIMONEY_REMAINMONEYPROCESS?APPMONEY
00CA96H   00CB00H   00006BH   BYTE   UNIT     CODE/B1        ?PR?_APIMONEY_MULTPTCT?APPMONEY
00CB01H   00CB66H   000066H   BYTE   UNIT     CODE/B1        ?PR?APIMONEY_TIMEINGHOLDMONEY?APPMONEY
00CB67H   00CD00H   00019AH   BYTE   UNIT     CODE/B1        ?PR?API_POWERLOADLIMITEDCHECK?APPRELAYCONTROL
00CD01H   00CD99H   000099H   BYTE   UNIT     CODE/B1        ?PR?_APIEVENT_RECTOTALNUM_ADD?APPEVENT

***   CODE BANK 2   ***
008000H   00802EH   00002FH   BYTE   UNIT     CODE/B2        ?PR?APICOMM_COMMTASK?APPCOMM
00802FH   00829AH   00026CH   BYTE   UNIT     CODE/B2        ?PR?_APICOMM_CHANNELPROCESS?APPCOMM
LX51 LINKER/LOCATER V4.66.41.0                                                        11/18/2021  18:54:16  PAGE 5


00829BH   0082C9H   00002FH   BYTE   UNIT     CODE/B2        ?PR?_APICOMM_PROTOCOLPROCESS?APPCOMM
0082CAH   00840CH   000143H   BYTE   UNIT     CODE/B2        ?PR?_APICOMM_COMMPARAINIT?APPCOMM
00840DH   0086A3H   000297H   BYTE   UNIT     CODE/B2        ?PR?_APIDLT645_UARTRECEIVEDATAJUDGE0?APPDLT645
0086A4H   0089B2H   00030FH   BYTE   UNIT     CODE/B2        ?PR?_APIDLT645_UARTRECEIVEDATAJUDGE1?APPDLT645
0089B3H   00926CH   0008BAH   BYTE   UNIT     CODE/B2        ?PR?_APIDLT645_FRAMEANALYSIS?APPDLT645
00926DH   0092D8H   00006CH   BYTE   UNIT     CODE/B2        ?PR?_APIDLT645_READMETERADDRESS?APPDLT645
0092D9H   009386H   0000AEH   BYTE   UNIT     CODE/B2        ?PR?_APIDLT645_WRITEMETERADDRESS?APPDLT645
009387H   009446H   0000C0H   BYTE   UNIT     CODE/B2        ?PR?_APIDLT645_ADDRTYPECHECK?APPDLT645
009447H   00947FH   000039H   BYTE   UNIT     CODE/B2        ?PR?_APIDLT645_WRITEEMUREG?APPDLT645
009480H   009487H   000008H   BYTE   UNIT     CODE/B2        ?L?COM0040
009488H   009526H   00009FH   BYTE   UNIT     CODE/B2        ?PR?_APIDLT645_METERCLEAR?APPDLT645
009527H   009533H   00000DH   BYTE   UNIT     CODE/B2        ?L?COM002F
009534H   00966CH   000139H   BYTE   UNIT     CODE/B2        ?PR?_APIDLT645_READEMUREG?APPDLT645
00966DH   009769H   0000FDH   BYTE   UNIT     CODE/B2        ?PR?_PREPAYMENTMODULE_COMM_HANDBACKMONEY?APPVIRTUALESAM
00976AH   00A323H   000BBAH   BYTE   UNIT     CODE/B2        ?PR?_APIDLT645_READDATA07?APPDLT645
00A324H   00A35CH   000039H   BYTE   UNIT     CODE/B2        ?PR?_APIGET_LCD_ID?APPDISPLAY
00A35DH   00B36AH   00100EH   BYTE   UNIT     CODE/B2        ?PR?_APIDLT645_WRITEDATA?APPDLT645
00B36BH   00BA41H   0006D7H   BYTE   UNIT     CODE/B2        ?PR?_PREPAYMENTMODULE_COMM_OPENACCOUT?APPVIRTUALESAM
00BA42H   00BA4EH   00000DH   BYTE   UNIT     CODE/B2        ?PR?PREPAYMENTMODULE_COMM_CLRMACERRNUM?APPVIRTUALESAM
00BA4FH   00BAC6H   000078H   BYTE   UNIT     CODE/B2        ?PR?APIDLT645_GETSTATUSFLAG3?APPDLT645
00BAC7H   00BF83H   0004BDH   BYTE   UNIT     CODE/B2        ?PR?_APIDLT645_ACCOUNTTX?APPDLT645
00BF84H   00CBF0H   000C6DH   BYTE   UNIT     CODE/B2        ?PR?_MULTIDATAWRITE_DEAL?APPDLT645
00CBF1H   00CCF5H   000105H   BYTE   UNIT     CODE/B2        ?PR?_PREPAYMENTMODULE_COMMWRITEESAMBINARYMAC?APPVIRTUALESA
                                                             -M
00CCF6H   00CD25H   000030H   BYTE   UNIT     CODE/B2        ?PR?PREPAYMENTMODULE_COMM_MACERRNUM?APPVIRTUALESAM
00CD26H   00CD3EH   000019H   BYTE   UNIT     CODE/B2        ?PR?PREPAYMENTMODULE_INVALIDATION?APPVIRTUALESAM
00CD3FH   00CE20H   0000E2H   BYTE   UNIT     CODE/B2        ?PR?_PREPAYMENTMODULE_COMM_INTAUTH_INVALIDATION?APPVIRTUAL
                                                             -ESAM
00CE21H   00CFB5H   000195H   BYTE   UNIT     CODE/B2        ?PR?_PREPAYMENTMODULE_DATADECRIPTION?APPVIRTUALESAM
00CFB6H   00D1B7H   000202H   BYTE   UNIT     CODE/B2        ?PR?_APIDLT645_RELAYCONTROL?APPDLT645
00D1B8H   00DE4FH   000C98H   BYTE   UNIT     CODE/B2        ?PR?_APIDLT645_FACTORYCOMMAND?APPDLT645
00DE50H   00E153H   000304H   BYTE   UNIT     CODE/B2        ?PR?_APIDLT645_SAFECERTIFICATION?APPDLT645
00E154H   00E46EH   00031BH   BYTE   UNIT     CODE/B2        ?PR?_PREPAYMENTMODULE_COMM_INTAUTH?APPVIRTUALESAM
00E46FH   00E4EBH   00007DH   BYTE   UNIT     CODE/B2        ?PR?_PREPAYMENTMODULE_GETWORKKEY?APPVIRTUALESAM
00E4ECH   00E540H   000055H   BYTE   UNIT     CODE/B2        ?PR?_PREPAYMENTMODULE_GETCHALLENGE?APPVIRTUALESAM
00E541H   00E6F5H   0001B5H   BYTE   UNIT     CODE/B2        ?PR?_PREPAYMENTMODULE_COMM_TIMEAVAILABLEIN?APPVIRTUALESAM
00E6F6H   00E8F4H   0001FFH   BYTE   UNIT     CODE/B2        ?PR?_APIDLT645_MODIFYPSW?APPDLT645
00E8F5H   00EADBH   0001E7H   BYTE   UNIT     CODE/B2        ?PR?_PREPAYMENTMODULE_COMM_MODIFYKEY?APPVIRTUALESAM
00EADCH   00EE5BH   000380H   BYTE   UNIT     CODE/B2        ?PR?_MONEY_RECHARGE?APPVIRTUALESAM
00EE5CH   00EF06H   0000ABH   BYTE   UNIT     CODE/B2        ?PR?_APIGET_LCD_NUM?APPDISPLAY
00EF07H   00EFDFH   0000D9H   BYTE   UNIT     CODE/B2        ?PR?_APIDISPLAY_NUMDATA?APPDISPLAY
00EFE0H   00F113H   000134H   BYTE   UNIT     CODE/B2        ?PR?_APIDISP_SHOWNUM?APPDISPLAY
00F114H   00F351H   00023EH   BYTE   UNIT     CODE/B2        ?PR?_APIDISP_CONST?APPDISPLAY
00F352H   00F474H   000123H   BYTE   UNIT     CODE/B2        ?PR?APIDISP_DISPLAYTASK?APPDISPLAY
00F475H   00F56BH   0000F7H   BYTE   UNIT     CODE/B2        ?PR?APIDISP_DYNAMIC?APPDISPLAY
00F56CH   00F5C6H   00005BH   BYTE   UNIT     CODE/B2        ?PR?APIDISP_LCDLEDCONTROL?APPDISPLAY

***   COMMON AREA   ***
000000H   000002H   000003H   ---    OFFS..   CODE           ?CO??C_STARTUP?0
000003H   000005H   000003H   BYTE   OFFS..   CODE           ?INTERRUPT?00003
000006H   000006H   000001H   BYTE   UNIT     CODE           ?PR?DRVE2P_I2CDELAY_2US?IICDRV
000007H   00000AH   000004H   ---    ---      **GAP**
00000BH   00000DH   000003H   BYTE   OFFS..   CODE           ?INTERRUPT?0000B
00000EH   000019H   00000CH   BYTE   UNIT     CODE           ?BANK?SELECT
00001AH   00001AH   000001H   ---    ---      **GAP**
00001BH   00001DH   000003H   BYTE   OFFS..   CODE           ?INTERRUPT?0001B
00001EH   000022H   000005H   ---    ---      **GAP**
000023H   000025H   000003H   BYTE   OFFS..   CODE           ?INTERRUPT?00023
000026H   00002AH   000005H   ---    ---      **GAP**
00002BH   00002DH   000003H   BYTE   OFFS..   CODE           ?INTERRUPT?0002B
00002EH   000032H   000005H   ---    ---      **GAP**
000033H   000035H   000003H   BYTE   OFFS..   CODE           ?INTERRUPT?00033
000036H   00003AH   000005H   ---    ---      **GAP**
00003BH   00003DH   000003H   BYTE   OFFS..   CODE           ?INTERRUPT?0003B
00003EH   000042H   000005H   ---    ---      **GAP**
LX51 LINKER/LOCATER V4.66.41.0                                                        11/18/2021  18:54:16  PAGE 6


000043H   000045H   000003H   BYTE   OFFS..   CODE           ?INTERRUPT?00043
000046H   00004AH   000005H   ---    ---      **GAP**
00004BH   00004DH   000003H   BYTE   OFFS..   CODE           ?INTERRUPT?0004B
00004EH   00005BH   00000EH   BYTE   UNIT     CONST          ?CO?APPPOWERON
00005CH   000061H   000006H   BYTE   UNIT     CODE           ?PR?BLEDRV_GETBLESTAT?BLEDRV
000062H   000062H   000001H   ---    ---      **GAP**
000063H   000065H   000003H   BYTE   OFFS..   CODE           ?INTERRUPT?00063
000066H   00006EH   000009H   BYTE   UNIT     CODE           ?PR?LIBPUB_DELAY10US?LIBPUBLIC
00006FH   000072H   000004H   ---    ---      **GAP**
000073H   000075H   000003H   BYTE   OFFS..   CODE           ?INTERRUPT?00073
000076H   0000C2H   00004DH   BYTE   UNIT     CODE           ?PR?RAND?RAND
0000C3H   0000EBH   000029H   BYTE   UNIT     CONST          ?CO?APPEVENT
0000ECH   0000FCH   000011H   BYTE   UNIT     CODE           ?PR?DRVE2P_I2CDELAY_5US?IICDRV
0000FDH   0000FFH   000003H   ---    ---      **GAP**
000100H   0001FAH   0000FBH   PAGE   INBLOCK  CODE           ?BANK?SWITCH
0001FBH   00091AH   000720H   BYTE   UNIT     CODE           ?C?LIB_CODE
00091BH   000A5DH   000143H   BYTE   UNIT     CODE           ?C_INITSEG
000A5EH   000AECH   00008FH   BYTE   UNIT     CODE           ?C_C51STARTUP
000AEDH   000E6CH   000380H   BYTE   UNIT     CONST          ?CO?TRIPLEDES
000E6DH   0011E1H   000375H   BYTE   UNIT     CONST          ?CO?APPDLT645
0011E2H   001437H   000256H   BYTE   UNIT     CONST          ?CO?BLEDRV
001438H   001637H   000200H   BYTE   UNIT     CONST          ?CO?LIBPUBLIC
001638H   0017E7H   0001B0H   BYTE   UNIT     CONST          ?CO?APPDISPLAY
0017E8H   0018B2H   0000CBH   BYTE   UNIT     CONST          ?CO?APPEMUATT7036
0018B3H   0018EDH   00003BH   BYTE   UNIT     CODE           ?PR?MAIN?MAINPRO
0018EEH   0019B2H   0000C5H   BYTE   UNIT     CODE           ?PR?LIBPUB_GETTIMERBEAT?LIBPUBLIC
0019B3H   001BEBH   000239H   BYTE   UNIT     CODE           ?PR?_LIBPUB_WRITEDATATOE2PROM?LIBPUBLIC
001BECH   001C84H   000099H   BYTE   UNIT     CODE           ?PR?_LIBPUB_CRC16_CCITT?LIBPUBLIC
001C85H   001D9EH   00011AH   BYTE   UNIT     CODE           ?PR?_DRVE2P_READDATA?IICDRV
001D9FH   001E07H   000069H   BYTE   UNIT     CODE           ?PR?DRVE2P_I2CSTOP?IICDRV
001E08H   001F4DH   000146H   BYTE   UNIT     CODE           ?PR?_DRVE2P_WRDATATEMP?IICDRV
001F4EH   001FE6H   000099H   BYTE   UNIT     CODE           ?PR?_DRVE2P_WRITEONEBYTE?IICDRV
001FE7H   002232H   00024CH   BYTE   UNIT     CODE           ?PR?_LIBPUB_READDATAFROME2PROM?LIBPUBLIC
002233H   00228FH   00005DH   BYTE   UNIT     CODE           ?PR?_LIBPUB_MEMCOPYBYTES?LIBPUBLIC
002290H   002370H   0000E1H   BYTE   UNIT     CODE           ?PR?_LIBPUB_COMPARENBUFS?LIBPUBLIC
002371H   002483H   000113H   BYTE   UNIT     CODE           ?PR?_DES_DEORENCRYPTION?TRIPLEDES
002484H   00251EH   00009BH   BYTE   UNIT     CODE           ?PR?_DES_IP_1?TRIPLEDES
00251FH   00257CH   00005EH   BYTE   UNIT     CODE           ?PR?_TRIPLEDES_DEORENCRYPTION?TRIPLEDES
00257DH   00274AH   0001CEH   BYTE   UNIT     CODE           ?PR?_DATA_MAC?TRIPLEDES
00274BH   0027C6H   00007CH   BYTE   UNIT     CODE           ?PR?BLEDRV_SETBLERUNPARA?BLEDRV
0027C7H   002835H   00006FH   BYTE   UNIT     CODE           ?PR?BLEDRV_SETBLESTAT?BLEDRV
002836H   002B53H   00031EH   BYTE   UNIT     CODE           ?PR?_BLEDRV_BLECOMM?BLEDRV
002B54H   002B60H   00000DH   BYTE   UNIT     CODE           ?PR?LIBPUB_DELAY2US?LIBPUBLIC
002B61H   002B7AH   00001AH   BYTE   UNIT     CODE           ?PR?SPIDRV_EABLE_METERIC?SPIDRV
002B7BH   002BAFH   000035H   BYTE   UNIT     CODE           ?PR?SPIDRV_ENSPIMODE?SPIDRV
002BB0H   002BB8H   000009H   BYTE   UNIT     CODE           ?PR?LIBPUB_DELAY5US?LIBPUBLIC
002BB9H   002C24H   00006CH   BYTE   UNIT     CODE           ?PR?SPIDRV_RECEIVEBYTE?SPIDRV
002C25H   002C9EH   00007AH   BYTE   UNIT     CODE           ?PR?_SPIDRV_SENDBTYE?SPIDRV
002C9FH   002CF6H   000058H   BYTE   UNIT     CODE           ?PR?_LIBPUB_DELAYNMS?LIBPUBLIC
002CF7H   002D1DH   000027H   BYTE   UNIT     CODE           ?PR?BLEDRV_BLERESET?BLEDRV
002D1EH   002D6BH   00004EH   BYTE   UNIT     CODE           ?PR?_BLEDRV_BLEPARACHK?BLEDRV
002D6CH   002DD2H   000067H   BYTE   UNIT     CODE           ?PR?_LIBPUB_CRCCHECK?LIBPUBLIC
002DD3H   002DD9H   000007H   BYTE   UNIT     CODE           ?PR?BLEDRV_INITPWN?BLEDRV
002DDAH   002EAFH   0000D6H   BYTE   UNIT     CODE           ?PR?BLEDRV_BLESTATUCHK?BLEDRV
002EB0H   002F05H   000056H   BYTE   UNIT     CODE           ?PR?BLEDRV_INITBLERUNPARA?BLEDRV
002F06H   002F66H   000061H   BYTE   UNIT     CODE           ?PR?_LIBPUB_MEMSETBYTES?LIBPUBLIC
002F67H   002FD8H   000072H   BYTE   UNIT     CODE           ?PR?_BLEDRV_GETBLEPARA?BLEDRV
002FD9H   003008H   000030H   BYTE   UNIT     CODE           ?PR?_LIBPUB_ZEROCHECK?LIBPUBLIC
003009H   003039H   000031H   BYTE   UNIT     CODE           ?PR?_LIBPUB_0XFFCHECKINT?LIBPUBLIC
00303AH   003068H   00002FH   BYTE   UNIT     CODE           ?PR?_LIBPUB_1HEX_2_1BCD?LIBPUBLIC
003069H   003091H   000029H   BYTE   UNIT     CODE           ?PR?_LIBPUB_1BTYEBCDADD?LIBPUBLIC
003092H   0030A4H   000013H   BYTE   UNIT     CODE           ?PR?_LIBPUB_1BCD_2_1HEX?LIBPUBLIC
0030A5H   00313EH   00009AH   BYTE   UNIT     CODE           ?PR?_LIBPUB_NBTYESBCDADD?LIBPUBLIC
00313FH   0031EBH   0000ADH   BYTE   UNIT     CODE           ?PR?LIBPUB_GETTIMERBEATINT0?LIBPUBLIC
0031ECH   003296H   0000ABH   BYTE   UNIT     CODE           ?PR?INTER_EUART0?INTERRUPT
LX51 LINKER/LOCATER V4.66.41.0                                                        11/18/2021  18:54:16  PAGE 7


003297H   003343H   0000ADH   BYTE   UNIT     CODE           ?PR?LIBPUB_GETTIMERBEATINT1?LIBPUBLIC
003344H   0033EEH   0000ABH   BYTE   UNIT     CODE           ?PR?INTER_EUART1?INTERRUPT
0033EFH   0034B0H   0000C2H   BYTE   UNIT     CODE           ?PR?_LIBPUB_GETDIFFTIME?LIBPUBLIC
0034B1H   0034F5H   000045H   BYTE   UNIT     CODE           ?PR?_LIBPUB_CALSUM?LIBPUBLIC
0034F6H   00359EH   0000A9H   BYTE   UNIT     CODE           ?PR?_LIBPUB_MEMEXCHANGEBYTES?LIBPUBLIC
00359FH   0035DBH   00003DH   BYTE   UNIT     CODE           ?PR?_LIBPUB_ISBCD?LIBPUBLIC
0035DCH   003698H   0000BDH   BYTE   UNIT     CODE           ?PR?_LIBPUB_INVERSE?LIBPUBLIC
003699H   0037AAH   000112H   BYTE   UNIT     CODE           ?PR?_LIBPUB_CHECKPASSWORD?LIBPUBLIC
0037ABH   003914H   00016AH   BYTE   UNIT     CODE           ?PR?_LIBPUB_COMPAREDATA?LIBPUBLIC
003915H   003943H   00002FH   BYTE   UNIT     CODE           ?PR?_LIBPUB_BUFFER2TOUSHORT16?LIBPUBLIC
003944H   003950H   00000DH   BYTE   UNIT     CODE           ?PR?_LIBPUB_USHORT16TOBUFFER2?LIBPUBLIC
003951H   0039CDH   00007DH   BYTE   UNIT     CODE           ?PR?_LIBPUB_ULONG32TOBUFFER4?LIBPUBLIC
0039CEH   003A6AH   00009DH   BYTE   UNIT     CODE           ?PR?_LIBPUB_BUFFER4TOULONG32?LIBPUBLIC
003A6BH   003B5EH   0000F4H   BYTE   UNIT     CODE           ?PR?_LIBPUB_NBYTESBCDSUB?LIBPUBLIC
003B5FH   003CC5H   000167H   BYTE   UNIT     CODE           ?PR?_LIBPUB_DECTOHEXBYTES?LIBPUBLIC
003CC6H   003DB6H   0000F1H   BYTE   UNIT     CODE           ?PR?_LIBPUB_HEXTOBCDBYTES?LIBPUBLIC
003DB7H   003E6AH   0000B4H   BYTE   UNIT     CODE           ?PR?_LIBPUB_HEXTOASCII?LIBPUBLIC
003E6BH   003EF2H   000088H   BYTE   UNIT     CODE           ?PR?INTER_INT4?INTERRUPT
003EF3H   003F1FH   00002DH   BYTE   UNIT     CODE           ?PR?INTER_TIMER1?INTERRUPT
003F20H   004042H   000123H   BYTE   UNIT     CODE           ?PR?INTER_TIMER0?INTERRUPT
004043H   00406FH   00002DH   BYTE   UNIT     CODE           ?PR?INTER_TIMER2?INTERRUPT
004070H   00409CH   00002DH   BYTE   UNIT     CODE           ?PR?INTER_ADC_TPS?INTERRUPT
00409DH   0040C6H   00002AH   BYTE   UNIT     CODE           ?PR?INTER_EMU?INTERRUPT
0040C7H   004104H   00003EH   BYTE   UNIT     CODE           ?PR?INTER_RTC?INTERRUPT
004105H   004131H   00002DH   BYTE   UNIT     CODE           ?PR?INTER_LPD?INTERRUPT
004132H   004176H   000045H   BYTE   UNIT     CODE           ?PR?INTER_EUART3?INTERRUPT
004177H   0041ECH   000076H   BYTE   UNIT     CODE           ?PR?_BLEDRV_SETBLEPARA?BLEDRV
0041EDH   0041F6H   00000AH   BYTE   UNIT     CODE           ?PR?_BLEDRV_SETBLEMAC?BLEDRV
0041F7H   00424AH   000054H   BYTE   UNIT     CODE           ?PR?_BLEDRV_SETBLETPL?BLEDRV
00424BH   0042A5H   00005BH   BYTE   UNIT     CODE           ?PR?_BLEDRV_COMMSETBLEPARA?BLEDRV
0042A6H   0042ACH   000007H   BYTE   UNIT     CODE           ?PR?_BLEDRV_GETBLEMAC?BLEDRV
0042ADH   004305H   000059H   BYTE   UNIT     CODE           ?PR?_BLEDRV_GETBLENAME?BLEDRV
004306H   00430DH   000008H   BYTE   UNIT     CODE           ?PR?_BLEDRV_COMMGETBLEPARA?BLEDRV
00430EH   004317H   00000AH   BYTE   UNIT     CODE           ?PR?_BLEDRV_GETBLETPL?BLEDRV
004318H   00432AH   000013H   BYTE   UNIT     CODE           ?PR?BLEDRV_GETBLEUARTSTA?BLEDRV
00432BH   004331H   000007H   BYTE   UNIT     CODE           ?PR?DRVE2P_I2CDELAY_3US?IICDRV
004332H   0043BDH   00008CH   BYTE   UNIT     CODE           ?PR?DRVE2P_READONEBYTENOACK?IICDRV
0043BEH   004457H   00009AH   BYTE   UNIT     CODE           ?PR?DRVE2P_READONEBYTEACK?IICDRV
004458H   004485H   00002EH   BYTE   UNIT     CODE           ?PR?DRVI2C_INIT?IICDRV
004486H   0044B6H   000031H   BYTE   UNIT     CODE           ?PR?DRVE2P_I2CSTART?IICDRV
0044B7H   0044E6H   000030H   BYTE   UNIT     CODE           ?PR?DRVE2P_CHKBUSBUSY?IICDRV
0044E7H   0045D0H   0000EAH   BYTE   UNIT     CODE           ?PR?_DRVE2P_WRITEDATA?IICDRV
0045D1H   00462EH   00005EH   BYTE   UNIT     CODE           ?PR?_HAL_WRITEFLASH_BYTE?INTERNALE2DRV
00462FH   0046DEH   0000B0H   BYTE   UNIT     CODE           ?PR?_HAL_WRITEEEPROM?INTERNALE2DRV
0046DFH   0046F6H   000018H   BYTE   UNIT     CODE           ?PR?_HAL_READFLASH_BYTE?INTERNALE2DRV
0046F7H   004793H   00009DH   BYTE   UNIT     CODE           ?PR?_HAL_READEEPROM?INTERNALE2DRV
004794H   00481FH   00008CH   BYTE   UNIT     CODE           ?PR?_HAL_ERASEFLASHSECTOR?INTERNALE2DRV
004820H   00482EH   00000FH   BYTE   UNIT     CODE           ?PR?DRVKEY_FACTORYKEYINIT?KEYDRV
00482FH   00486DH   00003FH   BYTE   UNIT     CODE           ?PR?DRVKEY_FACTORYKEYMONITOR?KEYDRV
00486EH   00487CH   00000FH   BYTE   UNIT     CODE           ?PR?DRVKEY_DISPLAYKEYINIT?KEYDRV
00487DH   00491CH   0000A0H   BYTE   UNIT     CODE           ?PR?DRVKEY_DISPLAYKEYMONITOR?KEYDRV
00491DH   004948H   00002CH   BYTE   UNIT     CODE           ?PR?_LCDDRV_INIT?LCDDRV
004949H   00495BH   000013H   BYTE   UNIT     CODE           ?PR?_LCDDRV_SETLCDBUFF?LCDDRV
00495CH   004989H   00002EH   BYTE   UNIT     CODE           ?PR?LCDDRV_DISPRAMUPDATA?LCDDRV
00498AH   0049ADH   000024H   BYTE   UNIT     CODE           ?PR?LCDDRV_SGECOMCONFIG?LCDDRV
0049AEH   0049D8H   00002BH   BYTE   UNIT     CODE           ?PR?LCDDRV_PWONREGCFG?LCDDRV
0049D9H   0049E4H   00000CH   BYTE   UNIT     CODE           ?PR?RELAYDRV_CLOSERELAY?RELAYDRV
0049E5H   004A0BH   000027H   BYTE   UNIT     CODE           ?PR?RELAYDRV_DELAYTIMEMONITOR?RELAYDRV
004A0CH   004A16H   00000BH   BYTE   UNIT     CODE           ?PR?RELAYDRV_RELAYNORMAL?RELAYDRV
004A17H   004A22H   00000CH   BYTE   UNIT     CODE           ?PR?RELAYDRV_OPENRELAY?RELAYDRV
004A23H   004A2FH   00000DH   BYTE   UNIT     CODE           ?PR?SPIDRV_DISABLE_METERIC?SPIDRV
004A30H   004A5CH   00002DH   BYTE   UNIT     CODE           ?PR?_DES_REPLACEMENT?TRIPLEDES
004A5DH   004AD4H   000078H   BYTE   UNIT     CODE           ?PR?_DES_IP?TRIPLEDES
004AD5H   004AF2H   00001EH   BYTE   UNIT     CODE           ?PR?_DES_PC_1?TRIPLEDES
004AF3H   004BC5H   0000D3H   BYTE   UNIT     CODE           ?PR?_DES_TRANSPOSITION?TRIPLEDES
LX51 LINKER/LOCATER V4.66.41.0                                                        11/18/2021  18:54:16  PAGE 8


004BC6H   004E0DH   000248H   BYTE   UNIT     CODE           ?PR?_DES_F?TRIPLEDES
004E0EH   004FA9H   00019CH   BYTE   UNIT     CODE           ?PR?_DES_CYCLRSHIFTING?TRIPLEDES

* * * * * * * * * * *  X D A T A   M E M O R Y  * * * * * * * * * * * * *
000000H   0005F3H   0005F4H   BYTE   UNIT     XDATA          ?XD?RAMDEFINE
0005F4H   0009DCH   0003E9H   BYTE   UNIT     XDATA          _XDATA_GROUP_
0009DDH   000AF3H   000117H   BYTE   UNIT     XDATA          ?XD?APPEMUATT7036
000AF4H   000C05H   000112H   BYTE   UNIT     XDATA          ?XD?TRIPLEDES
000C06H   000CE5H   0000E0H   BYTE   UNIT     XDATA          ?XD?LIBEEPROMLAYOUT
000CE6H   000D2EH   000049H   BYTE   UNIT     XDATA          ?XD?APPVIRTUALESAM
000D2FH   000D76H   000048H   BYTE   UNIT     XDATA          ?XD?APPEVENT
000D77H   000D9AH   000024H   BYTE   UNIT     XDATA          ?XD?APPDISPLAY
000D9BH   000DA6H   00000CH   BYTE   UNIT     XDATA          ?XD?_DRVE2P_WRDATATEMP?IICDRV
000DA7H   000DB1H   00000BH   BYTE   UNIT     XDATA          ?XD?_DRVE2P_READDATA?IICDRV
000DB2H   000DBBH   00000AH   BYTE   UNIT     XDATA          ?XD?_DRVE2P_WRITEDATA?IICDRV
000DBCH   000DBFH   000004H   BYTE   UNIT     XDATA          ?XD?_HAL_WRITEFLASH_BYTE?INTERNALE2DRV
000DC0H   000DC3H   000004H   BYTE   UNIT     XDATA          ?XD?_HAL_ERASEFLASHSECTOR?INTERNALE2DRV
000DC4H   000DC7H   000004H   BYTE   UNIT     XDATA          ?XD?RAND?RAND
000DC8H   000DCAH   000003H   BYTE   UNIT     XDATA          ?XD?_DRVE2P_WRITEONEBYTE?IICDRV
000DCBH   000DCCH   000002H   BYTE   UNIT     XDATA          ?XD?APPDLT645
000DCDH   000DCEH   000002H   BYTE   UNIT     XDATA          ?XD?DRVE2P_CHKBUSBUSY?IICDRV
000DCFH   000DD0H   000002H   BYTE   UNIT     XDATA          ?XD?DRVE2P_READONEBYTEACK?IICDRV
000DD1H   000DD2H   000002H   BYTE   UNIT     XDATA          ?XD?DRVE2P_READONEBYTENOACK?IICDRV
000DD3H   000DD3H   000001H   BYTE   UNIT     XDATA          ?XD?_APICOMM_COMMPARAINIT?APPCOMM
000DD4H   000DD4H   000001H   BYTE   UNIT     XDATA          ?XD?DRVE2P_I2CDELAY_5US?IICDRV
000DD5H   000DD5H   000001H   BYTE   UNIT     XDATA          ?XD?DRVE2P_I2CDELAY_3US?IICDRV
000DD6H   000DD6H   000001H   BYTE   UNIT     XDATA          ?XD?DRVE2P_I2CSTOP?IICDRV
000DD7H   00FF7FH   00F1A9H   ---    ---      **GAP**
00FF80H   00FF80H   000001H   BYTE   OFFS..   XDATA          ?XD?MAINPRO?36
00FF81H   00FF81H   000001H   BYTE   OFFS..   XDATA          ?XD?MAINPRO?38
00FF82H   00FF82H   000001H   BYTE   OFFS..   XDATA          ?XD?MAINPRO?39
00FF83H   00FF83H   000001H   BYTE   OFFS..   XDATA          ?XD?MAINPRO?40
00FF84H   00FF84H   000001H   BYTE   OFFS..   XDATA          ?XD?MAINPRO?41
00FF85H   00FF85H   000001H   BYTE   OFFS..   XDATA          ?XD?MAINPRO?42
00FF86H   00FF87H   000002H   ---    ---      **GAP**
00FF88H   00FF88H   000001H   BYTE   OFFS..   XDATA          ?XD?MAINPRO?31
00FF89H   00FF89H   000001H   BYTE   OFFS..   XDATA          ?XD?MAINPRO?32
00FF8AH   00FF8AH   000001H   BYTE   OFFS..   XDATA          ?XD?MAINPRO?33
00FF8BH   00FF8BH   000001H   BYTE   OFFS..   XDATA          ?XD?MAINPRO?43
00FF8CH   00FF8CH   000001H   BYTE   OFFS..   XDATA          ?XD?MAINPRO?48
00FF8DH   00FF8DH   000001H   BYTE   OFFS..   XDATA          ?XD?MAINPRO?45
00FF8EH   00FF8EH   000001H   BYTE   OFFS..   XDATA          ?XD?MAINPRO?76
00FF8FH   00FF8FH   000001H   BYTE   OFFS..   XDATA          ?XD?MAINPRO?83
00FF90H   00FF90H   000001H   BYTE   OFFS..   XDATA          ?XD?MAINPRO?59
00FF91H   00FF91H   000001H   BYTE   OFFS..   XDATA          ?XD?MAINPRO?35
00FF92H   00FF92H   000001H   BYTE   OFFS..   XDATA          ?XD?MAINPRO?8
00FF93H   00FF93H   000001H   BYTE   OFFS..   XDATA          ?XD?MAINPRO?1
00FF94H   00FF94H   000001H   BYTE   OFFS..   XDATA          ?XD?MAINPRO?11
00FF95H   00FF95H   000001H   BYTE   OFFS..   XDATA          ?XD?MAINPRO?3
00FF96H   00FF96H   000001H   BYTE   OFFS..   XDATA          ?XD?MAINPRO?12
00FF97H   00FF97H   000001H   BYTE   OFFS..   XDATA          ?XD?MAINPRO?4
00FF98H   00FF99H   000002H   ---    ---      **GAP**
00FF9AH   00FF9AH   000001H   BYTE   OFFS..   XDATA          ?XD?MAINPRO?53
00FF9BH   00FF9BH   000001H   BYTE   OFFS..   XDATA          ?XD?MAINPRO?68
00FF9CH   00FF9CH   000001H   BYTE   OFFS..   XDATA          ?XD?MAINPRO?72
00FF9DH   00FF9DH   000001H   BYTE   OFFS..   XDATA          ?XD?MAINPRO?75
00FF9EH   00FF9EH   000001H   BYTE   OFFS..   XDATA          ?XD?MAINPRO?78
00FF9FH   00FF9FH   000001H   BYTE   OFFS..   XDATA          ?XD?MAINPRO?82
00FFA0H   00FFA0H   000001H   BYTE   OFFS..   XDATA          ?XD?MAINPRO?37
00FFA1H   00FFA1H   000001H   BYTE   OFFS..   XDATA          ?XD?MAINPRO?62
00FFA2H   00FFA2H   000001H   BYTE   OFFS..   XDATA          ?XD?MAINPRO?69
00FFA3H   00FFA3H   000001H   BYTE   OFFS..   XDATA          ?XD?MAINPRO?20
00FFA4H   00FFA4H   000001H   BYTE   OFFS..   XDATA          ?XD?MAINPRO?65
00FFA5H   00FFA5H   000001H   BYTE   OFFS..   XDATA          ?XD?MAINPRO?85
00FFA6H   00FFA6H   000001H   BYTE   OFFS..   XDATA          ?XD?MAINPRO?34
LX51 LINKER/LOCATER V4.66.41.0                                                        11/18/2021  18:54:16  PAGE 9


00FFA7H   00FFA7H   000001H   BYTE   OFFS..   XDATA          ?XD?MAINPRO?88
00FFA8H   00FFA8H   000001H   BYTE   OFFS..   XDATA          ?XD?MAINPRO?10
00FFA9H   00FFA9H   000001H   BYTE   OFFS..   XDATA          ?XD?MAINPRO?13
00FFAAH   00FFAAH   000001H   BYTE   OFFS..   XDATA          ?XD?MAINPRO?52
00FFABH   00FFABH   000001H   BYTE   OFFS..   XDATA          ?XD?MAINPRO?55
00FFACH   00FFACH   000001H   BYTE   OFFS..   XDATA          ?XD?MAINPRO?60
00FFADH   00FFADH   000001H   BYTE   OFFS..   XDATA          ?XD?MAINPRO?7
00FFAEH   00FFAEH   000001H   BYTE   OFFS..   XDATA          ?XD?MAINPRO?58
00FFAFH   00FFAFH   000001H   BYTE   OFFS..   XDATA          ?XD?MAINPRO?63
00FFB0H   00FFB0H   000001H   BYTE   OFFS..   XDATA          ?XD?MAINPRO?57
00FFB1H   00FFB1H   000001H   BYTE   OFFS..   XDATA          ?XD?MAINPRO?61
00FFB2H   00FFB2H   000001H   BYTE   OFFS..   XDATA          ?XD?MAINPRO?9
00FFB3H   00FFB3H   000001H   BYTE   OFFS..   XDATA          ?XD?MAINPRO?54
00FFB4H   00FFB4H   000001H   BYTE   OFFS..   XDATA          ?XD?MAINPRO?15
00FFB5H   00FFB5H   000001H   BYTE   OFFS..   XDATA          ?XD?MAINPRO?71
00FFB6H   00FFB6H   000001H   BYTE   OFFS..   XDATA          ?XD?MAINPRO?95
00FFB7H   00FFB7H   000001H   BYTE   OFFS..   XDATA          ?XD?MAINPRO?96
00FFB8H   00FFB8H   000001H   BYTE   OFFS..   XDATA          ?XD?MAINPRO?51
00FFB9H   00FFB9H   000001H   BYTE   OFFS..   XDATA          ?XD?MAINPRO?47
00FFBAH   00FFBAH   000001H   BYTE   OFFS..   XDATA          ?XD?MAINPRO?64
00FFBBH   00FFBFH   000005H   ---    ---      **GAP**
00FFC0H   00FFC0H   000001H   BYTE   OFFS..   XDATA          ?XD?MAINPRO?50
00FFC1H   00FFC1H   000001H   BYTE   OFFS..   XDATA          ?XD?MAINPRO?6
00FFC2H   00FFC2H   000001H   BYTE   OFFS..   XDATA          ?XD?MAINPRO?56
00FFC3H   00FFC3H   000001H   BYTE   OFFS..   XDATA          ?XD?MAINPRO?26
00FFC4H   00FFC4H   000001H   BYTE   OFFS..   XDATA          ?XD?MAINPRO?29
00FFC5H   00FFC5H   000001H   BYTE   OFFS..   XDATA          ?XD?MAINPRO?87
00FFC6H   00FFC6H   000001H   BYTE   OFFS..   XDATA          ?XD?MAINPRO?67
00FFC7H   00FFC7H   000001H   BYTE   OFFS..   XDATA          ?XD?MAINPRO?74
00FFC8H   00FFC8H   000001H   BYTE   OFFS..   XDATA          ?XD?MAINPRO?2
00FFC9H   00FFC9H   000001H   BYTE   OFFS..   XDATA          ?XD?MAINPRO?5
00FFCAH   00FFCAH   000001H   BYTE   OFFS..   XDATA          ?XD?MAINPRO?46
00FFCBH   00FFCBH   000001H   BYTE   OFFS..   XDATA          ?XD?MAINPRO?14
00FFCCH   00FFCCH   000001H   BYTE   OFFS..   XDATA          ?XD?MAINPRO?0
00FFCDH   00FFCDH   000001H   BYTE   OFFS..   XDATA          ?XD?MAINPRO?66
00FFCEH   00FFCFH   000002H   ---    ---      **GAP**
00FFD0H   00FFD0H   000001H   BYTE   OFFS..   XDATA          ?XD?MAINPRO?79
00FFD1H   00FFD1H   000001H   BYTE   OFFS..   XDATA          ?XD?MAINPRO?70
00FFD2H   00FFD2H   000001H   BYTE   OFFS..   XDATA          ?XD?MAINPRO?30
00FFD3H   00FFD3H   000001H   BYTE   OFFS..   XDATA          ?XD?MAINPRO?28
00FFD4H   00FFD4H   000001H   BYTE   OFFS..   XDATA          ?XD?MAINPRO?44
00FFD5H   00FFD5H   000001H   BYTE   OFFS..   XDATA          ?XD?MAINPRO?49
00FFD6H   00FFDFH   00000AH   ---    ---      **GAP**
00FFE0H   00FFE0H   000001H   BYTE   OFFS..   XDATA          ?XD?MAINPRO?16
00FFE1H   00FFE1H   000001H   BYTE   OFFS..   XDATA          ?XD?MAINPRO?17
00FFE2H   00FFE2H   000001H   BYTE   OFFS..   XDATA          ?XD?MAINPRO?18
00FFE3H   00FFE3H   000001H   BYTE   OFFS..   XDATA          ?XD?MAINPRO?19
00FFE4H   00FFE4H   000001H   BYTE   OFFS..   XDATA          ?XD?MAINPRO?21
00FFE5H   00FFE5H   000001H   BYTE   OFFS..   XDATA          ?XD?MAINPRO?22
00FFE6H   00FFE6H   000001H   BYTE   OFFS..   XDATA          ?XD?MAINPRO?23
00FFE7H   00FFE7H   000001H   BYTE   OFFS..   XDATA          ?XD?MAINPRO?24
00FFE8H   00FFE8H   000001H   BYTE   OFFS..   XDATA          ?XD?MAINPRO?25
00FFE9H   00FFE9H   000001H   BYTE   OFFS..   XDATA          ?XD?MAINPRO?27
00FFEAH   00FFEFH   000006H   ---    ---      **GAP**
00FFF0H   00FFF0H   000001H   BYTE   OFFS..   XDATA          ?XD?MAINPRO?77
00FFF1H   00FFF1H   000001H   BYTE   OFFS..   XDATA          ?XD?MAINPRO?81
00FFF2H   00FFF2H   000001H   BYTE   OFFS..   XDATA          ?XD?MAINPRO?84
00FFF3H   00FFF3H   000001H   BYTE   OFFS..   XDATA          ?XD?MAINPRO?86
00FFF4H   00FFF4H   000001H   BYTE   OFFS..   XDATA          ?XD?MAINPRO?89
00FFF5H   00FFF5H   000001H   BYTE   OFFS..   XDATA          ?XD?MAINPRO?90
00FFF6H   00FFF6H   000001H   BYTE   OFFS..   XDATA          ?XD?MAINPRO?91
00FFF7H   00FFF7H   000001H   BYTE   OFFS..   XDATA          ?XD?MAINPRO?92
00FFF8H   00FFF8H   000001H   BYTE   OFFS..   XDATA          ?XD?MAINPRO?93
00FFF9H   00FFF9H   000001H   BYTE   OFFS..   XDATA          ?XD?MAINPRO?94
00FFFAH   00FFFAH   000001H   BYTE   OFFS..   XDATA          ?XD?MAINPRO?73
LX51 LINKER/LOCATER V4.66.41.0                                                        11/18/2021  18:54:16  PAGE 10


00FFFBH   00FFFBH   000001H   BYTE   OFFS..   XDATA          ?XD?MAINPRO?80



OVERLAY MAP OF MODULE:   DTSY666-2019 (APPCOMM)


FUNCTION/MODULE                               XDATA_GROUP
--> CALLED FUNCTION/MODULE                    START  STOP
=========================================================
INTER_INT4/INTERRUPT                          ----- -----

*** NEW ROOT ********************************

INTER_TIMER1/INTERRUPT                        ----- -----

*** NEW ROOT ********************************

INTER_TIMER0/INTERRUPT                        05F4H 05F5H

*** NEW ROOT ********************************

INTER_EUART0/INTERRUPT                        05F6H 05F7H
  +--> LIBPUB_GETTIMERBEATINT0/LIBPUBLIC
  +--> _APIDLT645_UARTRECEIVEDATAJUDGE0/APPDLT645

LIBPUB_GETTIMERBEATINT0/LIBPUBLIC             05FAH 0601H

_APIDLT645_UARTRECEIVEDATAJUDGE0/APPDLT6+     05F8H 05F9H
... 45
  +--> LIBPUB_GETTIMERBEATINT0/LIBPUBLIC

*** NEW ROOT ********************************

INTER_EUART1/INTERRUPT                        0602H 0603H
  +--> LIBPUB_GETTIMERBEATINT1/LIBPUBLIC
  +--> _APIDLT645_UARTRECEIVEDATAJUDGE1/APPDLT645

LIBPUB_GETTIMERBEATINT1/LIBPUBLIC             0606H 060DH

_APIDLT645_UARTRECEIVEDATAJUDGE1/APPDLT6+     0604H 0605H
... 45
  +--> LIBPUB_GETTIMERBEATINT1/LIBPUBLIC
  +--> _LIBPUB_0XFFCHECKINT/LIBPUBLIC

_LIBPUB_0XFFCHECKINT/LIBPUBLIC                0606H 0608H

*** NEW ROOT ********************************

INTER_TIMER2/INTERRUPT                        ----- -----

*** NEW ROOT ********************************

INTER_ADC_TPS/INTERRUPT                       ----- -----

*** NEW ROOT ********************************

INTER_EMU/INTERRUPT                           ----- -----

*** NEW ROOT ********************************

INTER_RTC/INTERRUPT                           ----- -----

*** NEW ROOT ********************************

LX51 LINKER/LOCATER V4.66.41.0                                                        11/18/2021  18:54:16  PAGE 11


INTER_LPD/INTERRUPT                           ----- -----

*** NEW ROOT ********************************

INTER_EUART3/INTERRUPT                        ----- -----

*** NEW ROOT ********************************

?C_C51STARTUP                                 ----- -----
  +--> MAIN/MAINPRO
  +--> ?C_INITSEG

MAIN/MAINPRO                                  ----- -----
  +--> APIPWON_SYSTEMINIT/APPPOWERON
  +--> APIPWON_MCURESET/APPPOWERON
  +--> LIBPUB_GETTIMERBEAT/LIBPUBLIC
  +--> APIMS_MEASURETASK/APPMEASURE
  +--> APICOMM_COMMTASK/APPCOMM
  +--> APIPWOFF_POWEROFFTASK/APPPOWEROFF
  +--> APIDISP_DISPLAYTASK/APPDISPLAY
  +--> APIMNTR_MONITORTASK/APPMONITOR

APIPWON_SYSTEMINIT/APPPOWERON                 ----- -----
  +--> APIPWON_MCULPDINIT/APPPOWERON
  +--> APIPWON_SYSCLKINIT/APPPOWERON
  +--> APIPWON_MCUGPIOINIT/APPPOWERON
  +--> APIPWON_MCURAMINIT/APPPOWERON
  +--> APIPWON_MCUDISPINIT/APPPOWERON
  +--> APIPWON_MCUTIMERINIT/APPPOWERON
  +--> APIPWON_MCUINTERRUPTINIT/APPPOWERON
  +--> APIPWON_MCUUARTINIT/APPPOWERON
  +--> APIPWON_EMUINIT/APPPOWERON

APIPWON_MCULPDINIT/APPPOWERON                 ----- -----
  +--> APIPWON_POWERCHK/APPPOWERON
  +--> APIPWON_MCURESET/APPPOWERON

APIPWON_POWERCHK/APPPOWERON                   ----- -----

APIPWON_MCURESET/APPPOWERON                   ----- -----

APIPWON_SYSCLKINIT/APPPOWERON                 ----- -----

APIPWON_MCUGPIOINIT/APPPOWERON                ----- -----

APIPWON_MCURAMINIT/APPPOWERON                 ----- -----
  +--> _LIBPUB_MEMSETBYTES/LIBPUBLIC
  +--> APIPWON_ENERGYCHECK/APPPOWERON
  +--> APIPWON_REMAINMONEYCHECK/APPPOWERON
  +--> APIPWON_EMUPARACHECK/APPPOWERON
  +--> APIPWON_DISPLAYPARACHECK/APPPOWERON
  +--> APIPWON_METERINFOPARACHECK/APPPOWERON
  +--> APIPWON_MONEYPARACHECK/APPPOWERON
  +--> APIMONEY_REFRESHPRICE/APPMONEY
  +--> APIPWON_FUNCONFIGPARACHECK/APPPOWERON
  +--> APIPWON_KEYSTATUSCHECK/APPPOWERON
  +--> APIPWON_EVENTPOINTCHECK/APPPOWERON
  +--> _LIBPUB_READDATAFROME2PROM/LIBPUBLIC
  +--> APIRELAY_SUBTRACTMONEYRELAYJUDGE/APPRELAYCONTROL

_LIBPUB_MEMSETBYTES/LIBPUBLIC                 0990H 0995H

APIPWON_ENERGYCHECK/APPPOWERON                060FH 0612H
  +--> APIPWON_ENERGYZSCHECK/APPPOWERON
  +--> _APIPWON_DLXS_READ/APPPOWERON
LX51 LINKER/LOCATER V4.66.41.0                                                        11/18/2021  18:54:16  PAGE 12


  +--> _LIBPUB_1HEX_2_1BCD/LIBPUBLIC
  +--> _LIBPUB_CRC16_CCITT/LIBPUBLIC
  +--> _LIBPUB_READDATAFROME2PROM/LIBPUBLIC

APIPWON_ENERGYZSCHECK/APPPOWERON              0614H 0614H
  +--> _LIBPUB_CRCCHECK/LIBPUBLIC
  +--> _LIBPUB_READDATAFROME2PROM/LIBPUBLIC

_LIBPUB_CRCCHECK/LIBPUBLIC                    098BH 0990H
  +--> _LIBPUB_ZEROCHECK/LIBPUBLIC
  +--> _LIBPUB_CRC16_CCITT/LIBPUBLIC

_LIBPUB_ZEROCHECK/LIBPUBLIC                   0991H 0993H

_LIBPUB_CRC16_CCITT/LIBPUBLIC                 09D6H 09DCH
  +--> ?CO?LIBPUBLIC

?CO?LIBPUBLIC                                 ----- -----

_LIBPUB_READDATAFROME2PROM/LIBPUBLIC          098BH 09D5H
  +--> _DRVE2P_READDATA/IICDRV
  +--> _LIBPUB_CRC16_CCITT/LIBPUBLIC
  +--> _LIBPUB_MEMCOPYBYTES/LIBPUBLIC

_DRVE2P_READDATA/IICDRV                       ----- -----
  +--> DRVE2P_I2CSTART/IICDRV
  +--> _DRVE2P_WRITEONEBYTE/IICDRV
  +--> DRVE2P_I2CSTOP/IICDRV
  +--> DRVE2P_READONEBYTEACK/IICDRV
  +--> DRVE2P_READONEBYTENOACK/IICDRV

DRVE2P_I2CSTART/IICDRV                        ----- -----
  +--> DRVI2C_INIT/IICDRV
  +--> DRVE2P_I2CDELAY_5US/IICDRV

DRVI2C_INIT/IICDRV                            ----- -----

DRVE2P_I2CDELAY_5US/IICDRV                    ----- -----

_DRVE2P_WRITEONEBYTE/IICDRV                   ----- -----
  +--> DRVE2P_I2CDELAY_3US/IICDRV
  +--> DRVE2P_I2CDELAY_2US/IICDRV

DRVE2P_I2CDELAY_3US/IICDRV                    ----- -----

DRVE2P_I2CDELAY_2US/IICDRV                    ----- -----

DRVE2P_I2CSTOP/IICDRV                         ----- -----
  +--> DRVE2P_I2CDELAY_5US/IICDRV

DRVE2P_READONEBYTEACK/IICDRV                  ----- -----
  +--> DRVE2P_I2CDELAY_3US/IICDRV
  +--> DRVE2P_I2CDELAY_5US/IICDRV

DRVE2P_READONEBYTENOACK/IICDRV                ----- -----
  +--> DRVE2P_I2CDELAY_3US/IICDRV
  +--> DRVE2P_I2CDELAY_5US/IICDRV

_LIBPUB_MEMCOPYBYTES/LIBPUBLIC                09D6H 09DCH

_APIPWON_DLXS_READ/APPPOWERON                 061FH 0630H
  +--> _LIBPUB_MEMSETBYTES/LIBPUBLIC
  +--> _DRVE2P_READDATA/IICDRV

_LIBPUB_1HEX_2_1BCD/LIBPUBLIC                 ----- -----
LX51 LINKER/LOCATER V4.66.41.0                                                        11/18/2021  18:54:16  PAGE 13



APIPWON_REMAINMONEYCHECK/APPPOWERON           060FH 0662H
  +--> _DRVE2P_READDATA/IICDRV
  +--> _LIBPUB_CRC16_CCITT/LIBPUBLIC
  +--> _LIBPUB_MEMCOPYBYTES/LIBPUBLIC
  +--> _LIBPUB_COMPARENBUFS/LIBPUBLIC
  +--> _LIBPUB_ZEROCHECK/LIBPUBLIC
  +--> _LIBPUB_MEMSETBYTES/LIBPUBLIC
  +--> _LIBPUB_WRITEDATATOE2PROM/LIBPUBLIC

_LIBPUB_COMPARENBUFS/LIBPUBLIC                0663H 066DH
  +--> _LIBPUB_MEMCOPYBYTES/LIBPUBLIC
  +--> _LIBPUB_COMPAREDATA/LIBPUBLIC

_LIBPUB_COMPAREDATA/LIBPUBLIC                 098BH 0993H

_LIBPUB_WRITEDATATOE2PROM/LIBPUBLIC           0990H 0999H
  +--> _LIBPUB_CRC16_CCITT/LIBPUBLIC
  +--> _DRVE2P_WRITEDATA/IICDRV

_DRVE2P_WRITEDATA/IICDRV                      ----- -----
  +--> _DRVE2P_WRDATATEMP/IICDRV

_DRVE2P_WRDATATEMP/IICDRV                     ----- -----
  +--> DRVE2P_I2CSTART/IICDRV
  +--> _DRVE2P_WRITEONEBYTE/IICDRV
  +--> DRVE2P_I2CSTOP/IICDRV
  +--> DRVE2P_CHKBUSBUSY/IICDRV

DRVE2P_CHKBUSBUSY/IICDRV                      ----- -----
  +--> DRVE2P_I2CSTART/IICDRV
  +--> _DRVE2P_WRITEONEBYTE/IICDRV
  +--> DRVE2P_I2CSTOP/IICDRV

APIPWON_EMUPARACHECK/APPPOWERON               ----- -----
  +--> APIMS_METERICPARACHECK/APPMEASURE

APIMS_METERICPARACHECK/APPMEASURE             ----- -----
  +--> APIEMU_EMUPARACHECK/APPEMUATT7036

APIEMU_EMUPARACHECK/APPEMUATT7036             060FH 0619H
  +--> ?CO?APPEMUATT7036
  +--> _LIBPUB_ULONG32TOBUFFER4/LIBPUBLIC
  +--> _APPEMU_READONEREG_METERIC/APPEMUATT7036
  +--> _LIBPUB_COMPAREDATA/LIBPUBLIC
  +--> APPEMU_TRIPCHECKCALPARACRC/APPEMUATT7036
  +--> APIEMU_EMUINIT/APPEMUATT7036

?CO?APPEMUATT7036                             ----- -----

_LIBPUB_ULONG32TOBUFFER4/LIBPUBLIC            06C3H 06CBH

_APPEMU_READONEREG_METERIC/APPEMUATT7036      06B5H 06B9H
  +--> _APPEMU_READDATAMODESET/APPEMUATT7036
  +--> SPIDRV_EABLE_METERIC/SPIDRV
  +--> _SPIDRV_SENDBTYE/SPIDRV
  +--> LIBPUB_DELAY2US/LIBPUBLIC
  +--> SPIDRV_RECEIVEBYTE/SPIDRV
  +--> SPIDRV_DISABLE_METERIC/SPIDRV

_APPEMU_READDATAMODESET/APPEMUATT7036         06BAH 06C2H
  +--> SPIDRV_EABLE_METERIC/SPIDRV
  +--> _LIBPUB_ULONG32TOBUFFER4/LIBPUBLIC
  +--> _SPIDRV_SENDBTYE/SPIDRV
  +--> SPIDRV_DISABLE_METERIC/SPIDRV
LX51 LINKER/LOCATER V4.66.41.0                                                        11/18/2021  18:54:16  PAGE 14



SPIDRV_EABLE_METERIC/SPIDRV                   ----- -----
  +--> LIBPUB_DELAY2US/LIBPUBLIC

LIBPUB_DELAY2US/LIBPUBLIC                     ----- -----

_SPIDRV_SENDBTYE/SPIDRV                       06C3H 06C4H
  +--> LIBPUB_DELAY2US/LIBPUBLIC

SPIDRV_DISABLE_METERIC/SPIDRV                 ----- -----
  +--> LIBPUB_DELAY2US/LIBPUBLIC

SPIDRV_RECEIVEBYTE/SPIDRV                     06BAH 06BBH
  +--> LIBPUB_DELAY2US/LIBPUBLIC

APPEMU_TRIPCHECKCALPARACRC/APPEMUATT7036      ----- -----
  +--> _LIBPUB_CRCCHECK/LIBPUBLIC
  +--> _HAL_READEEPROM/INTERNALE2DRV

_HAL_READEEPROM/INTERNALE2DRV                 098BH 0991H
  +--> _HAL_READFLASH_BYTE/INTERNALE2DRV

_HAL_READFLASH_BYTE/INTERNALE2DRV             ----- -----

APIEMU_EMUINIT/APPEMUATT7036                  061AH 0624H
  +--> APPEMU_SOFTWARERESET_METERIC/APPEMUATT7036
  +--> _HAL_READEEPROM/INTERNALE2DRV
  +--> _LIBPUB_CRCCHECK/LIBPUBLIC
  +--> ?CO?APPEMUATT7036
  +--> APPEMU_CLEARCALREG_METERIC/APPEMUATT7036
  +--> _LIBPUB_MEMSETBYTES/LIBPUBLIC
  +--> _LIBPUB_USHORT16TOBUFFER2/LIBPUBLIC
  +--> _APPEMU_WRITEONEREG_METERIC/APPEMUATT7036
  +--> _LIBPUB_ULONG32TOBUFFER4/LIBPUBLIC

APPEMU_SOFTWARERESET_METERIC/APPEMUATT70+     0625H 0628H
... 36
  +--> _LIBPUB_MEMSETBYTES/LIBPUBLIC
  +--> _APPEMU_WRITEONEREG_METERIC/APPEMUATT7036
  +--> _LIBPUB_DELAYNMS/LIBPUBLIC
  +--> SPIDRV_ENSPIMODE/SPIDRV
  +--> APPEMU_CLEARCALREG_METERIC/APPEMUATT7036

_APPEMU_WRITEONEREG_METERIC/APPEMUATT703+     064AH 064EH
... 6
  +--> APPEMU_WRITEENABLE_METERIC/APPEMUATT7036
  +--> SPIDRV_EABLE_METERIC/SPIDRV
  +--> _SPIDRV_SENDBTYE/SPIDRV
  +--> SPIDRV_DISABLE_METERIC/SPIDRV
  +--> APPEMU_WRITEDISABLE_METERIC/APPEMUATT7036

APPEMU_WRITEENABLE_METERIC/APPEMUATT7036      064FH 0657H
  +--> SPIDRV_EABLE_METERIC/SPIDRV
  +--> _LIBPUB_ULONG32TOBUFFER4/LIBPUBLIC
  +--> _SPIDRV_SENDBTYE/SPIDRV
  +--> SPIDRV_DISABLE_METERIC/SPIDRV

APPEMU_WRITEDISABLE_METERIC/APPEMUATT703+     064FH 0657H
... 6
  +--> SPIDRV_EABLE_METERIC/SPIDRV
  +--> _LIBPUB_ULONG32TOBUFFER4/LIBPUBLIC
  +--> _SPIDRV_SENDBTYE/SPIDRV
  +--> SPIDRV_DISABLE_METERIC/SPIDRV

_LIBPUB_DELAYNMS/LIBPUBLIC                    0675H 067AH
LX51 LINKER/LOCATER V4.66.41.0                                                        11/18/2021  18:54:16  PAGE 15


  +--> LIBPUB_DELAY10US/LIBPUBLIC

LIBPUB_DELAY10US/LIBPUBLIC                    ----- -----
  +--> LIBPUB_DELAY2US/LIBPUBLIC
  +--> LIBPUB_DELAY5US/LIBPUBLIC

LIBPUB_DELAY5US/LIBPUBLIC                     ----- -----

SPIDRV_ENSPIMODE/SPIDRV                       ----- -----
  +--> LIBPUB_DELAY2US/LIBPUBLIC

APPEMU_CLEARCALREG_METERIC/APPEMUATT7036      0641H 0646H
  +--> _LIBPUB_MEMSETBYTES/LIBPUBLIC
  +--> _APPEMU_WRITEONEREG_METERIC/APPEMUATT7036
  +--> _LIBPUB_DELAYNMS/LIBPUBLIC
  +--> SPIDRV_ENSPIMODE/SPIDRV
  +--> SPIDRV_EABLE_METERIC/SPIDRV
  +--> ?CO?APPEMUATT7036
  +--> _LIBPUB_ULONG32TOBUFFER4/LIBPUBLIC

_LIBPUB_USHORT16TOBUFFER2/LIBPUBLIC           ----- -----

APIPWON_DISPLAYPARACHECK/APPPOWERON           060FH 0615H
  +--> ?CO?APPPOWERON
  +--> _LIBPUB_CRCCHECK/LIBPUBLIC
  +--> _LIBPUB_READDATAFROME2PROM/LIBPUBLIC
  +--> _LIBPUB_MEMCOPYBYTES/LIBPUBLIC

?CO?APPPOWERON                                ----- -----

APIPWON_METERINFOPARACHECK/APPPOWERON         ----- -----
  +--> _LIBPUB_CRCCHECK/LIBPUBLIC
  +--> _LIBPUB_READDATAFROME2PROM/LIBPUBLIC
  +--> _LIBPUB_MEMSETBYTES/LIBPUBLIC

APIPWON_MONEYPARACHECK/APPPOWERON             ----- -----
  +--> _LIBPUB_CRCCHECK/LIBPUBLIC
  +--> _LIBPUB_READDATAFROME2PROM/LIBPUBLIC
  +--> _LIBPUB_MEMSETBYTES/LIBPUBLIC

APIMONEY_REFRESHPRICE/APPMONEY                ----- -----
  +--> _LIBPUB_CRCCHECK/LIBPUBLIC
  +--> _LIBPUB_READDATAFROME2PROM/LIBPUBLIC
  +--> _LIBPUB_MEMSETBYTES/LIBPUBLIC
  +--> _LIBPUB_WRITEDATATOE2PROM/LIBPUBLIC

APIPWON_FUNCONFIGPARACHECK/APPPOWERON         ----- -----
  +--> _LIBPUB_CRCCHECK/LIBPUBLIC
  +--> _LIBPUB_READDATAFROME2PROM/LIBPUBLIC
  +--> _LIBPUB_1HEX_2_1BCD/LIBPUBLIC

APIPWON_KEYSTATUSCHECK/APPPOWERON             ----- -----
  +--> _LIBPUB_CRCCHECK/LIBPUBLIC
  +--> _LIBPUB_READDATAFROME2PROM/LIBPUBLIC

APIPWON_EVENTPOINTCHECK/APPPOWERON            ----- -----
  +--> _LIBPUB_CRCCHECK/LIBPUBLIC
  +--> _LIBPUB_READDATAFROME2PROM/LIBPUBLIC
  +--> _LIBPUB_MEMSETBYTES/LIBPUBLIC

APIRELAY_SUBTRACTMONEYRELAYJUDGE/APPRELA+     076BH 078DH
... YCONTROL
  +--> _LIBPUB_READDATAFROME2PROM/LIBPUBLIC
  +--> _LIBPUB_BUFFER4TOULONG32/LIBPUBLIC
  +--> _LIBPUB_WRITEDATATOE2PROM/LIBPUBLIC
LX51 LINKER/LOCATER V4.66.41.0                                                        11/18/2021  18:54:16  PAGE 16



_LIBPUB_BUFFER4TOULONG32/LIBPUBLIC            089DH 08A4H

APIPWON_MCUDISPINIT/APPPOWERON                ----- -----
  +--> _LCDDRV_INIT/LCDDRV

_LCDDRV_INIT/LCDDRV                           ----- -----
  +--> LCDDRV_PWONREGCFG/LCDDRV
  +--> LCDDRV_SGECOMCONFIG/LCDDRV
  +--> _LCDDRV_SETLCDBUFF/LCDDRV

LCDDRV_PWONREGCFG/LCDDRV                      ----- -----

LCDDRV_SGECOMCONFIG/LCDDRV                    ----- -----

_LCDDRV_SETLCDBUFF/LCDDRV                     ----- -----
  +--> LCDDRV_DISPRAMUPDATA/LCDDRV

LCDDRV_DISPRAMUPDATA/LCDDRV                   ----- -----

APIPWON_MCUTIMERINIT/APPPOWERON               ----- -----

APIPWON_MCUINTERRUPTINIT/APPPOWERON           ----- -----

APIPWON_MCUUARTINIT/APPPOWERON                ----- -----
  +--> _APIPWON_MCUUARTXINIT/APPPOWERON

_APIPWON_MCUUARTXINIT/APPPOWERON              0615H 0615H
  +--> _APIPWON_MCUUARTXSETBPS/APPPOWERON
  +--> _APICOMM_COMMPARAINIT/APPCOMM

_APIPWON_MCUUARTXSETBPS/APPPOWERON            ----- -----

_APICOMM_COMMPARAINIT/APPCOMM                 ----- -----
  +--> LIBPUB_GETTIMERBEAT/LIBPUBLIC

LIBPUB_GETTIMERBEAT/LIBPUBLIC                 0683H 068AH

APIPWON_EMUINIT/APPPOWERON                    ----- -----
  +--> APIMS_INITMETERICPARA/APPMEASURE

APIMS_INITMETERICPARA/APPMEASURE              ----- -----
  +--> APIEMU_EMUINIT/APPEMUATT7036

APIMS_MEASURETASK/APPMEASURE                  ----- -----
  +--> APIMS_ENERGYPULSEUPDATE/APPMEASURE
  +--> APIMS_UPDATEUIP/APPMEASURE

APIMS_ENERGYPULSEUPDATE/APPMEASURE            060EH 0613H
  +--> APIMS_GETPOWERDIR/APPMEASURE
  +--> APIPWON_ENERGYZSCHECK/APPPOWERON
  +--> _APIMS_ENERGYPROCESS/APPMEASURE

APIMS_GETPOWERDIR/APPMEASURE                  ----- -----
  +--> APIEMU_GETDIRP/APPEMUATT7036

APIEMU_GETDIRP/APPEMUATT7036                  0614H 0616H
  +--> _APPEMU_READONEREG_METERIC/APPEMUATT7036

_APIMS_ENERGYPROCESS/APPMEASURE               0614H 061EH
  +--> _LIBPUB_1HEX_2_1BCD/LIBPUBLIC
  +--> _APIPWON_DLXS_READ/APPPOWERON
  +--> _LIBPUB_WRITEDATATOE2PROM/LIBPUBLIC
  +--> APIMONEY_REMAINMONEYPROCESS/APPMONEY
  +--> _LIBPUB_NBTYESBCDADD/LIBPUBLIC
LX51 LINKER/LOCATER V4.66.41.0                                                        11/18/2021  18:54:16  PAGE 17


  +--> _LIBPUB_CRC16_CCITT/LIBPUBLIC
  +--> APIRELAY_SUBTRACTMONEYRELAYJUDGE/APPRELAYCONTROL
  +--> APIRELAY_CONTROLPROCESS/APPRELAYCONTROL

APIMONEY_REMAINMONEYPROCESS/APPMONEY          061FH 0638H
  +--> APIPWON_MONEYPARACHECK/APPPOWERON
  +--> _LIBPUB_MEMCOPYBYTES/LIBPUBLIC
  +--> APIMONEY_REFRESHPRICE/APPMONEY
  +--> _LIBPUB_DECTOHEXBYTES/LIBPUBLIC
  +--> _APIMONEY_MULTPTCT/APPMONEY
  +--> _LIBPUB_HEXTOBCDBYTES/LIBPUBLIC
  +--> _LIBPUB_COMPAREDATA/LIBPUBLIC
  +--> _LIBPUB_NBYTESBCDSUB/LIBPUBLIC
  +--> _LIBPUB_MEMSETBYTES/LIBPUBLIC
  +--> _LIBPUB_NBTYESBCDADD/LIBPUBLIC
  +--> _LIBPUB_CRC16_CCITT/LIBPUBLIC
  +--> _LIBPUB_WRITEDATATOE2PROM/LIBPUBLIC

_LIBPUB_DECTOHEXBYTES/LIBPUBLIC               076BH 0777H

_APIMONEY_MULTPTCT/APPMONEY                   0639H 0646H
  +--> _LIBPUB_DECTOHEXBYTES/LIBPUBLIC

_LIBPUB_HEXTOBCDBYTES/LIBPUBLIC               0786H 0792H

_LIBPUB_NBYTESBCDSUB/LIBPUBLIC                0786H 078EH

_LIBPUB_NBTYESBCDADD/LIBPUBLIC                0990H 0998H
  +--> _LIBPUB_1BTYEBCDADD/LIBPUBLIC

_LIBPUB_1BTYEBCDADD/LIBPUBLIC                 ----- -----
  +--> _LIBPUB_1BCD_2_1HEX/LIBPUBLIC
  +--> _LIBPUB_1HEX_2_1BCD/LIBPUBLIC

_LIBPUB_1BCD_2_1HEX/LIBPUBLIC                 ----- -----

APIRELAY_CONTROLPROCESS/APPRELAYCONTROL       ----- -----
  +--> RELAYDRV_OPENRELAY/RELAYDRV
  +--> _LIBPUB_MEMSETBYTES/LIBPUBLIC
  +--> _APIEVENT_WRITERECORD/APPEVENT
  +--> RELAYDRV_CLOSERELAY/RELAYDRV
  +--> _LIBPUB_WRITEDATATOE2PROM/LIBPUBLIC

RELAYDRV_OPENRELAY/RELAYDRV                   ----- -----

_APIEVENT_WRITERECORD/APPEVENT                0786H 098AH
  +--> APIPWON_EVENTPOINTCHECK/APPPOWERON
  +--> ?CO?APPEVENT
  +--> _HAL_READEEPROM/INTERNALE2DRV
  +--> _LIBPUB_MEMCOPYBYTES/LIBPUBLIC
  +--> _LIBPUB_COMPAREDATA/LIBPUBLIC
  +--> _LIBPUB_MEMSETBYTES/LIBPUBLIC
  +--> _APIEVENT_RECTOTALNUM_ADD/APPEVENT
  +--> _LIBPUB_CRC16_CCITT/LIBPUBLIC
  +--> _LIBPUB_WRITEDATATOE2PROM/LIBPUBLIC
  +--> _LIBPUB_MEMEXCHANGEBYTES/LIBPUBLIC
  +--> _HAL_ERASEFLASHSECTOR/INTERNALE2DRV
  +--> _HAL_WRITEEEPROM/INTERNALE2DRV

?CO?APPEVENT                                  ----- -----

_APIEVENT_RECTOTALNUM_ADD/APPEVENT            098BH 098FH
  +--> _LIBPUB_MEMSETBYTES/LIBPUBLIC
  +--> _LIBPUB_NBTYESBCDADD/LIBPUBLIC
  +--> _LIBPUB_WRITEDATATOE2PROM/LIBPUBLIC
LX51 LINKER/LOCATER V4.66.41.0                                                        11/18/2021  18:54:16  PAGE 18


  +--> _LIBPUB_CRC16_CCITT/LIBPUBLIC

_LIBPUB_MEMEXCHANGEBYTES/LIBPUBLIC            098BH 0992H

_HAL_ERASEFLASHSECTOR/INTERNALE2DRV           ----- -----

_HAL_WRITEEEPROM/INTERNALE2DRV                098BH 0991H
  +--> _HAL_WRITEFLASH_BYTE/INTERNALE2DRV

_HAL_WRITEFLASH_BYTE/INTERNALE2DRV            ----- -----

RELAYDRV_CLOSERELAY/RELAYDRV                  ----- -----

APIMS_UPDATEUIP/APPMEASURE                    ----- -----
  +--> LIBPUB_GETTIMERBEAT/LIBPUBLIC
  +--> _LIBPUB_GETDIFFTIME/LIBPUBLIC
  +--> APIEMU_UPDATEUIP/APPEMUATT7036

_LIBPUB_GETDIFFTIME/LIBPUBLIC                 0615H 0620H

APIEMU_UPDATEUIP/APPEMUATT7036                060EH 06B4H
  +--> _APPEMU_READONEREG_METERIC/APPEMUATT7036
  +--> _LIBPUB_BUFFER4TOULONG32/LIBPUBLIC
  +--> _LIBPUB_HEXTOBCDBYTES/LIBPUBLIC
  +--> _LIBPUB_MEMCOPYBYTES/LIBPUBLIC
  +--> _LIBPUB_MEMSETBYTES/LIBPUBLIC

APICOMM_COMMTASK/APPCOMM                      060EH 060EH
  +--> _APICOMM_CHANNELPROCESS/APPCOMM
  +--> _APICOMM_PROTOCOLPROCESS/APPCOMM

_APICOMM_CHANNELPROCESS/APPCOMM               060FH 0614H
  +--> LIBPUB_GETTIMERBEAT/LIBPUBLIC
  +--> _LIBPUB_GETDIFFTIME/LIBPUBLIC
  +--> _APICOMM_PROTOCOLPROCESS/APPCOMM
  +--> _APIPWON_UART_SENDEN/APPPOWERON
  +--> _APIPWON_MCUUARTXINIT/APPPOWERON

_APICOMM_PROTOCOLPROCESS/APPCOMM              ----- -----
  +--> _APIDLT645_FRAMEANALYSIS/APPDLT645

_APIDLT645_FRAMEANALYSIS/APPDLT645            0615H 062BH
  +--> ?CO?APPDLT645
  +--> _LIBPUB_MEMCOPYBYTES/LIBPUBLIC
  +--> _APIDLT645_ADDRTYPECHECK/APPDLT645
  +--> _LIBPUB_CALSUM/LIBPUBLIC
  +--> _APIDLT645_SAFECERTIFICATION/APPDLT645
  +--> _APIDLT645_READMETERADDRESS/APPDLT645
  +--> _APIDLT645_WRITEMETERADDRESS/APPDLT645
  +--> _APIDLT645_READEMUREG/APPDLT645
  +--> _APIDLT645_WRITEEMUREG/APPDLT645
  +--> _APIDLT645_RELAYCONTROL/APPDLT645
  +--> _APIDLT645_FACTORYCOMMAND/APPDLT645
  +--> _APIDLT645_READDATA07/APPDLT645
  +--> _APIDLT645_WRITEDATA/APPDLT645
  +--> _APIDLT645_METERCLEAR/APPDLT645
  +--> _APIDLT645_MODIFYPSW/APPDLT645
  +--> _APIDLT645_ACCOUNTTX/APPDLT645
  +--> LIBPUB_GETTIMERBEAT/LIBPUBLIC
  +--> _APIEVENT_WRITERECORD/APPEVENT
  +--> _LIBPUB_MEMSETBYTES/LIBPUBLIC
  +--> _LIBPUB_MEMEXCHANGEBYTES/LIBPUBLIC

?CO?APPDLT645                                 ----- -----

LX51 LINKER/LOCATER V4.66.41.0                                                        11/18/2021  18:54:16  PAGE 19


_APIDLT645_ADDRTYPECHECK/APPDLT645            ----- -----

_LIBPUB_CALSUM/LIBPUBLIC                      077DH 077FH

_APIDLT645_SAFECERTIFICATION/APPDLT645        062CH 0637H
  +--> _LIBPUB_MEMCOPYBYTES/LIBPUBLIC
  +--> ?CO?APPDLT645
  +--> _PREPAYMENTMODULE_COMM_INTAUTH/APPVIRTUALESAM
  +--> _PREPAYMENTMODULE_COMM_TIMEAVAILABLEIN/APPVIRTUALESAM
  +--> _PREPAYMENTMODULE_COMM_OPENACCOUT/APPVIRTUALESAM
  +--> _PREPAYMENTMODULE_COMM_MODIFYKEY/APPVIRTUALESAM
  +--> _PREPAYMENTMODULE_COMM_INTAUTH_INVALIDATION/APPVIRTUALESAM

_PREPAYMENTMODULE_COMM_INTAUTH/APPVIRTUA+     065BH 0671H
... LESAM
  +--> _LIBPUB_INVERSE/LIBPUBLIC
  +--> _LIBPUB_COMPAREDATA/LIBPUBLIC
  +--> _LIBPUB_MEMCOPYBYTES/LIBPUBLIC
  +--> _PREPAYMENTMODULE_GETWORKKEY/APPVIRTUALESAM
  +--> _TRIPLEDES_DEORENCRYPTION/TRIPLEDES
  +--> _PREPAYMENTMODULE_GETCHALLENGE/APPVIRTUALESAM
  +--> _LIBPUB_MEMSETBYTES/LIBPUBLIC
  +--> _LIBPUB_MEMEXCHANGEBYTES/LIBPUBLIC
  +--> _LIBPUB_READDATAFROME2PROM/LIBPUBLIC
  +--> _LIBPUB_1BCD_2_1HEX/LIBPUBLIC

_LIBPUB_INVERSE/LIBPUBLIC                     0726H 072BH

_PREPAYMENTMODULE_GETWORKKEY/APPVIRTUALE+     067EH 067EH
... SAM
  +--> _LIBPUB_MEMCOPYBYTES/LIBPUBLIC
  +--> _TRIPLEDES_DEORENCRYPTION/TRIPLEDES

_TRIPLEDES_DEORENCRYPTION/TRIPLEDES           077FH 0785H
  +--> _LIBPUB_READDATAFROME2PROM/LIBPUBLIC
  +--> _DES_DEORENCRYPTION/TRIPLEDES

_DES_DEORENCRYPTION/TRIPLEDES                 0786H 079EH
  +--> _LIBPUB_MEMCOPYBYTES/LIBPUBLIC
  +--> _DES_IP/TRIPLEDES
  +--> _DES_PC_1/TRIPLEDES
  +--> ?CO?TRIPLEDES
  +--> _DES_CYCLRSHIFTING/TRIPLEDES
  +--> _DES_TRANSPOSITION/TRIPLEDES
  +--> _DES_F/TRIPLEDES
  +--> _DES_IP_1/TRIPLEDES

_DES_IP/TRIPLEDES                             079FH 07ABH
  +--> _DES_REPLACEMENT/TRIPLEDES
  +--> _LIBPUB_MEMCOPYBYTES/LIBPUBLIC

_DES_REPLACEMENT/TRIPLEDES                    07ACH 07ACH

_DES_PC_1/TRIPLEDES                           ----- -----
  +--> ?CO?TRIPLEDES
  +--> _DES_TRANSPOSITION/TRIPLEDES

?CO?TRIPLEDES                                 ----- -----

_DES_TRANSPOSITION/TRIPLEDES                  07B2H 07C4H
  +--> _LIBPUB_MEMCOPYBYTES/LIBPUBLIC

_DES_CYCLRSHIFTING/TRIPLEDES                  079FH 07AAH
  +--> _LIBPUB_MEMCOPYBYTES/LIBPUBLIC

LX51 LINKER/LOCATER V4.66.41.0                                                        11/18/2021  18:54:16  PAGE 20


_DES_F/TRIPLEDES                              079FH 07B1H
  +--> _LIBPUB_MEMCOPYBYTES/LIBPUBLIC
  +--> ?CO?TRIPLEDES
  +--> _DES_TRANSPOSITION/TRIPLEDES

_DES_IP_1/TRIPLEDES                           079FH 07ABH
  +--> _DES_REPLACEMENT/TRIPLEDES

_PREPAYMENTMODULE_GETCHALLENGE/APPVIRTUA+     0683H 0687H
... LESAM
  +--> RAND/RAND

RAND/RAND                                     ----- -----

_PREPAYMENTMODULE_COMM_TIMEAVAILABLEIN/A+     0638H 063DH
... PPVIRTUALESAM
  +--> _LIBPUB_INVERSE/LIBPUBLIC
  +--> _LIBPUB_ISBCD/LIBPUBLIC
  +--> _PREPAYMENTMODULE_COMMWRITEESAMBINARYMAC/APPVIRTUALESAM
  +--> _LIBPUB_READDATAFROME2PROM/LIBPUBLIC
  +--> _LIBPUB_WRITEDATATOE2PROM/LIBPUBLIC
  +--> _LIBPUB_1BCD_2_1HEX/LIBPUBLIC
  +--> _LIBPUB_BUFFER2TOUSHORT16/LIBPUBLIC
  +--> _LIBPUB_CRC16_CCITT/LIBPUBLIC
  +--> PREPAYMENTMODULE_COMM_CLRMACERRNUM/APPVIRTUALESAM

_LIBPUB_ISBCD/LIBPUBLIC                       0726H 0728H

_PREPAYMENTMODULE_COMMWRITEESAMBINARYMAC+     076BH 0771H
... /APPVIRTUALESAM
  +--> ?CO?APPDLT645
  +--> _LIBPUB_MEMCOPYBYTES/LIBPUBLIC
  +--> _DATA_MAC/TRIPLEDES
  +--> PREPAYMENTMODULE_COMM_MACERRNUM/APPVIRTUALESAM

_DATA_MAC/TRIPLEDES                           0772H 077EH
  +--> _LIBPUB_MEMCOPYBYTES/LIBPUBLIC
  +--> _LIBPUB_READDATAFROME2PROM/LIBPUBLIC
  +--> _LIBPUB_MEMSETBYTES/LIBPUBLIC
  +--> _DES_DEORENCRYPTION/TRIPLEDES
  +--> _TRIPLEDES_DEORENCRYPTION/TRIPLEDES
  +--> _LIBPUB_COMPAREDATA/LIBPUBLIC

PREPAYMENTMODULE_COMM_MACERRNUM/APPVIRTU+     ----- -----
... ALESAM
  +--> PREPAYMENTMODULE_INVALIDATION/APPVIRTUALESAM

PREPAYMENTMODULE_INVALIDATION/APPVIRTUAL+     ----- -----
... ESAM

_LIBPUB_BUFFER2TOUSHORT16/LIBPUBLIC           063EH 063FH

PREPAYMENTMODULE_COMM_CLRMACERRNUM/APPVI+     ----- -----
... RTUALESAM

_PREPAYMENTMODULE_COMM_OPENACCOUT/APPVIR+     0726H 076AH
... TUALESAM
  +--> _LIBPUB_MEMEXCHANGEBYTES/LIBPUBLIC
  +--> _PREPAYMENTMODULE_COMMWRITEESAMBINARYMAC/APPVIRTUALESAM
  +--> _LIBPUB_COMPAREDATA/LIBPUBLIC
  +--> _LIBPUB_CRCCHECK/LIBPUBLIC
  +--> _LIBPUB_READDATAFROME2PROM/LIBPUBLIC
  +--> _LIBPUB_ZEROCHECK/LIBPUBLIC
  +--> APIRELAY_CONTROLPROCESS/APPRELAYCONTROL
  +--> _LIBPUB_WRITEDATATOE2PROM/LIBPUBLIC
LX51 LINKER/LOCATER V4.66.41.0                                                        11/18/2021  18:54:16  PAGE 21


  +--> _LIBPUB_DECTOHEXBYTES/LIBPUBLIC
  +--> _LIBPUB_MEMCOPYBYTES/LIBPUBLIC
  +--> _LIBPUB_BUFFER4TOULONG32/LIBPUBLIC
  +--> _LIBPUB_CRC16_CCITT/LIBPUBLIC
  +--> PREPAYMENTMODULE_COMM_CLRMACERRNUM/APPVIRTUALESAM
  +--> APIRELAY_SUBTRACTMONEYRELAYJUDGE/APPRELAYCONTROL
  +--> _MONEY_RECHARGE/APPVIRTUALESAM

_MONEY_RECHARGE/APPVIRTUALESAM                076BH 0785H
  +--> _LIBPUB_HEXTOBCDBYTES/LIBPUBLIC
  +--> _LIBPUB_MEMCOPYBYTES/LIBPUBLIC
  +--> APIPWON_METERCLEAR/APPPOWERON
  +--> _LIBPUB_MEMSETBYTES/LIBPUBLIC
  +--> _LIBPUB_WRITEDATATOE2PROM/LIBPUBLIC
  +--> _LIBPUB_CRC16_CCITT/LIBPUBLIC
  +--> _LIBPUB_READDATAFROME2PROM/LIBPUBLIC
  +--> _LIBPUB_BUFFER4TOULONG32/LIBPUBLIC
  +--> _APIEVENT_WRITERECORD/APPEVENT
  +--> _LIBPUB_NBTYESBCDADD/LIBPUBLIC
  +--> _LIBPUB_ZEROCHECK/LIBPUBLIC
  +--> _LIBPUB_COMPAREDATA/LIBPUBLIC
  +--> _LIBPUB_NBYTESBCDSUB/LIBPUBLIC

APIPWON_METERCLEAR/APPPOWERON                 0786H 078AH
  +--> _LIBPUB_MEMSETBYTES/LIBPUBLIC
  +--> _LIBPUB_WRITEDATATOE2PROM/LIBPUBLIC
  +--> _LIBPUB_CRC16_CCITT/LIBPUBLIC
  +--> _DRVE2P_WRITEDATA/IICDRV

_PREPAYMENTMODULE_COMM_MODIFYKEY/APPVIRT+     0638H 064AH
... UALESAM
  +--> _LIBPUB_INVERSE/LIBPUBLIC
  +--> _LIBPUB_MEMCOPYBYTES/LIBPUBLIC
  +--> _TRIPLEDES_DEORENCRYPTION/TRIPLEDES
  +--> _LIBPUB_COMPAREDATA/LIBPUBLIC
  +--> _PREPAYMENTMODULE_COMMWRITEESAMBINARYMAC/APPVIRTUALESAM
  +--> _LIBPUB_WRITEDATATOE2PROM/LIBPUBLIC
  +--> _LIBPUB_CRC16_CCITT/LIBPUBLIC

_PREPAYMENTMODULE_COMM_INTAUTH_INVALIDAT+     0638H 063AH
... ION/APPVIRTUALESAM
  +--> _LIBPUB_MEMEXCHANGEBYTES/LIBPUBLIC
  +--> PREPAYMENTMODULE_INVALIDATION/APPVIRTUALESAM

_APIDLT645_READMETERADDRESS/APPDLT645         062CH 062CH
  +--> _LIBPUB_MEMEXCHANGEBYTES/LIBPUBLIC

_APIDLT645_WRITEMETERADDRESS/APPDLT645        062CH 062DH
  +--> _LIBPUB_ISBCD/LIBPUBLIC
  +--> _LIBPUB_READDATAFROME2PROM/LIBPUBLIC
  +--> _LIBPUB_MEMEXCHANGEBYTES/LIBPUBLIC
  +--> _LIBPUB_WRITEDATATOE2PROM/LIBPUBLIC

_APIDLT645_READEMUREG/APPDLT645               062CH 062DH
  +--> _APIMS_CALIBRATIONMETERCOMM/APPMEASURE

_APIMS_CALIBRATIONMETERCOMM/APPMEASURE        062EH 0638H
  +--> _APPEMU_TRIPREADEMUREG/APPEMUATT7036
  +--> _LIBPUB_MEMEXCHANGEBYTES/LIBPUBLIC
  +--> _APPEMU_WRITEONEREG_METERIC/APPEMUATT7036
  +--> _APIEMU_COMMSTARTCAL/APPEMUATT7036
  +--> _APPEMU_TRIPCOMMSETREG/APPEMUATT7036
  +--> _APIEMU_COMMENDCAL/APPEMUATT7036
  +--> _APIEMU_COMMERRCAL/APPEMUATT7036

LX51 LINKER/LOCATER V4.66.41.0                                                        11/18/2021  18:54:16  PAGE 22


_APPEMU_TRIPREADEMUREG/APPEMUATT7036          0639H 0641H
  +--> ?CO?APPEMUATT7036
  +--> _APPEMU_READONEREG_METERIC/APPEMUATT7036
  +--> _LIBPUB_MEMEXCHANGEBYTES/LIBPUBLIC

_APIEMU_COMMSTARTCAL/APPEMUATT7036            0639H 0640H
  +--> _LIBPUB_MEMSETBYTES/LIBPUBLIC
  +--> APPEMU_CLEARCALREG_METERIC/APPEMUATT7036
  +--> ?CO?APPEMUATT7036
  +--> _LIBPUB_ULONG32TOBUFFER4/LIBPUBLIC
  +--> _APPEMU_WRITEONEREG_METERIC/APPEMUATT7036
  +--> _HAL_ERASEFLASHSECTOR/INTERNALE2DRV
  +--> _HAL_WRITEEEPROM/INTERNALE2DRV

_APPEMU_TRIPCOMMSETREG/APPEMUATT7036          0639H 063DH
  +--> _APPEMU_WRITEREGTOEE/APPEMUATT7036
  +--> _APPEMU_WRITEONEREG_METERIC/APPEMUATT7036

_APPEMU_WRITEREGTOEE/APPEMUATT7036            064AH 0652H
  +--> ?CO?APPEMUATT7036
  +--> _LIBPUB_ULONG32TOBUFFER4/LIBPUBLIC
  +--> _LIBPUB_MEMCOPYBYTES/LIBPUBLIC
  +--> _HAL_READEEPROM/INTERNALE2DRV
  +--> _LIBPUB_CRC16_CCITT/LIBPUBLIC
  +--> _HAL_ERASEFLASHSECTOR/INTERNALE2DRV
  +--> _HAL_WRITEEEPROM/INTERNALE2DRV

_APIEMU_COMMENDCAL/APPEMUATT7036              0639H 063AH
  +--> APPEMU_CLEARENERGYDATA_METERIC/APPEMUATT7036

APPEMU_CLEARENERGYDATA_METERIC/APPEMUATT+     063BH 063EH
... 7036
  +--> _APPEMU_READONEREG_METERIC/APPEMUATT7036

_APIEMU_COMMERRCAL/APPEMUATT7036              0639H 0649H
  +--> _LIBPUB_MEMEXCHANGEBYTES/LIBPUBLIC
  +--> ?CO?APPEMUATT7036
  +--> _APPEMU_WRITEREGTOEE/APPEMUATT7036
  +--> _APPEMU_WRITEONEREG_METERIC/APPEMUATT7036

_APIDLT645_WRITEEMUREG/APPDLT645              062CH 062DH
  +--> _APIMS_CALIBRATIONMETERCOMM/APPMEASURE

_APIDLT645_RELAYCONTROL/APPDLT645             062CH 062EH
  +--> _LIBPUB_INVERSE/LIBPUBLIC
  +--> _PREPAYMENTMODULE_DATADECRIPTION/APPVIRTUALESAM
  +--> _LIBPUB_CHECKPASSWORD/LIBPUBLIC
  +--> APIRELAY_CONTROLPROCESS/APPRELAYCONTROL
  +--> _LIBPUB_WRITEDATATOE2PROM/LIBPUBLIC

_PREPAYMENTMODULE_DATADECRIPTION/APPVIRT+     0675H 067DH
... UALESAM
  +--> _PREPAYMENTMODULE_COMMWRITEESAMBINARYMAC/APPVIRTUALESAM
  +--> _LIBPUB_MEMCOPYBYTES/LIBPUBLIC
  +--> _PREPAYMENTMODULE_GETWORKKEY/APPVIRTUALESAM
  +--> _TRIPLEDES_DEORENCRYPTION/TRIPLEDES

_LIBPUB_CHECKPASSWORD/LIBPUBLIC               0675H 0683H
  +--> _LIBPUB_READDATAFROME2PROM/LIBPUBLIC

_APIDLT645_FACTORYCOMMAND/APPDLT645           062CH 0638H
  +--> _LIBPUB_MEMCOPYBYTES/LIBPUBLIC
  +--> _DRVE2P_READDATA/IICDRV
  +--> _LIBPUB_MEMSETBYTES/LIBPUBLIC
  +--> _HAL_READEEPROM/INTERNALE2DRV
LX51 LINKER/LOCATER V4.66.41.0                                                        11/18/2021  18:54:16  PAGE 23


  +--> _LIBPUB_MEMEXCHANGEBYTES/LIBPUBLIC
  +--> _LIBPUB_WRITEDATATOE2PROM/LIBPUBLIC
  +--> _LIBPUB_READDATAFROME2PROM/LIBPUBLIC
  +--> _LIBPUB_CRC16_CCITT/LIBPUBLIC
  +--> _BLEDRV_GETBLEMAC/BLEDRV
  +--> _LIBPUB_INVERSE/LIBPUBLIC
  +--> _BLEDRV_GETBLENAME/BLEDRV
  +--> _BLEDRV_GETBLETPL/BLEDRV
  +--> _BLEDRV_SETBLETPL/BLEDRV
  +--> _BLEDRV_COMMSETBLEPARA/BLEDRV
  +--> _BLEDRV_COMMGETBLEPARA/BLEDRV
  +--> APIPWON_METERINITINFACTORY/APPPOWERON

_BLEDRV_GETBLEMAC/BLEDRV                      ----- -----
  +--> _BLEDRV_GETBLEPARA/BLEDRV

_BLEDRV_GETBLEPARA/BLEDRV                     0675H 06DEH
  +--> ?CO?BLEDRV
  +--> _BLEDRV_BLECOMM/BLEDRV
  +--> _LIBPUB_MEMCOPYBYTES/LIBPUBLIC

?CO?BLEDRV                                    ----- -----

_BLEDRV_BLECOMM/BLEDRV                        0704H 077CH
  +--> ?CO?BLEDRV
  +--> BLEDRV_GETBLEUARTSTA/BLEDRV
  +--> _LIBPUB_MEMSETBYTES/LIBPUBLIC
  +--> _LIBPUB_MEMCOPYBYTES/LIBPUBLIC
  +--> _LIBPUB_CALSUM/LIBPUBLIC
  +--> _APIPWON_UART_SENDEN/APPPOWERON
  +--> LIBPUB_DELAY2US/LIBPUBLIC

BLEDRV_GETBLEUARTSTA/BLEDRV                   ----- -----

_APIPWON_UART_SENDEN/APPPOWERON               077DH 077DH
  +--> _APIPWON_MCUUARTXSETBPS/APPPOWERON

_BLEDRV_GETBLENAME/BLEDRV                     0639H 0655H
  +--> ?CO?BLEDRV
  +--> _BLEDRV_GETBLEPARA/BLEDRV
  +--> _LIBPUB_MEMCOPYBYTES/LIBPUBLIC

_BLEDRV_GETBLETPL/BLEDRV                      ----- -----
  +--> _BLEDRV_GETBLEPARA/BLEDRV

_BLEDRV_SETBLETPL/BLEDRV                      068EH 0696H
  +--> ?CO?BLEDRV
  +--> _LIBPUB_MEMCOPYBYTES/LIBPUBLIC
  +--> _BLEDRV_SETBLEPARA/BLEDRV

_BLEDRV_SETBLEPARA/BLEDRV                     0697H 0703H
  +--> ?CO?BLEDRV
  +--> _LIBPUB_MEMCOPYBYTES/LIBPUBLIC
  +--> _BLEDRV_BLECOMM/BLEDRV

_BLEDRV_COMMSETBLEPARA/BLEDRV                 0639H 0660H
  +--> ?CO?BLEDRV
  +--> _LIBPUB_MEMCOPYBYTES/LIBPUBLIC
  +--> _BLEDRV_SETBLEPARA/BLEDRV

_BLEDRV_COMMGETBLEPARA/BLEDRV                 ----- -----
  +--> _BLEDRV_GETBLEPARA/BLEDRV

APIPWON_METERINITINFACTORY/APPPOWERON         0639H 0648H
  +--> ?CO?APPPOWERON
LX51 LINKER/LOCATER V4.66.41.0                                                        11/18/2021  18:54:16  PAGE 24


  +--> APIPWON_METERCLEAR/APPPOWERON
  +--> _LIBPUB_READDATAFROME2PROM/LIBPUBLIC
  +--> _LIBPUB_MEMSETBYTES/LIBPUBLIC
  +--> _LIBPUB_WRITEDATATOE2PROM/LIBPUBLIC
  +--> BLEDRV_INITBLERUNPARA/BLEDRV
  +--> _BLEDRV_SETBLETPL/BLEDRV
  +--> _LIBPUB_CRC16_CCITT/LIBPUBLIC
  +--> _LIBPUB_MEMCOPYBYTES/LIBPUBLIC
  +--> PREPAYMENTMODULE_COMM_CLRMACERRNUM/APPVIRTUALESAM
  +--> APIRELAY_SUBTRACTMONEYRELAYJUDGE/APPRELAYCONTROL
  +--> APIRELAY_CONTROLPROCESS/APPRELAYCONTROL

BLEDRV_INITBLERUNPARA/BLEDRV                  ----- -----
  +--> _LIBPUB_MEMCOPYBYTES/LIBPUBLIC
  +--> _LIBPUB_HEXTOASCII/LIBPUBLIC
  +--> BLEDRV_SETBLERUNPARA/BLEDRV
  +--> _LIBPUB_WRITEDATATOE2PROM/LIBPUBLIC

_LIBPUB_HEXTOASCII/LIBPUBLIC                  06B7H 06C0H
  +--> _LIBPUB_MEMCOPYBYTES/LIBPUBLIC

BLEDRV_SETBLERUNPARA/BLEDRV                   0675H 068DH
  +--> ?CO?BLEDRV
  +--> _LIBPUB_MEMEXCHANGEBYTES/LIBPUBLIC
  +--> _LIBPUB_MEMCOPYBYTES/LIBPUBLIC
  +--> _BLEDRV_SETBLEMAC/BLEDRV
  +--> _BLEDRV_SETBLETPL/BLEDRV
  +--> BLEDRV_SETBLESTAT/BLEDRV

_BLEDRV_SETBLEMAC/BLEDRV                      ----- -----
  +--> _BLEDRV_SETBLEPARA/BLEDRV

BLEDRV_SETBLESTAT/BLEDRV                      068EH 06B6H
  +--> ?CO?BLEDRV
  +--> _LIBPUB_MEMCOPYBYTES/LIBPUBLIC
  +--> _LIBPUB_HEXTOASCII/LIBPUBLIC
  +--> _BLEDRV_BLECOMM/BLEDRV

_APIDLT645_READDATA07/APPDLT645               062CH 0682H
  +--> _APIGET_LCD_NUM/APPDISPLAY
  +--> _LIBPUB_1HEX_2_1BCD/LIBPUBLIC
  +--> _LIBPUB_MEMEXCHANGEBYTES/LIBPUBLIC
  +--> APIDLT645_GETSTATUSFLAG3/APPDLT645
  +--> _HAL_READEEPROM/INTERNALE2DRV
  +--> _LIBPUB_INVERSE/LIBPUBLIC
  +--> _PREPAYMENTMODULE_GETCHALLENGE/APPVIRTUALESAM
  +--> _LIBPUB_MEMSETBYTES/LIBPUBLIC
  +--> LIBPUB_GETTIMERBEAT/LIBPUBLIC
  +--> _LIBPUB_MEMCOPYBYTES/LIBPUBLIC
  +--> _READEVENTRECORDDATA/APPEVENT
  +--> _LIBPUB_READDATAFROME2PROM/LIBPUBLIC
  +--> ?CO?APPDLT645
  +--> _APIGET_LCD_ID/APPDISPLAY

_APIGET_LCD_NUM/APPDISPLAY                    0683H 0689H
  +--> ?CO?APPDISPLAY

?CO?APPDISPLAY                                ----- -----

APIDLT645_GETSTATUSFLAG3/APPDLT645            ----- -----

_READEVENTRECORDDATA/APPEVENT                 0683H 089CH
  +--> APIPWON_EVENTPOINTCHECK/APPPOWERON
  +--> ?CO?APPEVENT
  +--> _LIBPUB_MEMEXCHANGEBYTES/LIBPUBLIC
LX51 LINKER/LOCATER V4.66.41.0                                                        11/18/2021  18:54:16  PAGE 25


  +--> _LIBPUB_BUFFER4TOULONG32/LIBPUBLIC
  +--> _LIBPUB_MEMSETBYTES/LIBPUBLIC
  +--> _HAL_READEEPROM/INTERNALE2DRV
  +--> _LIBPUB_MEMCOPYBYTES/LIBPUBLIC

_APIGET_LCD_ID/APPDISPLAY                     0683H 0686H
  +--> ?CO?APPDISPLAY

_APIDLT645_WRITEDATA/APPDLT645                062CH 0674H
  +--> _MULTIDATAWRITE_DEAL/APPDLT645
  +--> _LIBPUB_ISBCD/LIBPUBLIC
  +--> _LIBPUB_INVERSE/LIBPUBLIC
  +--> _PREPAYMENTMODULE_COMMWRITEESAMBINARYMAC/APPVIRTUALESAM
  +--> _PREPAYMENTMODULE_DATADECRIPTION/APPVIRTUALESAM
  +--> _PREPAYMENTMODULE_COMM_HANDBACKMONEY/APPVIRTUALESAM
  +--> _LIBPUB_MEMEXCHANGEBYTES/LIBPUBLIC
  +--> APIDLT645_GETSTATUSFLAG3/APPDLT645
  +--> _LIBPUB_MEMCOPYBYTES/LIBPUBLIC
  +--> _LIBPUB_CHECKPASSWORD/LIBPUBLIC
  +--> _LIBPUB_READDATAFROME2PROM/LIBPUBLIC
  +--> ?CO?APPDLT645
  +--> _APIGET_LCD_NUM/APPDISPLAY
  +--> _LIBPUB_WRITEDATATOE2PROM/LIBPUBLIC
  +--> _LIBPUB_1BCD_2_1HEX/LIBPUBLIC
  +--> _LIBPUB_COMPAREDATA/LIBPUBLIC
  +--> APIRELAY_SUBTRACTMONEYRELAYJUDGE/APPRELAYCONTROL
  +--> APIRELAY_CONTROLPROCESS/APPRELAYCONTROL

_MULTIDATAWRITE_DEAL/APPDLT645                0675H 0725H
  +--> ?CO?APPDLT645
  +--> _LIBPUB_ISBCD/LIBPUBLIC
  +--> _LIBPUB_MEMEXCHANGEBYTES/LIBPUBLIC
  +--> _LIBPUB_COMPAREDATA/LIBPUBLIC
  +--> _LIBPUB_MEMCOPYBYTES/LIBPUBLIC
  +--> _PREPAYMENTMODULE_COMM_OPENACCOUT/APPVIRTUALESAM
  +--> _LIBPUB_INVERSE/LIBPUBLIC
  +--> _PREPAYMENTMODULE_COMMWRITEESAMBINARYMAC/APPVIRTUALESAM
  +--> _LIBPUB_READDATAFROME2PROM/LIBPUBLIC
  +--> _LIBPUB_WRITEDATATOE2PROM/LIBPUBLIC
  +--> APIDLT645_GETSTATUSFLAG3/APPDLT645

_PREPAYMENTMODULE_COMM_HANDBACKMONEY/APP+     0675H 067FH
... VIRTUALESAM
  +--> _LIBPUB_INVERSE/LIBPUBLIC
  +--> _LIBPUB_BUFFER4TOULONG32/LIBPUBLIC
  +--> _LIBPUB_MEMCOPYBYTES/LIBPUBLIC
  +--> _LIBPUB_NBYTESBCDSUB/LIBPUBLIC
  +--> _LIBPUB_CRC16_CCITT/LIBPUBLIC
  +--> _LIBPUB_WRITEDATATOE2PROM/LIBPUBLIC
  +--> _APIEVENT_WRITERECORD/APPEVENT
  +--> APIRELAY_SUBTRACTMONEYRELAYJUDGE/APPRELAYCONTROL
  +--> APIRELAY_CONTROLPROCESS/APPRELAYCONTROL

_APIDLT645_METERCLEAR/APPDLT645               062CH 062CH
  +--> _LIBPUB_CHECKPASSWORD/LIBPUBLIC
  +--> APIPWON_METERCLEAR/APPPOWERON
  +--> APIRELAY_SUBTRACTMONEYRELAYJUDGE/APPRELAYCONTROL
  +--> APIRELAY_CONTROLPROCESS/APPRELAYCONTROL

_APIDLT645_MODIFYPSW/APPDLT645                062CH 063CH
  +--> ?CO?APPDLT645
  +--> _LIBPUB_CHECKPASSWORD/LIBPUBLIC
  +--> _LIBPUB_READDATAFROME2PROM/LIBPUBLIC
  +--> _LIBPUB_MEMCOPYBYTES/LIBPUBLIC
  +--> _LIBPUB_WRITEDATATOE2PROM/LIBPUBLIC
LX51 LINKER/LOCATER V4.66.41.0                                                        11/18/2021  18:54:16  PAGE 26



_APIDLT645_ACCOUNTTX/APPDLT645                062CH 065AH
  +--> _LIBPUB_MEMCOPYBYTES/LIBPUBLIC
  +--> _PREPAYMENTMODULE_COMM_INTAUTH/APPVIRTUALESAM
  +--> _HAL_READEEPROM/INTERNALE2DRV
  +--> _LIBPUB_INVERSE/LIBPUBLIC
  +--> _LIBPUB_MEMEXCHANGEBYTES/LIBPUBLIC
  +--> APIDLT645_GETSTATUSFLAG3/APPDLT645
  +--> LIBPUB_GETTIMERBEAT/LIBPUBLIC
  +--> _PREPAYMENTMODULE_COMM_OPENACCOUT/APPVIRTUALESAM

APIPWOFF_POWEROFFTASK/APPPOWEROFF             060EH 060EH
  +--> APIPWOFF_CLOSEDEVICES/APPPOWEROFF
  +--> APIPWOFF_DATASAVE/APPPOWEROFF
  +--> _LIBPUB_DELAYNMS/LIBPUBLIC
  +--> APIPWON_POWERCHK/APPPOWERON
  +--> APIPWOFF_ENTERSLEEP/APPPOWEROFF
  +--> APIPWON_SYSTEMINIT/APPPOWERON

APIPWOFF_CLOSEDEVICES/APPPOWEROFF             ----- -----
  +--> APIPWOFF_BLEPOWERINIT/APPPOWEROFF
  +--> APIPWOFF_MCUTIMERINIT/APPPOWEROFF
  +--> APIPWOFF_MCUUARTINIT/APPPOWEROFF
  +--> APIPWOFF_EMUINIT/APPPOWEROFF
  +--> APIPWOFF_MCUDISPINIT/APPPOWEROFF

APIPWOFF_BLEPOWERINIT/APPPOWEROFF             ----- -----

APIPWOFF_MCUTIMERINIT/APPPOWEROFF             ----- -----

APIPWOFF_MCUUARTINIT/APPPOWEROFF              ----- -----

APIPWOFF_EMUINIT/APPPOWEROFF                  ----- -----
  +--> _APIMS_DISORENABLE/APPMEASURE

_APIMS_DISORENABLE/APPMEASURE                 ----- -----
  +--> _APIEMU_DISORENABLE/APPEMUATT7036

_APIEMU_DISORENABLE/APPEMUATT7036             ----- -----
  +--> SPIDRV_EABLE_METERIC/SPIDRV
  +--> SPIDRV_DISABLE_METERIC/SPIDRV

APIPWOFF_MCUDISPINIT/APPPOWEROFF              ----- -----
  +--> _LCDDRV_INIT/LCDDRV

APIPWOFF_DATASAVE/APPPOWEROFF                 060FH 0612H
  +--> _LIBPUB_CRC16_CCITT/LIBPUBLIC
  +--> _DRVE2P_WRITEDATA/IICDRV
  +--> _LIBPUB_WRITEDATATOE2PROM/LIBPUBLIC

APIPWOFF_ENTERSLEEP/APPPOWEROFF               ----- -----
  +--> APIPWOFF_PERIPHERALINIT/APPPOWEROFF
  +--> APIPWOFF_CLOSEDEVICES/APPPOWEROFF
  +--> APIPWOFF_DATAPROCESS/APPPOWEROFF
  +--> APIPWOFF_MCULPDINIT/APPPOWEROFF
  +--> APIPWOFF_DISPLAY/APPPOWEROFF
  +--> APIPWOFF_SYSCLKINIT/APPPOWEROFF
  +--> APIPWOFF_MCUENTERSLEEP/APPPOWEROFF

APIPWOFF_PERIPHERALINIT/APPPOWEROFF           ----- -----
  +--> APIPWOFF_MCUGPIOINIT/APPPOWEROFF

APIPWOFF_MCUGPIOINIT/APPPOWEROFF              ----- -----

APIPWOFF_DATAPROCESS/APPPOWEROFF              ----- -----
LX51 LINKER/LOCATER V4.66.41.0                                                        11/18/2021  18:54:16  PAGE 27



APIPWOFF_MCULPDINIT/APPPOWEROFF               ----- -----

APIPWOFF_DISPLAY/APPPOWEROFF                  ----- -----

APIPWOFF_SYSCLKINIT/APPPOWEROFF               ----- -----

APIPWOFF_MCUENTERSLEEP/APPPOWEROFF            ----- -----

APIDISP_DISPLAYTASK/APPDISPLAY                060EH 060EH
  +--> LIBPUB_GETTIMERBEAT/LIBPUBLIC
  +--> _LIBPUB_GETDIFFTIME/LIBPUBLIC
  +--> _LCDDRV_SETLCDBUFF/LCDDRV
  +--> _APIDISP_CONST/APPDISPLAY
  +--> APIDISP_DYNAMIC/APPDISPLAY
  +--> LCDDRV_DISPRAMUPDATA/LCDDRV

_APIDISP_CONST/APPDISPLAY                     060FH 0610H
  +--> _LIBPUB_MEMSETBYTES/LIBPUBLIC
  +--> _APIDISPLAY_NUMDATA/APPDISPLAY
  +--> ?CO?APPDISPLAY
  +--> _APIDISP_SHOWNUM/APPDISPLAY

_APIDISPLAY_NUMDATA/APPDISPLAY                061AH 061CH
  +--> ?CO?APPDISPLAY

_APIDISP_SHOWNUM/APPDISPLAY                   0611H 0619H
  +--> _APIDISPLAY_NUMDATA/APPDISPLAY

APIDISP_DYNAMIC/APPDISPLAY                    ----- -----
  +--> LIBPUB_GETTIMERBEAT/LIBPUBLIC
  +--> _LIBPUB_GETDIFFTIME/LIBPUBLIC

APIMNTR_MONITORTASK/APPMONITOR                060EH 060EH
  +--> APIMNTR_PERIPHERALMONITOR/APPMONITOR
  +--> APIPWON_SYSCLKINIT/APPPOWERON
  +--> APIPWON_MCUTIMERINIT/APPPOWERON
  +--> LIBPUB_GETTIMERBEAT/LIBPUBLIC
  +--> _LIBPUB_GETDIFFTIME/LIBPUBLIC
  +--> APIPWON_BLEINIT/APPPOWERON
  +--> APIDISP_LCDLEDCONTROL/APPDISPLAY
  +--> APIRELAY_CONTROLPROCESS/APPRELAYCONTROL
  +--> API_POWERLOADLIMITEDCHECK/APPRELAYCONTROL
  +--> BLEDRV_BLERESET/BLEDRV
  +--> BLEDRV_INITBLERUNPARA/BLEDRV
  +--> BLEDRV_SETBLESTAT/BLEDRV
  +--> _PREPAYMENTMODULE_GETCHALLENGE/APPVIRTUALESAM
  +--> _LIBPUB_MEMSETBYTES/LIBPUBLIC
  +--> APIPWON_EMUPARACHECK/APPPOWERON
  +--> APIPWON_METERINFOPARACHECK/APPPOWERON
  +--> APIPWON_DISPLAYPARACHECK/APPPOWERON
  +--> APIPWON_MONEYPARACHECK/APPPOWERON
  +--> APIMONEY_REFRESHPRICE/APPMONEY
  +--> APIPWON_FUNCONFIGPARACHECK/APPPOWERON
  +--> APIPWON_KEYSTATUSCHECK/APPPOWERON
  +--> APIPWON_BLEPARACHK/APPPOWERON
  +--> APIPWON_EVENTPOINTCHECK/APPPOWERON
  +--> APIMONEY_TIMEINGHOLDMONEY/APPMONEY
  +--> PREPAYMENTMODULE_COMM_CLRMACERRNUM/APPVIRTUALESAM
  +--> _LIBPUB_WRITEDATATOE2PROM/LIBPUBLIC
  +--> RELAYDRV_CLOSERELAY/RELAYDRV

APIMNTR_PERIPHERALMONITOR/APPMONITOR          ----- -----
  +--> LIBPUB_GETTIMERBEAT/LIBPUBLIC
  +--> _LIBPUB_GETDIFFTIME/LIBPUBLIC
LX51 LINKER/LOCATER V4.66.41.0                                                        11/18/2021  18:54:16  PAGE 28


  +--> DRVKEY_FACTORYKEYMONITOR/KEYDRV
  +--> DRVKEY_DISPLAYKEYMONITOR/KEYDRV
  +--> RELAYDRV_DELAYTIMEMONITOR/RELAYDRV
  +--> DRVKEY_DISPLAYKEYINIT/KEYDRV
  +--> _LIBPUB_MEMSETBYTES/LIBPUBLIC
  +--> APIRELAY_CONTROLPROCESS/APPRELAYCONTROL
  +--> _LIBPUB_WRITEDATATOE2PROM/LIBPUBLIC

DRVKEY_FACTORYKEYMONITOR/KEYDRV               ----- -----
  +--> DRVKEY_FACTORYKEYINIT/KEYDRV

DRVKEY_FACTORYKEYINIT/KEYDRV                  ----- -----

DRVKEY_DISPLAYKEYMONITOR/KEYDRV               ----- -----
  +--> DRVKEY_DISPLAYKEYINIT/KEYDRV

DRVKEY_DISPLAYKEYINIT/KEYDRV                  ----- -----

RELAYDRV_DELAYTIMEMONITOR/RELAYDRV            ----- -----
  +--> RELAYDRV_RELAYNORMAL/RELAYDRV
  +--> RELAYDRV_CLOSERELAY/RELAYDRV

RELAYDRV_RELAYNORMAL/RELAYDRV                 ----- -----

APIPWON_BLEINIT/APPPOWERON                    ----- -----
  +--> BLEDRV_INITPWN/BLEDRV

BLEDRV_INITPWN/BLEDRV                         ----- -----
  +--> _BLEDRV_BLEPARACHK/BLEDRV
  +--> BLEDRV_SETBLERUNPARA/BLEDRV
  +--> BLEDRV_BLESTATUCHK/BLEDRV

_BLEDRV_BLEPARACHK/BLEDRV                     060FH 0610H
  +--> _LIBPUB_CRCCHECK/LIBPUBLIC
  +--> _LIBPUB_READDATAFROME2PROM/LIBPUBLIC
  +--> BLEDRV_BLERESET/BLEDRV
  +--> BLEDRV_INITBLERUNPARA/BLEDRV
  +--> BLEDRV_SETBLESTAT/BLEDRV

BLEDRV_BLERESET/BLEDRV                        ----- -----
  +--> _LIBPUB_DELAYNMS/LIBPUBLIC

BLEDRV_BLESTATUCHK/BLEDRV                     060FH 0674H
  +--> ?CO?BLEDRV
  +--> BLEDRV_GETBLESTAT/BLEDRV
  +--> BLEDRV_SETBLERUNPARA/BLEDRV
  +--> _BLEDRV_GETBLEPARA/BLEDRV
  +--> BLEDRV_BLERESET/BLEDRV
  +--> BLEDRV_INITBLERUNPARA/BLEDRV
  +--> BLEDRV_SETBLESTAT/BLEDRV

BLEDRV_GETBLESTAT/BLEDRV                      ----- -----

APIDISP_LCDLEDCONTROL/APPDISPLAY              ----- -----

API_POWERLOADLIMITEDCHECK/APPRELAYCONTRO+     060FH 0616H
... L
  +--> _LIBPUB_ZEROCHECK/LIBPUBLIC
  +--> _LIBPUB_MEMCOPYBYTES/LIBPUBLIC
  +--> _LIBPUB_DECTOHEXBYTES/LIBPUBLIC
  +--> APIRELAY_CONTROLPROCESS/APPRELAYCONTROL
  +--> LIBPUB_GETTIMERBEAT/LIBPUBLIC

APIPWON_BLEPARACHK/APPPOWERON                 ----- -----
  +--> _BLEDRV_BLEPARACHK/BLEDRV
LX51 LINKER/LOCATER V4.66.41.0                                                        11/18/2021  18:54:16  PAGE 29


  +--> BLEDRV_GETBLEUARTSTA/BLEDRV
  +--> BLEDRV_BLESTATUCHK/BLEDRV

APIMONEY_TIMEINGHOLDMONEY/APPMONEY            060FH 061EH
  +--> _LIBPUB_CRC16_CCITT/LIBPUBLIC
  +--> _LIBPUB_MEMCOPYBYTES/LIBPUBLIC
  +--> _DRVE2P_WRITEDATA/IICDRV

?C_INITSEG                                    ----- -----



INTERBANK CALL TABLE OF MODULE:  DTSY666-2019 (APPCOMM)

ADDRESS     FUNCTION NAME
-------------------------
C:00018CH   ApiComm_CommTask
C:000191H   _ApiComm_CommParaInit
C:000196H   _ApiDLT645_UARTReceiveDataJudge0
C:00019BH   _ApiDLT645_UARTReceiveDataJudge1
C:0001A0H   PrepaymentModule_Comm_ClrMACErrNum
C:0001A5H   _PrepaymentModule_GetChallenge
C:0001AAH   APiDisp_LcdledControl
C:0001AFH   ApiDisp_DisplayTask
C:0001B4H   ApiMntr_MonitorTask
C:0001B9H   ApiPwOn_SysTemInit
C:0001BEH   ApiPwOn_McuReset
C:0001C3H   _ApiPwOn_McuUartXInit
C:0001C8H   _ApiPwOn_UART_SendEn
C:0001CDH   ApiPwOn_MeterInitInFactory
C:0001D2H   ApiPwOn_MeterClear
C:0001D7H   ApiPwOff_PowerOffTask
C:0001DCH   ApiMS_MeasureTask
C:0001E1H   _ApiMS_CalibrationMeterComm
C:0001E6H   ApiRelay_ControlProcess
C:0001EBH   ApiRelay_SubtractMoneyRelayJudge
C:0001F0H   _ApiEvent_WriteRecord
C:0001F5H   _ReadEventRecordData



PUBLIC SYMBOLS OF MODULE:  DTSY666-2019 (APPCOMM)


      VALUE       CLASS    TYPE      PUBLIC SYMBOL NAME
      =================================================
      02000683H   XDATA    BYTE      ?_ApiGet_Lcd_Num?BYTE
      020006B5H   XDATA    BYTE      ?_AppEMU_ReadOneReg_MeterIC?BYTE
      02000772H   XDATA    BYTE      ?_Data_MAC?BYTE
      02000786H   XDATA    BYTE      ?_DES_DeOrEncryption?BYTE
      0200079FH   XDATA    BYTE      ?_DES_F?BYTE
      020007B2H   XDATA    BYTE      ?_DES_Transposition?BYTE
      02000DA7H   XDATA    BYTE      ?_DrvE2p_ReadData?BYTE
      02000DB2H   XDATA    BYTE      ?_DrvE2p_WriteData?BYTE
      0200098BH   XDATA    BYTE      ?_Hal_ReadEEPROM?BYTE
      0200098BH   XDATA    BYTE      ?_Hal_WriteEEPROM?BYTE
      0200098BH   XDATA    BYTE      ?_LibPub_CompareData?BYTE
      02000663H   XDATA    BYTE      ?_LibPub_CompareNBufs?BYTE
      0200098BH   XDATA    BYTE      ?_LibPub_CrcCheck?BYTE
      02000615H   XDATA    BYTE      ?_LibPub_GetDiffTime?BYTE
      020006B7H   XDATA    BYTE      ?_LibPub_HEXtoAscii?BYTE
      02000786H   XDATA    BYTE      ?_LibPub_HEXtoBCDBytes?BYTE
      020009D6H   XDATA    BYTE      ?_LibPub_MemCopyBytes?BYTE
      0200098BH   XDATA    BYTE      ?_LibPub_MemExchangeBytes?BYTE
      02000990H   XDATA    BYTE      ?_LibPub_MemSetBytes?BYTE
LX51 LINKER/LOCATER V4.66.41.0                                                        11/18/2021  18:54:16  PAGE 30


      02000990H   XDATA    BYTE      ?_LibPub_NBtyesBcdAdd?BYTE
      02000786H   XDATA    BYTE      ?_LibPub_NBytesBCDSub?BYTE
      0200076BH   XDATA    BYTE      ?_PrepaymentModule_CommWriteESAMBinaryMAC?BYTE
      02000675H   XDATA    BYTE      ?_PrepaymentModule_DataDecription?BYTE
      02000683H   XDATA    BYTE      ?_ReadEventRecordData?BYTE
      0200077FH   XDATA    BYTE      ?_TripleDES_DeOrEncryption?BYTE
      01000100H   CODE     ---       ?B_BANK0
      01000123H   CODE     ---       ?B_BANK1
      01000146H   CODE     ---       ?B_BANK2
      01000169H   CODE     ---       ?B_BANK3
      00000008H   DATA     ---       ?B_CURRENTBANK
      00000000H   NUMBER   ---       ?B_FACTOR
      00000003H   NUMBER   ---       ?B_MASK
      00000004H   NUMBER   ---       ?B_MODE
      00000004H   NUMBER   ---       ?B_NBANKS
      000000FFH   NUMBER   ---       ?B_RST_BANK
      0100010AH   CODE     ---       ?B_SWITCH0
      0100012DH   CODE     ---       ?B_SWITCH1
      01000150H   CODE     ---       ?B_SWITCH2
      01000173H   CODE     ---       ?B_SWITCH3
      010003DFH   CODE     ---       ?C?CASTF
      0100087FH   CODE     ---       ?C?CCASE
      0100059CH   CODE     ---       ?C?CILDOPTR
      0100056FH   CODE     ---       ?C?CLDOPTR
      01000556H   CODE     ---       ?C?CLDPTR
      00000000H   NUMBER   ---       ?C?CODESEG
      01000530H   CODE     ---       ?C?COPY
      010005E1H   CODE     ---       ?C?CSTOPTR
      010005CFH   CODE     ---       ?C?CSTPTR
      010003ABH   CODE     ---       ?C?FCASTC
      010003A6H   CODE     ---       ?C?FCASTI
      010003A1H   CODE     ---       ?C?FCASTL
      01000304H   CODE     ---       ?C?FPDIV
      01000416H   CODE     ---       ?C?FPGETOPN2
      010001FBH   CODE     ---       ?C?FPMUL
      0100044BH   CODE     ---       ?C?FPNANRESULT
      01000455H   CODE     ---       ?C?FPOVERFLOW
      0100042DH   CODE     ---       ?C?FPRESULT
      01000441H   CODE     ---       ?C?FPRESULT2
      01000452H   CODE     ---       ?C?FPUNDERFLOW
      0100066AH   CODE     ---       ?C?IILDX
      01000680H   CODE     ---       ?C?ILDIX
      01000603H   CODE     ---       ?C?IMUL
      010008A5H   CODE     ---       ?C?LCASE
      01000832H   CODE     ---       ?C?LLDCODE
      010008DFH   CODE     ---       ?C?LLDIDATA
      010008F7H   CODE     ---       ?C?LLDPDATA
      010007F8H   CODE     ---       ?C?LLDPTR
      010008EBH   CODE     ---       ?C?LLDXDATA
      01000696H   CODE     ---       ?C?LMUL
      010007B3H   CODE     ---       ?C?LNEG
      010007E5H   CODE     ---       ?C?LSHL
      01000903H   CODE     ---       ?C?LSTIDATA
      0100084EH   CODE     ---       ?C?LSTKXDATA
      0100090FH   CODE     ---       ?C?LSTPDATA
      01000818H   CODE     ---       ?C?LSTPTR
      01000842H   CODE     ---       ?C?LSTXDATA
      01000615H   CODE     ---       ?C?UIDIV
      010007C1H   CODE     ---       ?C?ULCMP
      01000721H   CODE     ---       ?C?ULDIV
      010007D2H   CODE     ---       ?C?ULSHR
      00000000H   NUMBER   ---       ?C?XDATASEG
      01000AA8H   CODE     ---       ?C_START
      01000000H   CODE     ---       ?C_STARTUP
      02000DC4H   XDATA    ---       ?SRAND?BYTE
LX51 LINKER/LOCATER V4.66.41.0                                                        11/18/2021  18:54:16  PAGE 31


      008282CAH   CODE/B2  ---       _ApiComm_CommParaInit
      0082F114H   CODE/B2  ---       _APiDisp_Const
      0082EFE0H   CODE/B2  ---       _ApiDisp_ShowNum
      0082EF18H   CODE/B2  ---       _ApiDisplay_NumData
      0082BAC7H   CODE/B2  ---       _ApiDLT645_AccountTx
      00829387H   CODE/B2  ---       _ApiDLT645_AddrTypeCheck
      008289B3H   CODE/B2  ---       _ApiDLT645_FrameAnalysis
      00829488H   CODE/B2  ---       _ApiDLT645_MeterClear
      0082E6F6H   CODE/B2  ---       _ApiDLT645_ModifyPsw
      0082CFB6H   CODE/B2  ---       _ApiDLT645_RelayControl
      0082DE50H   CODE/B2  ---       _ApiDLT645_SafeCertification
      0082840DH   CODE/B2  ---       _ApiDLT645_UARTReceiveDataJudge0
      008286A4H   CODE/B2  ---       _ApiDLT645_UARTReceiveDataJudge1
      0081BFD1H   CODE/B1  ---       _ApiEMU_CommEndCal
      0081C0A3H   CODE/B1  ---       _ApiEMU_CommErrCal
      0081C00AH   CODE/B1  ---       _ApiEMU_CommStartCal
      0081BBF4H   CODE/B1  ---       _ApiEMU_DisOrEnable
      0081CD06H   CODE/B1  ---       _ApiEvent_RecTotalNum_Add
      00818A71H   CODE/B1  ---       _ApiEvent_WriteRecord
      0082A324H   CODE/B2  ---       _ApiGet_Lcd_ID
      0082EE5CH   CODE/B2  ---       _ApiGet_Lcd_Num
      0081CA96H   CODE/B1  ---       _ApiMoney_MultPTCT
      008183FDH   CODE/B1  ---       _ApiMS_CalibrationMeterComm
      0081BBF4H   CODE/B1  ---       _ApiMS_DisOrEnable
      0081C64FH   CODE/B1  ---       _ApiMS_EnergyProcess
      0081B6C4H   CODE/B1  ---       _ApiPwOn_DLXS_READ
      00818043H   CODE/B1  ---       _ApiPwOn_McuUartXInit
      008180D6H   CODE/B1  ---       _ApiPwOn_McuUartXSetBps
      00818000H   CODE/B1  ---       _ApiPwOn_UART_SendEn
      0081BF4DH   CODE/B1  ---       _AppEMU_ReadDataModeSet
      0081A2A7H   CODE/B1  ---       _AppEMU_ReadOneReg_MeterIC
      00818610H   CODE/B1  ---       _AppEMU_TRipCommSetReg
      0081C2AAH   CODE/B1  ---       _AppEMU_TripReadEmuReg
      008182ACH   CODE/B1  ---       _AppEMU_WriteOneReg_MeterIC
      0081870BH   CODE/B1  ---       _AppEMU_WriteRegToEE
      01002836H   CODE     ---       _BleDrv_BleComm
      01002D1EH   CODE     ---       _BleDrv_BleParaChk
      01004306H   CODE     ---       _BleDrv_CommGetBlePara
      0100424BH   CODE     ---       _BleDrv_CommSetBlePara
      010042AAH   CODE     ---       _BleDrv_GetBleMac
      010042ADH   CODE     ---       _BleDrv_GetBleName
      01002F6FH   CODE     ---       _BleDrv_GetBlePara
      0100430EH   CODE     ---       _BleDrv_GetBleTPL
      010041EDH   CODE     ---       _BleDrv_SetBleMac
      01004177H   CODE     ---       _BleDrv_SetBlePara
      010041F7H   CODE     ---       _BleDrv_SetBleTPL
      0100257DH   CODE     ---       _Data_MAC
      01004E0EH   CODE     ---       _DES_CycLRShifting
      01002392H   CODE     ---       _DES_DeOrEncryption
      01004BC6H   CODE     ---       _DES_F
      01004A5DH   CODE     ---       _DES_IP
      01002484H   CODE     ---       _DES_IP_1
      01004AD5H   CODE     ---       _DES_PC_1
      01004A35H   CODE     ---       _DES_ReplaceMent
      01004AF3H   CODE     ---       _DES_Transposition
      01001C85H   CODE     ---       _DrvE2p_ReadData
      01001E08H   CODE     ---       _DrvE2p_WRDataTemp
      010044EDH   CODE     ---       _DrvE2p_WriteData
      010047ABH   CODE     ---       _Hal_EraseFlashSector
      01004715H   CODE     ---       _Hal_ReadEEPROM
      010046DFH   CODE     ---       _Hal_ReadFlash_byte
      0100463CH   CODE     ---       _Hal_WriteEEPROM
      010045D1H   CODE     ---       _Hal_WriteFlash_byte
      0100491DH   CODE     ---       _LCDDrv_Init
      01004949H   CODE     ---       _LCDDrv_SetLcdBuff
LX51 LINKER/LOCATER V4.66.41.0                                                        11/18/2021  18:54:16  PAGE 32


      01003009H   CODE     ---       _LibPub_0xFFCheckInt
      01003096H   CODE     ---       _LibPub_1BCD_2_1HEX
      01003069H   CODE     ---       _LibPub_1BtyeBcdAdd
      0100304DH   CODE     ---       _LibPub_1Hex_2_1BCD
      01003915H   CODE     ---       _LibPub_Buffer2ToUshort16
      010039DCH   CODE     ---       _LibPub_Buffer4ToUlong32
      010034CAH   CODE     ---       _LibPub_CalSum
      010036B1H   CODE     ---       _LibPub_CheckPassword
      010037F1H   CODE     ---       _LibPub_CompareData
      01002290H   CODE     ---       _LibPub_CompareNBufs
      01001C16H   CODE     ---       _LibPub_CRC16_CCITT
      01002D99H   CODE     ---       _LibPub_CrcCheck
      01003B5FH   CODE     ---       _LibPub_DECtoHEXBytes
      01002C9FH   CODE     ---       _LibPub_DelayNms
      010033FAH   CODE     ---       _LibPub_GetDiffTime
      01003DB7H   CODE     ---       _LibPub_HEXtoAscii
      01003CC6H   CODE     ---       _LibPub_HEXtoBCDBytes
      01003601H   CODE     ---       _LibPub_Inverse
      0100359FH   CODE     ---       _LibPub_IsBCD
      0100224DH   CODE     ---       _LibPub_MemCopyBytes
      0100353BH   CODE     ---       _LibPub_MemExchangeBytes
      01002F29H   CODE     ---       _LibPub_MemSetBytes
      010030A5H   CODE     ---       _LibPub_NBtyesBcdAdd
      01003A6BH   CODE     ---       _LibPub_NBytesBCDSub
      01002008H   CODE     ---       _LibPub_ReadDataFromE2prom
      01003968H   CODE     ---       _LibPub_Ulong32ToBuffer4
      01003944H   CODE     ---       _LibPub_Ushort16ToBuffer2
      010019F3H   CODE     ---       _LibPub_WriteDataToE2prom
      01002FD9H   CODE     ---       _LibPub_ZeroCheck
      0082EADCH   CODE/B2  ---       _Money_Recharge
      0082966DH   CODE/B2  ---       _PrepaymentModule_Comm_HandBackMoney
      0082E16CH   CODE/B2  ---       _PrepaymentModule_Comm_INTAUTH
      0082CD3FH   CODE/B2  ---       _PrepaymentModule_Comm_INTAUTH_Invalidation
      0082E8F5H   CODE/B2  ---       _PrepaymentModule_Comm_ModifyKey
      0082B37EH   CODE/B2  ---       _PrepaymentModule_Comm_OpenAccout
      0082E541H   CODE/B2  ---       _PrepaymentModule_Comm_TimeAvailableIn
      0082CC4DH   CODE/B2  ---       _PrepaymentModule_CommWriteESAMBinaryMAC
      0082CE21H   CODE/B2  ---       _PrepaymentModule_DataDecription
      0082E4ECH   CODE/B2  ---       _PrepaymentModule_GetChallenge
      0082E474H   CODE/B2  ---       _PrepaymentModule_GetWorkkey
      0081995BH   CODE/B1  ---       _ReadEventRecordData
      01002C2AH   CODE     ---       _SPIDrv_SendBtye
      010000B4H   CODE     ---       _SRAND
      0100000EH   CODE     ---       _SWITCHBANK
      01002527H   CODE     ---       _TripleDES_DeOrEncryption
      0200FFAEH   XDATA    BYTE      A0DAY
      0200FFAFH   XDATA    BYTE      A0DOW
      0200FFADH   XDATA    BYTE      A0HR
      0200FFACH   XDATA    BYTE      A0MIN
      0200FFABH   XDATA    BYTE      A0SEC
      0200FFB2H   XDATA    BYTE      A1HR
      0200FFB1H   XDATA    BYTE      A1MIN
      0200FFB0H   XDATA    BYTE      A1SEC
*SFR* 000000D0H.6 DATA     BIT       AC
*SFR* 000000E0H   DATA     BYTE      ACC
*SFR* 000000C5H   DATA     BYTE      ADCDH
*SFR* 000000C4H   DATA     BYTE      ADCDL
*SFR* 000000C3H   DATA     BYTE      ADCH
*SFR* 000000C1H   DATA     BYTE      ADCON
*SFR* 000000C2H   DATA     BYTE      ADT
      0081CB67H   CODE/B1  ---       Api_PowerLoadLimitedCheck
      00828000H   CODE/B2  ---       ApiComm_CommTask
      0082F352H   CODE/B2  ---       ApiDisp_DisplayTask
      0082F475H   CODE/B2  ---       APiDisp_Dynamic
      0082F56CH   CODE/B2  ---       APiDisp_LcdledControl
LX51 LINKER/LOCATER V4.66.41.0                                                        11/18/2021  18:54:16  PAGE 33


      0082BA5DH   CODE/B2  ---       ApiDLT645_GetStatusFlag3
      0081815CH   CODE/B1  ---       ApiEMU_EMUInit
      0081A1B5H   CODE/B1  ---       ApiEMU_EMUParaCheck
      0081C599H   CODE/B1  ---       ApiEMU_GetDirP
      0081A5EEH   CODE/B1  ---       ApiEMU_UpdateUIP
      00819430H   CODE/B1  ---       ApiMntr_MonitorTask
      00819174H   CODE/B1  ---       ApiMntr_PeripheralMonitor
      0081B66DH   CODE/B1  ---       ApiMoney_RefreshPrice
      0081C8E1H   CODE/B1  ---       ApiMoney_RemainMoneyProcess
      0081CB01H   CODE/B1  ---       ApiMoney_TimeingHoldMoney
      0081C5B7H   CODE/B1  ---       ApiMS_EnergyPulseUpdate
      0081C5B5H   CODE/B1  ---       ApiMS_GetPowerDir
      0081815CH   CODE/B1  ---       ApiMS_InitMeterICPara
      0081C624H   CODE/B1  ---       ApiMS_MeasureTask
      0081A1B5H   CODE/B1  ---       ApiMS_MeterICParaCheck
      0081C626H   CODE/B1  ---       ApiMS_UpdateUIP
      0081B897H   CODE/B1  ---       ApiPwOff_PowerOffTask
      0081BC97H   CODE/B1  ---       ApiPwOn_BleInit
      0081BC9AH   CODE/B1  ---       ApiPwOn_BleParaChk
      0081B423H   CODE/B1  ---       ApiPwOn_DisplayParaCheck
      0081A1B5H   CODE/B1  ---       ApiPwOn_EmuParaCheck
      0081B7D8H   CODE/B1  ---       ApiPwOn_EnergyCheck
      0081B79EH   CODE/B1  ---       ApiPwOn_EnergyZSCheck
      0081A0EEH   CODE/B1  ---       ApiPwOn_EventPointCheck
      0081B61FH   CODE/B1  ---       ApiPwOn_FunConfigParaCheck
      0081B5B8H   CODE/B1  ---       ApiPwOn_KeyStatusCheck
      00818271H   CODE/B1  ---       ApiPwOn_McuDispInit
      0081A30AH   CODE/B1  ---       ApiPwOn_McuGpioInit
      008183C2H   CODE/B1  ---       ApiPwOn_McuLPDInit
      00819FABH   CODE/B1  ---       ApiPwOn_McuRamInit
      008183F7H   CODE/B1  ---       ApiPwOn_McuReset
      0081B330H   CODE/B1  ---       ApiPwOn_McuTimerInit
      0081812AH   CODE/B1  ---       ApiPwOn_McuUartInit
      00818835H   CODE/B1  ---       ApiPwOn_MeterClear
      0081B36FH   CODE/B1  ---       ApiPwOn_MeterInfoParaCheck
      008196D8H   CODE/B1  ---       ApiPwOn_MeterInitInFactory
      0081B51BH   CODE/B1  ---       ApiPwOn_MoneyParaCheck
      0081B87CH   CODE/B1  ---       ApiPwOn_PowerChk
      0081BCB7H   CODE/B1  ---       ApiPwOn_RemainMoneyCheck
      0081990FH   CODE/B1  ---       ApiPwOn_SysClkInit
      0081813AH   CODE/B1  ---       ApiPwOn_SysTemInit
      00819018H   CODE/B1  ---       ApiRelay_ControlProcess
      0081922DH   CODE/B1  ---       ApiRelay_SubtractMoneyRelayJudge
      0081BF9FH   CODE/B1  ---       AppEMU_ClearEnergyData_MeterIC
      008183A6H   CODE/B1  ---       AppEMU_SoftwareRESET_MeterIC
      00818309H   CODE/B1  ---       AppEMU_WriteDisable_MeterIC
      0081BF13H   CODE/B1  ---       AppEMU_WriteEnable_MeterIC
*SFR* 000000F1H   DATA     BYTE      AUXC
*SFR* 000000F0H   DATA     BYTE      B
      01002CF7H   CODE     ---       BleDrv_BleReset
      01002DDAH   CODE     ---       BleDrv_BleStatuChk
      0100005CH   CODE     ---       BleDrv_GetBleStat
      01004318H   CODE     ---       BleDrv_GetBleUartSta
      01002EB0H   CODE     ---       BleDrv_InitBleRunPara
      01002DD3H   CODE     ---       BleDrv_InitPwn
      0100274BH   CODE     ---       BleDrv_SetBleRunPara
      010027C7H   CODE     ---       BleDrv_SetBleStat
      01000E8FH   CONST    ---       C_cBleComm_Head
      010011E2H   CONST    ---       C_cBlePayload_Head
      010011F5H   CONST    ---       C_StrBle_MAP_TAB
*SFR* 000000C8H.1 DATA     BIT       C_T2
      02000AE4H   XDATA    ---       C_ucCurrentTab
      01001132H   CONST    ---       C_ulaSafeCertification_Code
      0100114EH   CONST    ---       C_ulaSafeCertification_Len
      01001155H   CONST    ---       C_ulaSafeCertification_ReturnLen
LX51 LINKER/LOCATER V4.66.41.0                                                        11/18/2021  18:54:16  PAGE 34


      0100115CH   CONST    ---       C_ulaSafeCertification_ReturnType
*SFR* 000000B2H   DATA     BYTE      CLKCON
      01001858H   CONST    ---       Const_Cpu_Init
*SFR* 000000C8H   DATA     BIT       CP_RL2
*SFR* 000000D0H.7 DATA     BIT       CY
      0200FFA4H   XDATA    BYTE      DAY
      010017E8H   CONST    ---       Dl_Cpu_Init
      0200FFA7H   XDATA    BYTE      DOW
*SFR* 00000083H   DATA     BYTE      DPH
*SFR* 00000085H   DATA     BYTE      DPH1
*SFR* 00000082H   DATA     BYTE      DPL
*SFR* 00000084H   DATA     BYTE      DPL1
      010044B7H   CODE     ---       DrvE2p_ChkBusBusy
      01004458H   CODE     ---       DrvI2C_Init
      0100486EH   CODE     ---       DrvKey_DisplayKeyInit
      0100487DH   CODE     ---       DrvKey_DisplayKeyMonitor
      01004820H   CODE     ---       DrvKey_FactoryKeyInit
      0100482FH   CODE     ---       DrvKey_FactoryKeyMonitor
*SFR* 000000A8H.2 DATA     BIT       E7816
*SFR* 000000A8H.7 DATA     BIT       EA
*SFR* 00000091H   DATA     BYTE      EADR
*SFR* 000000A8H.6 DATA     BIT       EADTP
*SFR* 00000092H   DATA     BYTE      EDTAH
*SFR* 00000094H   DATA     BYTE      EDTAL
*SFR* 00000093H   DATA     BYTE      EDTAM
      02000C06H   XDATA    ---       EEPROM_MAP_TAB
      0200FFCDH   XDATA    BYTE      EGTRSEND
      0200FFC2H   XDATA    BYTE      EGTSET
      01001884H   CONST    ---       EMU_COMM_TRIPEMUC_TAB
      010018A4H   CONST    ---       EMU_READ_TRIPEMUC_TAB
*SFR* 00000096H   DATA     BYTE      EMUIE
*SFR* 00000097H   DATA     BYTE      EMUIF
*SFR* 00000095H   DATA     BYTE      EMUSR
*SFR* 000000A8H.4 DATA     BIT       ES0
*SFR* 000000A8H.1 DATA     BIT       ET0
*SFR* 000000A8H.3 DATA     BIT       ET1
*SFR* 000000A8H.5 DATA     BIT       ET2
*SFR* 000000A8H   DATA     BIT       EX4
*SFR* 000000ABH   DATA     BYTE      EXCON1
*SFR* 000000ACH   DATA     BYTE      EXCON2
*SFR* 000000C8H.3 DATA     BIT       EXEN2
*SFR* 000000E8H   DATA     BYTE      EXF0
*SFR* 000000C8H.6 DATA     BIT       EXF2
*SFR* 000000D0H.5 DATA     BIT       F0
*SFR* 000000D0H.1 DATA     BIT       F1
      01001438H   CONST    ---       fcstab
*SFR* 000000A7H   DATA     BYTE      FLASHCON
      02000A66H   XDATA    ---       GA_EmuRegData
      02000AF4H   XDATA    ---       GA_uc7816CommBuffer
      02000BEEH   XDATA    ---       GA_ucDesKey
      02000BFEH   XDATA    ---       GA_ucDesTata
      02000D6BH   XDATA    ---       GA_ucDICode
      02000CE7H   XDATA    ---       GA_ucDisperFactor
      02000D2FH   XDATA    ---       GA_ucEventRecordBuff
      02000D6FH   XDATA    ---       GA_ucOperCode
      02000D73H   XDATA    ---       GA_ucRelayOperCode
      020004F6H   XDATA    ---       GStr_AVAIL
      02000489H   XDATA    ---       GStr_BLEGroup
      020004A3H   XDATA    ---       GStr_Counter
      02000408H   XDATA    ---       GStr_DisplayPara
      020004ECH   XDATA    ---       GStr_Energy
      020005C0H   XDATA    ---       GStr_ENERGYDEC
      02000000H   XDATA    ---       GStr_EnergyPulseBk
      02000008H   XDATA    ---       GStr_EnergyPulseFw
      02000010H   XDATA    ---       GStr_EventNumPiont
LX51 LINKER/LOCATER V4.66.41.0                                                        11/18/2021  18:54:16  PAGE 35


      020005DAH   XDATA    ---       GStr_EventRecordNum
      02000581H   XDATA    ---       GStr_EventValidPiont
      0200052DH   XDATA    ---       GStr_Flag
      02000597H   XDATA    ---       GStr_FunConfigPara
      020003EDH   XDATA    ---       GStr_MeterIFO
      02000589H   XDATA    ---       GStr_Money
      020005A7H   XDATA    ---       GStr_MoneyPara
      020004ADH   XDATA    ---       GStr_Monitor
      0200051FH   XDATA    ---       GStr_PRICE
      0200009FH   XDATA    ---       Gstr_UartComm
      02000018H   XDATA    ---       GStr_UIPDisplay
      0200053DH   XDATA    ---       GStr_UIPGroup
      02000CEFH   XDATA    ---       GStr_VirtualEsamPara
      01000E6DH   CONST    ---       GT_ucaFactoryVerNo
      01000E75H   CONST    ---       GT_ucaMaterType
      01000E7FH   CONST    ---       GT_ucaProtocolVer
      010000E6H   CONST    ---       GT_ucBuyMoneyRecLen
      010000E1H   CONST    ---       GT_ucBuyMoneyRecOffset
      01000BFDH   CONST    ---       GT_ucEBoxLocation
      01000BCDH   CONST    ---       GT_ucEBoxValue
      01000C4DH   CONST    ---       GT_ucPBoxLocation
      01000C2DH   CONST    ---       GT_ucPBoxValue
      01000AEDH   CONST    ---       GT_ucPC_1Location
      01000B25H   CONST    ---       GT_ucPC_1Value
      01000B5DH   CONST    ---       GT_ucPC_2Location
      01000B8DH   CONST    ---       GT_ucPC_2Value
      01000C6DH   CONST    ---       GT_ucSBox
      01000BBDH   CONST    ---       GT_ucShiftTable
      01001163H   CONST    ---       GT_ucVirtualEsam
      02000DCBH   XDATA    ---       GU_SecurityErr
      00000020H   DATA     BYTE      GV_bDesRepbit
      02000CE6H   XDATA    BYTE      GV_ucMACErrNum
      0200FFA3H   XDATA    BYTE      HR
*SFR* 000000F2H   DATA     BYTE      IB_CON1
*SFR* 000000F3H   DATA     BYTE      IB_CON2
*SFR* 000000F4H   DATA     BYTE      IB_CON3
*SFR* 000000F5H   DATA     BYTE      IB_CON4
*SFR* 000000F6H   DATA     BYTE      IB_CON5
*SFR* 000000EFH   DATA     BYTE      IB_DATA
*SFR* 000000EEH   DATA     BYTE      IB_OFFSET
*SFR* 000000A8H   DATA     BYTE      IEN0
*SFR* 000000A9H   DATA     BYTE      IEN1
*SFR* 000000AAH   DATA     BYTE      IENX
*SFR* 00000086H   DATA     BYTE      INSCON
      01004070H   CODE     ---       Inter_ADC_TPS
      0100409DH   CODE     ---       Inter_EMU
      010031ECH   CODE     ---       Inter_EUART0
      01003344H   CODE     ---       Inter_EUART1
      01004132H   CODE     ---       Inter_EUART3
      01003E6BH   CODE     ---       Inter_INT4
      01004105H   CODE     ---       Inter_LPD
      010040C7H   CODE     ---       Inter_RTC
      01003F20H   CODE     ---       Inter_Timer0
      01003EF3H   CODE     ---       Inter_Timer1
      01004043H   CODE     ---       Inter_Timer2
*SFR* 000000BAH   DATA     BYTE      IPH0
*SFR* 000000BBH   DATA     BYTE      IPH1
*SFR* 000000B8H   DATA     BYTE      IPL0
*SFR* 000000B9H   DATA     BYTE      IPL1
*SFR* 000000ADH   DATA     BYTE      IRCON1
*SFR* 000000AFH   DATA     BYTE      IRCON2
*SFR* 000000AEH   DATA     BYTE      IRDAT
      02000D77H   XDATA    ---       LCD_Char_Table
      01001670H   CONST    ---       LCD_COM_CHAR_NUM1
      01001638H   CONST    ---       LCD_SEG_CHAR_NUM1
LX51 LINKER/LOCATER V4.66.41.0                                                        11/18/2021  18:54:16  PAGE 36


*SFR* 000000D1H   DATA     BYTE      LCDCON1
*SFR* 000000D2H   DATA     BYTE      LCDCON2
      0100495CH   CODE     ---       LCDDrv_DispRamUpdata
      010049AEH   CODE     ---       LCDDrv_PwOnRegCfg
      0100498FH   CODE     ---       LCDDrv_SgeComConfig
*SFR* 000000B5H   DATA     BYTE      LDOCON
      01000066H   CODE     ---       LibPub_Delay10us
      01002B60H   CODE     ---       LibPub_Delay2us
      01002BB0H   CODE     ---       LibPub_Delay5us
      01001906H   CODE     ---       LibPub_GetTimerBeat
      0100313FH   CODE     ---       LibPub_GetTimerBeatInt0
      01003297H   CODE     ---       LibPub_GetTimerBeatInt1
*SFR* 000000C6H   DATA     BYTE      LPDCON1
*SFR* 000000C7H   DATA     BYTE      LPDCON2
      010018B3H   CODE     ---       main
      0200FFA2H   XDATA    BYTE      MIN
      0200FFA5H   XDATA    BYTE      MTH
*SFR* 000000FEH   DATA     BYTE      OSCLO
*SFR* 000000D0H.2 DATA     BIT       OV
*SFR* 000000D0H   DATA     BIT       P
*SFR* 00000080H   DATA     BYTE      P0
*SFR* 00000080H   DATA     BIT       P0_0
*SFR* 00000080H.1 DATA     BIT       P0_1
*SFR* 00000080H.2 DATA     BIT       P0_2
*SFR* 00000080H.3 DATA     BIT       P0_3
*SFR* 00000080H.4 DATA     BIT       P0_4
*SFR* 00000080H.5 DATA     BIT       P0_5
*SFR* 00000080H.6 DATA     BIT       P0_6
*SFR* 00000080H.7 DATA     BIT       P0_7
      0200FFE0H   XDATA    BYTE      P0CR
      0200FF8BH   XDATA    BYTE      P0DRVH
      0200FFFAH   XDATA    BYTE      P0INM
      0200FF88H   XDATA    BYTE      P0OS
      0200FFF0H   XDATA    BYTE      P0PCR
      0200FF8EH   XDATA    BYTE      P0PHM
*SFR* 00000090H   DATA     BYTE      P1
*SFR* 00000090H   DATA     BIT       P1_0
*SFR* 00000090H.1 DATA     BIT       P1_1
*SFR* 00000090H.2 DATA     BIT       P1_2
*SFR* 00000090H.3 DATA     BIT       P1_3
*SFR* 00000090H.4 DATA     BIT       P1_4
*SFR* 00000090H.5 DATA     BIT       P1_5
*SFR* 00000090H.6 DATA     BIT       P1_6
*SFR* 00000090H.7 DATA     BIT       P1_7
      0200FFE1H   XDATA    BYTE      P1CR
      0200FF8CH   XDATA    BYTE      P1DRVL
      0200FFF1H   XDATA    BYTE      P1PCR
*SFR* 000000A0H   DATA     BYTE      P2
*SFR* 000000A0H   DATA     BIT       P2_0
*SFR* 000000A0H.1 DATA     BIT       P2_1
*SFR* 000000A0H.2 DATA     BIT       P2_2
*SFR* 000000A0H.3 DATA     BIT       P2_3
*SFR* 000000A0H.4 DATA     BIT       P2_4
*SFR* 000000A0H.5 DATA     BIT       P2_5
*SFR* 000000A0H.6 DATA     BIT       P2_6
*SFR* 000000A0H.7 DATA     BIT       P2_7
      0200FFE2H   XDATA    BYTE      P2CR
      0200FF8DH   XDATA    BYTE      P2DRVH
      0200FFFBH   XDATA    BYTE      P2INM
      0200FF89H   XDATA    BYTE      P2OS
      0200FFF2H   XDATA    BYTE      P2PCR
      0200FF8FH   XDATA    BYTE      P2PHM
*SFR* 000000B0H   DATA     BYTE      P3
*SFR* 000000B0H   DATA     BIT       P3_0
*SFR* 000000B0H.1 DATA     BIT       P3_1
LX51 LINKER/LOCATER V4.66.41.0                                                        11/18/2021  18:54:16  PAGE 37


*SFR* 000000B0H.2 DATA     BIT       P3_2
*SFR* 000000B0H.3 DATA     BIT       P3_3
*SFR* 000000B0H.4 DATA     BIT       P3_4
*SFR* 000000B0H.5 DATA     BIT       P3_5
*SFR* 000000B0H.6 DATA     BIT       P3_6
*SFR* 000000B0H.7 DATA     BIT       P3_7
      0200FFE3H   XDATA    BYTE      P3CR
      0200FF8AH   XDATA    BYTE      P3OS
      0200FFF3H   XDATA    BYTE      P3PCR
*SFR* 000000C0H   DATA     BYTE      P4
*SFR* 000000C0H   DATA     BIT       P4_0
*SFR* 000000C0H.1 DATA     BIT       P4_1
*SFR* 000000C0H.2 DATA     BIT       P4_2
*SFR* 000000C0H.3 DATA     BIT       P4_3
*SFR* 000000C0H.4 DATA     BIT       P4_4
*SFR* 000000C0H.5 DATA     BIT       P4_5
*SFR* 000000C0H.6 DATA     BIT       P4_6
*SFR* 000000C0H.7 DATA     BIT       P4_7
      0200FFE4H   XDATA    BYTE      P4CR
      0200FFF4H   XDATA    BYTE      P4PCR
      0200FF80H   XDATA    BYTE      P4SS
*SFR* 000000E9H   DATA     BYTE      P5
      0200FFE5H   XDATA    BYTE      P5CR
      0200FFF5H   XDATA    BYTE      P5PCR
      0200FF81H   XDATA    BYTE      P5SS
*SFR* 000000EAH   DATA     BYTE      P6
      0200FFE6H   XDATA    BYTE      P6CR
      0200FFF6H   XDATA    BYTE      P6PCR
      0200FF82H   XDATA    BYTE      P6SS
*SFR* 000000EBH   DATA     BYTE      P7
*SFR* 000000B8H.2 DATA     BIT       P7816L
      0200FFE7H   XDATA    BYTE      P7CR
      0200FFF7H   XDATA    BYTE      P7PCR
      0200FF83H   XDATA    BYTE      P7SS
*SFR* 000000ECH   DATA     BYTE      P8
      0200FFE8H   XDATA    BYTE      P8CR
      0200FFF8H   XDATA    BYTE      P8PCR
      0200FF84H   XDATA    BYTE      P8SS
*SFR* 000000EDH   DATA     BYTE      P9
      0200FFE9H   XDATA    BYTE      P9CR
      0200FFF9H   XDATA    BYTE      P9PCR
      0200FF85H   XDATA    BYTE      P9SS
*SFR* 000000B8H.6 DATA     BIT       PADCL
*SFR* 000000E7H   DATA     BYTE      PASLO
*SFR* 000000B6H   DATA     BYTE      PBANK
*SFR* 000000B7H   DATA     BYTE      PBANKLO
*SFR* 00000087H   DATA     BYTE      PCON
      0082BA42H   CODE/B2  ---       PrepaymentModule_Comm_ClrMACErrNum
      0082CCF6H   CODE/B2  ---       PrepaymentModule_Comm_MACErrNum
      0082CD26H   CODE/B2  ---       PrepaymentModule_InValidation
*SFR* 000000B8H.4 DATA     BIT       PS0L
*SFR* 000000D0H   DATA     BYTE      PSW
*SFR* 000000B8H.1 DATA     BIT       PT0L
*SFR* 000000B8H.3 DATA     BIT       PT1L
*SFR* 000000B8H.5 DATA     BIT       PT2L
*SFR* 0000009FH   DATA     BYTE      PWMCON
*SFR* 000000B3H   DATA     BYTE      PWRCON1
*SFR* 000000B4H   DATA     BYTE      PWRCON2
*SFR* 000000B8H   DATA     BIT       PX4L
      01000076H   CODE     ---       RAND
*SFR* 00000098H.2 DATA     BIT       RB8
*SFR* 000000D8H.2 DATA     BIT       RB81
*SFR* 000000CBH   DATA     BYTE      RCAP2H
*SFR* 000000CAH   DATA     BYTE      RCAP2L
      010049D9H   CODE     ---       RelayDrv_Closerelay
LX51 LINKER/LOCATER V4.66.41.0                                                        11/18/2021  18:54:16  PAGE 38


      010049E5H   CODE     ---       RelayDrv_DelayTimeMonitor
      01004A17H   CODE     ---       RelayDrv_Openrelay
      01004A0CH   CODE     ---       RelayDrv_RelayNormal
*SFR* 00000098H.4 DATA     BIT       REN
*SFR* 000000D8H.4 DATA     BIT       REN1
*SFR* 00000098H   DATA     BIT       RI
*SFR* 000000D8H   DATA     BIT       RI1
*SFR* 000000D0H.3 DATA     BIT       RS0
*SFR* 000000D0H.4 DATA     BIT       RS1
*SFR* 000000B1H   DATA     BYTE      RSTSTAT
      0200FFAAH   XDATA    BYTE      RTCALM
      0200FFB3H   XDATA    BYTE      RTCCON
      0200FFA8H   XDATA    BYTE      RTCDATH
      0200FFA9H   XDATA    BYTE      RTCDATL
      0200FFB9H   XDATA    BYTE      RTCECH
      0200FFB8H   XDATA    BYTE      RTCECL
      0200FFB6H   XDATA    BYTE      RTCIE
      0200FFB7H   XDATA    BYTE      RTCIF
      0200FFB5H   XDATA    BYTE      RTCPSW
      0200FFBAH   XDATA    BYTE      RTCTMR
      0200FFB4H   XDATA    BYTE      RTCWR
      0200FFC8H   XDATA    BYTE      RXBUF
      0200FFC5H   XDATA    BYTE      S7816CLKDIV
      0200FFC1H   XDATA    BYTE      S7816CON
      0200FFC0H   XDATA    BYTE      S7816EN
      0200FFCCH   XDATA    BYTE      S7816ERRSTA
      0200FFC6H   XDATA    BYTE      S7816ETUH
      0200FFC7H   XDATA    BYTE      S7816ETUL
      0200FFCAH   XDATA    BYTE      S7816IE
      0200FFCBH   XDATA    BYTE      S7816STA
      0200FFC3H   XDATA    BYTE      S7816WTH
      0200FFC4H   XDATA    BYTE      S7816WTL
*SFR* 0000009AH   DATA     BYTE      SADDR
*SFR* 000000DAH   DATA     BYTE      SADDR1
*SFR* 000000FAH   DATA     BYTE      SADDR2
      0200FFD2H   XDATA    BYTE      SADDR3
*SFR* 0000009BH   DATA     BYTE      SADEN
*SFR* 000000DBH   DATA     BYTE      SADEN1
*SFR* 000000FBH   DATA     BYTE      SADEN2
      0200FFD3H   XDATA    BYTE      SADEN3
*SFR* 000000DCH   DATA     BYTE      SBRT1H
*SFR* 000000DDH   DATA     BYTE      SBRT1L
*SFR* 000000FCH   DATA     BYTE      SBRT2H
*SFR* 000000FDH   DATA     BYTE      SBRT2L
      0200FFD4H   XDATA    BYTE      SBRT3H
      0200FFD5H   XDATA    BYTE      SBRT3L
*SFR* 0000009CH   DATA     BYTE      SBRTH
*SFR* 0000009DH   DATA     BYTE      SBRTL
      0200FFA0H   XDATA    BYTE      SBSC
*SFR* 00000099H   DATA     BYTE      SBUF
*SFR* 000000D9H   DATA     BYTE      SBUF1
*SFR* 000000F9H   DATA     BYTE      SBUF2
      0200FFD1H   XDATA    BYTE      SBUF3
*SFR* 00000098H   DATA     BYTE      SCON
*SFR* 000000D8H   DATA     BYTE      SCON1
*SFR* 000000F8H   DATA     BYTE      SCON2
      0200FFD0H   XDATA    BYTE      SCON3
      0200FFA1H   XDATA    BYTE      SEC
*SFR* 0000009EH   DATA     BYTE      SFINE
*SFR* 000000DEH   DATA     BYTE      SFINE2
*SFR* 00000098H.7 DATA     BIT       SM0_FE
*SFR* 000000D8H.7 DATA     BIT       SM10_FE1
*SFR* 000000D8H.6 DATA     BIT       SM11_RXOV1
*SFR* 000000D8H.5 DATA     BIT       SM12_TXCOL1
*SFR* 00000098H.6 DATA     BIT       SM1_RXOV
LX51 LINKER/LOCATER V4.66.41.0                                                        11/18/2021  18:54:16  PAGE 39


*SFR* 00000098H.5 DATA     BIT       SM2_TXCOL
*SFR* 00000081H   DATA     BYTE      SP
*SFR* 000000A1H   DATA     BYTE      SPCON
*SFR* 000000A3H   DATA     BYTE      SPDAT
      01004A23H   CODE     ---       SPIDrv_Disable_MeterIC
      01002B61H   CODE     ---       SPIDrv_Eable_MeterIC
      01002B7FH   CODE     ---       SPIDrv_ENSPIMode
      01002BB9H   CODE     ---       SPIDrv_ReceiveByte
*SFR* 000000A2H   DATA     BYTE      SPSTA
      02000AD8H   XDATA    ---       Str_EnergyRegADDr
      02000A55H   XDATA    ---       Str_RmsRegADDr
      020009E3H   XDATA    ---       Str_TRIPEmuCalPara
      020009DDH   XDATA    ---       Str_TRIPUIPKmsPara
*SFR* 0000008EH   DATA     BYTE      SUSLO
*SFR* 000000C8H   DATA     BYTE      T2CON
*SFR* 000000C9H   DATA     BYTE      T2MOD
*SFR* 00000098H.3 DATA     BIT       TB8
*SFR* 000000D8H.3 DATA     BIT       TB81
*SFR* 00000088H   DATA     BYTE      TCON
*SFR* 0000008FH   DATA     BYTE      TCON1
*SFR* 00000088H.5 DATA     BIT       TF0
*SFR* 00000088H.7 DATA     BIT       TF1
*SFR* 000000C8H.7 DATA     BIT       TF2
*SFR* 0000008CH   DATA     BYTE      TH0
*SFR* 0000008DH   DATA     BYTE      TH1
*SFR* 000000CDH   DATA     BYTE      TH2
*SFR* 00000098H.1 DATA     BIT       TI
*SFR* 000000D8H.1 DATA     BIT       TI1
*SFR* 000000D4H   DATA     BYTE      TK0BASEH
*SFR* 000000D3H   DATA     BYTE      TK0BASEL
*SFR* 000000BCH   DATA     BYTE      TK0DIFH
*SFR* 000000CFH   DATA     BYTE      TK0DIFL
*SFR* 000000E2H   DATA     BYTE      TK0H
*SFR* 000000E1H   DATA     BYTE      TK0L
      0200FF93H   XDATA    BYTE      TK0THRH
      0200FF92H   XDATA    BYTE      TK0THRL
*SFR* 000000D6H   DATA     BYTE      TK1BASEH
*SFR* 000000D5H   DATA     BYTE      TK1BASEL
*SFR* 000000BEH   DATA     BYTE      TK1DIFH
*SFR* 000000BDH   DATA     BYTE      TK1DIFL
*SFR* 000000E4H   DATA     BYTE      TK1H
*SFR* 000000E3H   DATA     BYTE      TK1L
      0200FF95H   XDATA    BYTE      TK1THRH
      0200FF94H   XDATA    BYTE      TK1THRL
*SFR* 000000DFH   DATA     BYTE      TK2BASEH
*SFR* 000000D7H   DATA     BYTE      TK2BASEL
*SFR* 000000A5H   DATA     BYTE      TK2DIFH
*SFR* 000000BFH   DATA     BYTE      TK2DIFL
*SFR* 000000E6H   DATA     BYTE      TK2H
*SFR* 000000E5H   DATA     BYTE      TK2L
      0200FF97H   XDATA    BYTE      TK2THRH
      0200FF96H   XDATA    BYTE      TK2THRL
      0200FF91H   XDATA    BYTE      TKCH
*SFR* 000000A4H   DATA     BYTE      TKCON
      0200FF9CH   XDATA    BYTE      TKDIV01
      0200FF9DH   XDATA    BYTE      TKDIV02
      0200FF9EH   XDATA    BYTE      TKDIV03
      0200FF9FH   XDATA    BYTE      TKDIV04
*SFR* 000000A6H   DATA     BYTE      TKF0
      0200FF9BH   XDATA    BYTE      TKRANDOM
      0200FF9AH   XDATA    BYTE      TKST
      0200FF90H   XDATA    BYTE      TKVREF
*SFR* 0000008AH   DATA     BYTE      TL0
*SFR* 0000008BH   DATA     BYTE      TL1
*SFR* 000000CCH   DATA     BYTE      TL2
LX51 LINKER/LOCATER V4.66.41.0                                                        11/18/2021  18:54:16  PAGE 40


*SFR* 00000089H   DATA     BYTE      TMOD
*SFR* 00000088H.4 DATA     BIT       TR0
*SFR* 00000088H.6 DATA     BIT       TR1
*SFR* 000000C8H.2 DATA     BIT       TR2
      0200FFC9H   XDATA    BYTE      TXBUF
*SFR* 000000F7H   DATA     BYTE      XPAGE
      0200FFA6H   XDATA    BYTE      YR



SYMBOL TABLE OF MODULE:  DTSY666-2019 (APPCOMM)

      VALUE       REP       CLASS    TYPE      SYMBOL NAME
      ====================================================
      ---         MODULE    ---      ---       APPCOMM
      008282CAH   PUBLIC    CODE/B2  ---       _ApiComm_CommParaInit
      00828000H   PUBLIC    CODE/B2  ---       ApiComm_CommTask
      000000F3H   SFRSYM    DATA     BYTE      IB_CON2
      000000D8H.3 SFRSYM    DATA     BIT       TB81
      00000080H   SFRSYM    DATA     BYTE      P0
      000000F4H   SFRSYM    DATA     BYTE      IB_CON3
      000000A4H   SFRSYM    DATA     BYTE      TKCON
      00000090H   SFRSYM    DATA     BYTE      P1
      000000F5H   SFRSYM    DATA     BYTE      IB_CON4
      000000E7H   SFRSYM    DATA     BYTE      PASLO
      000000A0H   SFRSYM    DATA     BYTE      P2
      000000FEH   SFRSYM    DATA     BYTE      OSCLO
      000000F6H   SFRSYM    DATA     BYTE      IB_CON5
      00000098H.6 SFRSYM    DATA     BIT       SM1_RXOV
      000000B0H   SFRSYM    DATA     BYTE      P3
      000000D0H.6 SFRSYM    DATA     BIT       AC
      000000C0H   SFRSYM    DATA     BYTE      P4
      000000A1H   SFRSYM    DATA     BYTE      SPCON
      0000009CH   SFRSYM    DATA     BYTE      SBRTH
      000000E9H   SFRSYM    DATA     BYTE      P5
      000000A8H.7 SFRSYM    DATA     BIT       EA
      000000EAH   SFRSYM    DATA     BYTE      P6
      000000EBH   SFRSYM    DATA     BYTE      P7
      000000EFH   SFRSYM    DATA     BYTE      IB_DATA
      000000ECH   SFRSYM    DATA     BYTE      P8
      0000009DH   SFRSYM    DATA     BYTE      SBRTL
      000000EDH   SFRSYM    DATA     BYTE      P9
      000000B7H   SFRSYM    DATA     BYTE      PBANKLO
      000000A2H   SFRSYM    DATA     BYTE      SPSTA
      000000A8H   SFRSYM    DATA     BYTE      IEN0
      000000B3H   SFRSYM    DATA     BYTE      PWRCON1
      00000095H   SFRSYM    DATA     BYTE      EMUSR
      000000A9H   SFRSYM    DATA     BYTE      IEN1
      000000B4H   SFRSYM    DATA     BYTE      PWRCON2
      00000085H   SFRSYM    DATA     BYTE      DPH1
      00000080H   SFRSYM    DATA     BIT       P0_0
      00000090H   SFRSYM    DATA     BIT       P1_0
      00000080H.1 SFRSYM    DATA     BIT       P0_1
      000000C3H   SFRSYM    DATA     BYTE      ADCH
      000000A0H   SFRSYM    DATA     BIT       P2_0
      00000090H.1 SFRSYM    DATA     BIT       P1_1
      00000080H.2 SFRSYM    DATA     BIT       P0_2
      000000BAH   SFRSYM    DATA     BYTE      IPH0
      00000084H   SFRSYM    DATA     BYTE      DPL1
      000000B0H   SFRSYM    DATA     BIT       P3_0
      000000A0H.1 SFRSYM    DATA     BIT       P2_1
      00000090H.2 SFRSYM    DATA     BIT       P1_2
      00000080H.3 SFRSYM    DATA     BIT       P0_3
      000000BBH   SFRSYM    DATA     BYTE      IPH1
      000000C0H   SFRSYM    DATA     BIT       P4_0
LX51 LINKER/LOCATER V4.66.41.0                                                        11/18/2021  18:54:16  PAGE 41


      000000B0H.1 SFRSYM    DATA     BIT       P3_1
      000000A0H.2 SFRSYM    DATA     BIT       P2_2
      00000090H.3 SFRSYM    DATA     BIT       P1_3
      00000080H.4 SFRSYM    DATA     BIT       P0_4
      000000E8H   SFRSYM    DATA     BYTE      EXF0
      000000C0H.1 SFRSYM    DATA     BIT       P4_1
      000000B0H.2 SFRSYM    DATA     BIT       P3_2
      000000A0H.3 SFRSYM    DATA     BIT       P2_3
      00000090H.4 SFRSYM    DATA     BIT       P1_4
      00000080H.5 SFRSYM    DATA     BIT       P0_5
      000000C0H.2 SFRSYM    DATA     BIT       P4_2
      000000B0H.3 SFRSYM    DATA     BIT       P3_3
      000000A0H.4 SFRSYM    DATA     BIT       P2_4
      00000090H.5 SFRSYM    DATA     BIT       P1_5
      00000080H.6 SFRSYM    DATA     BIT       P0_6
      000000C8H.6 SFRSYM    DATA     BIT       EXF2
      000000A6H   SFRSYM    DATA     BYTE      TKF0
      000000B8H   SFRSYM    DATA     BYTE      IPL0
      000000C0H.3 SFRSYM    DATA     BIT       P4_3
      000000B0H.4 SFRSYM    DATA     BIT       P3_4
      000000A0H.5 SFRSYM    DATA     BIT       P2_5
      00000090H.6 SFRSYM    DATA     BIT       P1_6
      00000080H.7 SFRSYM    DATA     BIT       P0_7
      000000D8H.4 SFRSYM    DATA     BIT       REN1
      000000B9H   SFRSYM    DATA     BYTE      IPL1
      000000C0H.4 SFRSYM    DATA     BIT       P4_4
      000000B0H.5 SFRSYM    DATA     BIT       P3_5
      000000A0H.6 SFRSYM    DATA     BIT       P2_6
      00000090H.7 SFRSYM    DATA     BIT       P1_7
      000000E2H   SFRSYM    DATA     BYTE      TK0H
      0000008EH   SFRSYM    DATA     BYTE      SUSLO
      000000C0H.5 SFRSYM    DATA     BIT       P4_5
      000000B0H.6 SFRSYM    DATA     BIT       P3_6
      000000A0H.7 SFRSYM    DATA     BIT       P2_7
      000000E4H   SFRSYM    DATA     BYTE      TK1H
      000000C0H.6 SFRSYM    DATA     BIT       P4_6
      000000B0H.7 SFRSYM    DATA     BIT       P3_7
      000000E6H   SFRSYM    DATA     BYTE      TK2H
      000000C0H.7 SFRSYM    DATA     BIT       P4_7
      00000098H   SFRSYM    DATA     BIT       RI
      000000A8H.2 SFRSYM    DATA     BIT       E7816
      000000D0H.7 SFRSYM    DATA     BIT       CY
      000000E1H   SFRSYM    DATA     BYTE      TK0L
      00000098H.1 SFRSYM    DATA     BIT       TI
      00000091H   SFRSYM    DATA     BYTE      EADR
      000000E3H   SFRSYM    DATA     BYTE      TK1L
      000000E5H   SFRSYM    DATA     BYTE      TK2L
      000000DBH   SFRSYM    DATA     BYTE      SADEN1
      000000D8H.7 SFRSYM    DATA     BIT       SM10_FE1
      000000FBH   SFRSYM    DATA     BYTE      SADEN2
      000000B8H.4 SFRSYM    DATA     BIT       PS0L
      000000B8H.1 SFRSYM    DATA     BIT       PT0L
      000000DAH   SFRSYM    DATA     BYTE      SADDR1
      000000D8H.5 SFRSYM    DATA     BIT       SM12_TXCOL1
      000000B8H.3 SFRSYM    DATA     BIT       PT1L
      000000FAH   SFRSYM    DATA     BYTE      SADDR2
      000000CBH   SFRSYM    DATA     BYTE      RCAP2H
      000000B8H.5 SFRSYM    DATA     BIT       PT2L
      00000081H   SFRSYM    DATA     BYTE      SP
      000000D0H.2 SFRSYM    DATA     BIT       OV
      000000CAH   SFRSYM    DATA     BYTE      RCAP2L
      000000B8H   SFRSYM    DATA     BIT       PX4L
      000000C8H.1 SFRSYM    DATA     BIT       C_T2
      000000DEH   SFRSYM    DATA     BYTE      SFINE2
      000000ADH   SFRSYM    DATA     BYTE      IRCON1
LX51 LINKER/LOCATER V4.66.41.0                                                        11/18/2021  18:54:16  PAGE 42


      000000AFH   SFRSYM    DATA     BYTE      IRCON2
      000000ABH   SFRSYM    DATA     BYTE      EXCON1
      00000099H   SFRSYM    DATA     BYTE      SBUF
      000000ACH   SFRSYM    DATA     BYTE      EXCON2
      00000087H   SFRSYM    DATA     BYTE      PCON
      000000F1H   SFRSYM    DATA     BYTE      AUXC
      00000098H   SFRSYM    DATA     BYTE      SCON
      000000D4H   SFRSYM    DATA     BYTE      TK0BASEH
      00000089H   SFRSYM    DATA     BYTE      TMOD
      00000088H   SFRSYM    DATA     BYTE      TCON
      000000AAH   SFRSYM    DATA     BYTE      IENX
      000000EEH   SFRSYM    DATA     BYTE      IB_OFFSET
      000000D6H   SFRSYM    DATA     BYTE      TK1BASEH
      000000DCH   SFRSYM    DATA     BYTE      SBRT1H
      000000DFH   SFRSYM    DATA     BYTE      TK2BASEH
      000000FCH   SFRSYM    DATA     BYTE      SBRT2H
      000000B1H   SFRSYM    DATA     BYTE      RSTSTAT
      000000D3H   SFRSYM    DATA     BYTE      TK0BASEL
      000000D5H   SFRSYM    DATA     BYTE      TK1BASEL
      000000DDH   SFRSYM    DATA     BYTE      SBRT1L
      000000D7H   SFRSYM    DATA     BYTE      TK2BASEL
      000000FDH   SFRSYM    DATA     BYTE      SBRT2L
      00000098H.7 SFRSYM    DATA     BIT       SM0_FE
      000000B2H   SFRSYM    DATA     BYTE      CLKCON
      00000098H.5 SFRSYM    DATA     BIT       SM2_TXCOL
      000000B5H   SFRSYM    DATA     BYTE      LDOCON
      000000F0H   SFRSYM    DATA     BYTE      B
      000000C8H   SFRSYM    DATA     BIT       CP_RL2
      000000E0H   SFRSYM    DATA     BYTE      ACC
      000000A8H.4 SFRSYM    DATA     BIT       ES0
      000000A8H.1 SFRSYM    DATA     BIT       ET0
      000000A8H.3 SFRSYM    DATA     BIT       ET1
      00000088H.5 SFRSYM    DATA     BIT       TF0
      000000A8H.5 SFRSYM    DATA     BIT       ET2
      00000088H.7 SFRSYM    DATA     BIT       TF1
      000000D8H   SFRSYM    DATA     BIT       RI1
      00000098H.2 SFRSYM    DATA     BIT       RB8
      000000C8H.7 SFRSYM    DATA     BIT       TF2
      0000008CH   SFRSYM    DATA     BYTE      TH0
      00000086H   SFRSYM    DATA     BYTE      INSCON
      0000008DH   SFRSYM    DATA     BYTE      TH1
      000000D8H.1 SFRSYM    DATA     BIT       TI1
      00000098H.3 SFRSYM    DATA     BIT       TB8
      000000CDH   SFRSYM    DATA     BYTE      TH2
      000000D0H   SFRSYM    DATA     BIT       P
      0000008AH   SFRSYM    DATA     BYTE      TL0
      000000A8H   SFRSYM    DATA     BIT       EX4
      0000008BH   SFRSYM    DATA     BYTE      TL1
      000000A7H   SFRSYM    DATA     BYTE      FLASHCON
      000000CCH   SFRSYM    DATA     BYTE      TL2
      000000D0H.3 SFRSYM    DATA     BIT       RS0
      000000C5H   SFRSYM    DATA     BYTE      ADCDH
      00000088H.4 SFRSYM    DATA     BIT       TR0
      000000D0H.4 SFRSYM    DATA     BIT       RS1
      0000009FH   SFRSYM    DATA     BYTE      PWMCON
      00000088H.6 SFRSYM    DATA     BIT       TR1
      000000C8H.2 SFRSYM    DATA     BIT       TR2
      000000C4H   SFRSYM    DATA     BYTE      ADCDL
      000000C2H   SFRSYM    DATA     BYTE      ADT
      00000083H   SFRSYM    DATA     BYTE      DPH
      00000082H   SFRSYM    DATA     BYTE      DPL
      000000D9H   SFRSYM    DATA     BYTE      SBUF1
      000000C8H.3 SFRSYM    DATA     BIT       EXEN2
      000000F9H   SFRSYM    DATA     BYTE      SBUF2
      000000D8H.6 SFRSYM    DATA     BIT       SM11_RXOV1
LX51 LINKER/LOCATER V4.66.41.0                                                        11/18/2021  18:54:16  PAGE 43


      000000B8H.6 SFRSYM    DATA     BIT       PADCL
      00000098H.4 SFRSYM    DATA     BIT       REN
      000000D8H   SFRSYM    DATA     BYTE      SCON1
      000000D1H   SFRSYM    DATA     BYTE      LCDCON1
      000000C1H   SFRSYM    DATA     BYTE      ADCON
      000000F8H   SFRSYM    DATA     BYTE      SCON2
      0000008FH   SFRSYM    DATA     BYTE      TCON1
      000000D2H   SFRSYM    DATA     BYTE      LCDCON2
      00000092H   SFRSYM    DATA     BYTE      EDTAH
      000000C9H   SFRSYM    DATA     BYTE      T2MOD
      000000C8H   SFRSYM    DATA     BYTE      T2CON
      00000094H   SFRSYM    DATA     BYTE      EDTAL
      00000093H   SFRSYM    DATA     BYTE      EDTAM
      000000BCH   SFRSYM    DATA     BYTE      TK0DIFH
      0000009BH   SFRSYM    DATA     BYTE      SADEN
      000000BEH   SFRSYM    DATA     BYTE      TK1DIFH
      000000B6H   SFRSYM    DATA     BYTE      PBANK
      000000A5H   SFRSYM    DATA     BYTE      TK2DIFH
      000000A8H.6 SFRSYM    DATA     BIT       EADTP
      0000009AH   SFRSYM    DATA     BYTE      SADDR
      000000CFH   SFRSYM    DATA     BYTE      TK0DIFL
      000000BDH   SFRSYM    DATA     BYTE      TK1DIFL
      000000BFH   SFRSYM    DATA     BYTE      TK2DIFL
      000000B8H.2 SFRSYM    DATA     BIT       P7816L
      000000C6H   SFRSYM    DATA     BYTE      LPDCON1
      000000C7H   SFRSYM    DATA     BYTE      LPDCON2
      000000D0H.5 SFRSYM    DATA     BIT       F0
      000000AEH   SFRSYM    DATA     BYTE      IRDAT
      000000D0H.1 SFRSYM    DATA     BIT       F1
      00000096H   SFRSYM    DATA     BYTE      EMUIE
      0000009EH   SFRSYM    DATA     BYTE      SFINE
      000000F7H   SFRSYM    DATA     BYTE      XPAGE
      00000097H   SFRSYM    DATA     BYTE      EMUIF
      000000D0H   SFRSYM    DATA     BYTE      PSW
      000000D8H.2 SFRSYM    DATA     BIT       RB81
      000000A3H   SFRSYM    DATA     BYTE      SPDAT
      000000F2H   SFRSYM    DATA     BYTE      IB_CON1
      0082802FH   SYMBOL    CODE/B2  ---       _ApiComm_ChannelProcess
      0082829BH   SYMBOL    CODE/B2  ---       _ApiComm_ProtocolProcess

      00828000H   BLOCK     CODE/B2  ---       LVL=0
      00828000H   LINE      ---      ---       #86
      00828000H   LINE      ---      ---       #87
      00828000H   BLOCK     CODE/B2  NEAR LAB  LVL=1
      00828000H   LINE      ---      ---       #90
      00828007H   LINE      ---      ---       #91
      00828007H   LINE      ---      ---       #93
      00828007H   LINE      ---      ---       #96
      00828016H   LINE      ---      ---       #97
      00828016H   LINE      ---      ---       #98
      00828018H   LINE      ---      ---       #99
      0082801FH   LINE      ---      ---       #100
      00828026H   LINE      ---      ---       #101
      0082802EH   LINE      ---      ---       #102
      0200060EH   SYMBOL    XDATA    BYTE      V_ucCnti
      ---         BLOCKEND  CODE/B2  ---       LVL=1
      ---         BLOCKEND  CODE/B2  ---       LVL=0

      0082802FH   BLOCK     CODE/B2  ---       LVL=0
      0082802FH   LINE      ---      ---       #116
      00828034H   LINE      ---      ---       #117
      0200060FH   SYMBOL    XDATA    BYTE      v_ucChID
      00828034H   BLOCK     CODE/B2  NEAR LAB  LVL=1
      00828034H   LINE      ---      ---       #118
      00828038H   LINE      ---      ---       #119
LX51 LINKER/LOCATER V4.66.41.0                                                        11/18/2021  18:54:16  PAGE 44


      00828040H   LINE      ---      ---       #121
      00828078H   LINE      ---      ---       #122
      00828078H   LINE      ---      ---       #125
      00828078H   LINE      ---      ---       #126
      00828078H   LINE      ---      ---       #127
      008280C0H   LINE      ---      ---       #128
      008280C0H   LINE      ---      ---       #129
      008280C0H   LINE      ---      ---       #130
      008280C0H   LINE      ---      ---       #132
      008280C2H   LINE      ---      ---       #135
      008280C2H   LINE      ---      ---       #136
      008280C2H   LINE      ---      ---       #137
      008280FCH   LINE      ---      ---       #139
      008280FCH   LINE      ---      ---       #140
      008280FCH   LINE      ---      ---       #141
      008280FCH   LINE      ---      ---       #142
      008280FEH   LINE      ---      ---       #145
      008280FEH   LINE      ---      ---       #146
      008280FEH   LINE      ---      ---       #147
      00828138H   LINE      ---      ---       #149
      00828138H   LINE      ---      ---       #150
      0082813CH   LINE      ---      ---       #151
      0082813CH   LINE      ---      ---       #152
      0082813EH   LINE      ---      ---       #171
      0082813EH   LINE      ---      ---       #172
      0082813EH   LINE      ---      ---       #173
      00828144H   LINE      ---      ---       #175
      008281E2H   LINE      ---      ---       #177
      008281E2H   LINE      ---      ---       #178
      008281E9H   LINE      ---      ---       #179
      008281E9H   LINE      ---      ---       #180
      008281EBH   LINE      ---      ---       #183
      008281EBH   LINE      ---      ---       #184
      008281EBH   LINE      ---      ---       #185
      008281F0H   LINE      ---      ---       #187
      008281FAH   LINE      ---      ---       #188
      008281FAH   LINE      ---      ---       #189
      008281FDH   LINE      ---      ---       #190
      008281FDH   LINE      ---      ---       #191
      008281FFH   LINE      ---      ---       #194
      008281FFH   LINE      ---      ---       #195
      008281FFH   LINE      ---      ---       #196
      0082821AH   LINE      ---      ---       #197
      00828238H   LINE      ---      ---       #200
      0082823BH   LINE      ---      ---       #201
      0082823BH   LINE      ---      ---       #202
      0082823FH   LINE      ---      ---       #203
      0082824EH   LINE      ---      ---       #204
      00828251H   LINE      ---      ---       #205
      00828251H   LINE      ---      ---       #206
      00828253H   LINE      ---      ---       #207
      00828255H   LINE      ---      ---       #209
      00828255H   LINE      ---      ---       #210
      00828257H   LINE      ---      ---       #211
      00828257H   LINE      ---      ---       #212
      00828259H   LINE      ---      ---       #213
      00828259H   LINE      ---      ---       #215
      00828260H   LINE      ---      ---       #216
      00828260H   LINE      ---      ---       #218
      00828265H   LINE      ---      ---       #219
      00828274H   LINE      ---      ---       #220
      00828277H   LINE      ---      ---       #221
      00828277H   LINE      ---      ---       #222
      00828279H   LINE      ---      ---       #223
      0082827BH   LINE      ---      ---       #225
LX51 LINKER/LOCATER V4.66.41.0                                                        11/18/2021  18:54:16  PAGE 45


      0082827BH   LINE      ---      ---       #226
      0082827DH   LINE      ---      ---       #227
      0082827DH   LINE      ---      ---       #228
      0082827FH   LINE      ---      ---       #229
      0082827FH   LINE      ---      ---       #231
      0082827FH   LINE      ---      ---       #233
      0082827FH   LINE      ---      ---       #234
      0082827FH   LINE      ---      ---       #236
      00828285H   LINE      ---      ---       #237
      00828285H   LINE      ---      ---       #239
      0082828BH   LINE      ---      ---       #240
      0082828BH   LINE      ---      ---       #241
      0082828CH   LINE      ---      ---       #242
      0082828EH   LINE      ---      ---       #243
      00828295H   LINE      ---      ---       #244
      00828295H   LINE      ---      ---       #245
      0082829AH   LINE      ---      ---       #246
      0082829AH   LINE      ---      ---       #248
      0082829AH   LINE      ---      ---       #249
      02000610H   SYMBOL    XDATA    BYTE      V_ucInitUartFlg
      02000611H   SYMBOL    XDATA    DWORD     V_ulTempData
      ---         BLOCKEND  CODE/B2  ---       LVL=1
      ---         BLOCKEND  CODE/B2  ---       LVL=0

      0082829BH   BLOCK     CODE/B2  ---       LVL=0
      0082829BH   LINE      ---      ---       #262
      0082829BH   LINE      ---      ---       #263
      0082829BH   LINE      ---      ---       #264
      008282B1H   LINE      ---      ---       #265
      008282B1H   LINE      ---      ---       #266
      008282C6H   LINE      ---      ---       #267
      008282C9H   LINE      ---      ---       #268
      008282C9H   LINE      ---      ---       #269
      00000007H   SYMBOL    DATA     BYTE      v_ucChID
      ---         BLOCKEND  ---      ---       LVL=0

      008282CAH   BLOCK     CODE/B2  ---       LVL=0
      008282CAH   LINE      ---      ---       #284
      008282CFH   LINE      ---      ---       #285
      008282CFH   LINE      ---      ---       #315
      008282EBH   LINE      ---      ---       #316
      00828306H   LINE      ---      ---       #317
      00828321H   LINE      ---      ---       #318
      0082833CH   LINE      ---      ---       #319
      00828357H   LINE      ---      ---       #320
      00828376H   LINE      ---      ---       #321
      00828396H   LINE      ---      ---       #322
      008283B6H   LINE      ---      ---       #323
      008283D6H   LINE      ---      ---       #324
      008283F1H   LINE      ---      ---       #325
      0082840CH   LINE      ---      ---       #326
      02000DD3H   SYMBOL    XDATA    BYTE      v_ucChID
      ---         BLOCKEND  ---      ---       LVL=0

      ---         MODULE    ---      ---       APPDLT645
      02000DCBH   PUBLIC    XDATA    ---       GU_SecurityErr
      01001163H   PUBLIC    CONST    ---       GT_ucVirtualEsam
      0100115CH   PUBLIC    CONST    ---       C_ulaSafeCertification_ReturnType
      01001155H   PUBLIC    CONST    ---       C_ulaSafeCertification_ReturnLen
      0100114EH   PUBLIC    CONST    ---       C_ulaSafeCertification_Len
      01001132H   PUBLIC    CONST    ---       C_ulaSafeCertification_Code
      01000E8FH   PUBLIC    CONST    ---       C_cBleComm_Head
      01000E7FH   PUBLIC    CONST    ---       GT_ucaProtocolVer
      01000E75H   PUBLIC    CONST    ---       GT_ucaMaterType
      01000E6DH   PUBLIC    CONST    ---       GT_ucaFactoryVerNo
LX51 LINKER/LOCATER V4.66.41.0                                                        11/18/2021  18:54:16  PAGE 46


      0082BA5DH   PUBLIC    CODE/B2  ---       ApiDLT645_GetStatusFlag3
      0082E6F6H   PUBLIC    CODE/B2  ---       _ApiDLT645_ModifyPsw
      0082BAC7H   PUBLIC    CODE/B2  ---       _ApiDLT645_AccountTx
      00829488H   PUBLIC    CODE/B2  ---       _ApiDLT645_MeterClear
      0082DE50H   PUBLIC    CODE/B2  ---       _ApiDLT645_SafeCertification
      0082CFB6H   PUBLIC    CODE/B2  ---       _ApiDLT645_RelayControl
      00829387H   PUBLIC    CODE/B2  ---       _ApiDLT645_AddrTypeCheck
      008289B3H   PUBLIC    CODE/B2  ---       _ApiDLT645_FrameAnalysis
      008286A4H   PUBLIC    CODE/B2  ---       _ApiDLT645_UARTReceiveDataJudge1
      0082840DH   PUBLIC    CODE/B2  ---       _ApiDLT645_UARTReceiveDataJudge0
      000000F3H   SFRSYM    DATA     BYTE      IB_CON2
      000000D8H.3 SFRSYM    DATA     BIT       TB81
      00000080H   SFRSYM    DATA     BYTE      P0
      000000F4H   SFRSYM    DATA     BYTE      IB_CON3
      000000A4H   SFRSYM    DATA     BYTE      TKCON
      00000090H   SFRSYM    DATA     BYTE      P1
      000000F5H   SFRSYM    DATA     BYTE      IB_CON4
      000000E7H   SFRSYM    DATA     BYTE      PASLO
      000000A0H   SFRSYM    DATA     BYTE      P2
      000000FEH   SFRSYM    DATA     BYTE      OSCLO
      000000F6H   SFRSYM    DATA     BYTE      IB_CON5
      00000098H.6 SFRSYM    DATA     BIT       SM1_RXOV
      000000B0H   SFRSYM    DATA     BYTE      P3
      000000D0H.6 SFRSYM    DATA     BIT       AC
      000000C0H   SFRSYM    DATA     BYTE      P4
      000000A1H   SFRSYM    DATA     BYTE      SPCON
      0000009CH   SFRSYM    DATA     BYTE      SBRTH
      000000E9H   SFRSYM    DATA     BYTE      P5
      000000A8H.7 SFRSYM    DATA     BIT       EA
      000000EAH   SFRSYM    DATA     BYTE      P6
      000000EBH   SFRSYM    DATA     BYTE      P7
      000000EFH   SFRSYM    DATA     BYTE      IB_DATA
      000000ECH   SFRSYM    DATA     BYTE      P8
      0000009DH   SFRSYM    DATA     BYTE      SBRTL
      000000EDH   SFRSYM    DATA     BYTE      P9
      000000B7H   SFRSYM    DATA     BYTE      PBANKLO
      000000A2H   SFRSYM    DATA     BYTE      SPSTA
      000000A8H   SFRSYM    DATA     BYTE      IEN0
      000000B3H   SFRSYM    DATA     BYTE      PWRCON1
      00000095H   SFRSYM    DATA     BYTE      EMUSR
      000000A9H   SFRSYM    DATA     BYTE      IEN1
      000000B4H   SFRSYM    DATA     BYTE      PWRCON2
      00000085H   SFRSYM    DATA     BYTE      DPH1
      00000080H   SFRSYM    DATA     BIT       P0_0
      00000090H   SFRSYM    DATA     BIT       P1_0
      00000080H.1 SFRSYM    DATA     BIT       P0_1
      000000C3H   SFRSYM    DATA     BYTE      ADCH
      000000A0H   SFRSYM    DATA     BIT       P2_0
      00000090H.1 SFRSYM    DATA     BIT       P1_1
      00000080H.2 SFRSYM    DATA     BIT       P0_2
      000000BAH   SFRSYM    DATA     BYTE      IPH0
      00000084H   SFRSYM    DATA     BYTE      DPL1
      000000B0H   SFRSYM    DATA     BIT       P3_0
      000000A0H.1 SFRSYM    DATA     BIT       P2_1
      00000090H.2 SFRSYM    DATA     BIT       P1_2
      00000080H.3 SFRSYM    DATA     BIT       P0_3
      000000BBH   SFRSYM    DATA     BYTE      IPH1
      000000C0H   SFRSYM    DATA     BIT       P4_0
      000000B0H.1 SFRSYM    DATA     BIT       P3_1
      000000A0H.2 SFRSYM    DATA     BIT       P2_2
      00000090H.3 SFRSYM    DATA     BIT       P1_3
      00000080H.4 SFRSYM    DATA     BIT       P0_4
      000000E8H   SFRSYM    DATA     BYTE      EXF0
      000000C0H.1 SFRSYM    DATA     BIT       P4_1
      000000B0H.2 SFRSYM    DATA     BIT       P3_2
LX51 LINKER/LOCATER V4.66.41.0                                                        11/18/2021  18:54:16  PAGE 47


      000000A0H.3 SFRSYM    DATA     BIT       P2_3
      00000090H.4 SFRSYM    DATA     BIT       P1_4
      00000080H.5 SFRSYM    DATA     BIT       P0_5
      000000C0H.2 SFRSYM    DATA     BIT       P4_2
      000000B0H.3 SFRSYM    DATA     BIT       P3_3
      000000A0H.4 SFRSYM    DATA     BIT       P2_4
      00000090H.5 SFRSYM    DATA     BIT       P1_5
      00000080H.6 SFRSYM    DATA     BIT       P0_6
      000000C8H.6 SFRSYM    DATA     BIT       EXF2
      000000A6H   SFRSYM    DATA     BYTE      TKF0
      000000B8H   SFRSYM    DATA     BYTE      IPL0
      000000C0H.3 SFRSYM    DATA     BIT       P4_3
      000000B0H.4 SFRSYM    DATA     BIT       P3_4
      000000A0H.5 SFRSYM    DATA     BIT       P2_5
      00000090H.6 SFRSYM    DATA     BIT       P1_6
      00000080H.7 SFRSYM    DATA     BIT       P0_7
      000000D8H.4 SFRSYM    DATA     BIT       REN1
      000000B9H   SFRSYM    DATA     BYTE      IPL1
      000000C0H.4 SFRSYM    DATA     BIT       P4_4
      000000B0H.5 SFRSYM    DATA     BIT       P3_5
      000000A0H.6 SFRSYM    DATA     BIT       P2_6
      00000090H.7 SFRSYM    DATA     BIT       P1_7
      000000E2H   SFRSYM    DATA     BYTE      TK0H
      0000008EH   SFRSYM    DATA     BYTE      SUSLO
      000000C0H.5 SFRSYM    DATA     BIT       P4_5
      000000B0H.6 SFRSYM    DATA     BIT       P3_6
      000000A0H.7 SFRSYM    DATA     BIT       P2_7
      000000E4H   SFRSYM    DATA     BYTE      TK1H
      000000C0H.6 SFRSYM    DATA     BIT       P4_6
      000000B0H.7 SFRSYM    DATA     BIT       P3_7
      000000E6H   SFRSYM    DATA     BYTE      TK2H
      000000C0H.7 SFRSYM    DATA     BIT       P4_7
      00000098H   SFRSYM    DATA     BIT       RI
      000000A8H.2 SFRSYM    DATA     BIT       E7816
      000000D0H.7 SFRSYM    DATA     BIT       CY
      000000E1H   SFRSYM    DATA     BYTE      TK0L
      00000098H.1 SFRSYM    DATA     BIT       TI
      00000091H   SFRSYM    DATA     BYTE      EADR
      000000E3H   SFRSYM    DATA     BYTE      TK1L
      000000E5H   SFRSYM    DATA     BYTE      TK2L
      000000DBH   SFRSYM    DATA     BYTE      SADEN1
      000000D8H.7 SFRSYM    DATA     BIT       SM10_FE1
      000000FBH   SFRSYM    DATA     BYTE      SADEN2
      000000B8H.4 SFRSYM    DATA     BIT       PS0L
      000000B8H.1 SFRSYM    DATA     BIT       PT0L
      000000DAH   SFRSYM    DATA     BYTE      SADDR1
      000000D8H.5 SFRSYM    DATA     BIT       SM12_TXCOL1
      000000B8H.3 SFRSYM    DATA     BIT       PT1L
      000000FAH   SFRSYM    DATA     BYTE      SADDR2
      000000CBH   SFRSYM    DATA     BYTE      RCAP2H
      000000B8H.5 SFRSYM    DATA     BIT       PT2L
      00000081H   SFRSYM    DATA     BYTE      SP
      000000D0H.2 SFRSYM    DATA     BIT       OV
      000000CAH   SFRSYM    DATA     BYTE      RCAP2L
      000000B8H   SFRSYM    DATA     BIT       PX4L
      000000C8H.1 SFRSYM    DATA     BIT       C_T2
      000000DEH   SFRSYM    DATA     BYTE      SFINE2
      000000ADH   SFRSYM    DATA     BYTE      IRCON1
      000000AFH   SFRSYM    DATA     BYTE      IRCON2
      000000ABH   SFRSYM    DATA     BYTE      EXCON1
      00000099H   SFRSYM    DATA     BYTE      SBUF
      000000ACH   SFRSYM    DATA     BYTE      EXCON2
      00000087H   SFRSYM    DATA     BYTE      PCON
      000000F1H   SFRSYM    DATA     BYTE      AUXC
      00000098H   SFRSYM    DATA     BYTE      SCON
LX51 LINKER/LOCATER V4.66.41.0                                                        11/18/2021  18:54:16  PAGE 48


      000000D4H   SFRSYM    DATA     BYTE      TK0BASEH
      00000089H   SFRSYM    DATA     BYTE      TMOD
      00000088H   SFRSYM    DATA     BYTE      TCON
      000000AAH   SFRSYM    DATA     BYTE      IENX
      000000EEH   SFRSYM    DATA     BYTE      IB_OFFSET
      000000D6H   SFRSYM    DATA     BYTE      TK1BASEH
      000000DCH   SFRSYM    DATA     BYTE      SBRT1H
      000000DFH   SFRSYM    DATA     BYTE      TK2BASEH
      000000FCH   SFRSYM    DATA     BYTE      SBRT2H
      000000B1H   SFRSYM    DATA     BYTE      RSTSTAT
      000000D3H   SFRSYM    DATA     BYTE      TK0BASEL
      000000D5H   SFRSYM    DATA     BYTE      TK1BASEL
      000000DDH   SFRSYM    DATA     BYTE      SBRT1L
      000000D7H   SFRSYM    DATA     BYTE      TK2BASEL
      000000FDH   SFRSYM    DATA     BYTE      SBRT2L
      00000098H.7 SFRSYM    DATA     BIT       SM0_FE
      000000B2H   SFRSYM    DATA     BYTE      CLKCON
      00000098H.5 SFRSYM    DATA     BIT       SM2_TXCOL
      000000B5H   SFRSYM    DATA     BYTE      LDOCON
      000000F0H   SFRSYM    DATA     BYTE      B
      000000C8H   SFRSYM    DATA     BIT       CP_RL2
      000000E0H   SFRSYM    DATA     BYTE      ACC
      000000A8H.4 SFRSYM    DATA     BIT       ES0
      000000A8H.1 SFRSYM    DATA     BIT       ET0
      000000A8H.3 SFRSYM    DATA     BIT       ET1
      00000088H.5 SFRSYM    DATA     BIT       TF0
      000000A8H.5 SFRSYM    DATA     BIT       ET2
      00000088H.7 SFRSYM    DATA     BIT       TF1
      000000D8H   SFRSYM    DATA     BIT       RI1
      00000098H.2 SFRSYM    DATA     BIT       RB8
      000000C8H.7 SFRSYM    DATA     BIT       TF2
      0000008CH   SFRSYM    DATA     BYTE      TH0
      00000086H   SFRSYM    DATA     BYTE      INSCON
      0000008DH   SFRSYM    DATA     BYTE      TH1
      000000D8H.1 SFRSYM    DATA     BIT       TI1
      00000098H.3 SFRSYM    DATA     BIT       TB8
      000000CDH   SFRSYM    DATA     BYTE      TH2
      000000D0H   SFRSYM    DATA     BIT       P
      0000008AH   SFRSYM    DATA     BYTE      TL0
      000000A8H   SFRSYM    DATA     BIT       EX4
      0000008BH   SFRSYM    DATA     BYTE      TL1
      000000A7H   SFRSYM    DATA     BYTE      FLASHCON
      000000CCH   SFRSYM    DATA     BYTE      TL2
      000000D0H.3 SFRSYM    DATA     BIT       RS0
      000000C5H   SFRSYM    DATA     BYTE      ADCDH
      00000088H.4 SFRSYM    DATA     BIT       TR0
      000000D0H.4 SFRSYM    DATA     BIT       RS1
      0000009FH   SFRSYM    DATA     BYTE      PWMCON
      00000088H.6 SFRSYM    DATA     BIT       TR1
      000000C8H.2 SFRSYM    DATA     BIT       TR2
      000000C4H   SFRSYM    DATA     BYTE      ADCDL
      000000C2H   SFRSYM    DATA     BYTE      ADT
      00000083H   SFRSYM    DATA     BYTE      DPH
      00000082H   SFRSYM    DATA     BYTE      DPL
      000000D9H   SFRSYM    DATA     BYTE      SBUF1
      000000C8H.3 SFRSYM    DATA     BIT       EXEN2
      000000F9H   SFRSYM    DATA     BYTE      SBUF2
      000000D8H.6 SFRSYM    DATA     BIT       SM11_RXOV1
      000000B8H.6 SFRSYM    DATA     BIT       PADCL
      00000098H.4 SFRSYM    DATA     BIT       REN
      000000D8H   SFRSYM    DATA     BYTE      SCON1
      000000D1H   SFRSYM    DATA     BYTE      LCDCON1
      000000C1H   SFRSYM    DATA     BYTE      ADCON
      000000F8H   SFRSYM    DATA     BYTE      SCON2
      0000008FH   SFRSYM    DATA     BYTE      TCON1
LX51 LINKER/LOCATER V4.66.41.0                                                        11/18/2021  18:54:16  PAGE 49


      000000D2H   SFRSYM    DATA     BYTE      LCDCON2
      00000092H   SFRSYM    DATA     BYTE      EDTAH
      000000C9H   SFRSYM    DATA     BYTE      T2MOD
      000000C8H   SFRSYM    DATA     BYTE      T2CON
      00000094H   SFRSYM    DATA     BYTE      EDTAL
      00000093H   SFRSYM    DATA     BYTE      EDTAM
      000000BCH   SFRSYM    DATA     BYTE      TK0DIFH
      0000009BH   SFRSYM    DATA     BYTE      SADEN
      000000BEH   SFRSYM    DATA     BYTE      TK1DIFH
      000000B6H   SFRSYM    DATA     BYTE      PBANK
      000000A5H   SFRSYM    DATA     BYTE      TK2DIFH
      000000A8H.6 SFRSYM    DATA     BIT       EADTP
      0000009AH   SFRSYM    DATA     BYTE      SADDR
      000000CFH   SFRSYM    DATA     BYTE      TK0DIFL
      000000BDH   SFRSYM    DATA     BYTE      TK1DIFL
      000000BFH   SFRSYM    DATA     BYTE      TK2DIFL
      000000B8H.2 SFRSYM    DATA     BIT       P7816L
      000000C6H   SFRSYM    DATA     BYTE      LPDCON1
      000000C7H   SFRSYM    DATA     BYTE      LPDCON2
      000000D0H.5 SFRSYM    DATA     BIT       F0
      000000AEH   SFRSYM    DATA     BYTE      IRDAT
      000000D0H.1 SFRSYM    DATA     BIT       F1
      00000096H   SFRSYM    DATA     BYTE      EMUIE
      0000009EH   SFRSYM    DATA     BYTE      SFINE
      000000F7H   SFRSYM    DATA     BYTE      XPAGE
      00000097H   SFRSYM    DATA     BYTE      EMUIF
      000000D0H   SFRSYM    DATA     BYTE      PSW
      000000D8H.2 SFRSYM    DATA     BIT       RB81
      000000A3H   SFRSYM    DATA     BYTE      SPDAT
      000000F2H   SFRSYM    DATA     BYTE      IB_CON1
      00829387H   SYMBOL    CODE/B2  ---       _ApiDLT645_AddrTypeCheck
      01000EA0H   SYMBOL    CONST    ---       Comm_MAP_TAB
      0082A35DH   SYMBOL    CODE/B2  ---       _ApiDLT645_WriteData
      0082BAC7H   SYMBOL    CODE/B2  ---       _ApiDLT645_AccountTx
      0082D1B8H   SYMBOL    CODE/B2  ---       _ApiDLT645_FactoryCommand
      0082E6F6H   SYMBOL    CODE/B2  ---       _ApiDLT645_ModifyPsw
      010011CBH   SYMBOL    CONST    ---       _?ix1000
      010011DFH   SYMBOL    CONST    ---       _?ix1001
      00829534H   SYMBOL    CODE/B2  ---       _ApiDLT645_ReadEmuReg
      0082926DH   SYMBOL    CODE/B2  ---       _ApiDLT645_ReadMeterAddress
      0082DE50H   SYMBOL    CODE/B2  ---       _ApiDLT645_SafeCertification
      00829447H   SYMBOL    CODE/B2  ---       _ApiDLT645_WriteEmuReg
      0082BA4FH   SYMBOL    CODE/B2  ---       ApiDLT645_GetStatusFlag3
      008292D9H   SYMBOL    CODE/B2  ---       _ApiDLT645_WriteMeterAddress
      0082976AH   SYMBOL    CODE/B2  ---       _ApiDLT645_ReadData07
      0082CFB6H   SYMBOL    CODE/B2  ---       _ApiDLT645_RelayControl
      00829488H   SYMBOL    CODE/B2  ---       _ApiDLT645_MeterClear
      0082BF84H   SYMBOL    CODE/B2  ---       _MultiDataWrite_Deal

      0082840DH   BLOCK     CODE/B2  ---       LVL=0
      0082840DH   LINE      ---      ---       #308
      00828417H   LINE      ---      ---       #309
      00828417H   LINE      ---      ---       #311
      0082842BH   LINE      ---      ---       #312
      00828449H   LINE      ---      ---       #314
      00828482H   LINE      ---      ---       #315
      00828482H   LINE      ---      ---       #317
      00828482H   LINE      ---      ---       #318
      00828482H   LINE      ---      ---       #319
      0082848CH   LINE      ---      ---       #320
      0082848CH   LINE      ---      ---       #321
      008284A7H   LINE      ---      ---       #322
      008284BEH   LINE      ---      ---       #323
      008284BEH   LINE      ---      ---       #329
      008284C0H   LINE      ---      ---       #332
LX51 LINKER/LOCATER V4.66.41.0                                                        11/18/2021  18:54:16  PAGE 50


      008284C0H   LINE      ---      ---       #333
      008284C0H   LINE      ---      ---       #334
      008284DAH   LINE      ---      ---       #335
      008284DAH   LINE      ---      ---       #336
      008284EFH   LINE      ---      ---       #337
      008284EFH   LINE      ---      ---       #338
      008284F1H   LINE      ---      ---       #341
      008284F1H   LINE      ---      ---       #342
      008284F1H   LINE      ---      ---       #343
      008284FBH   LINE      ---      ---       #344
      008284FBH   LINE      ---      ---       #345
      0082850DH   LINE      ---      ---       #346
      0082850FH   LINE      ---      ---       #348
      0082850FH   LINE      ---      ---       #349
      0082850FH   LINE      ---      ---       #350
      0082850FH   LINE      ---      ---       #351
      00828511H   LINE      ---      ---       #354
      00828511H   LINE      ---      ---       #355
      00828511H   LINE      ---      ---       #356
      00828526H   LINE      ---      ---       #357
      00828528H   LINE      ---      ---       #360
      00828528H   LINE      ---      ---       #361
      00828528H   LINE      ---      ---       #362
      0082852FH   LINE      ---      ---       #363
      0082852FH   LINE      ---      ---       #364
      0082852FH   LINE      ---      ---       #365
      00828531H   LINE      ---      ---       #367
      00828531H   LINE      ---      ---       #368
      0082853BH   LINE      ---      ---       #369
      0082853BH   LINE      ---      ---       #370
      0082853BH   LINE      ---      ---       #371
      0082853DH   LINE      ---      ---       #373
      0082853DH   LINE      ---      ---       #374
      0082854EH   LINE      ---      ---       #375
      0082854EH   LINE      ---      ---       #376
      0082854EH   LINE      ---      ---       #377
      00828550H   LINE      ---      ---       #380
      00828550H   LINE      ---      ---       #381
      00828550H   LINE      ---      ---       #382
      0082858CH   LINE      ---      ---       #383
      0082858CH   LINE      ---      ---       #384
      008285A1H   LINE      ---      ---       #385
      008285A1H   LINE      ---      ---       #386
      008285A3H   LINE      ---      ---       #389
      008285A3H   LINE      ---      ---       #390
      008285A3H   LINE      ---      ---       #391
      008285B8H   LINE      ---      ---       #392
      008285BAH   LINE      ---      ---       #395
      008285BAH   LINE      ---      ---       #396
      008285BAH   LINE      ---      ---       #397
      008285C5H   LINE      ---      ---       #398
      008285C5H   LINE      ---      ---       #399
      008285D2H   LINE      ---      ---       #400
      008285D4H   LINE      ---      ---       #402
      008285D4H   LINE      ---      ---       #403
      008285E6H   LINE      ---      ---       #404
      00828604H   LINE      ---      ---       #405
      0082860DH   LINE      ---      ---       #406
      00828613H   LINE      ---      ---       #408
      00828613H   LINE      ---      ---       #409
      00828615H   LINE      ---      ---       #411
      00828615H   LINE      ---      ---       #412
      00828615H   LINE      ---      ---       #413
      00828630H   LINE      ---      ---       #414
      00828630H   LINE      ---      ---       #415
LX51 LINKER/LOCATER V4.66.41.0                                                        11/18/2021  18:54:16  PAGE 51


      00828630H   LINE      ---      ---       #418
      0082864DH   LINE      ---      ---       #419
      0082864DH   LINE      ---      ---       #420
      0082868CH   LINE      ---      ---       #421
      008286A3H   LINE      ---      ---       #422
      008286A3H   LINE      ---      ---       #423
      020005F8H   SYMBOL    XDATA    BYTE      v_ucChID
      020005F9H   SYMBOL    XDATA    BYTE      v_ucData
      ---         BLOCKEND  ---      ---       LVL=0

      008286A4H   BLOCK     CODE/B2  ---       LVL=0
      008286A4H   LINE      ---      ---       #435
      008286AEH   LINE      ---      ---       #436
      008286AEH   LINE      ---      ---       #438
      008286C2H   LINE      ---      ---       #439
      008286E0H   LINE      ---      ---       #441
      00828717H   LINE      ---      ---       #442
      00828717H   LINE      ---      ---       #444
      00828717H   LINE      ---      ---       #445
      00828717H   LINE      ---      ---       #446
      00828722H   LINE      ---      ---       #447
      00828722H   LINE      ---      ---       #448
      0082873DH   LINE      ---      ---       #449
      00828754H   LINE      ---      ---       #450
      00828754H   LINE      ---      ---       #452
      00828757H   LINE      ---      ---       #455
      00828757H   LINE      ---      ---       #456
      00828757H   LINE      ---      ---       #457
      00828762H   LINE      ---      ---       #458
      00828762H   LINE      ---      ---       #459
      00828777H   LINE      ---      ---       #460
      00828777H   LINE      ---      ---       #461
      0082878CH   LINE      ---      ---       #462
      0082878FH   LINE      ---      ---       #465
      0082878FH   LINE      ---      ---       #466
      0082878FH   LINE      ---      ---       #467
      008287B5H   LINE      ---      ---       #468
      008287B5H   LINE      ---      ---       #469
      008287CAH   LINE      ---      ---       #470
      008287CAH   LINE      ---      ---       #471
      008287CDH   LINE      ---      ---       #474
      008287CDH   LINE      ---      ---       #475
      008287CDH   LINE      ---      ---       #476
      008287E2H   LINE      ---      ---       #477
      008287E5H   LINE      ---      ---       #480
      008287E5H   LINE      ---      ---       #481
      008287E5H   LINE      ---      ---       #482
      00828821H   LINE      ---      ---       #483
      00828821H   LINE      ---      ---       #484
      00828836H   LINE      ---      ---       #485
      00828836H   LINE      ---      ---       #486
      00828838H   LINE      ---      ---       #489
      00828838H   LINE      ---      ---       #490
      00828838H   LINE      ---      ---       #491
      0082884DH   LINE      ---      ---       #492
      0082884FH   LINE      ---      ---       #495
      0082884FH   LINE      ---      ---       #496
      0082884FH   LINE      ---      ---       #497
      00828857H   LINE      ---      ---       #498
      00828857H   LINE      ---      ---       #499
      00828867H   LINE      ---      ---       #500
      00828869H   LINE      ---      ---       #502
      00828869H   LINE      ---      ---       #503
      0082887EH   LINE      ---      ---       #504
      0082889CH   LINE      ---      ---       #505
LX51 LINKER/LOCATER V4.66.41.0                                                        11/18/2021  18:54:16  PAGE 52


      008288A5H   LINE      ---      ---       #506
      008288ABH   LINE      ---      ---       #508
      008288E2H   LINE      ---      ---       #509
      008288E2H   LINE      ---      ---       #510
      008288FFH   LINE      ---      ---       #511
      008288FFH   LINE      ---      ---       #512
      00828904H   LINE      ---      ---       #513
      0082890AH   LINE      ---      ---       #514
      0082890CH   LINE      ---      ---       #515
      00828915H   LINE      ---      ---       #516
      00828915H   LINE      ---      ---       #517
      0082891AH   LINE      ---      ---       #518
      0082891CH   LINE      ---      ---       #520
      0082891CH   LINE      ---      ---       #521
      00828922H   LINE      ---      ---       #522
      00828922H   LINE      ---      ---       #523
      00828922H   LINE      ---      ---       #524
      00828922H   LINE      ---      ---       #525
      00828924H   LINE      ---      ---       #527
      00828924H   LINE      ---      ---       #528
      00828924H   LINE      ---      ---       #529
      0082893FH   LINE      ---      ---       #530
      0082893FH   LINE      ---      ---       #531
      0082893FH   LINE      ---      ---       #534
      0082895CH   LINE      ---      ---       #535
      0082895CH   LINE      ---      ---       #536
      0082899BH   LINE      ---      ---       #537
      008289B2H   LINE      ---      ---       #538
      008289B2H   LINE      ---      ---       #539
      02000604H   SYMBOL    XDATA    BYTE      v_ucChID
      02000605H   SYMBOL    XDATA    BYTE      v_ucData
      ---         BLOCKEND  ---      ---       LVL=0

      008289B3H   BLOCK     CODE/B2  ---       LVL=0
      008289B3H   LINE      ---      ---       #550
      008289B8H   LINE      ---      ---       #551
      02000615H   SYMBOL    XDATA    BYTE      v_ucChID
      008289B8H   BLOCK     CODE/B2  NEAR LAB  LVL=1
      008289B8H   LINE      ---      ---       #554
      008289CBH   LINE      ---      ---       #557
      008289D2H   LINE      ---      ---       #558
      008289D2H   LINE      ---      ---       #559
      00828A25H   LINE      ---      ---       #560
      00828A25H   LINE      ---      ---       #562
      00828A2DH   LINE      ---      ---       #563
      00828A2DH   LINE      ---      ---       #564
      00828A7FH   LINE      ---      ---       #565
      00828A7FH   LINE      ---      ---       #568
      00828AA1H   LINE      ---      ---       #569
      00828AB8H   LINE      ---      ---       #570
      00828AB8H   LINE      ---      ---       #571
      00828ABAH   LINE      ---      ---       #573
      00828ABAH   LINE      ---      ---       #576
      00828ADAH   LINE      ---      ---       #577
      00828B00H   LINE      ---      ---       #578
      00828B00H   LINE      ---      ---       #579
      00828B22H   LINE      ---      ---       #580
      00828B2AH   LINE      ---      ---       #581
      00828B5AH   LINE      ---      ---       #582
      00828B5AH   LINE      ---      ---       #583
      00828B72H   LINE      ---      ---       #585
      00828B72H   LINE      ---      ---       #589
      00828B8FH   LINE      ---      ---       #590
      00828B8FH   LINE      ---      ---       #591
      00828B9EH   LINE      ---      ---       #592
LX51 LINKER/LOCATER V4.66.41.0                                                        11/18/2021  18:54:16  PAGE 53


      00828B9EH   LINE      ---      ---       #593
      00828BA0H   LINE      ---      ---       #595
      00828BA0H   LINE      ---      ---       #596
      00828BD0H   LINE      ---      ---       #597
      00828C00H   LINE      ---      ---       #598
      00828C00H   LINE      ---      ---       #600
      00828C05H   LINE      ---      ---       #602
      00828C4CH   LINE      ---      ---       #603
      00828C4CH   LINE      ---      ---       #604
      00828C4CH   LINE      ---      ---       #605
      00828C4CH   LINE      ---      ---       #606
      00828C4FH   LINE      ---      ---       #607
      00828C51H   LINE      ---      ---       #609
      00828C51H   LINE      ---      ---       #610
      00828C51H   LINE      ---      ---       #611
      00828C59H   LINE      ---      ---       #612
      00828C5BH   LINE      ---      ---       #615
      00828C5BH   LINE      ---      ---       #616
      00828C5BH   LINE      ---      ---       #617
      00828C63H   LINE      ---      ---       #618
      00828C65H   LINE      ---      ---       #620
      00828C65H   LINE      ---      ---       #621
      00828C65H   LINE      ---      ---       #622
      00828C6DH   LINE      ---      ---       #623
      00828C6FH   LINE      ---      ---       #625
      00828C6FH   LINE      ---      ---       #626
      00828C6FH   LINE      ---      ---       #627
      00828C77H   LINE      ---      ---       #628
      00828C79H   LINE      ---      ---       #630
      00828C79H   LINE      ---      ---       #631
      00828C79H   LINE      ---      ---       #632
      00828CA9H   LINE      ---      ---       #633
      00828CB1H   LINE      ---      ---       #634
      00828CB3H   LINE      ---      ---       #636
      00828CB3H   LINE      ---      ---       #637
      00828CB3H   LINE      ---      ---       #638
      00828CB3H   LINE      ---      ---       #639
      00828CBBH   LINE      ---      ---       #640
      00828CBDH   LINE      ---      ---       #642
      00828CBDH   LINE      ---      ---       #643
      00828CBDH   LINE      ---      ---       #644
      00828CC5H   LINE      ---      ---       #645
      00828CC7H   LINE      ---      ---       #647
      00828CC7H   LINE      ---      ---       #648
      00828CC7H   LINE      ---      ---       #649
      00828CCFH   LINE      ---      ---       #650
      00828CD1H   LINE      ---      ---       #652
      00828CD1H   LINE      ---      ---       #653
      00828CD1H   LINE      ---      ---       #654
      00828CD9H   LINE      ---      ---       #655
      00828CDBH   LINE      ---      ---       #657
      00828CDBH   LINE      ---      ---       #658
      00828CDBH   LINE      ---      ---       #659
      00828CE3H   LINE      ---      ---       #660
      00828CE5H   LINE      ---      ---       #662
      00828CE5H   LINE      ---      ---       #663
      00828CE5H   LINE      ---      ---       #664
      00828CF2H   LINE      ---      ---       #665
      00828CF2H   LINE      ---      ---       #667
      00828CF2H   LINE      ---      ---       #668
      00828CF2H   LINE      ---      ---       #671
      00828D20H   LINE      ---      ---       #672
      00828D20H   LINE      ---      ---       #673
      00828D20H   LINE      ---      ---       #674
      00828D20H   LINE      ---      ---       #675
LX51 LINKER/LOCATER V4.66.41.0                                                        11/18/2021  18:54:16  PAGE 54


      00828D56H   LINE      ---      ---       #676
      00828D56H   LINE      ---      ---       #677
      00828D5DH   LINE      ---      ---       #678
      00828D5DH   LINE      ---      ---       #679
      00828D66H   LINE      ---      ---       #680
      00828D6DH   LINE      ---      ---       #681
      00828D70H   LINE      ---      ---       #682
      00828D70H   LINE      ---      ---       #683
      00828D72H   LINE      ---      ---       #685
      00828D72H   LINE      ---      ---       #686
      00828D7BH   LINE      ---      ---       #687
      00828D82H   LINE      ---      ---       #688
      00828D87H   LINE      ---      ---       #689
      00828D87H   LINE      ---      ---       #690
      00828D87H   LINE      ---      ---       #692
      00828D87H   LINE      ---      ---       #693
      00828D89H   LINE      ---      ---       #695
      00828D89H   LINE      ---      ---       #696
      00828D89H   LINE      ---      ---       #697
      00828DA5H   LINE      ---      ---       #698
      00828DA7H   LINE      ---      ---       #699
      00828DA7H   LINE      ---      ---       #700
      00828DA7H   LINE      ---      ---       #701
      00828DC3H   LINE      ---      ---       #702
      00828DDAH   LINE      ---      ---       #703
      00828DDCH   LINE      ---      ---       #705
      00828DDCH   LINE      ---      ---       #706
      00828DDCH   LINE      ---      ---       #707
      00828DDCH   LINE      ---      ---       #708
      00828DDCH   LINE      ---      ---       #709
      00828DDCH   LINE      ---      ---       #710
      00828DF8H   LINE      ---      ---       #711
      00828E0FH   LINE      ---      ---       #712
      00828E2EH   LINE      ---      ---       #714
      00828E30H   LINE      ---      ---       #717
      00828E30H   LINE      ---      ---       #722
      00828E30H   LINE      ---      ---       #723
      00828E30H   LINE      ---      ---       #724
      00828E4CH   LINE      ---      ---       #725
      00828E63H   LINE      ---      ---       #728
      00828E65H   LINE      ---      ---       #731
      00828E65H   LINE      ---      ---       #732
      00828E65H   LINE      ---      ---       #733
      00828E80H   LINE      ---      ---       #734
      00828E80H   LINE      ---      ---       #735
      00828E80H   LINE      ---      ---       #737
      00828EA0H   LINE      ---      ---       #738
      00828EA0H   LINE      ---      ---       #740
      00828EB9H   LINE      ---      ---       #742
      00828ED9H   LINE      ---      ---       #743
      00828F08H   LINE      ---      ---       #745
      00828F30H   LINE      ---      ---       #746
      00828F30H   LINE      ---      ---       #747
      00828F52H   LINE      ---      ---       #748
      00828F5AH   LINE      ---      ---       #749
      00828F7AH   LINE      ---      ---       #750
      00828FB4H   LINE      ---      ---       #751
      00828FEFH   LINE      ---      ---       #753
      00829021H   LINE      ---      ---       #755
      0082902CH   LINE      ---      ---       #756
      0082902CH   LINE      ---      ---       #757
      00829050H   LINE      ---      ---       #758
      00829050H   LINE      ---      ---       #759
      00829096H   LINE      ---      ---       #760
      0082909EH   LINE      ---      ---       #763
LX51 LINKER/LOCATER V4.66.41.0                                                        11/18/2021  18:54:16  PAGE 55


      008290CDH   LINE      ---      ---       #764
      008290FFH   LINE      ---      ---       #765
      0082913DH   LINE      ---      ---       #766
      0082916CH   LINE      ---      ---       #768
      008291A5H   LINE      ---      ---       #769
      008291DFH   LINE      ---      ---       #770
      0082921AH   LINE      ---      ---       #772
      0082924CH   LINE      ---      ---       #773
      00829251H   LINE      ---      ---       #774
      00829251H   LINE      ---      ---       #777
      0082926CH   LINE      ---      ---       #778
      0082926CH   LINE      ---      ---       #780
      02000616H   SYMBOL    XDATA    BYTE      V_ucTemp
      02000617H   SYMBOL    XDATA    BYTE      V_ucCnt_i
      02000618H   SYMBOL    XDATA    ---       BLE_head_Frame
      ---         BLOCKEND  CODE/B2  ---       LVL=1
      ---         BLOCKEND  CODE/B2  ---       LVL=0

      0082926DH   BLOCK     CODE/B2  ---       LVL=0
      0082926DH   LINE      ---      ---       #790
      00829272H   LINE      ---      ---       #791
      0200062CH   SYMBOL    XDATA    BYTE      v_ucChID
      00829272H   BLOCK     CODE/B2  NEAR LAB  LVL=1
      00829272H   LINE      ---      ---       #792
      00829274H   LINE      ---      ---       #794
      0082928AH   LINE      ---      ---       #795
      0082928AH   LINE      ---      ---       #797
      008292B9H   LINE      ---      ---       #798
      008292D4H   LINE      ---      ---       #799
      008292D6H   LINE      ---      ---       #800
      008292D6H   LINE      ---      ---       #802
      008292D8H   LINE      ---      ---       #803
      00000006H   SYMBOL    DATA     BYTE      V_ucErrorType
      ---         BLOCKEND  CODE/B2  ---       LVL=1
      ---         BLOCKEND  CODE/B2  ---       LVL=0

      008292D9H   BLOCK     CODE/B2  ---       LVL=0
      008292D9H   LINE      ---      ---       #813
      008292DEH   LINE      ---      ---       #814
      0200062CH   SYMBOL    XDATA    BYTE      v_ucChID
      008292DEH   BLOCK     CODE/B2  NEAR LAB  LVL=1
      008292DEH   LINE      ---      ---       #815
      008292E2H   LINE      ---      ---       #817
      00829301H   LINE      ---      ---       #818
      00829301H   LINE      ---      ---       #819
      0082931BH   LINE      ---      ---       #820
      0082931BH   LINE      ---      ---       #821
      0082931BH   LINE      ---      ---       #822
      0082931DH   LINE      ---      ---       #824
      0082931DH   LINE      ---      ---       #825
      0082932EH   LINE      ---      ---       #826
      0082932EH   LINE      ---      ---       #829
      0082935EH   LINE      ---      ---       #831
      00829372H   LINE      ---      ---       #832
      00829372H   LINE      ---      ---       #833
      00829373H   LINE      ---      ---       #834
      00829379H   LINE      ---      ---       #839
      0082937BH   LINE      ---      ---       #846
      0082937BH   LINE      ---      ---       #847
      00829381H   LINE      ---      ---       #848
      00829381H   LINE      ---      ---       #849
      00829381H   LINE      ---      ---       #850
      00829381H   LINE      ---      ---       #852
      00829386H   LINE      ---      ---       #853
      0200062DH   SYMBOL    XDATA    BYTE      V_ucErrorType
LX51 LINKER/LOCATER V4.66.41.0                                                        11/18/2021  18:54:16  PAGE 56


      ---         BLOCKEND  CODE/B2  ---       LVL=1
      ---         BLOCKEND  CODE/B2  ---       LVL=0

      00829387H   BLOCK     CODE/B2  ---       LVL=0
      00829387H   LINE      ---      ---       #865
      00829387H   LINE      ---      ---       #866
      00000007H   SYMBOL    DATA     BYTE      v_ucChID
      00829387H   BLOCK     CODE/B2  NEAR LAB  LVL=1
      00829387H   LINE      ---      ---       #867
      00829389H   LINE      ---      ---       #869
      0082938AH   LINE      ---      ---       #870
      0082938AH   LINE      ---      ---       #871
      008293AAH   LINE      ---      ---       #872
      008293AAH   LINE      ---      ---       #873
      008293AAH   LINE      ---      ---       #874
      008293AAH   LINE      ---      ---       #875
      008293AFH   LINE      ---      ---       #877
      008293B3H   LINE      ---      ---       #878
      008293B3H   LINE      ---      ---       #879
      008293B5H   LINE      ---      ---       #880
      008293B7H   LINE      ---      ---       #882
      008293B7H   LINE      ---      ---       #883
      008293B9H   LINE      ---      ---       #884
      008293B9H   LINE      ---      ---       #885
      008293E5H   LINE      ---      ---       #886
      008293E5H   LINE      ---      ---       #887
      008293EDH   LINE      ---      ---       #888
      008293EDH   LINE      ---      ---       #889
      00829426H   LINE      ---      ---       #890
      00829426H   LINE      ---      ---       #891
      00829426H   LINE      ---      ---       #892
      00829426H   LINE      ---      ---       #893
      00829429H   LINE      ---      ---       #894
      0082942DH   LINE      ---      ---       #895
      0082942DH   LINE      ---      ---       #896
      00829432H   LINE      ---      ---       #897
      00829432H   LINE      ---      ---       #898
      00829434H   LINE      ---      ---       #899
      00829434H   LINE      ---      ---       #901
      00829434H   LINE      ---      ---       #902
      00829434H   LINE      ---      ---       #903
      00829434H   LINE      ---      ---       #904
      00829434H   LINE      ---      ---       #905
      00829436H   LINE      ---      ---       #906
      00829436H   LINE      ---      ---       #907
      0082943EH   LINE      ---      ---       #909
      00829442H   LINE      ---      ---       #910
      00829442H   LINE      ---      ---       #911
      00829444H   LINE      ---      ---       #912
      00829444H   LINE      ---      ---       #913
      00829444H   LINE      ---      ---       #915
      00829446H   LINE      ---      ---       #916
      00000005H   SYMBOL    DATA     BYTE      i
      00000004H   SYMBOL    DATA     BYTE      j
      00000006H   SYMBOL    DATA     BYTE      V_ucAddrType
      ---         BLOCKEND  CODE/B2  ---       LVL=1
      ---         BLOCKEND  CODE/B2  ---       LVL=0

      00829447H   BLOCK     CODE/B2  ---       LVL=0
      00829447H   LINE      ---      ---       #928
      0082944CH   LINE      ---      ---       #929
      0200062CH   SYMBOL    XDATA    BYTE      v_ucChID
      0082944CH   BLOCK     CODE/B2  NEAR LAB  LVL=1
      0082944CH   LINE      ---      ---       #930
      00829450H   LINE      ---      ---       #932
LX51 LINKER/LOCATER V4.66.41.0                                                        11/18/2021  18:54:16  PAGE 57


      00829450H   LINE      ---      ---       #946
      00829457H   LINE      ---      ---       #947
      00829457H   LINE      ---      ---       #948
      00829457H   LINE      ---      ---       #949
      00829457H   LINE      ---      ---       #963
      0082945CH   LINE      ---      ---       #964
      0082945CH   LINE      ---      ---       #965
      00829460H   LINE      ---      ---       #966
      0082947AH   LINE      ---      ---       #967
      0082947AH   LINE      ---      ---       #969
      0082947AH   LINE      ---      ---       #972
      0082947FH   LINE      ---      ---       #973
      0200062DH   SYMBOL    XDATA    BYTE      V_ucErrorType
      ---         BLOCKEND  CODE/B2  ---       LVL=1
      ---         BLOCKEND  CODE/B2  ---       LVL=0

      00829534H   BLOCK     CODE/B2  ---       LVL=0
      00829534H   LINE      ---      ---       #993
      00829539H   LINE      ---      ---       #994
      0200062CH   SYMBOL    XDATA    BYTE      v_ucChID
      00829539H   BLOCK     CODE/B2  NEAR LAB  LVL=1
      00829539H   LINE      ---      ---       #995
      0082953DH   LINE      ---      ---       #997
      0082953DH   LINE      ---      ---       #1000
      0082955AH   LINE      ---      ---       #1001
      0082955AH   LINE      ---      ---       #1002
      0082955AH   LINE      ---      ---       #1003
      0082955CH   LINE      ---      ---       #1004
      0082955CH   LINE      ---      ---       #1007
      00829573H   LINE      ---      ---       #1008
      00829573H   LINE      ---      ---       #1009
      00829573H   LINE      ---      ---       #1010
      00829575H   LINE      ---      ---       #1011
      00829575H   LINE      ---      ---       #1014
      0082959DH   LINE      ---      ---       #1018
      0082959DH   LINE      ---      ---       #1019
      008295A3H   LINE      ---      ---       #1020
      008295A5H   LINE      ---      ---       #1021
      008295A5H   LINE      ---      ---       #1023
      008295ACH   LINE      ---      ---       #1024
      008295ACH   LINE      ---      ---       #1025
      008295B0H   LINE      ---      ---       #1026
      008295EBH   LINE      ---      ---       #1029
      008295EBH   LINE      ---      ---       #1030
      00829606H   LINE      ---      ---       #1031
      00829608H   LINE      ---      ---       #1032
      0082962FH   LINE      ---      ---       #1036
      0082962FH   LINE      ---      ---       #1038
      0082964AH   LINE      ---      ---       #1040
      0082964CH   LINE      ---      ---       #1042
      0082964CH   LINE      ---      ---       #1043
      00829667H   LINE      ---      ---       #1044
      00829667H   LINE      ---      ---       #1045
      00829667H   LINE      ---      ---       #1046
      00829667H   LINE      ---      ---       #1048
      0082966CH   LINE      ---      ---       #1049
      0200062DH   SYMBOL    XDATA    BYTE      V_ucErrorType
      ---         BLOCKEND  CODE/B2  ---       LVL=1
      ---         BLOCKEND  CODE/B2  ---       LVL=0

      0082976AH   BLOCK     CODE/B2  ---       LVL=0
      0082976AH   LINE      ---      ---       #1059
      0082976FH   LINE      ---      ---       #1060
      0200062CH   SYMBOL    XDATA    BYTE      v_ucChID
      0082976FH   BLOCK     CODE/B2  NEAR LAB  LVL=1
LX51 LINKER/LOCATER V4.66.41.0                                                        11/18/2021  18:54:16  PAGE 58


      0082976FH   LINE      ---      ---       #1069
      0082978CH   LINE      ---      ---       #1070
      008297D3H   LINE      ---      ---       #1071
      0082981AH   LINE      ---      ---       #1072
      00829861H   LINE      ---      ---       #1075
      00829899H   LINE      ---      ---       #1077
      00829899H   LINE      ---      ---       #1078
      0082989EH   LINE      ---      ---       #1079
      008298A1H   LINE      ---      ---       #1080
      008298A1H   LINE      ---      ---       #1082
      008298BFH   LINE      ---      ---       #1083
      008298BFH   LINE      ---      ---       #1084
      008298DEH   LINE      ---      ---       #1085
      008298DEH   LINE      ---      ---       #1086
      008298FEH   LINE      ---      ---       #1087
      00829945H   LINE      ---      ---       #1088
      0082998CH   LINE      ---      ---       #1089
      008299D3H   LINE      ---      ---       #1093
      00829A1DH   LINE      ---      ---       #1094
      00829A1DH   LINE      ---      ---       #1095
      00829A3DH   LINE      ---      ---       #1096
      00829A3DH   LINE      ---      ---       #1097
      00829A40H   LINE      ---      ---       #1098
      00829A40H   LINE      ---      ---       #1099
      00829A40H   LINE      ---      ---       #1100
      00829A5AH   LINE      ---      ---       #1101
      00829A5AH   LINE      ---      ---       #1102
      00829A76H   LINE      ---      ---       #1103
      00829A76H   LINE      ---      ---       #1104
      00829A79H   LINE      ---      ---       #1105
      00829A79H   LINE      ---      ---       #1106
      00829A79H   LINE      ---      ---       #1108
      00829A79H   LINE      ---      ---       #1109
      00829A94H   LINE      ---      ---       #1110
      00829A94H   LINE      ---      ---       #1111
      00829A97H   LINE      ---      ---       #1112
      00829A97H   LINE      ---      ---       #1113
      00829A97H   LINE      ---      ---       #1114
      00829ACAH   LINE      ---      ---       #1115
      00829ACCH   LINE      ---      ---       #1116
      00829ACCH   LINE      ---      ---       #1117
      00829ACFH   LINE      ---      ---       #1118
      00829AD4H   LINE      ---      ---       #1119
      00829ADBH   LINE      ---      ---       #1120
      00829ADFH   LINE      ---      ---       #1121
      00829AE1H   LINE      ---      ---       #1123
      00829AE1H   LINE      ---      ---       #1124
      00829AE4H   LINE      ---      ---       #1125
      00829AE4H   LINE      ---      ---       #1126
      00829AEEH   LINE      ---      ---       #1127
      00829AF4H   LINE      ---      ---       #1128
      00829B0FH   LINE      ---      ---       #1129
      00829B12H   LINE      ---      ---       #1130
      00829B12H   LINE      ---      ---       #1132
      00829B12H   LINE      ---      ---       #1133
      00829B15H   LINE      ---      ---       #1134
      00829B15H   LINE      ---      ---       #1135
      00829B15H   LINE      ---      ---       #1137
      00829B32H   LINE      ---      ---       #1138
      00829B32H   LINE      ---      ---       #1139
      00829B35H   LINE      ---      ---       #1140
      00829B35H   LINE      ---      ---       #1141
      00829B51H   LINE      ---      ---       #1142
      00829B51H   LINE      ---      ---       #1144
      00829B73H   LINE      ---      ---       #1145
LX51 LINKER/LOCATER V4.66.41.0                                                        11/18/2021  18:54:16  PAGE 59


      00829B89H   LINE      ---      ---       #1146
      00829B9FH   LINE      ---      ---       #1147
      00829BB5H   LINE      ---      ---       #1148
      00829BB8H   LINE      ---      ---       #1150
      00829BB8H   LINE      ---      ---       #1151
      00829BD4H   LINE      ---      ---       #1152
      00829BD4H   LINE      ---      ---       #1153
      00829BD8H   LINE      ---      ---       #1154
      00829BD8H   LINE      ---      ---       #1155
      00829C15H   LINE      ---      ---       #1156
      00829C21H   LINE      ---      ---       #1157
      00829C3BH   LINE      ---      ---       #1158
      00829C3EH   LINE      ---      ---       #1159
      00829C3EH   LINE      ---      ---       #1160
      00829C5AH   LINE      ---      ---       #1161
      00829C5AH   LINE      ---      ---       #1162
      00829C65H   LINE      ---      ---       #1163
      00829C87H   LINE      ---      ---       #1164
      00829C9FH   LINE      ---      ---       #1165
      00829CB9H   LINE      ---      ---       #1166
      00829CBCH   LINE      ---      ---       #1167
      00829CBCH   LINE      ---      ---       #1169
      00829CDAH   LINE      ---      ---       #1170
      00829CDAH   LINE      ---      ---       #1172
      00829CE2H   LINE      ---      ---       #1173
      00829CE8H   LINE      ---      ---       #1174
      00829D0AH   LINE      ---      ---       #1175
      00829D15H   LINE      ---      ---       #1176
      00829D20H   LINE      ---      ---       #1177
      00829D2BH   LINE      ---      ---       #1178
      00829D36H   LINE      ---      ---       #1179
      00829D41H   LINE      ---      ---       #1182
      00829D5CH   LINE      ---      ---       #1185
      00829D77H   LINE      ---      ---       #1188
      00829D92H   LINE      ---      ---       #1191
      00829DADH   LINE      ---      ---       #1194
      00829DC8H   LINE      ---      ---       #1197
      00829DE3H   LINE      ---      ---       #1200
      00829DFEH   LINE      ---      ---       #1203
      00829E05H   LINE      ---      ---       #1204
      00829E05H   LINE      ---      ---       #1205
      00829E08H   LINE      ---      ---       #1207
      00829E08H   LINE      ---      ---       #1208
      00829E23H   LINE      ---      ---       #1211
      00829E2EH   LINE      ---      ---       #1212
      00829E39H   LINE      ---      ---       #1213
      00829E3CH   LINE      ---      ---       #1222
      00829E43H   LINE      ---      ---       #1223
      00829E4CH   LINE      ---      ---       #1225
      00829E7BH   LINE      ---      ---       #1226
      00829E95H   LINE      ---      ---       #1227
      00829E98H   LINE      ---      ---       #1228
      00829E98H   LINE      ---      ---       #1230
      00829EC0H   LINE      ---      ---       #1233
      00829EC0H   LINE      ---      ---       #1234
      00829F0FH   LINE      ---      ---       #1235
      00829F2BH   LINE      ---      ---       #1236
      00829F2CH   LINE      ---      ---       #1237
      00829F2CH   LINE      ---      ---       #1239
      00829F4EH   LINE      ---      ---       #1240
      00829F4EH   LINE      ---      ---       #1241
      00829F55H   LINE      ---      ---       #1242
      00829F58H   LINE      ---      ---       #1244
      00829F58H   LINE      ---      ---       #1245
      00829F66H   LINE      ---      ---       #1246
LX51 LINKER/LOCATER V4.66.41.0                                                        11/18/2021  18:54:16  PAGE 60


      00829FC1H   LINE      ---      ---       #1247
      00829FF2H   LINE      ---      ---       #1248
      0082A00CH   LINE      ---      ---       #1249
      0082A00FH   LINE      ---      ---       #1250
      0082A00FH   LINE      ---      ---       #1252
      0082A00FH   LINE      ---      ---       #1254
      0082A046H   LINE      ---      ---       #1255
      0082A046H   LINE      ---      ---       #1256
      0082A051H   LINE      ---      ---       #1257
      0082A057H   LINE      ---      ---       #1258
      0082A057H   LINE      ---      ---       #1259
      0082A05AH   LINE      ---      ---       #1260
      0082A05AH   LINE      ---      ---       #1261
      0082A077H   LINE      ---      ---       #1262
      0082A077H   LINE      ---      ---       #1263
      0082A085H   LINE      ---      ---       #1264
      0082A085H   LINE      ---      ---       #1265
      0082A0A5H   LINE      ---      ---       #1266
      0082A0A5H   LINE      ---      ---       #1267
      0082A0A5H   LINE      ---      ---       #1268
      0082A0A7H   LINE      ---      ---       #1269
      0082A0A7H   LINE      ---      ---       #1270
      0082A0AFH   LINE      ---      ---       #1271
      0082A0AFH   LINE      ---      ---       #1273
      0082A0AFH   LINE      ---      ---       #1274
      0082A0BEH   LINE      ---      ---       #1275
      0082A0BEH   LINE      ---      ---       #1276
      0082A0DEH   LINE      ---      ---       #1277
      0082A0DEH   LINE      ---      ---       #1278
      0082A0E4H   LINE      ---      ---       #1279
      0082A0E6H   LINE      ---      ---       #1280
      0082A0E6H   LINE      ---      ---       #1281
      0082A0EEH   LINE      ---      ---       #1282
      0082A0EEH   LINE      ---      ---       #1283
      0082A122H   LINE      ---      ---       #1284
      0082A12AH   LINE      ---      ---       #1285
      0082A142H   LINE      ---      ---       #1286
      0082A15AH   LINE      ---      ---       #1287
      0082A172H   LINE      ---      ---       #1288
      0082A17FH   LINE      ---      ---       #1289
      0082A191H   LINE      ---      ---       #1290
      0082A191H   LINE      ---      ---       #1291
      0082A197H   LINE      ---      ---       #1292
      0082A199H   LINE      ---      ---       #1294
      0082A199H   LINE      ---      ---       #1295
      0082A19EH   LINE      ---      ---       #1296
      0082A19EH   LINE      ---      ---       #1298
      0082A1CDH   LINE      ---      ---       #1299
      0082A1E7H   LINE      ---      ---       #1300
      0082A1E9H   LINE      ---      ---       #1301
      0082A1E9H   LINE      ---      ---       #1302
      0082A1FAH   LINE      ---      ---       #1303
      0082A1FAH   LINE      ---      ---       #1304
      0082A222H   LINE      ---      ---       #1305
      0082A222H   LINE      ---      ---       #1307
      0082A23FH   LINE      ---      ---       #1308
      0082A284H   LINE      ---      ---       #1309
      0082A2AEH   LINE      ---      ---       #1310
      0082A2AEH   LINE      ---      ---       #1311
      0082A2E5H   LINE      ---      ---       #1312
      0082A2E5H   LINE      ---      ---       #1313
      0082A316H   LINE      ---      ---       #1314
      0082A319H   LINE      ---      ---       #1315
      0082A319H   LINE      ---      ---       #1316
      0082A321H   LINE      ---      ---       #1317
LX51 LINKER/LOCATER V4.66.41.0                                                        11/18/2021  18:54:16  PAGE 61


      0082A323H   LINE      ---      ---       #1318
      00000001H   SYMBOL    DATA     ---       P_ucTemp
      00000007H   SYMBOL    DATA     BYTE      V_ucErrorType
      0200062DH   SYMBOL    XDATA    ---       V_ucTable
      02000632H   SYMBOL    XDATA    DWORD     V_ulDI3DI2DI1DI0
      02000636H   SYMBOL    XDATA    BYTE      V_Temp
      02000637H   SYMBOL    XDATA    BYTE      i
      02000638H   SYMBOL    XDATA    BYTE      V_Temp1
      02000639H   SYMBOL    XDATA    BYTE      V_LcdNum
      0200063AH   SYMBOL    XDATA    ---       V_ucPassword
      02000645H   SYMBOL    XDATA    ---       V_ucTempData
      02000681H   SYMBOL    XDATA    WORD      V_usStateFlag3
      ---         BLOCKEND  CODE/B2  ---       LVL=1
      ---         BLOCKEND  CODE/B2  ---       LVL=0

      0082A35DH   BLOCK     CODE/B2  ---       LVL=0
      0082A35DH   LINE      ---      ---       #1330
      0082A362H   LINE      ---      ---       #1331
      0200062CH   SYMBOL    XDATA    BYTE      v_ucChID
      0082A362H   BLOCK     CODE/B2  NEAR LAB  LVL=1
      0082A362H   LINE      ---      ---       #1332
      0082A366H   LINE      ---      ---       #1338
      0082A38AH   LINE      ---      ---       #1339
      0082A3D1H   LINE      ---      ---       #1340
      0082A418H   LINE      ---      ---       #1341
      0082A45FH   LINE      ---      ---       #1343
      0082A47AH   LINE      ---      ---       #1344
      0082A47AH   LINE      ---      ---       #1346
      0082A482H   LINE      ---      ---       #1347
      0082A482H   LINE      ---      ---       #1348
      0082A487H   LINE      ---      ---       #1349
      0082A489H   LINE      ---      ---       #1350
      0082A489H   LINE      ---      ---       #1352
      0082A489H   LINE      ---      ---       #1353
      0082A496H   LINE      ---      ---       #1354
      0082A499H   LINE      ---      ---       #1355
      0082A499H   LINE      ---      ---       #1356
      0082A499H   LINE      ---      ---       #1358
      0082A4CDH   LINE      ---      ---       #1359
      0082A4CDH   LINE      ---      ---       #1360
      0082A4CDH   LINE      ---      ---       #1361
      0082A4CDH   LINE      ---      ---       #1362
      0082A4CDH   LINE      ---      ---       #1363
      0082A4D8H   LINE      ---      ---       #1364
      0082A4D8H   LINE      ---      ---       #1365
      0082A4DBH   LINE      ---      ---       #1366
      0082A4DBH   LINE      ---      ---       #1367
      0082A4E0H   LINE      ---      ---       #1368
      0082A51FH   LINE      ---      ---       #1369
      0082A51FH   LINE      ---      ---       #1370
      0082A51FH   LINE      ---      ---       #1371
      0082A51FH   LINE      ---      ---       #1372
      0082A51FH   LINE      ---      ---       #1373
      0082A51FH   LINE      ---      ---       #1375
      0082A51FH   LINE      ---      ---       #1376
      0082A51FH   LINE      ---      ---       #1378
      0082A51FH   LINE      ---      ---       #1379
      0082A525H   LINE      ---      ---       #1380
      0082A527H   LINE      ---      ---       #1382
      0082A527H   LINE      ---      ---       #1383
      0082A527H   LINE      ---      ---       #1384
      0082A52DH   LINE      ---      ---       #1385
      0082A52DH   LINE      ---      ---       #1386
      0082A52DH   LINE      ---      ---       #1387
      0082A52DH   LINE      ---      ---       #1388
LX51 LINKER/LOCATER V4.66.41.0                                                        11/18/2021  18:54:16  PAGE 62


      0082A535H   LINE      ---      ---       #1389
      0082A535H   LINE      ---      ---       #1390
      0082A554H   LINE      ---      ---       #1391
      0082A594H   LINE      ---      ---       #1392
      0082A594H   LINE      ---      ---       #1393
      0082A59CH   LINE      ---      ---       #1394
      0082A59CH   LINE      ---      ---       #1395
      0082A59EH   LINE      ---      ---       #1396
      0082A59EH   LINE      ---      ---       #1397
      0082A5C9H   LINE      ---      ---       #1399
      0082A5D7H   LINE      ---      ---       #1400
      0082A5D7H   LINE      ---      ---       #1402
      0082A5D7H   LINE      ---      ---       #1403
      0082A5F7H   LINE      ---      ---       #1404
      0082A5F7H   LINE      ---      ---       #1405
      0082A5FAH   LINE      ---      ---       #1406
      0082A627H   LINE      ---      ---       #1407
      0082A62AH   LINE      ---      ---       #1408
      0082A632H   LINE      ---      ---       #1409
      0082A632H   LINE      ---      ---       #1410
      0082A634H   LINE      ---      ---       #1411
      0082A634H   LINE      ---      ---       #1412
      0082A65FH   LINE      ---      ---       #1413
      0082A66DH   LINE      ---      ---       #1414
      0082A66DH   LINE      ---      ---       #1416
      0082A66DH   LINE      ---      ---       #1417
      0082A68DH   LINE      ---      ---       #1418
      0082A68DH   LINE      ---      ---       #1420
      0082A6A9H   LINE      ---      ---       #1422
      0082A6ACH   LINE      ---      ---       #1424
      0082A6ACH   LINE      ---      ---       #1425
      0082A6AFH   LINE      ---      ---       #1426
      0082A6AFH   LINE      ---      ---       #1427
      0082A6AFH   LINE      ---      ---       #1428
      0082A6CFH   LINE      ---      ---       #1429
      0082A6CFH   LINE      ---      ---       #1430
      0082A6ECH   LINE      ---      ---       #1431
      0082A6ECH   LINE      ---      ---       #1432
      0082A73AH   LINE      ---      ---       #1433
      0082A73AH   LINE      ---      ---       #1434
      0082A740H   LINE      ---      ---       #1435
      0082A742H   LINE      ---      ---       #1437
      0082A742H   LINE      ---      ---       #1438
      0082A748H   LINE      ---      ---       #1439
      0082A748H   LINE      ---      ---       #1440
      0082A767H   LINE      ---      ---       #1441
      0082A781H   LINE      ---      ---       #1442
      0082A784H   LINE      ---      ---       #1444
      0082A7B8H   LINE      ---      ---       #1445
      0082A7BBH   LINE      ---      ---       #1447
      0082A7DBH   LINE      ---      ---       #1448
      0082A7E6H   LINE      ---      ---       #1449
      0082A7E6H   LINE      ---      ---       #1450
      0082A80AH   LINE      ---      ---       #1451
      0082A80AH   LINE      ---      ---       #1452
      0082A80DH   LINE      ---      ---       #1453
      0082A80DH   LINE      ---      ---       #1455
      0082A82DH   LINE      ---      ---       #1456
      0082A84BH   LINE      ---      ---       #1457
      0082A84BH   LINE      ---      ---       #1459
      0082A865H   LINE      ---      ---       #1462
      0082A880H   LINE      ---      ---       #1465
      0082A89BH   LINE      ---      ---       #1468
      0082A8B0H   LINE      ---      ---       #1473
      0082A8B8H   LINE      ---      ---       #1475
LX51 LINKER/LOCATER V4.66.41.0                                                        11/18/2021  18:54:16  PAGE 63


      0082A8E7H   LINE      ---      ---       #1477
      0082A902H   LINE      ---      ---       #1478
      0082A902H   LINE      ---      ---       #1479
      0082A908H   LINE      ---      ---       #1480
      0082A908H   LINE      ---      ---       #1481
      0082A929H   LINE      ---      ---       #1482
      0082A92BH   LINE      ---      ---       #1484
      0082A92BH   LINE      ---      ---       #1485
      0082A92EH   LINE      ---      ---       #1486
      0082A92EH   LINE      ---      ---       #1487
      0082A92EH   LINE      ---      ---       #1489
      0082A92EH   LINE      ---      ---       #1490
      0082A931H   LINE      ---      ---       #1491
      0082A931H   LINE      ---      ---       #1492
      0082A931H   LINE      ---      ---       #1493
      0082A931H   LINE      ---      ---       #1494
      0082A931H   LINE      ---      ---       #1495
      0082A97BH   LINE      ---      ---       #1496
      0082A97BH   LINE      ---      ---       #1497
      0082A97EH   LINE      ---      ---       #1498
      0082A97EH   LINE      ---      ---       #1499
      0082A991H   LINE      ---      ---       #1500
      0082A991H   LINE      ---      ---       #1501
      0082A994H   LINE      ---      ---       #1502
      0082A994H   LINE      ---      ---       #1503
      0082A994H   LINE      ---      ---       #1504
      0082A994H   LINE      ---      ---       #1505
      0082A994H   LINE      ---      ---       #1506
      0082A9B0H   LINE      ---      ---       #1507
      0082A9B0H   LINE      ---      ---       #1508
      0082A9B3H   LINE      ---      ---       #1509
      0082A9B3H   LINE      ---      ---       #1510
      0082A9BCH   LINE      ---      ---       #1511
      0082A9BCH   LINE      ---      ---       #1512
      0082AA6CH   LINE      ---      ---       #1515
      0082AA6CH   LINE      ---      ---       #1516
      0082AA6FH   LINE      ---      ---       #1517
      0082AA6FH   LINE      ---      ---       #1519
      0082AA6FH   LINE      ---      ---       #1521
      0082AA6FH   LINE      ---      ---       #1528
      0082AA6FH   LINE      ---      ---       #1529
      0082AA6FH   LINE      ---      ---       #1530
      0082AA6FH   LINE      ---      ---       #1531
      0082AA6FH   LINE      ---      ---       #1532
      0082AA8BH   LINE      ---      ---       #1533
      0082AA8BH   LINE      ---      ---       #1534
      0082AA8EH   LINE      ---      ---       #1535
      0082AA8EH   LINE      ---      ---       #1536
      0082AA9BH   LINE      ---      ---       #1537
      0082AA9BH   LINE      ---      ---       #1538
      0082AA9EH   LINE      ---      ---       #1539
      0082AA9EH   LINE      ---      ---       #1540
      0082AA9EH   LINE      ---      ---       #1541
      0082AA9EH   LINE      ---      ---       #1542
      0082AAA1H   LINE      ---      ---       #1544
      0082AAA1H   LINE      ---      ---       #1545
      0082AABFH   LINE      ---      ---       #1546
      0082AABFH   LINE      ---      ---       #1547
      0082AADCH   LINE      ---      ---       #1549
      0082AADCH   LINE      ---      ---       #1550
      0082AADFH   LINE      ---      ---       #1551
      0082AADFH   LINE      ---      ---       #1552
      0082AAFCH   LINE      ---      ---       #1553
      0082AAFCH   LINE      ---      ---       #1554
      0082AAFFH   LINE      ---      ---       #1555
LX51 LINKER/LOCATER V4.66.41.0                                                        11/18/2021  18:54:16  PAGE 64


      0082AAFFH   LINE      ---      ---       #1556
      0082AB2FH   LINE      ---      ---       #1558
      0082AB3DH   LINE      ---      ---       #1559
      0082AB6DH   LINE      ---      ---       #1560
      0082AB78H   LINE      ---      ---       #1561
      0082AB78H   LINE      ---      ---       #1562
      0082AB7AH   LINE      ---      ---       #1563
      0082AB7AH   LINE      ---      ---       #1565
      0082ABB1H   LINE      ---      ---       #1566
      0082ABB1H   LINE      ---      ---       #1567
      0082ABBFH   LINE      ---      ---       #1568
      0082ABDCH   LINE      ---      ---       #1569
      0082ABDCH   LINE      ---      ---       #1570
      0082ABDFH   LINE      ---      ---       #1571
      0082ABDFH   LINE      ---      ---       #1572
      0082ABEAH   LINE      ---      ---       #1573
      0082ABEAH   LINE      ---      ---       #1574
      0082ABEDH   LINE      ---      ---       #1575
      0082ABEDH   LINE      ---      ---       #1576
      0082AC0AH   LINE      ---      ---       #1577
      0082AC0AH   LINE      ---      ---       #1578
      0082AC18H   LINE      ---      ---       #1579
      0082AC18H   LINE      ---      ---       #1580
      0082AC38H   LINE      ---      ---       #1581
      0082AC38H   LINE      ---      ---       #1582
      0082AC38H   LINE      ---      ---       #1583
      0082AC3AH   LINE      ---      ---       #1584
      0082AC3AH   LINE      ---      ---       #1585
      0082AC42H   LINE      ---      ---       #1586
      0082AC42H   LINE      ---      ---       #1588
      0082AC42H   LINE      ---      ---       #1589
      0082AC51H   LINE      ---      ---       #1590
      0082AC51H   LINE      ---      ---       #1591
      0082AC71H   LINE      ---      ---       #1592
      0082AC71H   LINE      ---      ---       #1593
      0082AC79H   LINE      ---      ---       #1594
      0082AC7BH   LINE      ---      ---       #1595
      0082AC7BH   LINE      ---      ---       #1596
      0082AC83H   LINE      ---      ---       #1597
      0082AC83H   LINE      ---      ---       #1598
      0082ACA7H   LINE      ---      ---       #1599
      0082ACEEH   LINE      ---      ---       #1600
      0082AD35H   LINE      ---      ---       #1601
      0082AD7CH   LINE      ---      ---       #1602
      0082AD96H   LINE      ---      ---       #1604
      0082ADACH   LINE      ---      ---       #1605
      0082ADB1H   LINE      ---      ---       #1606
      0082ADB1H   LINE      ---      ---       #1607
      0082ADB2H   LINE      ---      ---       #1609
      0082ADE2H   LINE      ---      ---       #1610
      0082ADE8H   LINE      ---      ---       #1611
      0082AE4CH   LINE      ---      ---       #1613
      0082AE70H   LINE      ---      ---       #1615
      0082AE70H   LINE      ---      ---       #1616
      0082AE73H   LINE      ---      ---       #1617
      0082AE73H   LINE      ---      ---       #1618
      0082AE76H   LINE      ---      ---       #1619
      0082AE76H   LINE      ---      ---       #1621
      0082AE76H   LINE      ---      ---       #1622
      0082AE93H   LINE      ---      ---       #1623
      0082AE93H   LINE      ---      ---       #1624
      0082AEB2H   LINE      ---      ---       #1625
      0082AEB2H   LINE      ---      ---       #1626
      0082AEB2H   LINE      ---      ---       #1627
      0082AEB2H   LINE      ---      ---       #1628
LX51 LINKER/LOCATER V4.66.41.0                                                        11/18/2021  18:54:16  PAGE 65


      0082AEB2H   LINE      ---      ---       #1629
      0082AED4H   LINE      ---      ---       #1630
      0082AED4H   LINE      ---      ---       #1631
      0082AED7H   LINE      ---      ---       #1632
      0082AED7H   LINE      ---      ---       #1633
      0082AED7H   LINE      ---      ---       #1634
      0082AED7H   LINE      ---      ---       #1635
      0082AED7H   LINE      ---      ---       #1636
      0082AED7H   LINE      ---      ---       #1637
      0082AEFCH   LINE      ---      ---       #1638
      0082AEFCH   LINE      ---      ---       #1639
      0082AEFFH   LINE      ---      ---       #1640
      0082AEFFH   LINE      ---      ---       #1641
      0082AEFFH   LINE      ---      ---       #1642
      0082AEFFH   LINE      ---      ---       #1643
      0082AEFFH   LINE      ---      ---       #1644
      0082AEFFH   LINE      ---      ---       #1645
      0082AEFFH   LINE      ---      ---       #1646
      0082AF11H   LINE      ---      ---       #1647
      0082AF11H   LINE      ---      ---       #1648
      0082AF3AH   LINE      ---      ---       #1649
      0082AF3AH   LINE      ---      ---       #1651
      0082AF76H   LINE      ---      ---       #1653
      0082AF76H   LINE      ---      ---       #1654
      0082AF79H   LINE      ---      ---       #1655
      0082AF79H   LINE      ---      ---       #1656
      0082AF8CH   LINE      ---      ---       #1657
      0082AF8CH   LINE      ---      ---       #1658
      0082AF8FH   LINE      ---      ---       #1659
      0082AF8FH   LINE      ---      ---       #1660
      0082AFA8H   LINE      ---      ---       #1661
      0082AFA8H   LINE      ---      ---       #1662
      0082AFDBH   LINE      ---      ---       #1663
      0082AFDBH   LINE      ---      ---       #1664
      0082AFDEH   LINE      ---      ---       #1665
      0082AFDEH   LINE      ---      ---       #1666
      0082AFF4H   LINE      ---      ---       #1667
      0082AFF4H   LINE      ---      ---       #1668
      0082B02BH   LINE      ---      ---       #1669
      0082B02BH   LINE      ---      ---       #1671
      0082B02BH   LINE      ---      ---       #1672
      0082B047H   LINE      ---      ---       #1673
      0082B047H   LINE      ---      ---       #1674
      0082B077H   LINE      ---      ---       #1675
      0082B099H   LINE      ---      ---       #1676
      0082B099H   LINE      ---      ---       #1677
      0082B09CH   LINE      ---      ---       #1678
      0082B09CH   LINE      ---      ---       #1679
      0082B09CH   LINE      ---      ---       #1680
      0082B0B8H   LINE      ---      ---       #1681
      0082B0B8H   LINE      ---      ---       #1682
      0082B0E8H   LINE      ---      ---       #1683
      0082B10CH   LINE      ---      ---       #1684
      0082B10CH   LINE      ---      ---       #1685
      0082B10FH   LINE      ---      ---       #1686
      0082B10FH   LINE      ---      ---       #1687
      0082B10FH   LINE      ---      ---       #1688
      0082B12BH   LINE      ---      ---       #1689
      0082B12BH   LINE      ---      ---       #1690
      0082B12EH   LINE      ---      ---       #1691
      0082B12EH   LINE      ---      ---       #1693
      0082B14FH   LINE      ---      ---       #1694
      0082B14FH   LINE      ---      ---       #1695
      0082B172H   LINE      ---      ---       #1696
      0082B172H   LINE      ---      ---       #1697
LX51 LINKER/LOCATER V4.66.41.0                                                        11/18/2021  18:54:16  PAGE 66


      0082B175H   LINE      ---      ---       #1698
      0082B175H   LINE      ---      ---       #1699
      0082B1D5H   LINE      ---      ---       #1702
      0082B1D8H   LINE      ---      ---       #1703
      0082B23BH   LINE      ---      ---       #1704
      0082B23BH   LINE      ---      ---       #1705
      0082B23DH   LINE      ---      ---       #1707
      0082B23DH   LINE      ---      ---       #1708
      0082B270H   LINE      ---      ---       #1709
      0082B270H   LINE      ---      ---       #1710
      0082B273H   LINE      ---      ---       #1711
      0082B273H   LINE      ---      ---       #1712
      0082B276H   LINE      ---      ---       #1713
      0082B2C7H   LINE      ---      ---       #1714
      0082B2EBH   LINE      ---      ---       #1717
      0082B2EBH   LINE      ---      ---       #1719
      0082B308H   LINE      ---      ---       #1720
      0082B308H   LINE      ---      ---       #1721
      0082B313H   LINE      ---      ---       #1722
      0082B317H   LINE      ---      ---       #1723
      0082B317H   LINE      ---      ---       #1724
      0082B31EH   LINE      ---      ---       #1725
      0082B31EH   LINE      ---      ---       #1726
      0082B321H   LINE      ---      ---       #1728
      0082B321H   LINE      ---      ---       #1730
      0082B33DH   LINE      ---      ---       #1731
      0082B33DH   LINE      ---      ---       #1732
      0082B343H   LINE      ---      ---       #1737
      0082B343H   LINE      ---      ---       #1739
      0082B35DH   LINE      ---      ---       #1740
      0082B35FH   LINE      ---      ---       #1741
      0082B35FH   LINE      ---      ---       #1742
      0082B368H   LINE      ---      ---       #1743
      0200062DH   SYMBOL    XDATA    BYTE      V_ucErrorType
      0200062EH   SYMBOL    XDATA    ---       P_ucTemp
      0200066EH   SYMBOL    XDATA    BYTE      V_Temp
      0200066FH   SYMBOL    XDATA    BYTE      V_Temp1
      00000003H   SYMBOL    DATA     BYTE      V_ScreenNum
      00000007H   SYMBOL    DATA     BYTE      V_LcdNum
      02000670H   SYMBOL    XDATA    BYTE      i
      02000671H   SYMBOL    XDATA    DWORD     V_ulDI3DI2DI1DI0
      ---         BLOCKEND  CODE/B2  ---       LVL=1
      ---         BLOCKEND  CODE/B2  ---       LVL=0

      0082BF84H   BLOCK     CODE/B2  ---       LVL=0
      0082BF84H   LINE      ---      ---       #1764
      0082BF89H   LINE      ---      ---       #1765
      02000675H   SYMBOL    XDATA    BYTE      v_ucChID
      0082BF89H   BLOCK     CODE/B2  NEAR LAB  LVL=1
      0082BF89H   LINE      ---      ---       #1766
      0082BF8DH   LINE      ---      ---       #1770
      0082BF92H   LINE      ---      ---       #1771
      0082BF94H   LINE      ---      ---       #1778
      0082BFB1H   LINE      ---      ---       #1780
      0082BFBCH   LINE      ---      ---       #1781
      0082BFBCH   LINE      ---      ---       #1782
      0082BFBFH   LINE      ---      ---       #1783
      0082BFBFH   LINE      ---      ---       #1784
      0082BFD6H   LINE      ---      ---       #1785
      0082BFD6H   LINE      ---      ---       #1786
      0082BFD9H   LINE      ---      ---       #1787
      0082BFD9H   LINE      ---      ---       #1790
      0082BFFDH   LINE      ---      ---       #1791
      0082C044H   LINE      ---      ---       #1792
      0082C08BH   LINE      ---      ---       #1793
LX51 LINKER/LOCATER V4.66.41.0                                                        11/18/2021  18:54:16  PAGE 67


      0082C0D2H   LINE      ---      ---       #1795
      0082C0EEH   LINE      ---      ---       #1796
      0082C0EEH   LINE      ---      ---       #1797
      0082C0F3H   LINE      ---      ---       #1798
      0082C0F5H   LINE      ---      ---       #1799
      0082C0FAH   LINE      ---      ---       #1800
      0082C0FEH   LINE      ---      ---       #1801
      0082C104H   LINE      ---      ---       #1802
      0082C106H   LINE      ---      ---       #1804
      0082C106H   LINE      ---      ---       #1805
      0082C10BH   LINE      ---      ---       #1806
      0082C10FH   LINE      ---      ---       #1807
      0082C111H   LINE      ---      ---       #1808
      0082C111H   LINE      ---      ---       #1810
      0082C129H   LINE      ---      ---       #1811
      0082C129H   LINE      ---      ---       #1812
      0082C16EH   LINE      ---      ---       #1813
      0082C1E1H   LINE      ---      ---       #1814
      0082C254H   LINE      ---      ---       #1815
      0082C2C7H   LINE      ---      ---       #1817
      0082C2D8H   LINE      ---      ---       #1818
      0082C2D8H   LINE      ---      ---       #1819
      0082C30CH   LINE      ---      ---       #1820
      0082C30CH   LINE      ---      ---       #1821
      0082C331H   LINE      ---      ---       #1822
      0082C35BH   LINE      ---      ---       #1823
      0082C361H   LINE      ---      ---       #1824
      0082C361H   LINE      ---      ---       #1825
      0082C369H   LINE      ---      ---       #1826
      0082C3A8H   LINE      ---      ---       #1827
      0082C3A8H   LINE      ---      ---       #1828
      0082C3ABH   LINE      ---      ---       #1829
      0082C3ABH   LINE      ---      ---       #1830
      0082C3B3H   LINE      ---      ---       #1831
      0082C3BFH   LINE      ---      ---       #1832
      0082C3BFH   LINE      ---      ---       #1833
      0082C3C2H   LINE      ---      ---       #1834
      0082C3C2H   LINE      ---      ---       #1837
      0082C3D6H   LINE      ---      ---       #1838
      0082C3D6H   LINE      ---      ---       #1839
      0082C3FBH   LINE      ---      ---       #1840
      0082C42EH   LINE      ---      ---       #1841
      0082C461H   LINE      ---      ---       #1842
      0082C494H   LINE      ---      ---       #1843
      0082C4A8H   LINE      ---      ---       #1850
      0082C4CFH   LINE      ---      ---       #1851
      0082C4CFH   LINE      ---      ---       #1852
      0082C4DCH   LINE      ---      ---       #1853
      0082C4DEH   LINE      ---      ---       #1854
      0082C508H   LINE      ---      ---       #1855
      0082C508H   LINE      ---      ---       #1856
      0082C515H   LINE      ---      ---       #1857
      0082C515H   LINE      ---      ---       #1858
      0082C51DH   LINE      ---      ---       #1861
      0082C52FH   LINE      ---      ---       #1862
      0082C52FH   LINE      ---      ---       #1863
      0082C578H   LINE      ---      ---       #1864
      0082C5C1H   LINE      ---      ---       #1865
      0082C5E5H   LINE      ---      ---       #1866
      0082C5E5H   LINE      ---      ---       #1867
      0082C5FCH   LINE      ---      ---       #1868
      0082C5FCH   LINE      ---      ---       #1869
      0082C5FCH   LINE      ---      ---       #1870
      0082C5FEH   LINE      ---      ---       #1872
      0082C605H   LINE      ---      ---       #1873
LX51 LINKER/LOCATER V4.66.41.0                                                        11/18/2021  18:54:16  PAGE 68


      0082C605H   LINE      ---      ---       #1874
      0082C64EH   LINE      ---      ---       #1875
      0082C672H   LINE      ---      ---       #1876
      0082C672H   LINE      ---      ---       #1877
      0082C675H   LINE      ---      ---       #1878
      0082C675H   LINE      ---      ---       #1879
      0082C677H   LINE      ---      ---       #1881
      0082C680H   LINE      ---      ---       #1882
      0082C680H   LINE      ---      ---       #1883
      0082C6C9H   LINE      ---      ---       #1884
      0082C6EBH   LINE      ---      ---       #1885
      0082C6EBH   LINE      ---      ---       #1886
      0082C702H   LINE      ---      ---       #1887
      0082C702H   LINE      ---      ---       #1888
      0082C702H   LINE      ---      ---       #1891
      0082C720H   LINE      ---      ---       #1892
      0082C720H   LINE      ---      ---       #1894
      0082C750H   LINE      ---      ---       #1898
      0082C780H   LINE      ---      ---       #1901
      0082C7B0H   LINE      ---      ---       #1904
      0082C7E0H   LINE      ---      ---       #1907
      0082C7EEH   LINE      ---      ---       #1908
      0082C7EEH   LINE      ---      ---       #1911
      0082C806H   LINE      ---      ---       #1912
      0082C806H   LINE      ---      ---       #1913
      0082C815H   LINE      ---      ---       #1914
      0082C815H   LINE      ---      ---       #1915
      0082C84BH   LINE      ---      ---       #1916
      0082C84BH   LINE      ---      ---       #1917
      0082C862H   LINE      ---      ---       #1918
      0082C862H   LINE      ---      ---       #1919
      0082C876H   LINE      ---      ---       #1920
      0082C876H   LINE      ---      ---       #1922
      0082C888H   LINE      ---      ---       #1923
      0082C89DH   LINE      ---      ---       #1924
      0082C8C8H   LINE      ---      ---       #1925
      0082C8F8H   LINE      ---      ---       #1926
      0082C92FH   LINE      ---      ---       #1927
      0082C92FH   LINE      ---      ---       #1928
      0082C943H   LINE      ---      ---       #1929
      0082C943H   LINE      ---      ---       #1930
      0082C959H   LINE      ---      ---       #1931
      0082C959H   LINE      ---      ---       #1932
      0082C9B6H   LINE      ---      ---       #1933
      0082C9E1H   LINE      ---      ---       #1935
      0082CA05H   LINE      ---      ---       #1936
      0082CA73H   LINE      ---      ---       #1937
      0082CA97H   LINE      ---      ---       #1938
      0082CA97H   LINE      ---      ---       #1939
      0082CA97H   LINE      ---      ---       #1940
      0082CA9FH   LINE      ---      ---       #1941
      0082CAA8H   LINE      ---      ---       #1944
      0082CAD1H   LINE      ---      ---       #1947
      0082CAFAH   LINE      ---      ---       #1950
      0082CB23H   LINE      ---      ---       #1953
      0082CB4CH   LINE      ---      ---       #1956
      0082CB6AH   LINE      ---      ---       #1960
      0082CB7EH   LINE      ---      ---       #1961
      0082CB90H   LINE      ---      ---       #1963
      0082CBC9H   LINE      ---      ---       #1965
      0082CBEEH   LINE      ---      ---       #1967
      0082CBF0H   LINE      ---      ---       #1968
      02000676H   SYMBOL    XDATA    BYTE      V_ucErrorType
      02000677H   SYMBOL    XDATA    ---       P_ucTemp
      0200069AH   SYMBOL    XDATA    ---       V_ucTempData
LX51 LINKER/LOCATER V4.66.41.0                                                        11/18/2021  18:54:16  PAGE 69


      020006E0H   SYMBOL    XDATA    BYTE      V_DATALen
      020006E1H   SYMBOL    XDATA    BYTE      V_DATALen1
      020006E2H   SYMBOL    XDATA    BYTE      i
      020006E3H   SYMBOL    XDATA    BYTE      j
      020006E4H   SYMBOL    XDATA    BYTE      NN
      020006E5H   SYMBOL    XDATA    BYTE      V_ucMoneyflag
      020006E6H   SYMBOL    XDATA    BYTE      V_ucDATANum
      020006E7H   SYMBOL    XDATA    ---       V_ulDI3DI2DI1DI0
      0200070FH   SYMBOL    XDATA    ---       V_ucDATAOffset
      0200071AH   SYMBOL    XDATA    ---       V_ucDATALen
      00000006H   SYMBOL    DATA     WORD      V_usStateFlag3
      02000724H   SYMBOL    XDATA    BYTE      AlarmMoneyL1_Set
      02000725H   SYMBOL    XDATA    BYTE      AlarmMoneyL2_Set
      ---         BLOCKEND  CODE/B2  ---       LVL=1
      ---         BLOCKEND  CODE/B2  ---       LVL=0

      0082CFB6H   BLOCK     CODE/B2  ---       LVL=0
      0082CFB6H   LINE      ---      ---       #1979
      0082CFBBH   LINE      ---      ---       #1980
      0200062CH   SYMBOL    XDATA    BYTE      v_ucChID
      0082CFBBH   BLOCK     CODE/B2  NEAR LAB  LVL=1
      0082CFBBH   LINE      ---      ---       #1983
      0082CFC1H   LINE      ---      ---       #1985
      0082CFDEH   LINE      ---      ---       #1986
      0082CFDEH   LINE      ---      ---       #1987
      0082CFE1H   LINE      ---      ---       #1988
      0082CFE1H   LINE      ---      ---       #1990
      0082CFFBH   LINE      ---      ---       #1991
      0082CFFBH   LINE      ---      ---       #1992
      0082D006H   LINE      ---      ---       #1993
      0082D006H   LINE      ---      ---       #1994
      0082D009H   LINE      ---      ---       #1995
      0082D009H   LINE      ---      ---       #1996
      0082D028H   LINE      ---      ---       #1997
      0082D042H   LINE      ---      ---       #1998
      0082D05EH   LINE      ---      ---       #1999
      0082D08FH   LINE      ---      ---       #2000
      0082D08FH   LINE      ---      ---       #2001
      0082D095H   LINE      ---      ---       #2002
      0082D097H   LINE      ---      ---       #2003
      0082D097H   LINE      ---      ---       #2004
      0082D0B5H   LINE      ---      ---       #2005
      0082D0B7H   LINE      ---      ---       #2006
      0082D0D4H   LINE      ---      ---       #2007
      0082D0D4H   LINE      ---      ---       #2008
      0082D0DBH   LINE      ---      ---       #2009
      0082D0DBH   LINE      ---      ---       #2010
      0082D0F0H   LINE      ---      ---       #2011
      0082D0F0H   LINE      ---      ---       #2012
      0082D0F3H   LINE      ---      ---       #2013
      0082D0F3H   LINE      ---      ---       #2014
      0082D0F3H   LINE      ---      ---       #2015
      0082D0F3H   LINE      ---      ---       #2017
      0082D0F3H   LINE      ---      ---       #2018
      0082D0F6H   LINE      ---      ---       #2019
      0082D0F6H   LINE      ---      ---       #2023
      0082D120H   LINE      ---      ---       #2024
      0082D120H   LINE      ---      ---       #2025
      0082D120H   LINE      ---      ---       #2026
      0082D120H   LINE      ---      ---       #2027
      0082D127H   LINE      ---      ---       #2028
      0082D127H   LINE      ---      ---       #2029
      0082D12AH   LINE      ---      ---       #2030
      0082D12AH   LINE      ---      ---       #2031
      0082D130H   LINE      ---      ---       #2032
LX51 LINKER/LOCATER V4.66.41.0                                                        11/18/2021  18:54:16  PAGE 70


      0082D130H   LINE      ---      ---       #2033
      0082D130H   LINE      ---      ---       #2034
      0082D130H   LINE      ---      ---       #2035
      0082D130H   LINE      ---      ---       #2036
      0082D132H   LINE      ---      ---       #2038
      0082D132H   LINE      ---      ---       #2039
      0082D132H   LINE      ---      ---       #2040
      0082D139H   LINE      ---      ---       #2041
      0082D139H   LINE      ---      ---       #2042
      0082D13CH   LINE      ---      ---       #2043
      0082D13CH   LINE      ---      ---       #2045
      0082D143H   LINE      ---      ---       #2046
      0082D143H   LINE      ---      ---       #2047
      0082D14AH   LINE      ---      ---       #2048
      0082D14AH   LINE      ---      ---       #2049
      0082D151H   LINE      ---      ---       #2050
      0082D151H   LINE      ---      ---       #2051
      0082D158H   LINE      ---      ---       #2052
      0082D158H   LINE      ---      ---       #2054
      0082D15FH   LINE      ---      ---       #2055
      0082D165H   LINE      ---      ---       #2056
      0082D165H   LINE      ---      ---       #2057
      0082D165H   LINE      ---      ---       #2058
      0082D165H   LINE      ---      ---       #2059
      0082D165H   LINE      ---      ---       #2060
      0082D167H   LINE      ---      ---       #2062
      0082D167H   LINE      ---      ---       #2063
      0082D167H   LINE      ---      ---       #2064
      0082D16EH   LINE      ---      ---       #2065
      0082D174H   LINE      ---      ---       #2066
      0082D174H   LINE      ---      ---       #2067
      0082D174H   LINE      ---      ---       #2068
      0082D174H   LINE      ---      ---       #2069
      0082D174H   LINE      ---      ---       #2070
      0082D176H   LINE      ---      ---       #2072
      0082D176H   LINE      ---      ---       #2073
      0082D176H   LINE      ---      ---       #2074
      0082D17DH   LINE      ---      ---       #2075
      0082D180H   LINE      ---      ---       #2076
      0082D18EH   LINE      ---      ---       #2077
      0082D193H   LINE      ---      ---       #2078
      0082D1ADH   LINE      ---      ---       #2079
      0082D1AFH   LINE      ---      ---       #2080
      0082D1AFH   LINE      ---      ---       #2081
      0082D1B2H   LINE      ---      ---       #2082
      0082D1B2H   LINE      ---      ---       #2084
      0082D1B7H   LINE      ---      ---       #2086
      0200062DH   SYMBOL    XDATA    BYTE      V_ucTemp
      0200062EH   SYMBOL    XDATA    BYTE      V_ucErrorType
      ---         BLOCKEND  CODE/B2  ---       LVL=1
      ---         BLOCKEND  CODE/B2  ---       LVL=0

      0082D1B8H   BLOCK     CODE/B2  ---       LVL=0
      0082D1B8H   LINE      ---      ---       #2099
      0082D1BDH   LINE      ---      ---       #2100
      0200062CH   SYMBOL    XDATA    BYTE      v_ucChID
      0082D1BDH   BLOCK     CODE/B2  NEAR LAB  LVL=1
      0082D1BDH   LINE      ---      ---       #2101
      0082D1C1H   LINE      ---      ---       #2108
      0082D1E5H   LINE      ---      ---       #2109
      0082D22CH   LINE      ---      ---       #2110
      0082D273H   LINE      ---      ---       #2111
      0082D2BAH   LINE      ---      ---       #2113
      0082D2DAH   LINE      ---      ---       #2114
      0082D2DAH   LINE      ---      ---       #2115
LX51 LINKER/LOCATER V4.66.41.0                                                        11/18/2021  18:54:16  PAGE 71


      0082D2F7H   LINE      ---      ---       #2116
      0082D2F7H   LINE      ---      ---       #2117
      0082D34DH   LINE      ---      ---       #2118
      0082D34DH   LINE      ---      ---       #2122
      0082D34DH   LINE      ---      ---       #2123
      0082D34DH   LINE      ---      ---       #2124
      0082D34DH   LINE      ---      ---       #2125
      0082D367H   LINE      ---      ---       #2126
      0082D367H   LINE      ---      ---       #2127
      0082D389H   LINE      ---      ---       #2128
      0082D389H   LINE      ---      ---       #2129
      0082D3A8H   LINE      ---      ---       #2130
      0082D3C8H   LINE      ---      ---       #2131
      0082D3D2H   LINE      ---      ---       #2133
      0082D3E9H   LINE      ---      ---       #2134
      0082D3E9H   LINE      ---      ---       #2135
      0082D407H   LINE      ---      ---       #2136
      0082D407H   LINE      ---      ---       #2137
      0082D407H   LINE      ---      ---       #2138
      0082D407H   LINE      ---      ---       #2139
      0082D445H   LINE      ---      ---       #2140
      0082D447H   LINE      ---      ---       #2142
      0082D447H   LINE      ---      ---       #2143
      0082D472H   LINE      ---      ---       #2146
      0082D47BH   LINE      ---      ---       #2147
      0082D47BH   LINE      ---      ---       #2149
      0082D491H   LINE      ---      ---       #2150
      0082D491H   LINE      ---      ---       #2151
      0082D4A7H   LINE      ---      ---       #2152
      0082D4A7H   LINE      ---      ---       #2153
      0082D4A7H   LINE      ---      ---       #2154
      0082D4A7H   LINE      ---      ---       #2155
      0082D4A9H   LINE      ---      ---       #2156
      0082D4CAH   LINE      ---      ---       #2157
      0082D4CAH   LINE      ---      ---       #2158
      0082D4F4H   LINE      ---      ---       #2159
      0082D4F4H   LINE      ---      ---       #2160
      0082D4F4H   LINE      ---      ---       #2161
      0082D4F4H   LINE      ---      ---       #2163
      0082D4F4H   LINE      ---      ---       #2165
      0082D4F4H   LINE      ---      ---       #2166
      0082D4F4H   LINE      ---      ---       #2167
      0082D4F4H   LINE      ---      ---       #2168
      0082D4F6H   LINE      ---      ---       #2170
      0082D4F6H   LINE      ---      ---       #2171
      0082D4F6H   LINE      ---      ---       #2172
      0082D516H   LINE      ---      ---       #2173
      0082D516H   LINE      ---      ---       #2174
      0082D534H   LINE      ---      ---       #2175
      0082D534H   LINE      ---      ---       #2176
      0082D557H   LINE      ---      ---       #2177
      0082D577H   LINE      ---      ---       #2178
      0082D581H   LINE      ---      ---       #2180
      0082D5B1H   LINE      ---      ---       #2181
      0082D5B1H   LINE      ---      ---       #2182
      0082D5B1H   LINE      ---      ---       #2183
      0082D5B1H   LINE      ---      ---       #2184
      0082D5D1H   LINE      ---      ---       #2185
      0082D5D1H   LINE      ---      ---       #2186
      0082D5D1H   LINE      ---      ---       #2187
      0082D5D1H   LINE      ---      ---       #2189
      0082D5D4H   LINE      ---      ---       #2191
      0082D5D4H   LINE      ---      ---       #2192
      0082D5D4H   LINE      ---      ---       #2193
      0082D5DAH   LINE      ---      ---       #2195
LX51 LINKER/LOCATER V4.66.41.0                                                        11/18/2021  18:54:16  PAGE 72


      0082D5FAH   LINE      ---      ---       #2196
      0082D5FAH   LINE      ---      ---       #2198
      0082D624H   LINE      ---      ---       #2200
      0082D62BH   LINE      ---      ---       #2201
      0082D62BH   LINE      ---      ---       #2202
      0082D647H   LINE      ---      ---       #2203
      0082D647H   LINE      ---      ---       #2205
      0082D665H   LINE      ---      ---       #2207
      0082D679H   LINE      ---      ---       #2209
      0082D695H   LINE      ---      ---       #2210
      0082D695H   LINE      ---      ---       #2211
      0082D699H   LINE      ---      ---       #2212
      0082D69BH   LINE      ---      ---       #2214
      0082D69BH   LINE      ---      ---       #2215
      0082D69FH   LINE      ---      ---       #2216
      0082D69FH   LINE      ---      ---       #2217
      0082D6ADH   LINE      ---      ---       #2219
      0082D6ADH   LINE      ---      ---       #2220
      0082D6ADH   LINE      ---      ---       #2221
      0082D6ADH   LINE      ---      ---       #2223
      0082D6B0H   LINE      ---      ---       #2226
      0082D6B0H   LINE      ---      ---       #2227
      0082D6B0H   LINE      ---      ---       #2228
      0082D6BEH   LINE      ---      ---       #2229
      0082D6EDH   LINE      ---      ---       #2231
      0082D707H   LINE      ---      ---       #2232
      0082D707H   LINE      ---      ---       #2233
      0082D70AH   LINE      ---      ---       #2235
      0082D70AH   LINE      ---      ---       #2236
      0082D70AH   LINE      ---      ---       #2237
      0082D72AH   LINE      ---      ---       #2238
      0082D72AH   LINE      ---      ---       #2239
      0082D72AH   LINE      ---      ---       #2240
      0082D72AH   LINE      ---      ---       #2244
      0082D755H   LINE      ---      ---       #2245
      0082D785H   LINE      ---      ---       #2246
      0082D7B5H   LINE      ---      ---       #2247
      0082D7E5H   LINE      ---      ---       #2248
      0082D802H   LINE      ---      ---       #2252
      0082D817H   LINE      ---      ---       #2253
      0082D825H   LINE      ---      ---       #2257
      0082D82BH   LINE      ---      ---       #2263
      0082D82BH   LINE      ---      ---       #2264
      0082D82BH   LINE      ---      ---       #2266
      0082D82DH   LINE      ---      ---       #2268
      0082D82DH   LINE      ---      ---       #2270
      0082D82DH   LINE      ---      ---       #2271
      0082D84CH   LINE      ---      ---       #2272
      0082D84CH   LINE      ---      ---       #2273
      0082D84CH   LINE      ---      ---       #2274
      0082D84CH   LINE      ---      ---       #2276
      0082D85EH   LINE      ---      ---       #2277
      0082D87BH   LINE      ---      ---       #2278
      0082D8AAH   LINE      ---      ---       #2279
      0082D8D9H   LINE      ---      ---       #2280
      0082D908H   LINE      ---      ---       #2282
      0082D927H   LINE      ---      ---       #2283
      0082D93DH   LINE      ---      ---       #2284
      0082D93DH   LINE      ---      ---       #2285
      0082D93FH   LINE      ---      ---       #2286
      0082D93FH   LINE      ---      ---       #2287
      0082D93FH   LINE      ---      ---       #2288
      0082D95EH   LINE      ---      ---       #2289
      0082D95EH   LINE      ---      ---       #2290
      0082D95EH   LINE      ---      ---       #2291
LX51 LINKER/LOCATER V4.66.41.0                                                        11/18/2021  18:54:16  PAGE 73


      0082D95EH   LINE      ---      ---       #2293
      0082D975H   LINE      ---      ---       #2294
      0082D975H   LINE      ---      ---       #2295
      0082D98FH   LINE      ---      ---       #2296
      0082D98FH   LINE      ---      ---       #2297
      0082D98FH   LINE      ---      ---       #2299
      0082D991H   LINE      ---      ---       #2301
      0082D991H   LINE      ---      ---       #2302
      0082D991H   LINE      ---      ---       #2303
      0082D9B0H   LINE      ---      ---       #2304
      0082D9B0H   LINE      ---      ---       #2305
      0082D9B0H   LINE      ---      ---       #2306
      0082D9B0H   LINE      ---      ---       #2308
      0082D9CBH   LINE      ---      ---       #2309
      0082D9CBH   LINE      ---      ---       #2310
      0082D9E5H   LINE      ---      ---       #2311
      0082D9E5H   LINE      ---      ---       #2312
      0082D9E5H   LINE      ---      ---       #2314
      0082D9E7H   LINE      ---      ---       #2316
      0082D9E7H   LINE      ---      ---       #2317
      0082D9E7H   LINE      ---      ---       #2318
      0082DA06H   LINE      ---      ---       #2319
      0082DA06H   LINE      ---      ---       #2320
      0082DA06H   LINE      ---      ---       #2321
      0082DA06H   LINE      ---      ---       #2323
      0082DA21H   LINE      ---      ---       #2324
      0082DA21H   LINE      ---      ---       #2325
      0082DA3BH   LINE      ---      ---       #2326
      0082DA3BH   LINE      ---      ---       #2327
      0082DA3BH   LINE      ---      ---       #2329
      0082DA3DH   LINE      ---      ---       #2331
      0082DA3DH   LINE      ---      ---       #2332
      0082DA3DH   LINE      ---      ---       #2333
      0082DA5CH   LINE      ---      ---       #2334
      0082DA5CH   LINE      ---      ---       #2335
      0082DA5CH   LINE      ---      ---       #2336
      0082DA5CH   LINE      ---      ---       #2337
      0082DA77H   LINE      ---      ---       #2338
      0082DA77H   LINE      ---      ---       #2339
      0082DA91H   LINE      ---      ---       #2340
      0082DA95H   LINE      ---      ---       #2342
      0082DAAEH   LINE      ---      ---       #2343
      0082DAC3H   LINE      ---      ---       #2344
      0082DAD1H   LINE      ---      ---       #2345
      0082DAD1H   LINE      ---      ---       #2346
      0082DAD3H   LINE      ---      ---       #2348
      0082DAD3H   LINE      ---      ---       #2349
      0082DAD3H   LINE      ---      ---       #2350
      0082DAF2H   LINE      ---      ---       #2351
      0082DAF2H   LINE      ---      ---       #2352
      0082DAF2H   LINE      ---      ---       #2353
      0082DAF2H   LINE      ---      ---       #2354
      0082DB11H   LINE      ---      ---       #2355
      0082DB11H   LINE      ---      ---       #2356
      0082DB11H   LINE      ---      ---       #2357
      0082DB11H   LINE      ---      ---       #2358
      0082DB11H   LINE      ---      ---       #2359
      0082DB13H   LINE      ---      ---       #2361
      0082DB13H   LINE      ---      ---       #2362
      0082DB13H   LINE      ---      ---       #2363
      0082DB32H   LINE      ---      ---       #2364
      0082DB32H   LINE      ---      ---       #2365
      0082DB32H   LINE      ---      ---       #2366
      0082DB32H   LINE      ---      ---       #2367
      0082DB51H   LINE      ---      ---       #2368
LX51 LINKER/LOCATER V4.66.41.0                                                        11/18/2021  18:54:16  PAGE 74


      0082DB51H   LINE      ---      ---       #2369
      0082DB6BH   LINE      ---      ---       #2370
      0082DB6BH   LINE      ---      ---       #2371
      0082DB6BH   LINE      ---      ---       #2372
      0082DB6DH   LINE      ---      ---       #2374
      0082DB6DH   LINE      ---      ---       #2375
      0082DB6DH   LINE      ---      ---       #2376
      0082DB8CH   LINE      ---      ---       #2377
      0082DB8CH   LINE      ---      ---       #2378
      0082DB8CH   LINE      ---      ---       #2379
      0082DB8CH   LINE      ---      ---       #2380
      0082DBABH   LINE      ---      ---       #2381
      0082DBABH   LINE      ---      ---       #2382
      0082DBABH   LINE      ---      ---       #2383
      0082DBABH   LINE      ---      ---       #2384
      0082DBABH   LINE      ---      ---       #2385
      0082DBADH   LINE      ---      ---       #2387
      0082DBADH   LINE      ---      ---       #2388
      0082DBADH   LINE      ---      ---       #2389
      0082DBCCH   LINE      ---      ---       #2390
      0082DBCCH   LINE      ---      ---       #2391
      0082DBCCH   LINE      ---      ---       #2392
      0082DBCCH   LINE      ---      ---       #2393
      0082DBEBH   LINE      ---      ---       #2394
      0082DBEBH   LINE      ---      ---       #2395
      0082DC05H   LINE      ---      ---       #2396
      0082DC05H   LINE      ---      ---       #2397
      0082DC05H   LINE      ---      ---       #2398
      0082DC07H   LINE      ---      ---       #2400
      0082DC07H   LINE      ---      ---       #2401
      0082DC07H   LINE      ---      ---       #2402
      0082DC26H   LINE      ---      ---       #2403
      0082DC26H   LINE      ---      ---       #2404
      0082DC26H   LINE      ---      ---       #2405
      0082DC26H   LINE      ---      ---       #2406
      0082DC45H   LINE      ---      ---       #2407
      0082DC45H   LINE      ---      ---       #2408
      0082DC5FH   LINE      ---      ---       #2409
      0082DC5FH   LINE      ---      ---       #2410
      0082DC5FH   LINE      ---      ---       #2411
      0082DC61H   LINE      ---      ---       #2413
      0082DC61H   LINE      ---      ---       #2414
      0082DC61H   LINE      ---      ---       #2415
      0082DC80H   LINE      ---      ---       #2416
      0082DC80H   LINE      ---      ---       #2417
      0082DC80H   LINE      ---      ---       #2418
      0082DC80H   LINE      ---      ---       #2419
      0082DC9FH   LINE      ---      ---       #2420
      0082DC9FH   LINE      ---      ---       #2421
      0082DCB9H   LINE      ---      ---       #2422
      0082DCB9H   LINE      ---      ---       #2423
      0082DCB9H   LINE      ---      ---       #2424
      0082DCBBH   LINE      ---      ---       #2514
      0082DCBBH   LINE      ---      ---       #2515
      0082DCBBH   LINE      ---      ---       #2516
      0082DCD8H   LINE      ---      ---       #2517
      0082DCD8H   LINE      ---      ---       #2518
      0082DCDEH   LINE      ---      ---       #2519
      0082DCE7H   LINE      ---      ---       #2520
      0082DCE7H   LINE      ---      ---       #2521
      0082DD02H   LINE      ---      ---       #2522
      0082DD02H   LINE      ---      ---       #2523
      0082DD25H   LINE      ---      ---       #2524
      0082DD25H   LINE      ---      ---       #2525
      0082DD55H   LINE      ---      ---       #2526
LX51 LINKER/LOCATER V4.66.41.0                                                        11/18/2021  18:54:16  PAGE 75


      0082DD55H   LINE      ---      ---       #2527
      0082DD55H   LINE      ---      ---       #2528
      0082DD55H   LINE      ---      ---       #2529
      0082DD55H   LINE      ---      ---       #2530
      0082DD55H   LINE      ---      ---       #2531
      0082DD57H   LINE      ---      ---       #2532
      0082DD76H   LINE      ---      ---       #2533
      0082DD76H   LINE      ---      ---       #2534
      0082DD95H   LINE      ---      ---       #2535
      0082DD95H   LINE      ---      ---       #2536
      0082DDC5H   LINE      ---      ---       #2538
      0082DDE0H   LINE      ---      ---       #2539
      0082DDE1H   LINE      ---      ---       #2540
      0082DDE1H   LINE      ---      ---       #2541
      0082DDE3H   LINE      ---      ---       #2543
      0082DDE3H   LINE      ---      ---       #2544
      0082DDE3H   LINE      ---      ---       #2545
      0082DDE3H   LINE      ---      ---       #2546
      0082DDE3H   LINE      ---      ---       #2548
      0082DDE3H   LINE      ---      ---       #2549
      0082DDE3H   LINE      ---      ---       #2550
      0082DDE3H   LINE      ---      ---       #2551
      0082DDE3H   LINE      ---      ---       #2553
      0082DDE3H   LINE      ---      ---       #2554
      0082DE00H   LINE      ---      ---       #2555
      0082DE00H   LINE      ---      ---       #2556
      0082DE00H   LINE      ---      ---       #2557
      0082DE00H   LINE      ---      ---       #2558
      0082DE06H   LINE      ---      ---       #2559
      0082DE0DH   LINE      ---      ---       #2560
      0082DE0DH   LINE      ---      ---       #2561
      0082DE29H   LINE      ---      ---       #2562
      0082DE29H   LINE      ---      ---       #2563
      0082DE2CH   LINE      ---      ---       #2564
      0082DE46H   LINE      ---      ---       #2565
      0082DE4AH   LINE      ---      ---       #2566
      0082DE4AH   LINE      ---      ---       #2567
      0082DE4AH   LINE      ---      ---       #2569
      0082DE4AH   LINE      ---      ---       #2571
      0082DE4AH   LINE      ---      ---       #2573
      0082DE4AH   LINE      ---      ---       #2574
      0082DE4AH   LINE      ---      ---       #2576
      0082DE4FH   LINE      ---      ---       #2577
      0200062DH   SYMBOL    XDATA    BYTE      V_ucErrorType
      0200062EH   SYMBOL    XDATA    BYTE      V_ucTempdata
      0200062FH   SYMBOL    XDATA    WORD      V_usAddress
      02000631H   SYMBOL    XDATA    DWORD     V_ulDI3DI2DI1DI0
      02000635H   SYMBOL    XDATA    DWORD     V_ulTempData32
      ---         BLOCKEND  CODE/B2  ---       LVL=1
      ---         BLOCKEND  CODE/B2  ---       LVL=0

      0082DE50H   BLOCK     CODE/B2  ---       LVL=0
      0082DE50H   LINE      ---      ---       #2589
      0082DE55H   LINE      ---      ---       #2590
      0200062CH   SYMBOL    XDATA    BYTE      v_ucChID
      0082DE55H   BLOCK     CODE/B2  NEAR LAB  LVL=1
      0082DE55H   LINE      ---      ---       #2599
      0082DE5BH   LINE      ---      ---       #2600
      0082DE60H   LINE      ---      ---       #2601
      0082DE62H   LINE      ---      ---       #2602
      0082DE6CH   LINE      ---      ---       #2604
      0082DE9CH   LINE      ---      ---       #2605
      0082DECCH   LINE      ---      ---       #2606
      0082DEECH   LINE      ---      ---       #2607
      0082DEECH   LINE      ---      ---       #2608
LX51 LINKER/LOCATER V4.66.41.0                                                        11/18/2021  18:54:16  PAGE 76


      0082DEF3H   LINE      ---      ---       #2609
      0082DEF3H   LINE      ---      ---       #2610
      0082DF0BH   LINE      ---      ---       #2611
      0082DF0BH   LINE      ---      ---       #2612
      0082DF0EH   LINE      ---      ---       #2614
      0082DF0EH   LINE      ---      ---       #2615
      0082DF13H   LINE      ---      ---       #2616
      0082DF13H   LINE      ---      ---       #2617
      0082DF48H   LINE      ---      ---       #2618
      0082DF92H   LINE      ---      ---       #2619
      0082DF9FH   LINE      ---      ---       #2621
      0082DFB1H   LINE      ---      ---       #2622
      0082DFB1H   LINE      ---      ---       #2623
      0082DFD9H   LINE      ---      ---       #2624
      0082DFD9H   LINE      ---      ---       #2625
      0082E001H   LINE      ---      ---       #2626
      0082E001H   LINE      ---      ---       #2627
      0082E01BH   LINE      ---      ---       #2628
      0082E021H   LINE      ---      ---       #2629
      0082E023H   LINE      ---      ---       #2630
      0082E023H   LINE      ---      ---       #2632
      0082E023H   LINE      ---      ---       #2634
      0082E034H   LINE      ---      ---       #2635
      0082E034H   LINE      ---      ---       #2636
      0082E034H   LINE      ---      ---       #2637
      0082E034H   LINE      ---      ---       #2638
      0082E036H   LINE      ---      ---       #2639
      0082E038H   LINE      ---      ---       #2641
      0082E038H   LINE      ---      ---       #2642
      0082E038H   LINE      ---      ---       #2643
      0082E052H   LINE      ---      ---       #2644
      0082E054H   LINE      ---      ---       #2646
      0082E054H   LINE      ---      ---       #2647
      0082E054H   LINE      ---      ---       #2648
      0082E054H   LINE      ---      ---       #2650
      0082E054H   LINE      ---      ---       #2651
      0082E05CH   LINE      ---      ---       #2652
      0082E05EH   LINE      ---      ---       #2654
      0082E05EH   LINE      ---      ---       #2655
      0082E05EH   LINE      ---      ---       #2656
      0082E079H   LINE      ---      ---       #2657
      0082E07BH   LINE      ---      ---       #2660
      0082E07BH   LINE      ---      ---       #2661
      0082E07BH   LINE      ---      ---       #2662
      0082E09BH   LINE      ---      ---       #2663
      0082E09BH   LINE      ---      ---       #2665
      0082E09BH   LINE      ---      ---       #2666
      0082E09BH   LINE      ---      ---       #2667
      0082E0A2H   LINE      ---      ---       #2668
      0082E0A2H   LINE      ---      ---       #2669
      0082E0A5H   LINE      ---      ---       #2670
      0082E0C4H   LINE      ---      ---       #2671
      0082E0DFH   LINE      ---      ---       #2672
      0082E0E1H   LINE      ---      ---       #2673
      0082E0E1H   LINE      ---      ---       #2675
      0082E0E1H   LINE      ---      ---       #2676
      0082E105H   LINE      ---      ---       #2677
      0082E10EH   LINE      ---      ---       #2678
      0082E10EH   LINE      ---      ---       #2679
      0082E110H   LINE      ---      ---       #2680
      0082E110H   LINE      ---      ---       #2681
      0082E110H   LINE      ---      ---       #2682
      0082E119H   LINE      ---      ---       #2683
      0082E122H   LINE      ---      ---       #2684
      0082E122H   LINE      ---      ---       #2685
LX51 LINKER/LOCATER V4.66.41.0                                                        11/18/2021  18:54:16  PAGE 77


      0082E140H   LINE      ---      ---       #2686
      0082E146H   LINE      ---      ---       #2687
      0082E146H   LINE      ---      ---       #2688
      0082E146H   LINE      ---      ---       #2689
      0082E148H   LINE      ---      ---       #2691
      0082E148H   LINE      ---      ---       #2692
      0082E14EH   LINE      ---      ---       #2693
      0082E14EH   LINE      ---      ---       #2695
      0082E153H   LINE      ---      ---       #2697
      0200062DH   SYMBOL    XDATA    BYTE      i
      0200062EH   SYMBOL    XDATA    BYTE      j
      0200062FH   SYMBOL    XDATA    ---       V_ucDI
      02000633H   SYMBOL    XDATA    BYTE      V_ucErrorType
      02000634H   SYMBOL    XDATA    DWORD     V_ulDI0DI1DI2DI3
      ---         BLOCKEND  CODE/B2  ---       LVL=1
      ---         BLOCKEND  CODE/B2  ---       LVL=0

      00829488H   BLOCK     CODE/B2  ---       LVL=0
      00829488H   LINE      ---      ---       #2707
      0082948DH   LINE      ---      ---       #2708
      0082948DH   LINE      ---      ---       #2710
      008294A3H   LINE      ---      ---       #2711
      008294A3H   LINE      ---      ---       #2712
      008294A6H   LINE      ---      ---       #2713
      008294A6H   LINE      ---      ---       #2714
      008294C3H   LINE      ---      ---       #2715
      008294C3H   LINE      ---      ---       #2716
      008294C6H   LINE      ---      ---       #2717
      008294C6H   LINE      ---      ---       #2718
      008294CDH   LINE      ---      ---       #2719
      008294CDH   LINE      ---      ---       #2720
      008294E2H   LINE      ---      ---       #2721
      008294E2H   LINE      ---      ---       #2722
      008294FCH   LINE      ---      ---       #2723
      008294FCH   LINE      ---      ---       #2724
      008294FFH   LINE      ---      ---       #2725
      008294FFH   LINE      ---      ---       #2726
      008294FFH   LINE      ---      ---       #2728
      008294FFH   LINE      ---      ---       #2729
      00829502H   LINE      ---      ---       #2730
      00829502H   LINE      ---      ---       #2731
      00829502H   LINE      ---      ---       #2733
      00829502H   LINE      ---      ---       #2734
      00829505H   LINE      ---      ---       #2735
      00829505H   LINE      ---      ---       #2736
      0082951FH   LINE      ---      ---       #2737
      00829522H   LINE      ---      ---       #2738
      00829524H   LINE      ---      ---       #2741
      00829526H   LINE      ---      ---       #2742
      0200062CH   SYMBOL    XDATA    BYTE      v_ucChID
      ---         BLOCKEND  ---      ---       LVL=0

      0082BAC7H   BLOCK     CODE/B2  ---       LVL=0
      0082BAC7H   LINE      ---      ---       #2753
      0082BACCH   LINE      ---      ---       #2754
      0200062CH   SYMBOL    XDATA    BYTE      v_ucChID
      0082BACCH   BLOCK     CODE/B2  NEAR LAB  LVL=1
      0082BACCH   LINE      ---      ---       #2763
      0082BAD2H   LINE      ---      ---       #2764
      0082BAD7H   LINE      ---      ---       #2765
      0082BAD9H   LINE      ---      ---       #2766
      0082BAE3H   LINE      ---      ---       #2768
      0082BAEBH   LINE      ---      ---       #2769
      0082BAEBH   LINE      ---      ---       #2770
      0082BAEEH   LINE      ---      ---       #2771
LX51 LINKER/LOCATER V4.66.41.0                                                        11/18/2021  18:54:16  PAGE 78


      0082BAEEH   LINE      ---      ---       #2773
      0082BB1EH   LINE      ---      ---       #2774
      0082BB4EH   LINE      ---      ---       #2775
      0082BB6DH   LINE      ---      ---       #2776
      0082BB6DH   LINE      ---      ---       #2777
      0082BB74H   LINE      ---      ---       #2778
      0082BB74H   LINE      ---      ---       #2779
      0082BB8CH   LINE      ---      ---       #2780
      0082BB8CH   LINE      ---      ---       #2781
      0082BB8EH   LINE      ---      ---       #2783
      0082BB8EH   LINE      ---      ---       #2784
      0082BB93H   LINE      ---      ---       #2785
      0082BB93H   LINE      ---      ---       #2786
      0082BBC8H   LINE      ---      ---       #2787
      0082BC12H   LINE      ---      ---       #2788
      0082BC1FH   LINE      ---      ---       #2789
      0082BC3CH   LINE      ---      ---       #2790
      0082BC3CH   LINE      ---      ---       #2791
      0082BC59H   LINE      ---      ---       #2792
      0082BC59H   LINE      ---      ---       #2793
      0082BC73H   LINE      ---      ---       #2794
      0082BC79H   LINE      ---      ---       #2795
      0082BC7BH   LINE      ---      ---       #2797
      0082BC7BH   LINE      ---      ---       #2798
      0082BC83H   LINE      ---      ---       #2799
      0082BC87H   LINE      ---      ---       #2800
      0082BC87H   LINE      ---      ---       #2802
      0082BC8CH   LINE      ---      ---       #2803
      0082BC92H   LINE      ---      ---       #2804
      0082BCB3H   LINE      ---      ---       #2805
      0082BCBEH   LINE      ---      ---       #2806
      0082BCC9H   LINE      ---      ---       #2807
      0082BCD4H   LINE      ---      ---       #2808
      0082BCDFH   LINE      ---      ---       #2809
      0082BCEAH   LINE      ---      ---       #2812
      0082BD05H   LINE      ---      ---       #2815
      0082BD20H   LINE      ---      ---       #2818
      0082BD3BH   LINE      ---      ---       #2821
      0082BD56H   LINE      ---      ---       #2824
      0082BD71H   LINE      ---      ---       #2827
      0082BD73H   LINE      ---      ---       #2828
      0082BD78H   LINE      ---      ---       #2829
      0082BD7BH   LINE      ---      ---       #2830
      0082BD82H   LINE      ---      ---       #2831
      0082BD8BH   LINE      ---      ---       #2833
      0082BDBAH   LINE      ---      ---       #2834
      0082BDD5H   LINE      ---      ---       #2835
      0082BDDBH   LINE      ---      ---       #2836
      0082BDDDH   LINE      ---      ---       #2838
      0082BDDDH   LINE      ---      ---       #2839
      0082BDE3H   LINE      ---      ---       #2840
      0082BE02H   LINE      ---      ---       #2841
      0082BE1DH   LINE      ---      ---       #2842
      0082BE1DH   LINE      ---      ---       #2843
      0082BE1DH   LINE      ---      ---       #2844
      0082BE1FH   LINE      ---      ---       #2845
      0082BE3DH   LINE      ---      ---       #2846
      0082BE3DH   LINE      ---      ---       #2847
      0082BE5AH   LINE      ---      ---       #2848
      0082BE5AH   LINE      ---      ---       #2849
      0082BE78H   LINE      ---      ---       #2850
      0082BE7EH   LINE      ---      ---       #2851
      0082BE95H   LINE      ---      ---       #2852
      0082BE97H   LINE      ---      ---       #2854
      0082BE97H   LINE      ---      ---       #2855
LX51 LINKER/LOCATER V4.66.41.0                                                        11/18/2021  18:54:16  PAGE 79


      0082BE9FH   LINE      ---      ---       #2856
      0082BEA3H   LINE      ---      ---       #2857
      0082BEA6H   LINE      ---      ---       #2859
      0082BEC0H   LINE      ---      ---       #2862
      0082BEDBH   LINE      ---      ---       #2865
      0082BEF6H   LINE      ---      ---       #2868
      0082BF11H   LINE      ---      ---       #2871
      0082BF25H   LINE      ---      ---       #2876
      0082BF2CH   LINE      ---      ---       #2878
      0082BF5BH   LINE      ---      ---       #2880
      0082BF76H   LINE      ---      ---       #2881
      0082BF76H   LINE      ---      ---       #2882
      0082BF76H   LINE      ---      ---       #2883
      0082BF76H   LINE      ---      ---       #2884
      0082BF78H   LINE      ---      ---       #2886
      0082BF78H   LINE      ---      ---       #2887
      0082BF7EH   LINE      ---      ---       #2888
      0082BF7EH   LINE      ---      ---       #2889
      0082BF83H   LINE      ---      ---       #2890
      0200062DH   SYMBOL    XDATA    BYTE      i
      0200062EH   SYMBOL    XDATA    ---       V_ucDI
      02000632H   SYMBOL    XDATA    BYTE      V_ucErrorType
      02000633H   SYMBOL    XDATA    DWORD     V_ulDI0DI1DI2DI3
      00000007H   SYMBOL    DATA     BYTE      V_Temp
      02000637H   SYMBOL    XDATA    BYTE      V_Temp1
      00000006H   SYMBOL    DATA     WORD      V_usStateFlag3
      02000638H   SYMBOL    XDATA    ---       V_ucTempData
      ---         BLOCKEND  CODE/B2  ---       LVL=1
      ---         BLOCKEND  CODE/B2  ---       LVL=0

      0082E6F6H   BLOCK     CODE/B2  ---       LVL=0
      0082E6F6H   LINE      ---      ---       #2902
      0082E6FBH   LINE      ---      ---       #2903
      0200062CH   SYMBOL    XDATA    BYTE      v_ucChID
      0082E6FBH   BLOCK     CODE/B2  NEAR LAB  LVL=1
      0082E6FBH   LINE      ---      ---       #2906
      0082E70EH   LINE      ---      ---       #2907
      0082E714H   LINE      ---      ---       #2909
      0082E734H   LINE      ---      ---       #2910
      0082E734H   LINE      ---      ---       #2911
      0082E75CH   LINE      ---      ---       #2912
      0082E75CH   LINE      ---      ---       #2913
      0082E7B5H   LINE      ---      ---       #2914
      0082E7B5H   LINE      ---      ---       #2915
      0082E7C6H   LINE      ---      ---       #2916
      0082E7C6H   LINE      ---      ---       #2917
      0082E7F3H   LINE      ---      ---       #2918
      0082E7F3H   LINE      ---      ---       #2919
      0082E830H   LINE      ---      ---       #2920
      0082E830H   LINE      ---      ---       #2921
      0082E843H   LINE      ---      ---       #2922
      0082E843H   LINE      ---      ---       #2923
      0082E889H   LINE      ---      ---       #2925
      0082E89AH   LINE      ---      ---       #2926
      0082E89AH   LINE      ---      ---       #2927
      0082E8D8H   LINE      ---      ---       #2928
      0082E8DEH   LINE      ---      ---       #2929
      0082E8DEH   LINE      ---      ---       #2930
      0082E8DEH   LINE      ---      ---       #2931
      0082E8DEH   LINE      ---      ---       #2932
      0082E8E0H   LINE      ---      ---       #2933
      0082E8E0H   LINE      ---      ---       #2934
      0082E8E9H   LINE      ---      ---       #2935
      0082E8E9H   LINE      ---      ---       #2936
      0082E8E9H   LINE      ---      ---       #2937
LX51 LINKER/LOCATER V4.66.41.0                                                        11/18/2021  18:54:16  PAGE 80


      0082E8E9H   LINE      ---      ---       #2939
      0082E8E9H   LINE      ---      ---       #2940
      0082E8EFH   LINE      ---      ---       #2941
      0082E8EFH   LINE      ---      ---       #2943
      0082E8F4H   LINE      ---      ---       #2944
      0200062DH   SYMBOL    XDATA    BYTE      V_ucErrorType
      0200062EH   SYMBOL    XDATA    BYTE      i
      0200062FH   SYMBOL    XDATA    ---       V_ucTempBuff
      0200063AH   SYMBOL    XDATA    ---       V_ucaPasswordDI0
      ---         BLOCKEND  CODE/B2  ---       LVL=1
      ---         BLOCKEND  CODE/B2  ---       LVL=0

      0082BA4FH   BLOCK     CODE/B2  ---       LVL=0
      0082BA5DH   LINE      ---      ---       #2956
      0082BA5DH   LINE      ---      ---       #2957
      0082BA5DH   BLOCK     CODE/B2  NEAR LAB  LVL=1
      0082BA5DH   LINE      ---      ---       #2958
      0082BA60H   LINE      ---      ---       #2960
      0082BA67H   LINE      ---      ---       #2961
      0082BA67H   LINE      ---      ---       #2962
      0082BA6AH   LINE      ---      ---       #2963
      0082BA6AH   LINE      ---      ---       #2965
      0082BA71H   LINE      ---      ---       #2966
      0082BA71H   LINE      ---      ---       #2967
      0082BA75H   LINE      ---      ---       #2968
      0082BA75H   LINE      ---      ---       #2970
      0082BA7CH   LINE      ---      ---       #2971
      0082BA7CH   LINE      ---      ---       #2972
      0082BA80H   LINE      ---      ---       #2973
      0082BA80H   LINE      ---      ---       #2975
      0082BA87H   LINE      ---      ---       #2976
      0082BA87H   LINE      ---      ---       #2977
      0082BA8BH   LINE      ---      ---       #2978
      0082BA8BH   LINE      ---      ---       #2980
      0082BA92H   LINE      ---      ---       #2981
      0082BA92H   LINE      ---      ---       #2982
      0082BA96H   LINE      ---      ---       #2983
      0082BA96H   LINE      ---      ---       #2985
      0082BA9AH   LINE      ---      ---       #2988
      0082BAA1H   LINE      ---      ---       #2989
      0082BAA1H   LINE      ---      ---       #2990
      0082BAA5H   LINE      ---      ---       #2991
      0082BAA5H   LINE      ---      ---       #2993
      0082BAACH   LINE      ---      ---       #2994
      0082BAACH   LINE      ---      ---       #2995
      0082BAB0H   LINE      ---      ---       #2996
      0082BAB0H   LINE      ---      ---       #2998
      0082BAB7H   LINE      ---      ---       #2999
      0082BAB7H   LINE      ---      ---       #3000
      0082BABBH   LINE      ---      ---       #3001
      0082BABBH   LINE      ---      ---       #3003
      0082BAC2H   LINE      ---      ---       #3004
      0082BAC2H   LINE      ---      ---       #3005
      0082BAC6H   LINE      ---      ---       #3006
      0082BAC6H   LINE      ---      ---       #3008
      0082BAC6H   LINE      ---      ---       #3009
      00000006H   SYMBOL    DATA     WORD      V_usResult
      ---         BLOCKEND  CODE/B2  ---       LVL=1
      ---         BLOCKEND  CODE/B2  ---       LVL=0

      ---         MODULE    ---      ---       APPVIRTUALESAM
      02000CEFH   PUBLIC    XDATA    ---       GStr_VirtualEsamPara
      02000CE7H   PUBLIC    XDATA    ---       GA_ucDisperFactor
      02000CE6H   PUBLIC    XDATA    BYTE      GV_ucMACErrNum
      0082EADCH   PUBLIC    CODE/B2  ---       _Money_Recharge
LX51 LINKER/LOCATER V4.66.41.0                                                        11/18/2021  18:54:16  PAGE 81


      0082E4ECH   PUBLIC    CODE/B2  ---       _PrepaymentModule_GetChallenge
      0082CD3FH   PUBLIC    CODE/B2  ---       _PrepaymentModule_Comm_INTAUTH_Invalidation
      0200076BH   PUBLIC    XDATA    BYTE      ?_PrepaymentModule_CommWriteESAMBinaryMAC?BYTE
      0082CC4DH   PUBLIC    CODE/B2  ---       _PrepaymentModule_CommWriteESAMBinaryMAC
      0082E474H   PUBLIC    CODE/B2  ---       _PrepaymentModule_GetWorkkey
      02000675H   PUBLIC    XDATA    BYTE      ?_PrepaymentModule_DataDecription?BYTE
      0082CE21H   PUBLIC    CODE/B2  ---       _PrepaymentModule_DataDecription
      0082966DH   PUBLIC    CODE/B2  ---       _PrepaymentModule_Comm_HandBackMoney
      0082E8F5H   PUBLIC    CODE/B2  ---       _PrepaymentModule_Comm_ModifyKey
      0082B37EH   PUBLIC    CODE/B2  ---       _PrepaymentModule_Comm_OpenAccout
      0082CD26H   PUBLIC    CODE/B2  ---       PrepaymentModule_InValidation
      0082BA42H   PUBLIC    CODE/B2  ---       PrepaymentModule_Comm_ClrMACErrNum
      0082CCF6H   PUBLIC    CODE/B2  ---       PrepaymentModule_Comm_MACErrNum
      0082E541H   PUBLIC    CODE/B2  ---       _PrepaymentModule_Comm_TimeAvailableIn
      0082E16CH   PUBLIC    CODE/B2  ---       _PrepaymentModule_Comm_INTAUTH
      000000F3H   SFRSYM    DATA     BYTE      IB_CON2
      000000D8H.3 SFRSYM    DATA     BIT       TB81
      00000080H   SFRSYM    DATA     BYTE      P0
      000000F4H   SFRSYM    DATA     BYTE      IB_CON3
      000000A4H   SFRSYM    DATA     BYTE      TKCON
      00000090H   SFRSYM    DATA     BYTE      P1
      000000F5H   SFRSYM    DATA     BYTE      IB_CON4
      000000E7H   SFRSYM    DATA     BYTE      PASLO
      000000A0H   SFRSYM    DATA     BYTE      P2
      000000FEH   SFRSYM    DATA     BYTE      OSCLO
      000000F6H   SFRSYM    DATA     BYTE      IB_CON5
      00000098H.6 SFRSYM    DATA     BIT       SM1_RXOV
      000000B0H   SFRSYM    DATA     BYTE      P3
      000000D0H.6 SFRSYM    DATA     BIT       AC
      000000C0H   SFRSYM    DATA     BYTE      P4
      000000A1H   SFRSYM    DATA     BYTE      SPCON
      0000009CH   SFRSYM    DATA     BYTE      SBRTH
      000000E9H   SFRSYM    DATA     BYTE      P5
      000000A8H.7 SFRSYM    DATA     BIT       EA
      000000EAH   SFRSYM    DATA     BYTE      P6
      000000EBH   SFRSYM    DATA     BYTE      P7
      000000EFH   SFRSYM    DATA     BYTE      IB_DATA
      000000ECH   SFRSYM    DATA     BYTE      P8
      0000009DH   SFRSYM    DATA     BYTE      SBRTL
      000000EDH   SFRSYM    DATA     BYTE      P9
      000000B7H   SFRSYM    DATA     BYTE      PBANKLO
      000000A2H   SFRSYM    DATA     BYTE      SPSTA
      000000A8H   SFRSYM    DATA     BYTE      IEN0
      000000B3H   SFRSYM    DATA     BYTE      PWRCON1
      00000095H   SFRSYM    DATA     BYTE      EMUSR
      000000A9H   SFRSYM    DATA     BYTE      IEN1
      000000B4H   SFRSYM    DATA     BYTE      PWRCON2
      00000085H   SFRSYM    DATA     BYTE      DPH1
      00000080H   SFRSYM    DATA     BIT       P0_0
      00000090H   SFRSYM    DATA     BIT       P1_0
      00000080H.1 SFRSYM    DATA     BIT       P0_1
      000000C3H   SFRSYM    DATA     BYTE      ADCH
      000000A0H   SFRSYM    DATA     BIT       P2_0
      00000090H.1 SFRSYM    DATA     BIT       P1_1
      00000080H.2 SFRSYM    DATA     BIT       P0_2
      000000BAH   SFRSYM    DATA     BYTE      IPH0
      00000084H   SFRSYM    DATA     BYTE      DPL1
      000000B0H   SFRSYM    DATA     BIT       P3_0
      000000A0H.1 SFRSYM    DATA     BIT       P2_1
      00000090H.2 SFRSYM    DATA     BIT       P1_2
      00000080H.3 SFRSYM    DATA     BIT       P0_3
      000000BBH   SFRSYM    DATA     BYTE      IPH1
      000000C0H   SFRSYM    DATA     BIT       P4_0
      000000B0H.1 SFRSYM    DATA     BIT       P3_1
      000000A0H.2 SFRSYM    DATA     BIT       P2_2
LX51 LINKER/LOCATER V4.66.41.0                                                        11/18/2021  18:54:16  PAGE 82


      00000090H.3 SFRSYM    DATA     BIT       P1_3
      00000080H.4 SFRSYM    DATA     BIT       P0_4
      000000E8H   SFRSYM    DATA     BYTE      EXF0
      000000C0H.1 SFRSYM    DATA     BIT       P4_1
      000000B0H.2 SFRSYM    DATA     BIT       P3_2
      000000A0H.3 SFRSYM    DATA     BIT       P2_3
      00000090H.4 SFRSYM    DATA     BIT       P1_4
      00000080H.5 SFRSYM    DATA     BIT       P0_5
      000000C0H.2 SFRSYM    DATA     BIT       P4_2
      000000B0H.3 SFRSYM    DATA     BIT       P3_3
      000000A0H.4 SFRSYM    DATA     BIT       P2_4
      00000090H.5 SFRSYM    DATA     BIT       P1_5
      00000080H.6 SFRSYM    DATA     BIT       P0_6
      000000C8H.6 SFRSYM    DATA     BIT       EXF2
      000000A6H   SFRSYM    DATA     BYTE      TKF0
      000000B8H   SFRSYM    DATA     BYTE      IPL0
      000000C0H.3 SFRSYM    DATA     BIT       P4_3
      000000B0H.4 SFRSYM    DATA     BIT       P3_4
      000000A0H.5 SFRSYM    DATA     BIT       P2_5
      00000090H.6 SFRSYM    DATA     BIT       P1_6
      00000080H.7 SFRSYM    DATA     BIT       P0_7
      000000D8H.4 SFRSYM    DATA     BIT       REN1
      000000B9H   SFRSYM    DATA     BYTE      IPL1
      000000C0H.4 SFRSYM    DATA     BIT       P4_4
      000000B0H.5 SFRSYM    DATA     BIT       P3_5
      000000A0H.6 SFRSYM    DATA     BIT       P2_6
      00000090H.7 SFRSYM    DATA     BIT       P1_7
      000000E2H   SFRSYM    DATA     BYTE      TK0H
      0000008EH   SFRSYM    DATA     BYTE      SUSLO
      000000C0H.5 SFRSYM    DATA     BIT       P4_5
      000000B0H.6 SFRSYM    DATA     BIT       P3_6
      000000A0H.7 SFRSYM    DATA     BIT       P2_7
      000000E4H   SFRSYM    DATA     BYTE      TK1H
      000000C0H.6 SFRSYM    DATA     BIT       P4_6
      000000B0H.7 SFRSYM    DATA     BIT       P3_7
      000000E6H   SFRSYM    DATA     BYTE      TK2H
      000000C0H.7 SFRSYM    DATA     BIT       P4_7
      00000098H   SFRSYM    DATA     BIT       RI
      000000A8H.2 SFRSYM    DATA     BIT       E7816
      000000D0H.7 SFRSYM    DATA     BIT       CY
      000000E1H   SFRSYM    DATA     BYTE      TK0L
      00000098H.1 SFRSYM    DATA     BIT       TI
      00000091H   SFRSYM    DATA     BYTE      EADR
      000000E3H   SFRSYM    DATA     BYTE      TK1L
      000000E5H   SFRSYM    DATA     BYTE      TK2L
      000000DBH   SFRSYM    DATA     BYTE      SADEN1
      000000D8H.7 SFRSYM    DATA     BIT       SM10_FE1
      000000FBH   SFRSYM    DATA     BYTE      SADEN2
      000000B8H.4 SFRSYM    DATA     BIT       PS0L
      000000B8H.1 SFRSYM    DATA     BIT       PT0L
      000000DAH   SFRSYM    DATA     BYTE      SADDR1
      000000D8H.5 SFRSYM    DATA     BIT       SM12_TXCOL1
      000000B8H.3 SFRSYM    DATA     BIT       PT1L
      000000FAH   SFRSYM    DATA     BYTE      SADDR2
      000000CBH   SFRSYM    DATA     BYTE      RCAP2H
      000000B8H.5 SFRSYM    DATA     BIT       PT2L
      00000081H   SFRSYM    DATA     BYTE      SP
      000000D0H.2 SFRSYM    DATA     BIT       OV
      000000CAH   SFRSYM    DATA     BYTE      RCAP2L
      000000B8H   SFRSYM    DATA     BIT       PX4L
      000000C8H.1 SFRSYM    DATA     BIT       C_T2
      000000DEH   SFRSYM    DATA     BYTE      SFINE2
      000000ADH   SFRSYM    DATA     BYTE      IRCON1
      000000AFH   SFRSYM    DATA     BYTE      IRCON2
      000000ABH   SFRSYM    DATA     BYTE      EXCON1
LX51 LINKER/LOCATER V4.66.41.0                                                        11/18/2021  18:54:16  PAGE 83


      00000099H   SFRSYM    DATA     BYTE      SBUF
      000000ACH   SFRSYM    DATA     BYTE      EXCON2
      00000087H   SFRSYM    DATA     BYTE      PCON
      000000F1H   SFRSYM    DATA     BYTE      AUXC
      00000098H   SFRSYM    DATA     BYTE      SCON
      000000D4H   SFRSYM    DATA     BYTE      TK0BASEH
      00000089H   SFRSYM    DATA     BYTE      TMOD
      00000088H   SFRSYM    DATA     BYTE      TCON
      000000AAH   SFRSYM    DATA     BYTE      IENX
      000000EEH   SFRSYM    DATA     BYTE      IB_OFFSET
      000000D6H   SFRSYM    DATA     BYTE      TK1BASEH
      000000DCH   SFRSYM    DATA     BYTE      SBRT1H
      000000DFH   SFRSYM    DATA     BYTE      TK2BASEH
      000000FCH   SFRSYM    DATA     BYTE      SBRT2H
      000000B1H   SFRSYM    DATA     BYTE      RSTSTAT
      000000D3H   SFRSYM    DATA     BYTE      TK0BASEL
      000000D5H   SFRSYM    DATA     BYTE      TK1BASEL
      000000DDH   SFRSYM    DATA     BYTE      SBRT1L
      000000D7H   SFRSYM    DATA     BYTE      TK2BASEL
      000000FDH   SFRSYM    DATA     BYTE      SBRT2L
      00000098H.7 SFRSYM    DATA     BIT       SM0_FE
      000000B2H   SFRSYM    DATA     BYTE      CLKCON
      00000098H.5 SFRSYM    DATA     BIT       SM2_TXCOL
      000000B5H   SFRSYM    DATA     BYTE      LDOCON
      000000F0H   SFRSYM    DATA     BYTE      B
      000000C8H   SFRSYM    DATA     BIT       CP_RL2
      000000E0H   SFRSYM    DATA     BYTE      ACC
      000000A8H.4 SFRSYM    DATA     BIT       ES0
      000000A8H.1 SFRSYM    DATA     BIT       ET0
      000000A8H.3 SFRSYM    DATA     BIT       ET1
      00000088H.5 SFRSYM    DATA     BIT       TF0
      000000A8H.5 SFRSYM    DATA     BIT       ET2
      00000088H.7 SFRSYM    DATA     BIT       TF1
      000000D8H   SFRSYM    DATA     BIT       RI1
      00000098H.2 SFRSYM    DATA     BIT       RB8
      000000C8H.7 SFRSYM    DATA     BIT       TF2
      0000008CH   SFRSYM    DATA     BYTE      TH0
      00000086H   SFRSYM    DATA     BYTE      INSCON
      0000008DH   SFRSYM    DATA     BYTE      TH1
      000000D8H.1 SFRSYM    DATA     BIT       TI1
      00000098H.3 SFRSYM    DATA     BIT       TB8
      000000CDH   SFRSYM    DATA     BYTE      TH2
      000000D0H   SFRSYM    DATA     BIT       P
      0000008AH   SFRSYM    DATA     BYTE      TL0
      000000A8H   SFRSYM    DATA     BIT       EX4
      0000008BH   SFRSYM    DATA     BYTE      TL1
      000000A7H   SFRSYM    DATA     BYTE      FLASHCON
      000000CCH   SFRSYM    DATA     BYTE      TL2
      000000D0H.3 SFRSYM    DATA     BIT       RS0
      000000C5H   SFRSYM    DATA     BYTE      ADCDH
      00000088H.4 SFRSYM    DATA     BIT       TR0
      000000D0H.4 SFRSYM    DATA     BIT       RS1
      0000009FH   SFRSYM    DATA     BYTE      PWMCON
      00000088H.6 SFRSYM    DATA     BIT       TR1
      000000C8H.2 SFRSYM    DATA     BIT       TR2
      000000C4H   SFRSYM    DATA     BYTE      ADCDL
      000000C2H   SFRSYM    DATA     BYTE      ADT
      00000083H   SFRSYM    DATA     BYTE      DPH
      00000082H   SFRSYM    DATA     BYTE      DPL
      000000D9H   SFRSYM    DATA     BYTE      SBUF1
      000000C8H.3 SFRSYM    DATA     BIT       EXEN2
      000000F9H   SFRSYM    DATA     BYTE      SBUF2
      000000D8H.6 SFRSYM    DATA     BIT       SM11_RXOV1
      000000B8H.6 SFRSYM    DATA     BIT       PADCL
      00000098H.4 SFRSYM    DATA     BIT       REN
LX51 LINKER/LOCATER V4.66.41.0                                                        11/18/2021  18:54:16  PAGE 84


      000000D8H   SFRSYM    DATA     BYTE      SCON1
      000000D1H   SFRSYM    DATA     BYTE      LCDCON1
      000000C1H   SFRSYM    DATA     BYTE      ADCON
      000000F8H   SFRSYM    DATA     BYTE      SCON2
      0000008FH   SFRSYM    DATA     BYTE      TCON1
      000000D2H   SFRSYM    DATA     BYTE      LCDCON2
      00000092H   SFRSYM    DATA     BYTE      EDTAH
      000000C9H   SFRSYM    DATA     BYTE      T2MOD
      000000C8H   SFRSYM    DATA     BYTE      T2CON
      00000094H   SFRSYM    DATA     BYTE      EDTAL
      00000093H   SFRSYM    DATA     BYTE      EDTAM
      000000BCH   SFRSYM    DATA     BYTE      TK0DIFH
      0000009BH   SFRSYM    DATA     BYTE      SADEN
      000000BEH   SFRSYM    DATA     BYTE      TK1DIFH
      000000B6H   SFRSYM    DATA     BYTE      PBANK
      000000A5H   SFRSYM    DATA     BYTE      TK2DIFH
      000000A8H.6 SFRSYM    DATA     BIT       EADTP
      0000009AH   SFRSYM    DATA     BYTE      SADDR
      000000CFH   SFRSYM    DATA     BYTE      TK0DIFL
      000000BDH   SFRSYM    DATA     BYTE      TK1DIFL
      000000BFH   SFRSYM    DATA     BYTE      TK2DIFL
      000000B8H.2 SFRSYM    DATA     BIT       P7816L
      000000C6H   SFRSYM    DATA     BYTE      LPDCON1
      000000C7H   SFRSYM    DATA     BYTE      LPDCON2
      000000D0H.5 SFRSYM    DATA     BIT       F0
      000000AEH   SFRSYM    DATA     BYTE      IRDAT
      000000D0H.1 SFRSYM    DATA     BIT       F1
      00000096H   SFRSYM    DATA     BYTE      EMUIE
      0000009EH   SFRSYM    DATA     BYTE      SFINE
      000000F7H   SFRSYM    DATA     BYTE      XPAGE
      00000097H   SFRSYM    DATA     BYTE      EMUIF
      000000D0H   SFRSYM    DATA     BYTE      PSW
      000000D8H.2 SFRSYM    DATA     BIT       RB81
      000000A3H   SFRSYM    DATA     BYTE      SPDAT
      000000F2H   SFRSYM    DATA     BYTE      IB_CON1

      0082E154H   BLOCK     CODE/B2  ---       LVL=0
      0082E16CH   LINE      ---      ---       #51
      0082E177H   LINE      ---      ---       #52
      0200065BH   SYMBOL    XDATA    ---       P_ucDataPtr
      0082E177H   BLOCK     CODE/B2  NEAR LAB  LVL=1
      0082E177H   LINE      ---      ---       #57
      0082E182H   LINE      ---      ---       #58
      0082E1B3H   LINE      ---      ---       #59
      0082E1BBH   LINE      ---      ---       #62
      0082E1CAH   LINE      ---      ---       #63
      0082E1F2H   LINE      ---      ---       #65
      0082E217H   LINE      ---      ---       #66
      0082E23EH   LINE      ---      ---       #70
      0082E246H   LINE      ---      ---       #73
      0082E264H   LINE      ---      ---       #74
      0082E26CH   LINE      ---      ---       #75
      0082E291H   LINE      ---      ---       #76
      0082E2B6H   LINE      ---      ---       #79
      0082E2FBH   LINE      ---      ---       #80
      0082E303H   LINE      ---      ---       #84
      0082E30AH   LINE      ---      ---       #85
      0082E30AH   LINE      ---      ---       #86
      0082E325H   LINE      ---      ---       #87
      0082E327H   LINE      ---      ---       #89
      0082E327H   LINE      ---      ---       #90
      0082E334H   LINE      ---      ---       #91
      0082E33EH   LINE      ---      ---       #92
      0082E33EH   LINE      ---      ---       #94
      0082E347H   LINE      ---      ---       #95
LX51 LINKER/LOCATER V4.66.41.0                                                        11/18/2021  18:54:16  PAGE 85


      0082E36FH   LINE      ---      ---       #98
      0082E381H   LINE      ---      ---       #99
      0082E388H   LINE      ---      ---       #100
      0082E3B0H   LINE      ---      ---       #103
      0082E3C1H   LINE      ---      ---       #104
      0082E3C1H   LINE      ---      ---       #105
      0082E3C1H   LINE      ---      ---       #106
      0082E3C3H   LINE      ---      ---       #108
      0082E3C3H   LINE      ---      ---       #109
      0082E3D0H   LINE      ---      ---       #110
      0082E3DAH   LINE      ---      ---       #111
      0082E3E7H   LINE      ---      ---       #112
      0082E421H   LINE      ---      ---       #113
      0082E43AH   LINE      ---      ---       #114
      0082E43AH   LINE      ---      ---       #115
      0082E444H   LINE      ---      ---       #116
      0082E444H   LINE      ---      ---       #117
      0082E444H   LINE      ---      ---       #118
      0082E461H   LINE      ---      ---       #120
      0082E468H   LINE      ---      ---       #121
      0082E46CH   LINE      ---      ---       #122
      0082E46EH   LINE      ---      ---       #123
      0200065EH   SYMBOL    XDATA    BYTE      k
      0200065FH   SYMBOL    XDATA    ---       V_ucBuffer
      02000662H   SYMBOL    XDATA    ---       V_uctest
      ---         BLOCKEND  CODE/B2  ---       LVL=1
      ---         BLOCKEND  CODE/B2  ---       LVL=0

      0082E541H   BLOCK     CODE/B2  ---       LVL=0
      0082E541H   LINE      ---      ---       #144
      0082E54CH   LINE      ---      ---       #145
      02000638H   SYMBOL    XDATA    ---       P_DataPtr
      0082E54CH   BLOCK     CODE/B2  NEAR LAB  LVL=1
      0082E54CH   LINE      ---      ---       #148
      0082E553H   LINE      ---      ---       #149
      0082E553H   LINE      ---      ---       #150
      0082E55BH   LINE      ---      ---       #151
      0082E55BH   LINE      ---      ---       #154
      0082E570H   LINE      ---      ---       #155
      0082E581H   LINE      ---      ---       #158
      0082E5B4H   LINE      ---      ---       #160
      0082E5BCH   LINE      ---      ---       #164
      0082E5D5H   LINE      ---      ---       #165
      0082E5DDH   LINE      ---      ---       #168
      0082E5EEH   LINE      ---      ---       #169
      0082E5EEH   LINE      ---      ---       #170
      0082E603H   LINE      ---      ---       #171
      0082E60DH   LINE      ---      ---       #172
      0082E60DH   LINE      ---      ---       #174
      0082E620H   LINE      ---      ---       #175
      0082E620H   LINE      ---      ---       #176
      0082E636H   LINE      ---      ---       #177
      0082E640H   LINE      ---      ---       #178
      0082E656H   LINE      ---      ---       #179
      0082E690H   LINE      ---      ---       #180
      0082E6ADH   LINE      ---      ---       #182
      0082E6C8H   LINE      ---      ---       #183
      0082E6DDH   LINE      ---      ---       #189
      0082E6DFH   LINE      ---      ---       #191
      0082E6DFH   LINE      ---      ---       #192
      0082E6E6H   LINE      ---      ---       #193
      0082E6E9H   LINE      ---      ---       #194
      0082E6E9H   LINE      ---      ---       #196
      0082E6ECH   LINE      ---      ---       #197
      0082E6F3H   LINE      ---      ---       #199
LX51 LINKER/LOCATER V4.66.41.0                                                        11/18/2021  18:54:16  PAGE 86


      0082E6F5H   LINE      ---      ---       #200
      0200063BH   SYMBOL    XDATA    ---       V_Buffer
      ---         BLOCKEND  CODE/B2  ---       LVL=1
      ---         BLOCKEND  CODE/B2  ---       LVL=0

      0082CCF6H   BLOCK     CODE/B2  ---       LVL=0
      0082CCF6H   LINE      ---      ---       #216
      0082CCF6H   LINE      ---      ---       #217
      0082CCF6H   LINE      ---      ---       #218
      0082CCFFH   LINE      ---      ---       #219
      0082CCFFH   LINE      ---      ---       #220
      0082CD02H   LINE      ---      ---       #221
      0082CD09H   LINE      ---      ---       #222
      0082CD09H   LINE      ---      ---       #223
      0082CD12H   LINE      ---      ---       #224
      0082CD12H   LINE      ---      ---       #225
      0082CD19H   LINE      ---      ---       #226
      0082CD23H   LINE      ---      ---       #227
      0082CD25H   LINE      ---      ---       #228
      0082CD25H   LINE      ---      ---       #229
      ---         BLOCKEND  ---      ---       LVL=0

      0082BA42H   BLOCK     CODE/B2  ---       LVL=0
      0082BA42H   LINE      ---      ---       #245
      0082BA42H   LINE      ---      ---       #246
      0082BA42H   LINE      ---      ---       #247
      0082BA47H   LINE      ---      ---       #248
      0082BA4EH   LINE      ---      ---       #249
      ---         BLOCKEND  ---      ---       LVL=0

      0082CD26H   BLOCK     CODE/B2  ---       LVL=0
      0082CD26H   LINE      ---      ---       #265
      0082CD26H   LINE      ---      ---       #266
      0082CD26H   LINE      ---      ---       #267
      0082CD2DH   LINE      ---      ---       #268
      0082CD37H   LINE      ---      ---       #269
      0082CD3EH   LINE      ---      ---       #271
      ---         BLOCKEND  ---      ---       LVL=0

      0082B36BH   BLOCK     CODE/B2  ---       LVL=0
      0082B37EH   LINE      ---      ---       #295
      0082B389H   LINE      ---      ---       #296
      02000726H   SYMBOL    XDATA    ---       P_DataPtr
      0082B389H   BLOCK     CODE/B2  NEAR LAB  LVL=1
      0082B389H   LINE      ---      ---       #305
      0082B393H   LINE      ---      ---       #307
      0082B39FH   LINE      ---      ---       #308
      0082B3A1H   LINE      ---      ---       #309
      0082B3A6H   LINE      ---      ---       #310
      0082B3A6H   LINE      ---      ---       #311
      0082B3ADH   LINE      ---      ---       #312
      0082B3AFH   LINE      ---      ---       #313
      0082B3AFH   LINE      ---      ---       #315
      0082B3B6H   LINE      ---      ---       #316
      0082B3BFH   LINE      ---      ---       #318
      0082B3CEH   LINE      ---      ---       #319
      0082B3D1H   LINE      ---      ---       #322
      0082B3E4H   LINE      ---      ---       #323
      0082B3E4H   LINE      ---      ---       #324
      0082B424H   LINE      ---      ---       #325
      0082B42CH   LINE      ---      ---       #326
      0082B436H   LINE      ---      ---       #327
      0082B436H   LINE      ---      ---       #328
      0082B43CH   LINE      ---      ---       #333
      0082B445H   LINE      ---      ---       #336
LX51 LINKER/LOCATER V4.66.41.0                                                        11/18/2021  18:54:16  PAGE 87


      0082B45DH   LINE      ---      ---       #337
      0082B466H   LINE      ---      ---       #340
      0082B47DH   LINE      ---      ---       #341
      0082B47DH   LINE      ---      ---       #342
      0082B4A2H   LINE      ---      ---       #343
      0082B4C8H   LINE      ---      ---       #344
      0082B4D1H   LINE      ---      ---       #345
      0082B4D1H   LINE      ---      ---       #346
      0082B4D1H   LINE      ---      ---       #347
      0082B4D9H   LINE      ---      ---       #348
      0082B4D9H   LINE      ---      ---       #349
      0082B4E0H   LINE      ---      ---       #350
      0082B4E9H   LINE      ---      ---       #352
      0082B501H   LINE      ---      ---       #353
      0082B50AH   LINE      ---      ---       #355
      0082B526H   LINE      ---      ---       #356
      0082B52FH   LINE      ---      ---       #357
      0082B52FH   LINE      ---      ---       #359
      0082B52FH   LINE      ---      ---       #360
      0082B53EH   LINE      ---      ---       #361
      0082B547H   LINE      ---      ---       #363
      0082B54DH   LINE      ---      ---       #368
      0082B556H   LINE      ---      ---       #371
      0082B56EH   LINE      ---      ---       #372
      0082B577H   LINE      ---      ---       #375
      0082B58AH   LINE      ---      ---       #376
      0082B58AH   LINE      ---      ---       #377
      0082B5AFH   LINE      ---      ---       #378
      0082B5D3H   LINE      ---      ---       #379
      0082B5DCH   LINE      ---      ---       #380
      0082B5DCH   LINE      ---      ---       #382
      0082B5DCH   LINE      ---      ---       #395
      0082B5F9H   LINE      ---      ---       #396
      0082B5F9H   LINE      ---      ---       #397
      0082B60AH   LINE      ---      ---       #398
      0082B60AH   LINE      ---      ---       #399
      0082B618H   LINE      ---      ---       #400
      0082B618H   LINE      ---      ---       #401
      0082B621H   LINE      ---      ---       #402
      0082B621H   LINE      ---      ---       #403
      0082B621H   LINE      ---      ---       #404
      0082B621H   LINE      ---      ---       #405
      0082B62FH   LINE      ---      ---       #406
      0082B62FH   LINE      ---      ---       #407
      0082B636H   LINE      ---      ---       #408
      0082B636H   LINE      ---      ---       #409
      0082B63DH   LINE      ---      ---       #410
      0082B63DH   LINE      ---      ---       #411
      0082B644H   LINE      ---      ---       #412
      0082B644H   LINE      ---      ---       #413
      0082B64BH   LINE      ---      ---       #414
      0082B64BH   LINE      ---      ---       #415
      0082B64EH   LINE      ---      ---       #416
      0082B65CH   LINE      ---      ---       #417
      0082B65CH   LINE      ---      ---       #418
      0082B66DH   LINE      ---      ---       #419
      0082B69CH   LINE      ---      ---       #421
      0082B69CH   LINE      ---      ---       #423
      0082B6A5H   LINE      ---      ---       #424
      0082B6A5H   LINE      ---      ---       #427
      0082B73CH   LINE      ---      ---       #430
      0082B745H   LINE      ---      ---       #434
      0082B750H   LINE      ---      ---       #435
      0082B750H   LINE      ---      ---       #436
      0082B78CH   LINE      ---      ---       #437
LX51 LINKER/LOCATER V4.66.41.0                                                        11/18/2021  18:54:16  PAGE 88


      0082B78CH   LINE      ---      ---       #438
      0082B79DH   LINE      ---      ---       #439
      0082B7A6H   LINE      ---      ---       #441
      0082B7B6H   LINE      ---      ---       #443
      0082B7CFH   LINE      ---      ---       #444
      0082B7CFH   LINE      ---      ---       #445
      0082B7D9H   LINE      ---      ---       #446
      0082B7D9H   LINE      ---      ---       #448
      0082B7EAH   LINE      ---      ---       #449
      0082B7F9H   LINE      ---      ---       #450
      0082B81FH   LINE      ---      ---       #451
      0082B81FH   LINE      ---      ---       #452
      0082B836H   LINE      ---      ---       #453
      0082B838H   LINE      ---      ---       #455
      0082B838H   LINE      ---      ---       #456
      0082B863H   LINE      ---      ---       #457
      0082B863H   LINE      ---      ---       #458
      0082B874H   LINE      ---      ---       #459
      0082B8A2H   LINE      ---      ---       #461
      0082B8C4H   LINE      ---      ---       #462
      0082B8CCH   LINE      ---      ---       #463
      0082B8CCH   LINE      ---      ---       #464
      0082B8CCH   LINE      ---      ---       #466
      0082B8D6H   LINE      ---      ---       #467
      0082B8D6H   LINE      ---      ---       #468
      0082B8E5H   LINE      ---      ---       #469
      0082B909H   LINE      ---      ---       #470
      0082B909H   LINE      ---      ---       #473
      0082B92EH   LINE      ---      ---       #474
      0082B93FH   LINE      ---      ---       #475
      0082B947H   LINE      ---      ---       #476
      0082B95CH   LINE      ---      ---       #478
      0082B95EH   LINE      ---      ---       #480
      0082B965H   LINE      ---      ---       #481
      0082B976H   LINE      ---      ---       #482
      0082B985H   LINE      ---      ---       #484
      0082B98CH   LINE      ---      ---       #485
      0082B9A1H   LINE      ---      ---       #487
      0082B9C3H   LINE      ---      ---       #488
      0082B9C3H   LINE      ---      ---       #489
      0082B9C6H   LINE      ---      ---       #493
      0082B9C9H   LINE      ---      ---       #494
      0082B9C9H   LINE      ---      ---       #495
      0082B9C9H   LINE      ---      ---       #497
      0082B9C9H   LINE      ---      ---       #498
      0082B9D1H   LINE      ---      ---       #499
      0082B9D1H   LINE      ---      ---       #500
      0082B9D1H   LINE      ---      ---       #503
      0082B9E5H   LINE      ---      ---       #504
      0082B9F0H   LINE      ---      ---       #505
      0082B9F0H   LINE      ---      ---       #506
      0082BA00H   LINE      ---      ---       #507
      0082BA00H   LINE      ---      ---       #508
      0082BA07H   LINE      ---      ---       #509
      0082BA29H   LINE      ---      ---       #510
      0082BA29H   LINE      ---      ---       #511
      0082BA30H   LINE      ---      ---       #512
      0082BA30H   LINE      ---      ---       #513
      0082BA30H   LINE      ---      ---       #515
      0082BA33H   LINE      ---      ---       #519
      0082BA33H   LINE      ---      ---       #520
      0082BA35H   LINE      ---      ---       #521
      0082BA38H   LINE      ---      ---       #522
      0082BA38H   LINE      ---      ---       #523
      0082BA38H   LINE      ---      ---       #525
LX51 LINKER/LOCATER V4.66.41.0                                                        11/18/2021  18:54:16  PAGE 89


      0082BA3FH   LINE      ---      ---       #526
      0082BA41H   LINE      ---      ---       #527
      02000729H   SYMBOL    XDATA    BYTE      DI1
      0200072AH   SYMBOL    XDATA    BYTE      i
      0200072BH   SYMBOL    XDATA    BYTE      k
      0200072CH   SYMBOL    XDATA    ---       V_Buff
      02000745H   SYMBOL    XDATA    ---       V_ulBuff
      0200074DH   SYMBOL    XDATA    ---       V_ucUserIdMac
      02000757H   SYMBOL    XDATA    ---       V_unlMoneyMac
      02000767H   SYMBOL    XDATA    ---       V_unlTempBuff
      ---         BLOCKEND  CODE/B2  ---       LVL=1
      ---         BLOCKEND  CODE/B2  ---       LVL=0

      0082E8F5H   BLOCK     CODE/B2  ---       LVL=0
      0082E8F5H   LINE      ---      ---       #548
      0082E900H   LINE      ---      ---       #549
      02000638H   SYMBOL    XDATA    ---       P_DataPtr
      0082E900H   BLOCK     CODE/B2  NEAR LAB  LVL=1
      0082E900H   LINE      ---      ---       #552
      0082E907H   LINE      ---      ---       #553
      0082E909H   LINE      ---      ---       #556
      0082E941H   LINE      ---      ---       #560
      0082E943H   LINE      ---      ---       #562
      0082E95EH   LINE      ---      ---       #564
      0082E95EH   LINE      ---      ---       #565
      0082E960H   LINE      ---      ---       #566
      0082E960H   LINE      ---      ---       #569
      0082E968H   LINE      ---      ---       #570
      0082E97DH   LINE      ---      ---       #571
      0082E992H   LINE      ---      ---       #572
      0082E9A3H   LINE      ---      ---       #574
      0082E9BEH   LINE      ---      ---       #575
      0082E9D2H   LINE      ---      ---       #576
      0082E9D4H   LINE      ---      ---       #577
      0082E9D6H   LINE      ---      ---       #578
      0082E9D6H   LINE      ---      ---       #579
      0082E9EFH   LINE      ---      ---       #580
      0082E9F4H   LINE      ---      ---       #581
      0082EA25H   LINE      ---      ---       #582
      0082EA2DH   LINE      ---      ---       #585
      0082EA4FH   LINE      ---      ---       #586
      0082EA57H   LINE      ---      ---       #589
      0082EA72H   LINE      ---      ---       #590
      0082EA7AH   LINE      ---      ---       #593
      0082EA91H   LINE      ---      ---       #594
      0082EA91H   LINE      ---      ---       #595
      0082EA95H   LINE      ---      ---       #596
      0082EA9CH   LINE      ---      ---       #597
      0082EA9EH   LINE      ---      ---       #599
      0082EA9EH   LINE      ---      ---       #600
      0082EAA2H   LINE      ---      ---       #601
      0082EAA9H   LINE      ---      ---       #602
      0082EAA9H   LINE      ---      ---       #604
      0082EABAH   LINE      ---      ---       #605
      0082EAC4H   LINE      ---      ---       #606
      0082EAD9H   LINE      ---      ---       #609
      0082EADBH   LINE      ---      ---       #610
      00000007H   SYMBOL    DATA     BYTE      i
      0200063BH   SYMBOL    XDATA    ---       V_ucTempBuff
      ---         BLOCKEND  CODE/B2  ---       LVL=1
      ---         BLOCKEND  CODE/B2  ---       LVL=0

      0082966DH   BLOCK     CODE/B2  ---       LVL=0
      0082966DH   LINE      ---      ---       #626
      00829678H   LINE      ---      ---       #627
LX51 LINKER/LOCATER V4.66.41.0                                                        11/18/2021  18:54:16  PAGE 90


      02000675H   SYMBOL    XDATA    ---       P_DataPtr
      00829678H   BLOCK     CODE/B2  NEAR LAB  LVL=1
      00829678H   LINE      ---      ---       #631
      0082967FH   LINE      ---      ---       #632
      00829682H   LINE      ---      ---       #634
      00829689H   LINE      ---      ---       #635
      0082968CH   LINE      ---      ---       #639
      0082969CH   LINE      ---      ---       #640
      008296B6H   LINE      ---      ---       #644
      008296D8H   LINE      ---      ---       #645
      008296DBH   LINE      ---      ---       #648
      008296F6H   LINE      ---      ---       #651
      00829711H   LINE      ---      ---       #652
      00829722H   LINE      ---      ---       #662
      00829730H   LINE      ---      ---       #664
      00829735H   LINE      ---      ---       #669
      00829746H   LINE      ---      ---       #670
      00829750H   LINE      ---      ---       #671
      00829765H   LINE      ---      ---       #672
      00829767H   LINE      ---      ---       #676
      00829769H   LINE      ---      ---       #677
      02000678H   SYMBOL    XDATA    ---       V_unlTemp
      0200067CH   SYMBOL    XDATA    DWORD     V_ulTemp
      ---         BLOCKEND  CODE/B2  ---       LVL=1
      ---         BLOCKEND  CODE/B2  ---       LVL=0

      0082CE21H   BLOCK     CODE/B2  ---       LVL=0
      0082CE21H   LINE      ---      ---       #695
      0082CE2EH   LINE      ---      ---       #696
      02000675H   SYMBOL    XDATA    ---       P_DataPtr
      00000007H   SYMBOL    DATA     BYTE      V_ucMACType
      02000679H   SYMBOL    XDATA    ---       P_ucLen
      0082CE2EH   BLOCK     CODE/B2  NEAR LAB  LVL=1
      0082CE2EH   LINE      ---      ---       #699
      0082CE43H   LINE      ---      ---       #701
      0082CE48H   LINE      ---      ---       #704
      0082CE61H   LINE      ---      ---       #705
      0082CE64H   LINE      ---      ---       #707
      0082CE7CH   LINE      ---      ---       #708
      0082CE9BH   LINE      ---      ---       #712
      0082CEA7H   LINE      ---      ---       #713
      0082CEA7H   LINE      ---      ---       #714
      0082CEBCH   LINE      ---      ---       #715
      0082CEBFH   LINE      ---      ---       #718
      0082CED1H   LINE      ---      ---       #719
      0082CED1H   LINE      ---      ---       #720
      0082CED3H   LINE      ---      ---       #721
      0082CED3H   LINE      ---      ---       #722
      0082CF18H   LINE      ---      ---       #723
      0082CF1DH   LINE      ---      ---       #724
      0082CF25H   LINE      ---      ---       #725
      0082CF25H   LINE      ---      ---       #728
      0082CF31H   LINE      ---      ---       #729
      0082CF34H   LINE      ---      ---       #732
      0082CF50H   LINE      ---      ---       #733
      0082CF50H   LINE      ---      ---       #734
      0082CF5FH   LINE      ---      ---       #735
      0082CF67H   LINE      ---      ---       #736
      0082CF71H   LINE      ---      ---       #738
      0082CF83H   LINE      ---      ---       #739
      0082CFB3H   LINE      ---      ---       #741
      0082CFB5H   LINE      ---      ---       #743
      0200067CH   SYMBOL    XDATA    BYTE      i
      00000007H   SYMBOL    DATA     BYTE      j
      0200067DH   SYMBOL    XDATA    BYTE      V_ucTempLen
LX51 LINKER/LOCATER V4.66.41.0                                                        11/18/2021  18:54:16  PAGE 91


      ---         BLOCKEND  CODE/B2  ---       LVL=1
      ---         BLOCKEND  CODE/B2  ---       LVL=0

      0082E46FH   BLOCK     CODE/B2  ---       LVL=0
      0082E474H   LINE      ---      ---       #820
      0082E479H   LINE      ---      ---       #821
      0200067EH   SYMBOL    XDATA    BYTE      V_ucKeyNum
      0082E479H   BLOCK     CODE/B2  NEAR LAB  LVL=1
      0082E479H   LINE      ---      ---       #825
      0082E494H   LINE      ---      ---       #828
      0082E4ABH   LINE      ---      ---       #829
      0082E4AEH   LINE      ---      ---       #831
      0082E4C9H   LINE      ---      ---       #834
      0082E4CBH   LINE      ---      ---       #835
      0082E4CBH   LINE      ---      ---       #836
      0082E4E4H   LINE      ---      ---       #837
      0082E4E9H   LINE      ---      ---       #847
      0082E4EBH   LINE      ---      ---       #848
      00000007H   SYMBOL    DATA     BYTE      i
      ---         BLOCKEND  CODE/B2  ---       LVL=1
      ---         BLOCKEND  CODE/B2  ---       LVL=0

      0082CBF1H   BLOCK     CODE/B2  ---       LVL=0
      0082CC4DH   LINE      ---      ---       #851
      0082CC52H   LINE      ---      ---       #852
      00000001H   SYMBOL    DATA     ---       P_ucData
      0200076EH   SYMBOL    XDATA    BYTE      V_ucLen
      0200076FH   SYMBOL    XDATA    BYTE      V_ucHeadNum
      02000770H   SYMBOL    XDATA    BYTE      V_ucType
      0082CC52H   BLOCK     CODE/B2  NEAR LAB  LVL=1
      0082CC52H   LINE      ---      ---       #855
      0082CC68H   LINE      ---      ---       #856
      0082CC7CH   LINE      ---      ---       #857
      0082CC93H   LINE      ---      ---       #858
      0082CCA7H   LINE      ---      ---       #859
      0082CCADH   LINE      ---      ---       #860
      0082CCC1H   LINE      ---      ---       #862
      0082CCECH   LINE      ---      ---       #863
      0082CCEEH   LINE      ---      ---       #864
      0082CCEEH   LINE      ---      ---       #865
      0082CCF0H   LINE      ---      ---       #866
      0082CCF0H   LINE      ---      ---       #867
      0082CCF5H   LINE      ---      ---       #868
      02000771H   SYMBOL    XDATA    BYTE      V_ucResult
      ---         BLOCKEND  CODE/B2  ---       LVL=1
      ---         BLOCKEND  CODE/B2  ---       LVL=0

      0082CD3FH   BLOCK     CODE/B2  ---       LVL=0
      0082CD3FH   LINE      ---      ---       #884
      0082CD4AH   LINE      ---      ---       #885
      0082CD4AH   LINE      ---      ---       #886
      0082CD51H   LINE      ---      ---       #887
      0082CD51H   LINE      ---      ---       #888
      0082CD5BH   LINE      ---      ---       #889
      0082CD5BH   LINE      ---      ---       #892
      0082CD83H   LINE      ---      ---       #895
      0082CDABH   LINE      ---      ---       #898
      0082CDD3H   LINE      ---      ---       #901
      0082CDDDH   LINE      ---      ---       #902
      0082CDECH   LINE      ---      ---       #903
      0082CDFBH   LINE      ---      ---       #904
      0082CE0DH   LINE      ---      ---       #905
      0082CE14H   LINE      ---      ---       #906
      0082CE1CH   LINE      ---      ---       #909
      0082CE1EH   LINE      ---      ---       #911
LX51 LINKER/LOCATER V4.66.41.0                                                        11/18/2021  18:54:16  PAGE 92


      0082CE20H   LINE      ---      ---       #912
      02000638H   SYMBOL    XDATA    ---       P_DataPtr
      ---         BLOCKEND  ---      ---       LVL=0

      0082E4ECH   BLOCK     CODE/B2  ---       LVL=0
      0082E4ECH   LINE      ---      ---       #923
      0082E4FAH   LINE      ---      ---       #924
      02000683H   SYMBOL    XDATA    ---       P_DataPtr
      02000686H   SYMBOL    XDATA    BYTE      V_DataLen
      0082E4FAH   BLOCK     CODE/B2  NEAR LAB  LVL=1
      0082E4FAH   LINE      ---      ---       #927
      0082E4FCH   LINE      ---      ---       #928
      0082E500H   LINE      ---      ---       #929
      0082E508H   LINE      ---      ---       #930
      0082E50BH   LINE      ---      ---       #931
      0082E51BH   LINE      ---      ---       #932
      0082E51BH   LINE      ---      ---       #933
      0082E536H   LINE      ---      ---       #934
      0082E53EH   LINE      ---      ---       #935
      0082E540H   LINE      ---      ---       #936
      02000687H   SYMBOL    XDATA    BYTE      i
      00000006H   SYMBOL    DATA     WORD      V_usTempData
      ---         BLOCKEND  CODE/B2  ---       LVL=1
      ---         BLOCKEND  CODE/B2  ---       LVL=0

      0082EADCH   BLOCK     CODE/B2  ---       LVL=0
      0082EADCH   LINE      ---      ---       #948
      0082EAE1H   LINE      ---      ---       #949
      0200076BH   SYMBOL    XDATA    BYTE      V_ProcessType
      0082EAE1H   BLOCK     CODE/B2  NEAR LAB  LVL=1
      0082EAE1H   LINE      ---      ---       #954
      0082EAE7H   LINE      ---      ---       #955
      0082EAF5H   LINE      ---      ---       #956
      0082EAF7H   LINE      ---      ---       #958
      0082EB14H   LINE      ---      ---       #960
      0082EB1EH   LINE      ---      ---       #961
      0082EB1EH   LINE      ---      ---       #963
      0082EB38H   LINE      ---      ---       #964
      0082EB53H   LINE      ---      ---       #966
      0082EB56H   LINE      ---      ---       #969
      0082EB59H   LINE      ---      ---       #973
      0082EB6DH   LINE      ---      ---       #974
      0082EB88H   LINE      ---      ---       #975
      0082EB9CH   LINE      ---      ---       #976
      0082EBB7H   LINE      ---      ---       #977
      0082EBCBH   LINE      ---      ---       #978
      0082EBD9H   LINE      ---      ---       #979
      0082EBE7H   LINE      ---      ---       #982
      0082EBEEH   LINE      ---      ---       #983
      0082EC03H   LINE      ---      ---       #984
      0082EC14H   LINE      ---      ---       #985
      0082EC21H   LINE      ---      ---       #986
      0082EC28H   LINE      ---      ---       #988
      0082EC36H   LINE      ---      ---       #989
      0082EC3FH   LINE      ---      ---       #990
      0082EC5AH   LINE      ---      ---       #991
      0082EC7AH   LINE      ---      ---       #992
      0082EC81H   LINE      ---      ---       #994
      0082EC88H   LINE      ---      ---       #995
      0082EC8CH   LINE      ---      ---       #996
      0082EC90H   LINE      ---      ---       #997
      0082EC94H   LINE      ---      ---       #998
      0082EC98H   LINE      ---      ---       #1001
      0082ECA6H   LINE      ---      ---       #1004
      0082ECAFH   LINE      ---      ---       #1005
LX51 LINKER/LOCATER V4.66.41.0                                                        11/18/2021  18:54:16  PAGE 93


      0082ECAFH   LINE      ---      ---       #1006
      0082ECB4H   LINE      ---      ---       #1007
      0082ECB4H   LINE      ---      ---       #1009
      0082ECB4H   LINE      ---      ---       #1012
      0082ECB6H   LINE      ---      ---       #1014
      0082ECB6H   LINE      ---      ---       #1015
      0082ECCAH   LINE      ---      ---       #1016
      0082ECD0H   LINE      ---      ---       #1017
      0082ECE9H   LINE      ---      ---       #1018
      0082ECFDH   LINE      ---      ---       #1019
      0082ED18H   LINE      ---      ---       #1021
      0082ED2AH   LINE      ---      ---       #1022
      0082ED2AH   LINE      ---      ---       #1023
      0082ED50H   LINE      ---      ---       #1024
      0082ED50H   LINE      ---      ---       #1025
      0082ED68H   LINE      ---      ---       #1026
      0082ED7CH   LINE      ---      ---       #1027
      0082ED97H   LINE      ---      ---       #1028
      0082ED99H   LINE      ---      ---       #1030
      0082ED99H   LINE      ---      ---       #1031
      0082EDB1H   LINE      ---      ---       #1032
      0082EDC5H   LINE      ---      ---       #1033
      0082EDC5H   LINE      ---      ---       #1034
      0082EDC7H   LINE      ---      ---       #1036
      0082EDC7H   LINE      ---      ---       #1037
      0082EDE2H   LINE      ---      ---       #1038
      0082EDE2H   LINE      ---      ---       #1039
      0082EDFDH   LINE      ---      ---       #1040
      0082EE0BH   LINE      ---      ---       #1041
      0082EE19H   LINE      ---      ---       #1044
      0082EE1EH   LINE      ---      ---       #1047
      0082EE1EH   LINE      ---      ---       #1049
      0082EE2FH   LINE      ---      ---       #1050
      0082EE44H   LINE      ---      ---       #1051
      0082EE55H   LINE      ---      ---       #1053
      0082EE5AH   LINE      ---      ---       #1055
      0082EE5BH   LINE      ---      ---       #1057
      0200076CH   SYMBOL    XDATA    ---       V_Buff
      00000004H   SYMBOL    DATA     DWORD     V_ulBuff
      02000785H   SYMBOL    XDATA    BYTE      V_ucErrorType
      ---         BLOCKEND  CODE/B2  ---       LVL=1
      ---         BLOCKEND  CODE/B2  ---       LVL=0

      ---         MODULE    ---      ---       APPDISPLAY
      02000D77H   PUBLIC    XDATA    ---       LCD_Char_Table
      01001670H   PUBLIC    CONST    ---       LCD_COM_CHAR_NUM1
      01001638H   PUBLIC    CONST    ---       LCD_SEG_CHAR_NUM1
      0082F352H   PUBLIC    CODE/B2  ---       ApiDisp_DisplayTask
      0082F56CH   PUBLIC    CODE/B2  ---       APiDisp_LcdledControl
      0082F475H   PUBLIC    CODE/B2  ---       APiDisp_Dynamic
      0082F114H   PUBLIC    CODE/B2  ---       _APiDisp_Const
      0082EFE0H   PUBLIC    CODE/B2  ---       _ApiDisp_ShowNum
      0082EF18H   PUBLIC    CODE/B2  ---       _ApiDisplay_NumData
      0082A324H   PUBLIC    CODE/B2  ---       _ApiGet_Lcd_ID
      02000683H   PUBLIC    XDATA    BYTE      ?_ApiGet_Lcd_Num?BYTE
      0082EE5CH   PUBLIC    CODE/B2  ---       _ApiGet_Lcd_Num
      000000F3H   SFRSYM    DATA     BYTE      IB_CON2
      000000D8H.3 SFRSYM    DATA     BIT       TB81
      00000080H   SFRSYM    DATA     BYTE      P0
      000000F4H   SFRSYM    DATA     BYTE      IB_CON3
      000000A4H   SFRSYM    DATA     BYTE      TKCON
      00000090H   SFRSYM    DATA     BYTE      P1
      000000F5H   SFRSYM    DATA     BYTE      IB_CON4
      000000E7H   SFRSYM    DATA     BYTE      PASLO
      000000A0H   SFRSYM    DATA     BYTE      P2
LX51 LINKER/LOCATER V4.66.41.0                                                        11/18/2021  18:54:16  PAGE 94


      000000FEH   SFRSYM    DATA     BYTE      OSCLO
      000000F6H   SFRSYM    DATA     BYTE      IB_CON5
      00000098H.6 SFRSYM    DATA     BIT       SM1_RXOV
      000000B0H   SFRSYM    DATA     BYTE      P3
      000000D0H.6 SFRSYM    DATA     BIT       AC
      000000C0H   SFRSYM    DATA     BYTE      P4
      000000A1H   SFRSYM    DATA     BYTE      SPCON
      0000009CH   SFRSYM    DATA     BYTE      SBRTH
      000000E9H   SFRSYM    DATA     BYTE      P5
      000000A8H.7 SFRSYM    DATA     BIT       EA
      000000EAH   SFRSYM    DATA     BYTE      P6
      000000EBH   SFRSYM    DATA     BYTE      P7
      000000EFH   SFRSYM    DATA     BYTE      IB_DATA
      000000ECH   SFRSYM    DATA     BYTE      P8
      0000009DH   SFRSYM    DATA     BYTE      SBRTL
      000000EDH   SFRSYM    DATA     BYTE      P9
      000000B7H   SFRSYM    DATA     BYTE      PBANKLO
      000000A2H   SFRSYM    DATA     BYTE      SPSTA
      000000A8H   SFRSYM    DATA     BYTE      IEN0
      000000B3H   SFRSYM    DATA     BYTE      PWRCON1
      00000095H   SFRSYM    DATA     BYTE      EMUSR
      000000A9H   SFRSYM    DATA     BYTE      IEN1
      000000B4H   SFRSYM    DATA     BYTE      PWRCON2
      00000085H   SFRSYM    DATA     BYTE      DPH1
      00000080H   SFRSYM    DATA     BIT       P0_0
      00000090H   SFRSYM    DATA     BIT       P1_0
      00000080H.1 SFRSYM    DATA     BIT       P0_1
      000000C3H   SFRSYM    DATA     BYTE      ADCH
      000000A0H   SFRSYM    DATA     BIT       P2_0
      00000090H.1 SFRSYM    DATA     BIT       P1_1
      00000080H.2 SFRSYM    DATA     BIT       P0_2
      000000BAH   SFRSYM    DATA     BYTE      IPH0
      00000084H   SFRSYM    DATA     BYTE      DPL1
      000000B0H   SFRSYM    DATA     BIT       P3_0
      000000A0H.1 SFRSYM    DATA     BIT       P2_1
      00000090H.2 SFRSYM    DATA     BIT       P1_2
      00000080H.3 SFRSYM    DATA     BIT       P0_3
      000000BBH   SFRSYM    DATA     BYTE      IPH1
      000000C0H   SFRSYM    DATA     BIT       P4_0
      000000B0H.1 SFRSYM    DATA     BIT       P3_1
      000000A0H.2 SFRSYM    DATA     BIT       P2_2
      00000090H.3 SFRSYM    DATA     BIT       P1_3
      00000080H.4 SFRSYM    DATA     BIT       P0_4
      000000E8H   SFRSYM    DATA     BYTE      EXF0
      000000C0H.1 SFRSYM    DATA     BIT       P4_1
      000000B0H.2 SFRSYM    DATA     BIT       P3_2
      000000A0H.3 SFRSYM    DATA     BIT       P2_3
      00000090H.4 SFRSYM    DATA     BIT       P1_4
      00000080H.5 SFRSYM    DATA     BIT       P0_5
      000000C0H.2 SFRSYM    DATA     BIT       P4_2
      000000B0H.3 SFRSYM    DATA     BIT       P3_3
      000000A0H.4 SFRSYM    DATA     BIT       P2_4
      00000090H.5 SFRSYM    DATA     BIT       P1_5
      00000080H.6 SFRSYM    DATA     BIT       P0_6
      000000C8H.6 SFRSYM    DATA     BIT       EXF2
      000000A6H   SFRSYM    DATA     BYTE      TKF0
      000000B8H   SFRSYM    DATA     BYTE      IPL0
      000000C0H.3 SFRSYM    DATA     BIT       P4_3
      000000B0H.4 SFRSYM    DATA     BIT       P3_4
      000000A0H.5 SFRSYM    DATA     BIT       P2_5
      00000090H.6 SFRSYM    DATA     BIT       P1_6
      00000080H.7 SFRSYM    DATA     BIT       P0_7
      000000D8H.4 SFRSYM    DATA     BIT       REN1
      000000B9H   SFRSYM    DATA     BYTE      IPL1
      000000C0H.4 SFRSYM    DATA     BIT       P4_4
LX51 LINKER/LOCATER V4.66.41.0                                                        11/18/2021  18:54:16  PAGE 95


      000000B0H.5 SFRSYM    DATA     BIT       P3_5
      000000A0H.6 SFRSYM    DATA     BIT       P2_6
      00000090H.7 SFRSYM    DATA     BIT       P1_7
      000000E2H   SFRSYM    DATA     BYTE      TK0H
      0000008EH   SFRSYM    DATA     BYTE      SUSLO
      000000C0H.5 SFRSYM    DATA     BIT       P4_5
      000000B0H.6 SFRSYM    DATA     BIT       P3_6
      000000A0H.7 SFRSYM    DATA     BIT       P2_7
      000000E4H   SFRSYM    DATA     BYTE      TK1H
      000000C0H.6 SFRSYM    DATA     BIT       P4_6
      000000B0H.7 SFRSYM    DATA     BIT       P3_7
      000000E6H   SFRSYM    DATA     BYTE      TK2H
      000000C0H.7 SFRSYM    DATA     BIT       P4_7
      00000098H   SFRSYM    DATA     BIT       RI
      000000A8H.2 SFRSYM    DATA     BIT       E7816
      000000D0H.7 SFRSYM    DATA     BIT       CY
      000000E1H   SFRSYM    DATA     BYTE      TK0L
      00000098H.1 SFRSYM    DATA     BIT       TI
      00000091H   SFRSYM    DATA     BYTE      EADR
      000000E3H   SFRSYM    DATA     BYTE      TK1L
      000000E5H   SFRSYM    DATA     BYTE      TK2L
      000000DBH   SFRSYM    DATA     BYTE      SADEN1
      000000D8H.7 SFRSYM    DATA     BIT       SM10_FE1
      000000FBH   SFRSYM    DATA     BYTE      SADEN2
      000000B8H.4 SFRSYM    DATA     BIT       PS0L
      000000B8H.1 SFRSYM    DATA     BIT       PT0L
      000000DAH   SFRSYM    DATA     BYTE      SADDR1
      000000D8H.5 SFRSYM    DATA     BIT       SM12_TXCOL1
      000000B8H.3 SFRSYM    DATA     BIT       PT1L
      000000FAH   SFRSYM    DATA     BYTE      SADDR2
      000000CBH   SFRSYM    DATA     BYTE      RCAP2H
      000000B8H.5 SFRSYM    DATA     BIT       PT2L
      00000081H   SFRSYM    DATA     BYTE      SP
      000000D0H.2 SFRSYM    DATA     BIT       OV
      000000CAH   SFRSYM    DATA     BYTE      RCAP2L
      000000B8H   SFRSYM    DATA     BIT       PX4L
      000000C8H.1 SFRSYM    DATA     BIT       C_T2
      000000DEH   SFRSYM    DATA     BYTE      SFINE2
      000000ADH   SFRSYM    DATA     BYTE      IRCON1
      000000AFH   SFRSYM    DATA     BYTE      IRCON2
      000000ABH   SFRSYM    DATA     BYTE      EXCON1
      00000099H   SFRSYM    DATA     BYTE      SBUF
      000000ACH   SFRSYM    DATA     BYTE      EXCON2
      00000087H   SFRSYM    DATA     BYTE      PCON
      000000F1H   SFRSYM    DATA     BYTE      AUXC
      00000098H   SFRSYM    DATA     BYTE      SCON
      000000D4H   SFRSYM    DATA     BYTE      TK0BASEH
      00000089H   SFRSYM    DATA     BYTE      TMOD
      00000088H   SFRSYM    DATA     BYTE      TCON
      000000AAH   SFRSYM    DATA     BYTE      IENX
      000000EEH   SFRSYM    DATA     BYTE      IB_OFFSET
      000000D6H   SFRSYM    DATA     BYTE      TK1BASEH
      000000DCH   SFRSYM    DATA     BYTE      SBRT1H
      000000DFH   SFRSYM    DATA     BYTE      TK2BASEH
      000000FCH   SFRSYM    DATA     BYTE      SBRT2H
      000000B1H   SFRSYM    DATA     BYTE      RSTSTAT
      000000D3H   SFRSYM    DATA     BYTE      TK0BASEL
      000000D5H   SFRSYM    DATA     BYTE      TK1BASEL
      000000DDH   SFRSYM    DATA     BYTE      SBRT1L
      000000D7H   SFRSYM    DATA     BYTE      TK2BASEL
      000000FDH   SFRSYM    DATA     BYTE      SBRT2L
      00000098H.7 SFRSYM    DATA     BIT       SM0_FE
      000000B2H   SFRSYM    DATA     BYTE      CLKCON
      00000098H.5 SFRSYM    DATA     BIT       SM2_TXCOL
      000000B5H   SFRSYM    DATA     BYTE      LDOCON
LX51 LINKER/LOCATER V4.66.41.0                                                        11/18/2021  18:54:16  PAGE 96


      000000F0H   SFRSYM    DATA     BYTE      B
      000000C8H   SFRSYM    DATA     BIT       CP_RL2
      000000E0H   SFRSYM    DATA     BYTE      ACC
      000000A8H.4 SFRSYM    DATA     BIT       ES0
      000000A8H.1 SFRSYM    DATA     BIT       ET0
      000000A8H.3 SFRSYM    DATA     BIT       ET1
      00000088H.5 SFRSYM    DATA     BIT       TF0
      000000A8H.5 SFRSYM    DATA     BIT       ET2
      00000088H.7 SFRSYM    DATA     BIT       TF1
      000000D8H   SFRSYM    DATA     BIT       RI1
      00000098H.2 SFRSYM    DATA     BIT       RB8
      000000C8H.7 SFRSYM    DATA     BIT       TF2
      0000008CH   SFRSYM    DATA     BYTE      TH0
      00000086H   SFRSYM    DATA     BYTE      INSCON
      0000008DH   SFRSYM    DATA     BYTE      TH1
      000000D8H.1 SFRSYM    DATA     BIT       TI1
      00000098H.3 SFRSYM    DATA     BIT       TB8
      000000CDH   SFRSYM    DATA     BYTE      TH2
      000000D0H   SFRSYM    DATA     BIT       P
      0000008AH   SFRSYM    DATA     BYTE      TL0
      000000A8H   SFRSYM    DATA     BIT       EX4
      0000008BH   SFRSYM    DATA     BYTE      TL1
      000000A7H   SFRSYM    DATA     BYTE      FLASHCON
      000000CCH   SFRSYM    DATA     BYTE      TL2
      000000D0H.3 SFRSYM    DATA     BIT       RS0
      000000C5H   SFRSYM    DATA     BYTE      ADCDH
      00000088H.4 SFRSYM    DATA     BIT       TR0
      000000D0H.4 SFRSYM    DATA     BIT       RS1
      0000009FH   SFRSYM    DATA     BYTE      PWMCON
      00000088H.6 SFRSYM    DATA     BIT       TR1
      000000C8H.2 SFRSYM    DATA     BIT       TR2
      000000C4H   SFRSYM    DATA     BYTE      ADCDL
      000000C2H   SFRSYM    DATA     BYTE      ADT
      00000083H   SFRSYM    DATA     BYTE      DPH
      00000082H   SFRSYM    DATA     BYTE      DPL
      000000D9H   SFRSYM    DATA     BYTE      SBUF1
      000000C8H.3 SFRSYM    DATA     BIT       EXEN2
      000000F9H   SFRSYM    DATA     BYTE      SBUF2
      000000D8H.6 SFRSYM    DATA     BIT       SM11_RXOV1
      000000B8H.6 SFRSYM    DATA     BIT       PADCL
      00000098H.4 SFRSYM    DATA     BIT       REN
      000000D8H   SFRSYM    DATA     BYTE      SCON1
      000000D1H   SFRSYM    DATA     BYTE      LCDCON1
      000000C1H   SFRSYM    DATA     BYTE      ADCON
      000000F8H   SFRSYM    DATA     BYTE      SCON2
      0000008FH   SFRSYM    DATA     BYTE      TCON1
      000000D2H   SFRSYM    DATA     BYTE      LCDCON2
      00000092H   SFRSYM    DATA     BYTE      EDTAH
      000000C9H   SFRSYM    DATA     BYTE      T2MOD
      000000C8H   SFRSYM    DATA     BYTE      T2CON
      00000094H   SFRSYM    DATA     BYTE      EDTAL
      00000093H   SFRSYM    DATA     BYTE      EDTAM
      000000BCH   SFRSYM    DATA     BYTE      TK0DIFH
      0000009BH   SFRSYM    DATA     BYTE      SADEN
      000000BEH   SFRSYM    DATA     BYTE      TK1DIFH
      000000B6H   SFRSYM    DATA     BYTE      PBANK
      000000A5H   SFRSYM    DATA     BYTE      TK2DIFH
      000000A8H.6 SFRSYM    DATA     BIT       EADTP
      0000009AH   SFRSYM    DATA     BYTE      SADDR
      000000CFH   SFRSYM    DATA     BYTE      TK0DIFL
      000000BDH   SFRSYM    DATA     BYTE      TK1DIFL
      000000BFH   SFRSYM    DATA     BYTE      TK2DIFL
      000000B8H.2 SFRSYM    DATA     BIT       P7816L
      000000C6H   SFRSYM    DATA     BYTE      LPDCON1
      000000C7H   SFRSYM    DATA     BYTE      LPDCON2
LX51 LINKER/LOCATER V4.66.41.0                                                        11/18/2021  18:54:16  PAGE 97


      000000D0H.5 SFRSYM    DATA     BIT       F0
      000000AEH   SFRSYM    DATA     BYTE      IRDAT
      000000D0H.1 SFRSYM    DATA     BIT       F1
      00000096H   SFRSYM    DATA     BYTE      EMUIE
      0000009EH   SFRSYM    DATA     BYTE      SFINE
      000000F7H   SFRSYM    DATA     BYTE      XPAGE
      00000097H   SFRSYM    DATA     BYTE      EMUIF
      000000D0H   SFRSYM    DATA     BYTE      PSW
      000000D8H.2 SFRSYM    DATA     BIT       RB81
      000000A3H   SFRSYM    DATA     BYTE      SPDAT
      000000F2H   SFRSYM    DATA     BYTE      IB_CON1
      0082EF07H   SYMBOL    CODE/B2  ---       _ApiDisplay_NumData
      010016A8H   SYMBOL    CONST    ---       Disp_Table
      0082EFE0H   SYMBOL    CODE/B2  ---       _ApiDisp_ShowNum
      0082F114H   SYMBOL    CODE/B2  ---       _APiDisp_Const

      0082EE5CH   BLOCK     CODE/B2  ---       LVL=0
      0082EE5CH   LINE      ---      ---       #317
      0082EE62H   LINE      ---      ---       #318
      02000683H   SYMBOL    XDATA    DWORD     DataId
      02000687H   SYMBOL    XDATA    BYTE      ScreenNum
      0082EE62H   BLOCK     CODE/B2  NEAR LAB  LVL=1
      0082EE62H   LINE      ---      ---       #320
      0082EE74H   LINE      ---      ---       #321
      0082EE74H   LINE      ---      ---       #322
      0082EE9AH   LINE      ---      ---       #323
      0082EE9AH   LINE      ---      ---       #324
      0082EEDEH   LINE      ---      ---       #325
      0082EEDEH   LINE      ---      ---       #326
      0082EEE4H   LINE      ---      ---       #327
      0082EEE4H   LINE      ---      ---       #328
      0082EEE5H   LINE      ---      ---       #329
      0082EEE7H   LINE      ---      ---       #331
      0082EEE7H   LINE      ---      ---       #332
      0082EEEEH   LINE      ---      ---       #333
      0082EEEEH   LINE      ---      ---       #334
      0082EEF0H   LINE      ---      ---       #336
      0082EEF0H   LINE      ---      ---       #337
      0082EEF6H   LINE      ---      ---       #338
      0082EEF6H   LINE      ---      ---       #339
      0082EEFCH   LINE      ---      ---       #340
      0082EEFCH   LINE      ---      ---       #341
      0082EF04H   LINE      ---      ---       #342
      0082EF06H   LINE      ---      ---       #343
      02000688H   SYMBOL    XDATA    BYTE      i
      02000689H   SYMBOL    XDATA    BYTE      v_LcdNum
      ---         BLOCKEND  CODE/B2  ---       LVL=1
      ---         BLOCKEND  CODE/B2  ---       LVL=0

      0082A324H   BLOCK     CODE/B2  ---       LVL=0
      0082A324H   LINE      ---      ---       #345
      0082A324H   LINE      ---      ---       #346
      00000007H   SYMBOL    DATA     BYTE      v_LcdNum
      0082A324H   BLOCK     CODE/B2  NEAR LAB  LVL=1
      0082A324H   LINE      ---      ---       #348
      0082A32AH   LINE      ---      ---       #349
      0082A32AH   LINE      ---      ---       #350
      0082A334H   LINE      ---      ---       #351
      0082A336H   LINE      ---      ---       #352
      0082A336H   LINE      ---      ---       #353
      0082A34EH   LINE      ---      ---       #355
      0082A35CH   LINE      ---      ---       #356
      02000683H   SYMBOL    XDATA    DWORD     V_ulDI3DI2DI1DI0
      ---         BLOCKEND  CODE/B2  ---       LVL=1
      ---         BLOCKEND  CODE/B2  ---       LVL=0
LX51 LINKER/LOCATER V4.66.41.0                                                        11/18/2021  18:54:16  PAGE 98



      0082EF07H   BLOCK     CODE/B2  ---       LVL=0
      0082EF18H   LINE      ---      ---       #358
      0082EF18H   LINE      ---      ---       #359
      00000007H   SYMBOL    DATA     BYTE      v_ucNumPos
      00000005H   SYMBOL    DATA     BYTE      v_ucShowChar
      0082EF18H   BLOCK     CODE/B2  NEAR LAB  LVL=1
      0082EF18H   LINE      ---      ---       #362
      0082EF20H   LINE      ---      ---       #365
      0082EF22H   LINE      ---      ---       #366
      0082EF22H   LINE      ---      ---       #367
      0082EF32H   LINE      ---      ---       #368
      0082EF32H   LINE      ---      ---       #369
      0082EF43H   LINE      ---      ---       #370
      0082EF45H   LINE      ---      ---       #371
      0082EF45H   LINE      ---      ---       #372
      0082EF4AH   LINE      ---      ---       #373
      0082EF52H   LINE      ---      ---       #375
      0082EF58H   LINE      ---      ---       #376
      0082EF5AH   LINE      ---      ---       #377
      0082EF5AH   LINE      ---      ---       #378
      0082EF78H   LINE      ---      ---       #379
      0082EF94H   LINE      ---      ---       #381
      0082EFA8H   LINE      ---      ---       #382
      0082EFB4H   LINE      ---      ---       #383
      0082EFB4H   LINE      ---      ---       #384
      0082EFD0H   LINE      ---      ---       #385
      0082EFD0H   LINE      ---      ---       #386
      0082EFD7H   LINE      ---      ---       #387
      0082EFDFH   LINE      ---      ---       #388
      00000006H   SYMBOL    DATA     BYTE      V_ucCnti
      00000006H   SYMBOL    DATA     BYTE      V_ucCntj
      0200061AH   SYMBOL    XDATA    BYTE      V_ucResult
      0200061BH   SYMBOL    XDATA    BYTE      V_ucTemp08
      00000005H   SYMBOL    DATA     BYTE      V_ucPosBit
      0200061CH   SYMBOL    XDATA    BYTE      V_ucCombit
      ---         BLOCKEND  CODE/B2  ---       LVL=1
      ---         BLOCKEND  CODE/B2  ---       LVL=0

      0082EFE0H   BLOCK     CODE/B2  ---       LVL=0
      0082EFE0H   LINE      ---      ---       #389
      0082EFF5H   LINE      ---      ---       #390
      02000611H   SYMBOL    XDATA    BYTE      ShowStartPos
      02000612H   SYMBOL    XDATA    BYTE      len
      02000613H   SYMBOL    XDATA    ---       Show
      02000616H   SYMBOL    XDATA    BYTE      v_ucDots
      0082EFF5H   BLOCK     CODE/B2  NEAR LAB  LVL=1
      0082EFF5H   LINE      ---      ---       #393
      0082F004H   LINE      ---      ---       #395
      0082F009H   LINE      ---      ---       #396
      0082F011H   LINE      ---      ---       #397
      0082F011H   LINE      ---      ---       #398
      0082F026H   LINE      ---      ---       #399
      0082F026H   LINE      ---      ---       #400
      0082F052H   LINE      ---      ---       #401
      0082F052H   LINE      ---      ---       #402
      0082F058H   LINE      ---      ---       #403
      0082F05AH   LINE      ---      ---       #405
      0082F05AH   LINE      ---      ---       #406
      0082F05DH   LINE      ---      ---       #408
      0082F05DH   LINE      ---      ---       #410
      0082F0A3H   LINE      ---      ---       #412
      0082F0A3H   LINE      ---      ---       #413
      0082F0A6H   LINE      ---      ---       #415
      0082F0A6H   LINE      ---      ---       #416
LX51 LINKER/LOCATER V4.66.41.0                                                        11/18/2021  18:54:16  PAGE 99


      0082F0AEH   LINE      ---      ---       #417
      0082F0AEH   LINE      ---      ---       #419
      0082F0AEH   LINE      ---      ---       #420
      0082F0C1H   LINE      ---      ---       #421
      0082F0C1H   LINE      ---      ---       #422
      0082F0E5H   LINE      ---      ---       #423
      0082F10BH   LINE      ---      ---       #424
      0082F113H   LINE      ---      ---       #425
      0082F113H   LINE      ---      ---       #426
      02000617H   SYMBOL    XDATA    BYTE      i
      02000618H   SYMBOL    XDATA    BYTE      k
      02000619H   SYMBOL    XDATA    BYTE      j
      ---         BLOCKEND  CODE/B2  ---       LVL=1
      ---         BLOCKEND  CODE/B2  ---       LVL=0

      0082F114H   BLOCK     CODE/B2  ---       LVL=0
      0082F114H   LINE      ---      ---       #428
      0082F119H   LINE      ---      ---       #429
      0200060FH   SYMBOL    XDATA    BYTE      Dispcnt
      0082F119H   BLOCK     CODE/B2  NEAR LAB  LVL=1
      0082F119H   LINE      ---      ---       #430
      0082F11CH   LINE      ---      ---       #431
      0082F12FH   LINE      ---      ---       #433
      0082F134H   LINE      ---      ---       #435
      0082F13BH   LINE      ---      ---       #436
      0082F13BH   LINE      ---      ---       #437
      0082F14FH   LINE      ---      ---       #439
      0082F14FH   LINE      ---      ---       #440
      0082F1A6H   LINE      ---      ---       #441
      0082F1A6H   LINE      ---      ---       #442
      0082F1A6H   LINE      ---      ---       #443
      0082F1A6H   LINE      ---      ---       #444
      0082F1A9H   LINE      ---      ---       #445
      0082F1A9H   LINE      ---      ---       #446
      0082F1A9H   LINE      ---      ---       #447
      0082F1A9H   LINE      ---      ---       #448
      0082F1A9H   LINE      ---      ---       #449
      0082F1ABH   LINE      ---      ---       #450
      0082F1ABH   LINE      ---      ---       #451
      0082F1ABH   LINE      ---      ---       #453
      0082F1B2H   LINE      ---      ---       #455
      0082F1B9H   LINE      ---      ---       #456
      0082F1BCH   LINE      ---      ---       #457
      0082F1BCH   LINE      ---      ---       #458
      0082F1BCH   LINE      ---      ---       #459
      0082F1BCH   LINE      ---      ---       #460
      0082F1BCH   LINE      ---      ---       #461
      0082F1BEH   LINE      ---      ---       #462
      0082F1BEH   LINE      ---      ---       #463
      0082F1BEH   LINE      ---      ---       #465
      0082F1C5H   LINE      ---      ---       #467
      0082F1CCH   LINE      ---      ---       #468
      0082F1D1H   LINE      ---      ---       #469
      0082F1D8H   LINE      ---      ---       #470
      0082F1DFH   LINE      ---      ---       #471
      0082F1E0H   LINE      ---      ---       #472
      0082F1E0H   LINE      ---      ---       #473
      0082F1E2H   LINE      ---      ---       #477
      0082F1E2H   LINE      ---      ---       #478
      0082F1E2H   LINE      ---      ---       #479
      0082F1E9H   LINE      ---      ---       #480
      0082F1ECH   LINE      ---      ---       #481
      0082F1ECH   LINE      ---      ---       #482
      0082F1ECH   LINE      ---      ---       #483
      0082F1EEH   LINE      ---      ---       #485
LX51 LINKER/LOCATER V4.66.41.0                                                        11/18/2021  18:54:16  PAGE 100


      0082F1EEH   LINE      ---      ---       #486
      0082F1EEH   LINE      ---      ---       #487
      0082F1F5H   LINE      ---      ---       #488
      0082F1F8H   LINE      ---      ---       #489
      0082F1F8H   LINE      ---      ---       #490
      0082F1F8H   LINE      ---      ---       #491
      0082F1FAH   LINE      ---      ---       #493
      0082F1FAH   LINE      ---      ---       #494
      0082F1FAH   LINE      ---      ---       #499
      0082F201H   LINE      ---      ---       #500
      0082F201H   LINE      ---      ---       #501
      0082F201H   LINE      ---      ---       #502
      0082F201H   LINE      ---      ---       #503
      0082F203H   LINE      ---      ---       #505
      0082F203H   LINE      ---      ---       #506
      0082F203H   LINE      ---      ---       #507
      0082F207H   LINE      ---      ---       #508
      0082F207H   LINE      ---      ---       #509
      0082F207H   LINE      ---      ---       #510
      0082F207H   LINE      ---      ---       #512
      0082F20AH   LINE      ---      ---       #515
      0082F210H   LINE      ---      ---       #516
      0082F210H   LINE      ---      ---       #517
      0082F212H   LINE      ---      ---       #519
      0082F212H   LINE      ---      ---       #520
      0082F212H   LINE      ---      ---       #521
      0082F219H   LINE      ---      ---       #522
      0082F21FH   LINE      ---      ---       #523
      0082F225H   LINE      ---      ---       #524
      0082F225H   LINE      ---      ---       #526
      0082F227H   LINE      ---      ---       #528
      0082F227H   LINE      ---      ---       #530
      0082F227H   LINE      ---      ---       #531
      0082F227H   LINE      ---      ---       #533
      0082F227H   LINE      ---      ---       #538
      0082F22EH   LINE      ---      ---       #539
      0082F236H   LINE      ---      ---       #540
      0082F236H   LINE      ---      ---       #541
      0082F239H   LINE      ---      ---       #542
      0082F23BH   LINE      ---      ---       #545
      0082F23FH   LINE      ---      ---       #546
      0082F23FH   LINE      ---      ---       #547
      0082F241H   LINE      ---      ---       #548
      0082F243H   LINE      ---      ---       #550
      0082F243H   LINE      ---      ---       #551
      0082F24AH   LINE      ---      ---       #552
      0082F24AH   LINE      ---      ---       #554
      0082F250H   LINE      ---      ---       #556
      0082F250H   LINE      ---      ---       #558
      0082F252H   LINE      ---      ---       #560
      0082F252H   LINE      ---      ---       #562
      0082F252H   LINE      ---      ---       #563
      0082F252H   LINE      ---      ---       #565
      0082F252H   LINE      ---      ---       #570
      0082F259H   LINE      ---      ---       #571
      0082F261H   LINE      ---      ---       #572
      0082F261H   LINE      ---      ---       #573
      0082F264H   LINE      ---      ---       #574
      0082F266H   LINE      ---      ---       #577
      0082F26AH   LINE      ---      ---       #578
      0082F26AH   LINE      ---      ---       #579
      0082F26CH   LINE      ---      ---       #580
      0082F26EH   LINE      ---      ---       #582
      0082F26EH   LINE      ---      ---       #583
      0082F275H   LINE      ---      ---       #584
LX51 LINKER/LOCATER V4.66.41.0                                                        11/18/2021  18:54:16  PAGE 101


      0082F275H   LINE      ---      ---       #586
      0082F27BH   LINE      ---      ---       #588
      0082F27BH   LINE      ---      ---       #590
      0082F27DH   LINE      ---      ---       #592
      0082F27DH   LINE      ---      ---       #593
      0082F27DH   LINE      ---      ---       #595
      0082F27DH   LINE      ---      ---       #596
      0082F27DH   LINE      ---      ---       #598
      0082F27DH   LINE      ---      ---       #603
      0082F284H   LINE      ---      ---       #604
      0082F28CH   LINE      ---      ---       #605
      0082F28CH   LINE      ---      ---       #606
      0082F28FH   LINE      ---      ---       #607
      0082F291H   LINE      ---      ---       #610
      0082F295H   LINE      ---      ---       #611
      0082F295H   LINE      ---      ---       #612
      0082F299H   LINE      ---      ---       #613
      0082F29BH   LINE      ---      ---       #614
      0082F2A2H   LINE      ---      ---       #615
      0082F2A2H   LINE      ---      ---       #616
      0082F2A9H   LINE      ---      ---       #617
      0082F2A9H   LINE      ---      ---       #619
      0082F2AFH   LINE      ---      ---       #620
      0082F2AFH   LINE      ---      ---       #622
      0082F2B1H   LINE      ---      ---       #624
      0082F2B1H   LINE      ---      ---       #625
      0082F2B1H   LINE      ---      ---       #627
      0082F2B1H   LINE      ---      ---       #628
      0082F2B1H   LINE      ---      ---       #630
      0082F2B1H   LINE      ---      ---       #635
      0082F2B5H   LINE      ---      ---       #636
      0082F2B5H   LINE      ---      ---       #637
      0082F2B7H   LINE      ---      ---       #638
      0082F2B9H   LINE      ---      ---       #641
      0082F2C1H   LINE      ---      ---       #642
      0082F2C1H   LINE      ---      ---       #643
      0082F2C3H   LINE      ---      ---       #644
      0082F2C5H   LINE      ---      ---       #645
      0082F2C9H   LINE      ---      ---       #646
      0082F2C9H   LINE      ---      ---       #647
      0082F2D0H   LINE      ---      ---       #648
      0082F2D0H   LINE      ---      ---       #650
      0082F2D6H   LINE      ---      ---       #651
      0082F2D6H   LINE      ---      ---       #652
      0082F2D8H   LINE      ---      ---       #654
      0082F2D8H   LINE      ---      ---       #655
      0082F2D8H   LINE      ---      ---       #659
      0082F2DFH   LINE      ---      ---       #661
      0082F2E6H   LINE      ---      ---       #662
      0082F2E6H   LINE      ---      ---       #663
      0082F2E8H   LINE      ---      ---       #665
      0082F2E8H   LINE      ---      ---       #666
      0082F2E8H   LINE      ---      ---       #667
      0082F2EEH   LINE      ---      ---       #668
      0082F2EEH   LINE      ---      ---       #672
      0082F2EEH   LINE      ---      ---       #673
      0082F2EEH   LINE      ---      ---       #674
      0082F2EEH   LINE      ---      ---       #675
      0082F308H   LINE      ---      ---       #677
      02000610H   SYMBOL    XDATA    BYTE      V_ucDots
      ---         BLOCKEND  CODE/B2  ---       LVL=1
      ---         BLOCKEND  CODE/B2  ---       LVL=0

      0082F475H   BLOCK     CODE/B2  ---       LVL=0
      0082F475H   LINE      ---      ---       #697
LX51 LINKER/LOCATER V4.66.41.0                                                        11/18/2021  18:54:16  PAGE 102


      0082F475H   LINE      ---      ---       #698
      0082F475H   LINE      ---      ---       #699
      0082F483H   LINE      ---      ---       #702
      0082F491H   LINE      ---      ---       #704
      0082F491H   LINE      ---      ---       #705
      0082F498H   LINE      ---      ---       #706
      0082F498H   LINE      ---      ---       #707
      0082F498H   LINE      ---      ---       #708
      0082F498H   LINE      ---      ---       #709
      0082F49AH   LINE      ---      ---       #711
      0082F49AH   LINE      ---      ---       #712
      0082F4A1H   LINE      ---      ---       #713
      0082F4A1H   LINE      ---      ---       #714
      0082F4A8H   LINE      ---      ---       #715
      0082F4A8H   LINE      ---      ---       #716
      0082F4A8H   LINE      ---      ---       #719
      0082F4AFH   LINE      ---      ---       #720
      0082F4AFH   LINE      ---      ---       #721
      0082F4B6H   LINE      ---      ---       #722
      0082F4B6H   LINE      ---      ---       #723
      0082F4D2H   LINE      ---      ---       #724
      0082F4D2H   LINE      ---      ---       #726
      0082F4D6H   LINE      ---      ---       #727
      0082F4D6H   LINE      ---      ---       #728
      0082F4DDH   LINE      ---      ---       #729
      0082F4DDH   LINE      ---      ---       #731
      0082F4E4H   LINE      ---      ---       #732
      0082F4E4H   LINE      ---      ---       #733
      0082F4EBH   LINE      ---      ---       #734
      0082F4EBH   LINE      ---      ---       #735
      0082F4EBH   LINE      ---      ---       #736
      0082F4F8H   LINE      ---      ---       #737
      0082F4F8H   LINE      ---      ---       #738
      0082F4FFH   LINE      ---      ---       #739
      0082F4FFH   LINE      ---      ---       #740
      0082F506H   LINE      ---      ---       #741
      0082F506H   LINE      ---      ---       #742
      0082F50DH   LINE      ---      ---       #743
      0082F50DH   LINE      ---      ---       #744
      0082F51CH   LINE      ---      ---       #745
      0082F51CH   LINE      ---      ---       #746
      0082F523H   LINE      ---      ---       #747
      0082F523H   LINE      ---      ---       #749
      0082F52AH   LINE      ---      ---       #751
      0082F52AH   LINE      ---      ---       #752
      0082F52AH   LINE      ---      ---       #753
      0082F531H   LINE      ---      ---       #754
      0082F531H   LINE      ---      ---       #755
      0082F538H   LINE      ---      ---       #756
      0082F53FH   LINE      ---      ---       #757
      0082F53FH   LINE      ---      ---       #759
      0082F55DH   LINE      ---      ---       #761
      0082F55DH   LINE      ---      ---       #762
      0082F564H   LINE      ---      ---       #763
      0082F564H   LINE      ---      ---       #764
      0082F56BH   LINE      ---      ---       #765
      0082F56BH   LINE      ---      ---       #771
      0082F56BH   LINE      ---      ---       #775
      ---         BLOCKEND  ---      ---       LVL=0

      0082F56CH   BLOCK     CODE/B2  ---       LVL=0
      0082F56CH   LINE      ---      ---       #786
      0082F56CH   LINE      ---      ---       #787
      0082F56CH   LINE      ---      ---       #788
      0082F574H   LINE      ---      ---       #790
LX51 LINKER/LOCATER V4.66.41.0                                                        11/18/2021  18:54:16  PAGE 103


      0082F57CH   LINE      ---      ---       #791
      0082F57CH   LINE      ---      ---       #792
      0082F57FH   LINE      ---      ---       #793
      0082F581H   LINE      ---      ---       #795
      0082F58AH   LINE      ---      ---       #796
      0082F58AH   LINE      ---      ---       #797
      0082F591H   LINE      ---      ---       #798
      0082F593H   LINE      ---      ---       #800
      0082F593H   LINE      ---      ---       #801
      0082F59AH   LINE      ---      ---       #802
      0082F59AH   LINE      ---      ---       #803
      0082F5A2H   LINE      ---      ---       #804
      0082F5A8H   LINE      ---      ---       #805
      0082F5A8H   LINE      ---      ---       #806
      0082F5ABH   LINE      ---      ---       #807
      0082F5ADH   LINE      ---      ---       #808
      0082F5B7H   LINE      ---      ---       #809
      0082F5B7H   LINE      ---      ---       #811
      0082F5BEH   LINE      ---      ---       #812
      0082F5BFH   LINE      ---      ---       #814
      0082F5BFH   LINE      ---      ---       #815
      0082F5C6H   LINE      ---      ---       #816
      0082F5C6H   LINE      ---      ---       #817
      ---         BLOCKEND  ---      ---       LVL=0

      0082F352H   BLOCK     CODE/B2  ---       LVL=0
      0082F352H   LINE      ---      ---       #829
      0082F352H   LINE      ---      ---       #830
      0082F352H   BLOCK     CODE/B2  NEAR LAB  LVL=1
      0082F352H   LINE      ---      ---       #837
      0082F35BH   LINE      ---      ---       #838
      0082F35BH   LINE      ---      ---       #840
      0082F35BH   LINE      ---      ---       #843
      0082F379H   LINE      ---      ---       #844
      0082F379H   LINE      ---      ---       #845
      0082F382H   LINE      ---      ---       #846
      0082F389H   LINE      ---      ---       #848
      0082F3ABH   LINE      ---      ---       #849
      0082F3C4H   LINE      ---      ---       #850
      0082F3C4H   LINE      ---      ---       #851
      0082F3E2H   LINE      ---      ---       #852
      0082F3E8H   LINE      ---      ---       #854
      0082F3F7H   LINE      ---      ---       #855
      0082F3F7H   LINE      ---      ---       #856
      0082F3FCH   LINE      ---      ---       #857
      0082F400H   LINE      ---      ---       #858
      0082F404H   LINE      ---      ---       #859
      0082F409H   LINE      ---      ---       #860
      0082F409H   LINE      ---      ---       #861
      0082F409H   LINE      ---      ---       #863
      0082F410H   LINE      ---      ---       #864
      0082F410H   LINE      ---      ---       #865
      0082F41BH   LINE      ---      ---       #866
      0082F41DH   LINE      ---      ---       #867
      0082F424H   LINE      ---      ---       #868
      0082F424H   LINE      ---      ---       #869
      0082F427H   LINE      ---      ---       #870
      0082F429H   LINE      ---      ---       #871
      0082F430H   LINE      ---      ---       #872
      0082F430H   LINE      ---      ---       #873
      0082F435H   LINE      ---      ---       #875
      0082F435H   LINE      ---      ---       #876
      0082F43CH   LINE      ---      ---       #877
      0082F43CH   LINE      ---      ---       #878
      0082F449H   LINE      ---      ---       #879
LX51 LINKER/LOCATER V4.66.41.0                                                        11/18/2021  18:54:16  PAGE 104


      0082F449H   LINE      ---      ---       #880
      0082F44BH   LINE      ---      ---       #881
      0082F44BH   LINE      ---      ---       #882
      0082F45DH   LINE      ---      ---       #883
      0082F45DH   LINE      ---      ---       #886
      0082F466H   LINE      ---      ---       #887
      0082F466H   LINE      ---      ---       #888
      0082F468H   LINE      ---      ---       #889
      0082F468H   LINE      ---      ---       #890
      0082F46FH   LINE      ---      ---       #891
      0082F471H   LINE      ---      ---       #892
      0082F474H   LINE      ---      ---       #893
      0082F474H   LINE      ---      ---       #894
      0200060EH   SYMBOL    XDATA    BYTE      Dispcnt
      ---         BLOCKEND  CODE/B2  ---       LVL=1
      ---         BLOCKEND  CODE/B2  ---       LVL=0

      ---         MODULE    ---      ---       APPMONITOR
      00819174H   PUBLIC    CODE/B1  ---       ApiMntr_PeripheralMonitor
      00819430H   PUBLIC    CODE/B1  ---       ApiMntr_MonitorTask
      000000F3H   SFRSYM    DATA     BYTE      IB_CON2
      000000D8H.3 SFRSYM    DATA     BIT       TB81
      00000080H   SFRSYM    DATA     BYTE      P0
      000000F4H   SFRSYM    DATA     BYTE      IB_CON3
      000000A4H   SFRSYM    DATA     BYTE      TKCON
      00000090H   SFRSYM    DATA     BYTE      P1
      000000F5H   SFRSYM    DATA     BYTE      IB_CON4
      000000E7H   SFRSYM    DATA     BYTE      PASLO
      000000A0H   SFRSYM    DATA     BYTE      P2
      000000FEH   SFRSYM    DATA     BYTE      OSCLO
      000000F6H   SFRSYM    DATA     BYTE      IB_CON5
      00000098H.6 SFRSYM    DATA     BIT       SM1_RXOV
      000000B0H   SFRSYM    DATA     BYTE      P3
      000000D0H.6 SFRSYM    DATA     BIT       AC
      000000C0H   SFRSYM    DATA     BYTE      P4
      000000A1H   SFRSYM    DATA     BYTE      SPCON
      0000009CH   SFRSYM    DATA     BYTE      SBRTH
      000000E9H   SFRSYM    DATA     BYTE      P5
      000000A8H.7 SFRSYM    DATA     BIT       EA
      000000EAH   SFRSYM    DATA     BYTE      P6
      000000EBH   SFRSYM    DATA     BYTE      P7
      000000EFH   SFRSYM    DATA     BYTE      IB_DATA
      000000ECH   SFRSYM    DATA     BYTE      P8
      0000009DH   SFRSYM    DATA     BYTE      SBRTL
      000000EDH   SFRSYM    DATA     BYTE      P9
      000000B7H   SFRSYM    DATA     BYTE      PBANKLO
      000000A2H   SFRSYM    DATA     BYTE      SPSTA
      000000A8H   SFRSYM    DATA     BYTE      IEN0
      000000B3H   SFRSYM    DATA     BYTE      PWRCON1
      00000095H   SFRSYM    DATA     BYTE      EMUSR
      000000A9H   SFRSYM    DATA     BYTE      IEN1
      000000B4H   SFRSYM    DATA     BYTE      PWRCON2
      00000085H   SFRSYM    DATA     BYTE      DPH1
      00000080H   SFRSYM    DATA     BIT       P0_0
      00000090H   SFRSYM    DATA     BIT       P1_0
      00000080H.1 SFRSYM    DATA     BIT       P0_1
      000000C3H   SFRSYM    DATA     BYTE      ADCH
      000000A0H   SFRSYM    DATA     BIT       P2_0
      00000090H.1 SFRSYM    DATA     BIT       P1_1
      00000080H.2 SFRSYM    DATA     BIT       P0_2
      000000BAH   SFRSYM    DATA     BYTE      IPH0
      00000084H   SFRSYM    DATA     BYTE      DPL1
      000000B0H   SFRSYM    DATA     BIT       P3_0
      000000A0H.1 SFRSYM    DATA     BIT       P2_1
      00000090H.2 SFRSYM    DATA     BIT       P1_2
LX51 LINKER/LOCATER V4.66.41.0                                                        11/18/2021  18:54:16  PAGE 105


      00000080H.3 SFRSYM    DATA     BIT       P0_3
      000000BBH   SFRSYM    DATA     BYTE      IPH1
      000000C0H   SFRSYM    DATA     BIT       P4_0
      000000B0H.1 SFRSYM    DATA     BIT       P3_1
      000000A0H.2 SFRSYM    DATA     BIT       P2_2
      00000090H.3 SFRSYM    DATA     BIT       P1_3
      00000080H.4 SFRSYM    DATA     BIT       P0_4
      000000E8H   SFRSYM    DATA     BYTE      EXF0
      000000C0H.1 SFRSYM    DATA     BIT       P4_1
      000000B0H.2 SFRSYM    DATA     BIT       P3_2
      000000A0H.3 SFRSYM    DATA     BIT       P2_3
      00000090H.4 SFRSYM    DATA     BIT       P1_4
      00000080H.5 SFRSYM    DATA     BIT       P0_5
      000000C0H.2 SFRSYM    DATA     BIT       P4_2
      000000B0H.3 SFRSYM    DATA     BIT       P3_3
      000000A0H.4 SFRSYM    DATA     BIT       P2_4
      00000090H.5 SFRSYM    DATA     BIT       P1_5
      00000080H.6 SFRSYM    DATA     BIT       P0_6
      000000C8H.6 SFRSYM    DATA     BIT       EXF2
      000000A6H   SFRSYM    DATA     BYTE      TKF0
      000000B8H   SFRSYM    DATA     BYTE      IPL0
      000000C0H.3 SFRSYM    DATA     BIT       P4_3
      000000B0H.4 SFRSYM    DATA     BIT       P3_4
      000000A0H.5 SFRSYM    DATA     BIT       P2_5
      00000090H.6 SFRSYM    DATA     BIT       P1_6
      00000080H.7 SFRSYM    DATA     BIT       P0_7
      000000D8H.4 SFRSYM    DATA     BIT       REN1
      000000B9H   SFRSYM    DATA     BYTE      IPL1
      000000C0H.4 SFRSYM    DATA     BIT       P4_4
      000000B0H.5 SFRSYM    DATA     BIT       P3_5
      000000A0H.6 SFRSYM    DATA     BIT       P2_6
      00000090H.7 SFRSYM    DATA     BIT       P1_7
      000000E2H   SFRSYM    DATA     BYTE      TK0H
      0000008EH   SFRSYM    DATA     BYTE      SUSLO
      000000C0H.5 SFRSYM    DATA     BIT       P4_5
      000000B0H.6 SFRSYM    DATA     BIT       P3_6
      000000A0H.7 SFRSYM    DATA     BIT       P2_7
      000000E4H   SFRSYM    DATA     BYTE      TK1H
      000000C0H.6 SFRSYM    DATA     BIT       P4_6
      000000B0H.7 SFRSYM    DATA     BIT       P3_7
      000000E6H   SFRSYM    DATA     BYTE      TK2H
      000000C0H.7 SFRSYM    DATA     BIT       P4_7
      00000098H   SFRSYM    DATA     BIT       RI
      000000A8H.2 SFRSYM    DATA     BIT       E7816
      000000D0H.7 SFRSYM    DATA     BIT       CY
      000000E1H   SFRSYM    DATA     BYTE      TK0L
      00000098H.1 SFRSYM    DATA     BIT       TI
      00000091H   SFRSYM    DATA     BYTE      EADR
      000000E3H   SFRSYM    DATA     BYTE      TK1L
      000000E5H   SFRSYM    DATA     BYTE      TK2L
      000000DBH   SFRSYM    DATA     BYTE      SADEN1
      000000D8H.7 SFRSYM    DATA     BIT       SM10_FE1
      000000FBH   SFRSYM    DATA     BYTE      SADEN2
      000000B8H.4 SFRSYM    DATA     BIT       PS0L
      000000B8H.1 SFRSYM    DATA     BIT       PT0L
      000000DAH   SFRSYM    DATA     BYTE      SADDR1
      000000D8H.5 SFRSYM    DATA     BIT       SM12_TXCOL1
      000000B8H.3 SFRSYM    DATA     BIT       PT1L
      000000FAH   SFRSYM    DATA     BYTE      SADDR2
      000000CBH   SFRSYM    DATA     BYTE      RCAP2H
      000000B8H.5 SFRSYM    DATA     BIT       PT2L
      00000081H   SFRSYM    DATA     BYTE      SP
      000000D0H.2 SFRSYM    DATA     BIT       OV
      000000CAH   SFRSYM    DATA     BYTE      RCAP2L
      000000B8H   SFRSYM    DATA     BIT       PX4L
LX51 LINKER/LOCATER V4.66.41.0                                                        11/18/2021  18:54:16  PAGE 106


      000000C8H.1 SFRSYM    DATA     BIT       C_T2
      000000DEH   SFRSYM    DATA     BYTE      SFINE2
      000000ADH   SFRSYM    DATA     BYTE      IRCON1
      000000AFH   SFRSYM    DATA     BYTE      IRCON2
      000000ABH   SFRSYM    DATA     BYTE      EXCON1
      00000099H   SFRSYM    DATA     BYTE      SBUF
      000000ACH   SFRSYM    DATA     BYTE      EXCON2
      00000087H   SFRSYM    DATA     BYTE      PCON
      000000F1H   SFRSYM    DATA     BYTE      AUXC
      00000098H   SFRSYM    DATA     BYTE      SCON
      000000D4H   SFRSYM    DATA     BYTE      TK0BASEH
      00000089H   SFRSYM    DATA     BYTE      TMOD
      00000088H   SFRSYM    DATA     BYTE      TCON
      000000AAH   SFRSYM    DATA     BYTE      IENX
      000000EEH   SFRSYM    DATA     BYTE      IB_OFFSET
      000000D6H   SFRSYM    DATA     BYTE      TK1BASEH
      000000DCH   SFRSYM    DATA     BYTE      SBRT1H
      000000DFH   SFRSYM    DATA     BYTE      TK2BASEH
      000000FCH   SFRSYM    DATA     BYTE      SBRT2H
      000000B1H   SFRSYM    DATA     BYTE      RSTSTAT
      000000D3H   SFRSYM    DATA     BYTE      TK0BASEL
      000000D5H   SFRSYM    DATA     BYTE      TK1BASEL
      000000DDH   SFRSYM    DATA     BYTE      SBRT1L
      000000D7H   SFRSYM    DATA     BYTE      TK2BASEL
      000000FDH   SFRSYM    DATA     BYTE      SBRT2L
      00000098H.7 SFRSYM    DATA     BIT       SM0_FE
      000000B2H   SFRSYM    DATA     BYTE      CLKCON
      00000098H.5 SFRSYM    DATA     BIT       SM2_TXCOL
      000000B5H   SFRSYM    DATA     BYTE      LDOCON
      000000F0H   SFRSYM    DATA     BYTE      B
      000000C8H   SFRSYM    DATA     BIT       CP_RL2
      000000E0H   SFRSYM    DATA     BYTE      ACC
      000000A8H.4 SFRSYM    DATA     BIT       ES0
      000000A8H.1 SFRSYM    DATA     BIT       ET0
      000000A8H.3 SFRSYM    DATA     BIT       ET1
      00000088H.5 SFRSYM    DATA     BIT       TF0
      000000A8H.5 SFRSYM    DATA     BIT       ET2
      00000088H.7 SFRSYM    DATA     BIT       TF1
      000000D8H   SFRSYM    DATA     BIT       RI1
      00000098H.2 SFRSYM    DATA     BIT       RB8
      000000C8H.7 SFRSYM    DATA     BIT       TF2
      0000008CH   SFRSYM    DATA     BYTE      TH0
      00000086H   SFRSYM    DATA     BYTE      INSCON
      0000008DH   SFRSYM    DATA     BYTE      TH1
      000000D8H.1 SFRSYM    DATA     BIT       TI1
      00000098H.3 SFRSYM    DATA     BIT       TB8
      000000CDH   SFRSYM    DATA     BYTE      TH2
      000000D0H   SFRSYM    DATA     BIT       P
      0000008AH   SFRSYM    DATA     BYTE      TL0
      000000A8H   SFRSYM    DATA     BIT       EX4
      0000008BH   SFRSYM    DATA     BYTE      TL1
      000000A7H   SFRSYM    DATA     BYTE      FLASHCON
      000000CCH   SFRSYM    DATA     BYTE      TL2
      000000D0H.3 SFRSYM    DATA     BIT       RS0
      000000C5H   SFRSYM    DATA     BYTE      ADCDH
      00000088H.4 SFRSYM    DATA     BIT       TR0
      000000D0H.4 SFRSYM    DATA     BIT       RS1
      0000009FH   SFRSYM    DATA     BYTE      PWMCON
      00000088H.6 SFRSYM    DATA     BIT       TR1
      000000C8H.2 SFRSYM    DATA     BIT       TR2
      000000C4H   SFRSYM    DATA     BYTE      ADCDL
      000000C2H   SFRSYM    DATA     BYTE      ADT
      00000083H   SFRSYM    DATA     BYTE      DPH
      00000082H   SFRSYM    DATA     BYTE      DPL
      000000D9H   SFRSYM    DATA     BYTE      SBUF1
LX51 LINKER/LOCATER V4.66.41.0                                                        11/18/2021  18:54:16  PAGE 107


      000000C8H.3 SFRSYM    DATA     BIT       EXEN2
      000000F9H   SFRSYM    DATA     BYTE      SBUF2
      000000D8H.6 SFRSYM    DATA     BIT       SM11_RXOV1
      000000B8H.6 SFRSYM    DATA     BIT       PADCL
      00000098H.4 SFRSYM    DATA     BIT       REN
      000000D8H   SFRSYM    DATA     BYTE      SCON1
      000000D1H   SFRSYM    DATA     BYTE      LCDCON1
      000000C1H   SFRSYM    DATA     BYTE      ADCON
      000000F8H   SFRSYM    DATA     BYTE      SCON2
      0000008FH   SFRSYM    DATA     BYTE      TCON1
      000000D2H   SFRSYM    DATA     BYTE      LCDCON2
      00000092H   SFRSYM    DATA     BYTE      EDTAH
      000000C9H   SFRSYM    DATA     BYTE      T2MOD
      000000C8H   SFRSYM    DATA     BYTE      T2CON
      00000094H   SFRSYM    DATA     BYTE      EDTAL
      00000093H   SFRSYM    DATA     BYTE      EDTAM
      000000BCH   SFRSYM    DATA     BYTE      TK0DIFH
      0000009BH   SFRSYM    DATA     BYTE      SADEN
      000000BEH   SFRSYM    DATA     BYTE      TK1DIFH
      000000B6H   SFRSYM    DATA     BYTE      PBANK
      000000A5H   SFRSYM    DATA     BYTE      TK2DIFH
      000000A8H.6 SFRSYM    DATA     BIT       EADTP
      0000009AH   SFRSYM    DATA     BYTE      SADDR
      000000CFH   SFRSYM    DATA     BYTE      TK0DIFL
      000000BDH   SFRSYM    DATA     BYTE      TK1DIFL
      000000BFH   SFRSYM    DATA     BYTE      TK2DIFL
      000000B8H.2 SFRSYM    DATA     BIT       P7816L
      000000C6H   SFRSYM    DATA     BYTE      LPDCON1
      000000C7H   SFRSYM    DATA     BYTE      LPDCON2
      000000D0H.5 SFRSYM    DATA     BIT       F0
      000000AEH   SFRSYM    DATA     BYTE      IRDAT
      000000D0H.1 SFRSYM    DATA     BIT       F1
      00000096H   SFRSYM    DATA     BYTE      EMUIE
      0000009EH   SFRSYM    DATA     BYTE      SFINE
      000000F7H   SFRSYM    DATA     BYTE      XPAGE
      00000097H   SFRSYM    DATA     BYTE      EMUIF
      000000D0H   SFRSYM    DATA     BYTE      PSW
      000000D8H.2 SFRSYM    DATA     BIT       RB81
      000000A3H   SFRSYM    DATA     BYTE      SPDAT
      000000F2H   SFRSYM    DATA     BYTE      IB_CON1

      00819430H   BLOCK     CODE/B1  ---       LVL=0
      00819430H   LINE      ---      ---       #88
      00819430H   LINE      ---      ---       #89
      00819430H   BLOCK     CODE/B1  NEAR LAB  LVL=1
      00819430H   LINE      ---      ---       #92
      00819432H   LINE      ---      ---       #94
      00819435H   LINE      ---      ---       #96
      00819438H   LINE      ---      ---       #99
      00819456H   LINE      ---      ---       #100
      00819456H   LINE      ---      ---       #101
      0081945FH   LINE      ---      ---       #103
      00819468H   LINE      ---      ---       #104
      00819468H   LINE      ---      ---       #105
      0081946BH   LINE      ---      ---       #108
      0081946FH   LINE      ---      ---       #109
      0081946FH   LINE      ---      ---       #110
      00819472H   LINE      ---      ---       #111
      00819472H   LINE      ---      ---       #112
      00819472H   LINE      ---      ---       #114
      00819475H   LINE      ---      ---       #115
      00819477H   LINE      ---      ---       #116
      0081947AH   LINE      ---      ---       #117
      00819481H   LINE      ---      ---       #118
      00819481H   LINE      ---      ---       #119
LX51 LINKER/LOCATER V4.66.41.0                                                        11/18/2021  18:54:16  PAGE 108


      0081949DH   LINE      ---      ---       #120
      0081949DH   LINE      ---      ---       #121
      008194A6H   LINE      ---      ---       #122
      008194ADH   LINE      ---      ---       #123
      008194AFH   LINE      ---      ---       #124
      008194AFH   LINE      ---      ---       #125
      008194AFH   LINE      ---      ---       #127
      008194BBH   LINE      ---      ---       #129
      008194BBH   LINE      ---      ---       #131
      008194BEH   LINE      ---      ---       #132
      008194C1H   LINE      ---      ---       #133
      008194C4H   LINE      ---      ---       #134
      008194C4H   LINE      ---      ---       #139
      008194D2H   LINE      ---      ---       #140
      008194D2H   LINE      ---      ---       #141
      008194EEH   LINE      ---      ---       #143
      008194EEH   LINE      ---      ---       #144
      008194F1H   LINE      ---      ---       #147
      008194F1H   LINE      ---      ---       #148
      008194F1H   LINE      ---      ---       #149
      008194F8H   LINE      ---      ---       #150
      008194F8H   LINE      ---      ---       #151
      00819514H   LINE      ---      ---       #152
      00819514H   LINE      ---      ---       #153
      0081951BH   LINE      ---      ---       #154
      0081951BH   LINE      ---      ---       #155
      0081951BH   LINE      ---      ---       #156
      0081952FH   LINE      ---      ---       #157
      0081952FH   LINE      ---      ---       #158
      00819536H   LINE      ---      ---       #159
      00819558H   LINE      ---      ---       #160
      00819571H   LINE      ---      ---       #161
      00819571H   LINE      ---      ---       #162
      00819578H   LINE      ---      ---       #163
      00819578H   LINE      ---      ---       #164
      0081957AH   LINE      ---      ---       #166
      0081957AH   LINE      ---      ---       #167
      00819581H   LINE      ---      ---       #168
      00819584H   LINE      ---      ---       #171
      00819584H   LINE      ---      ---       #172
      00819584H   LINE      ---      ---       #176
      008195A2H   LINE      ---      ---       #177
      008195A2H   LINE      ---      ---       #178
      008195ABH   LINE      ---      ---       #180
      008195B0H   LINE      ---      ---       #182
      008195B3H   LINE      ---      ---       #183
      008195B6H   LINE      ---      ---       #184
      008195B9H   LINE      ---      ---       #185
      008195BCH   LINE      ---      ---       #189
      008195BFH   LINE      ---      ---       #190
      008195C2H   LINE      ---      ---       #191
      008195C5H   LINE      ---      ---       #195
      008195D4H   LINE      ---      ---       #196
      008195D4H   LINE      ---      ---       #197
      008195E7H   LINE      ---      ---       #198
      008195E7H   LINE      ---      ---       #199
      008195FDH   LINE      ---      ---       #200
      00819610H   LINE      ---      ---       #201
      00819610H   LINE      ---      ---       #202
      00819617H   LINE      ---      ---       #203
      00819617H   LINE      ---      ---       #204
      0081961AH   LINE      ---      ---       #205
      0081961CH   LINE      ---      ---       #207
      0081961CH   LINE      ---      ---       #208
      0081962BH   LINE      ---      ---       #209
LX51 LINKER/LOCATER V4.66.41.0                                                        11/18/2021  18:54:16  PAGE 109


      0081962BH   LINE      ---      ---       #211
      0081962BH   LINE      ---      ---       #212
      0081962BH   LINE      ---      ---       #213
      00819633H   LINE      ---      ---       #215
      0081964CH   LINE      ---      ---       #216
      0081964CH   LINE      ---      ---       #217
      00819653H   LINE      ---      ---       #219
      00819675H   LINE      ---      ---       #220
      0081968EH   LINE      ---      ---       #221
      0081968EH   LINE      ---      ---       #222
      00819695H   LINE      ---      ---       #223
      00819695H   LINE      ---      ---       #224
      008196A3H   LINE      ---      ---       #225
      008196A5H   LINE      ---      ---       #227
      008196A5H   LINE      ---      ---       #228
      008196ACH   LINE      ---      ---       #229
      008196ACH   LINE      ---      ---       #232
      008196BAH   LINE      ---      ---       #233
      008196BAH   LINE      ---      ---       #234
      008196C0H   LINE      ---      ---       #235
      008196C6H   LINE      ---      ---       #236
      008196C6H   LINE      ---      ---       #237
      008196C8H   LINE      ---      ---       #238
      008196CBH   LINE      ---      ---       #239
      008196D1H   LINE      ---      ---       #240
      008196D1H   LINE      ---      ---       #241
      008196D2H   LINE      ---      ---       #243
      008196D2H   LINE      ---      ---       #244
      008196D7H   LINE      ---      ---       #245
      008196D7H   LINE      ---      ---       #248
      008196D7H   LINE      ---      ---       #250
      0200060EH   SYMBOL    XDATA    BYTE      i
      ---         BLOCKEND  CODE/B1  ---       LVL=1
      ---         BLOCKEND  CODE/B1  ---       LVL=0

      00819174H   BLOCK     CODE/B1  ---       LVL=0
      00819174H   LINE      ---      ---       #263
      00819174H   LINE      ---      ---       #264
      00819174H   LINE      ---      ---       #266
      00819192H   LINE      ---      ---       #267
      00819192H   LINE      ---      ---       #268
      0081919BH   LINE      ---      ---       #269
      0081919EH   LINE      ---      ---       #270
      008191A1H   LINE      ---      ---       #271
      008191A4H   LINE      ---      ---       #272
      008191C0H   LINE      ---      ---       #274
      008191C0H   LINE      ---      ---       #275
      008191C3H   LINE      ---      ---       #276
      008191C8H   LINE      ---      ---       #277
      008191C8H   LINE      ---      ---       #278
      008191D6H   LINE      ---      ---       #279
      008191D6H   LINE      ---      ---       #280
      008191E5H   LINE      ---      ---       #281
      008191E5H   LINE      ---      ---       #282
      008191ECH   LINE      ---      ---       #283
      008191ECH   LINE      ---      ---       #284
      008191F3H   LINE      ---      ---       #285
      008191F3H   LINE      ---      ---       #286
      008191FAH   LINE      ---      ---       #287
      008191FAH   LINE      ---      ---       #288
      00819201H   LINE      ---      ---       #289
      00819201H   LINE      ---      ---       #290
      00819215H   LINE      ---      ---       #291
      00819217H   LINE      ---      ---       #292
      00819225H   LINE      ---      ---       #293
LX51 LINKER/LOCATER V4.66.41.0                                                        11/18/2021  18:54:16  PAGE 110


      00819225H   LINE      ---      ---       #294
      00819225H   LINE      ---      ---       #296
      00819225H   LINE      ---      ---       #297
      0081922CH   LINE      ---      ---       #298
      0081922CH   LINE      ---      ---       #300
      0081922CH   LINE      ---      ---       #301
      ---         BLOCKEND  ---      ---       LVL=0

      ---         MODULE    ---      ---       APPPOWERON
      0081BCB7H   PUBLIC    CODE/B1  ---       ApiPwOn_RemainMoneyCheck
      0081A0EEH   PUBLIC    CODE/B1  ---       ApiPwOn_EventPointCheck
      0081BC9AH   PUBLIC    CODE/B1  ---       ApiPwOn_BleParaChk
      0081BC97H   PUBLIC    CODE/B1  ---       ApiPwOn_BleInit
      0081B5B8H   PUBLIC    CODE/B1  ---       ApiPwOn_KeyStatusCheck
      0081B87CH   PUBLIC    CODE/B1  ---       ApiPwOn_PowerChk
      0081B61FH   PUBLIC    CODE/B1  ---       ApiPwOn_FunConfigParaCheck
      0081A1B5H   PUBLIC    CODE/B1  ---       ApiPwOn_EmuParaCheck
      0081B7D8H   PUBLIC    CODE/B1  ---       ApiPwOn_EnergyCheck
      0081B79EH   PUBLIC    CODE/B1  ---       ApiPwOn_EnergyZSCheck
      0081B6C4H   PUBLIC    CODE/B1  ---       _ApiPwOn_DLXS_READ
      0081B51BH   PUBLIC    CODE/B1  ---       ApiPwOn_MoneyParaCheck
      0081B423H   PUBLIC    CODE/B1  ---       ApiPwOn_DisplayParaCheck
      0081B36FH   PUBLIC    CODE/B1  ---       ApiPwOn_MeterInfoParaCheck
      00818835H   PUBLIC    CODE/B1  ---       ApiPwOn_MeterClear
      008196D8H   PUBLIC    CODE/B1  ---       ApiPwOn_MeterInitInFactory
      008180D6H   PUBLIC    CODE/B1  ---       _ApiPwOn_McuUartXSetBps
      00818000H   PUBLIC    CODE/B1  ---       _ApiPwOn_UART_SendEn
      00818043H   PUBLIC    CODE/B1  ---       _ApiPwOn_McuUartXInit
      0081812AH   PUBLIC    CODE/B1  ---       ApiPwOn_McuUartInit
      0081B330H   PUBLIC    CODE/B1  ---       ApiPwOn_McuTimerInit
      00818271H   PUBLIC    CODE/B1  ---       ApiPwOn_McuDispInit
      0081A30AH   PUBLIC    CODE/B1  ---       ApiPwOn_McuGpioInit
      00819FABH   PUBLIC    CODE/B1  ---       ApiPwOn_McuRamInit
      008183C2H   PUBLIC    CODE/B1  ---       ApiPwOn_McuLPDInit
      0081990FH   PUBLIC    CODE/B1  ---       ApiPwOn_SysClkInit
      008183F7H   PUBLIC    CODE/B1  ---       ApiPwOn_McuReset
      0081813AH   PUBLIC    CODE/B1  ---       ApiPwOn_SysTemInit
      000000F3H   SFRSYM    DATA     BYTE      IB_CON2
      000000D8H.3 SFRSYM    DATA     BIT       TB81
      00000080H   SFRSYM    DATA     BYTE      P0
      000000F4H   SFRSYM    DATA     BYTE      IB_CON3
      000000A4H   SFRSYM    DATA     BYTE      TKCON
      00000090H   SFRSYM    DATA     BYTE      P1
      000000F5H   SFRSYM    DATA     BYTE      IB_CON4
      000000E7H   SFRSYM    DATA     BYTE      PASLO
      000000A0H   SFRSYM    DATA     BYTE      P2
      000000FEH   SFRSYM    DATA     BYTE      OSCLO
      000000F6H   SFRSYM    DATA     BYTE      IB_CON5
      00000098H.6 SFRSYM    DATA     BIT       SM1_RXOV
      000000B0H   SFRSYM    DATA     BYTE      P3
      000000D0H.6 SFRSYM    DATA     BIT       AC
      000000C0H   SFRSYM    DATA     BYTE      P4
      000000A1H   SFRSYM    DATA     BYTE      SPCON
      0000009CH   SFRSYM    DATA     BYTE      SBRTH
      000000E9H   SFRSYM    DATA     BYTE      P5
      000000A8H.7 SFRSYM    DATA     BIT       EA
      000000EAH   SFRSYM    DATA     BYTE      P6
      000000EBH   SFRSYM    DATA     BYTE      P7
      000000EFH   SFRSYM    DATA     BYTE      IB_DATA
      000000ECH   SFRSYM    DATA     BYTE      P8
      0000009DH   SFRSYM    DATA     BYTE      SBRTL
      000000EDH   SFRSYM    DATA     BYTE      P9
      000000B7H   SFRSYM    DATA     BYTE      PBANKLO
      000000A2H   SFRSYM    DATA     BYTE      SPSTA
      000000A8H   SFRSYM    DATA     BYTE      IEN0
LX51 LINKER/LOCATER V4.66.41.0                                                        11/18/2021  18:54:16  PAGE 111


      000000B3H   SFRSYM    DATA     BYTE      PWRCON1
      00000095H   SFRSYM    DATA     BYTE      EMUSR
      000000A9H   SFRSYM    DATA     BYTE      IEN1
      000000B4H   SFRSYM    DATA     BYTE      PWRCON2
      00000085H   SFRSYM    DATA     BYTE      DPH1
      00000080H   SFRSYM    DATA     BIT       P0_0
      00000090H   SFRSYM    DATA     BIT       P1_0
      00000080H.1 SFRSYM    DATA     BIT       P0_1
      000000C3H   SFRSYM    DATA     BYTE      ADCH
      000000A0H   SFRSYM    DATA     BIT       P2_0
      00000090H.1 SFRSYM    DATA     BIT       P1_1
      00000080H.2 SFRSYM    DATA     BIT       P0_2
      000000BAH   SFRSYM    DATA     BYTE      IPH0
      00000084H   SFRSYM    DATA     BYTE      DPL1
      000000B0H   SFRSYM    DATA     BIT       P3_0
      000000A0H.1 SFRSYM    DATA     BIT       P2_1
      00000090H.2 SFRSYM    DATA     BIT       P1_2
      00000080H.3 SFRSYM    DATA     BIT       P0_3
      000000BBH   SFRSYM    DATA     BYTE      IPH1
      000000C0H   SFRSYM    DATA     BIT       P4_0
      000000B0H.1 SFRSYM    DATA     BIT       P3_1
      000000A0H.2 SFRSYM    DATA     BIT       P2_2
      00000090H.3 SFRSYM    DATA     BIT       P1_3
      00000080H.4 SFRSYM    DATA     BIT       P0_4
      000000E8H   SFRSYM    DATA     BYTE      EXF0
      000000C0H.1 SFRSYM    DATA     BIT       P4_1
      000000B0H.2 SFRSYM    DATA     BIT       P3_2
      000000A0H.3 SFRSYM    DATA     BIT       P2_3
      00000090H.4 SFRSYM    DATA     BIT       P1_4
      00000080H.5 SFRSYM    DATA     BIT       P0_5
      000000C0H.2 SFRSYM    DATA     BIT       P4_2
      000000B0H.3 SFRSYM    DATA     BIT       P3_3
      000000A0H.4 SFRSYM    DATA     BIT       P2_4
      00000090H.5 SFRSYM    DATA     BIT       P1_5
      00000080H.6 SFRSYM    DATA     BIT       P0_6
      000000C8H.6 SFRSYM    DATA     BIT       EXF2
      000000A6H   SFRSYM    DATA     BYTE      TKF0
      000000B8H   SFRSYM    DATA     BYTE      IPL0
      000000C0H.3 SFRSYM    DATA     BIT       P4_3
      000000B0H.4 SFRSYM    DATA     BIT       P3_4
      000000A0H.5 SFRSYM    DATA     BIT       P2_5
      00000090H.6 SFRSYM    DATA     BIT       P1_6
      00000080H.7 SFRSYM    DATA     BIT       P0_7
      000000D8H.4 SFRSYM    DATA     BIT       REN1
      000000B9H   SFRSYM    DATA     BYTE      IPL1
      000000C0H.4 SFRSYM    DATA     BIT       P4_4
      000000B0H.5 SFRSYM    DATA     BIT       P3_5
      000000A0H.6 SFRSYM    DATA     BIT       P2_6
      00000090H.7 SFRSYM    DATA     BIT       P1_7
      000000E2H   SFRSYM    DATA     BYTE      TK0H
      0000008EH   SFRSYM    DATA     BYTE      SUSLO
      000000C0H.5 SFRSYM    DATA     BIT       P4_5
      000000B0H.6 SFRSYM    DATA     BIT       P3_6
      000000A0H.7 SFRSYM    DATA     BIT       P2_7
      000000E4H   SFRSYM    DATA     BYTE      TK1H
      000000C0H.6 SFRSYM    DATA     BIT       P4_6
      000000B0H.7 SFRSYM    DATA     BIT       P3_7
      000000E6H   SFRSYM    DATA     BYTE      TK2H
      000000C0H.7 SFRSYM    DATA     BIT       P4_7
      00000098H   SFRSYM    DATA     BIT       RI
      000000A8H.2 SFRSYM    DATA     BIT       E7816
      000000D0H.7 SFRSYM    DATA     BIT       CY
      000000E1H   SFRSYM    DATA     BYTE      TK0L
      00000098H.1 SFRSYM    DATA     BIT       TI
      00000091H   SFRSYM    DATA     BYTE      EADR
LX51 LINKER/LOCATER V4.66.41.0                                                        11/18/2021  18:54:16  PAGE 112


      000000E3H   SFRSYM    DATA     BYTE      TK1L
      000000E5H   SFRSYM    DATA     BYTE      TK2L
      000000DBH   SFRSYM    DATA     BYTE      SADEN1
      000000D8H.7 SFRSYM    DATA     BIT       SM10_FE1
      000000FBH   SFRSYM    DATA     BYTE      SADEN2
      000000B8H.4 SFRSYM    DATA     BIT       PS0L
      000000B8H.1 SFRSYM    DATA     BIT       PT0L
      000000DAH   SFRSYM    DATA     BYTE      SADDR1
      000000D8H.5 SFRSYM    DATA     BIT       SM12_TXCOL1
      000000B8H.3 SFRSYM    DATA     BIT       PT1L
      000000FAH   SFRSYM    DATA     BYTE      SADDR2
      000000CBH   SFRSYM    DATA     BYTE      RCAP2H
      000000B8H.5 SFRSYM    DATA     BIT       PT2L
      00000081H   SFRSYM    DATA     BYTE      SP
      000000D0H.2 SFRSYM    DATA     BIT       OV
      000000CAH   SFRSYM    DATA     BYTE      RCAP2L
      000000B8H   SFRSYM    DATA     BIT       PX4L
      000000C8H.1 SFRSYM    DATA     BIT       C_T2
      000000DEH   SFRSYM    DATA     BYTE      SFINE2
      000000ADH   SFRSYM    DATA     BYTE      IRCON1
      000000AFH   SFRSYM    DATA     BYTE      IRCON2
      000000ABH   SFRSYM    DATA     BYTE      EXCON1
      00000099H   SFRSYM    DATA     BYTE      SBUF
      000000ACH   SFRSYM    DATA     BYTE      EXCON2
      00000087H   SFRSYM    DATA     BYTE      PCON
      000000F1H   SFRSYM    DATA     BYTE      AUXC
      00000098H   SFRSYM    DATA     BYTE      SCON
      000000D4H   SFRSYM    DATA     BYTE      TK0BASEH
      00000089H   SFRSYM    DATA     BYTE      TMOD
      00000088H   SFRSYM    DATA     BYTE      TCON
      000000AAH   SFRSYM    DATA     BYTE      IENX
      000000EEH   SFRSYM    DATA     BYTE      IB_OFFSET
      000000D6H   SFRSYM    DATA     BYTE      TK1BASEH
      000000DCH   SFRSYM    DATA     BYTE      SBRT1H
      000000DFH   SFRSYM    DATA     BYTE      TK2BASEH
      000000FCH   SFRSYM    DATA     BYTE      SBRT2H
      000000B1H   SFRSYM    DATA     BYTE      RSTSTAT
      000000D3H   SFRSYM    DATA     BYTE      TK0BASEL
      000000D5H   SFRSYM    DATA     BYTE      TK1BASEL
      000000DDH   SFRSYM    DATA     BYTE      SBRT1L
      000000D7H   SFRSYM    DATA     BYTE      TK2BASEL
      000000FDH   SFRSYM    DATA     BYTE      SBRT2L
      00000098H.7 SFRSYM    DATA     BIT       SM0_FE
      000000B2H   SFRSYM    DATA     BYTE      CLKCON
      00000098H.5 SFRSYM    DATA     BIT       SM2_TXCOL
      000000B5H   SFRSYM    DATA     BYTE      LDOCON
      000000F0H   SFRSYM    DATA     BYTE      B
      000000C8H   SFRSYM    DATA     BIT       CP_RL2
      000000E0H   SFRSYM    DATA     BYTE      ACC
      000000A8H.4 SFRSYM    DATA     BIT       ES0
      000000A8H.1 SFRSYM    DATA     BIT       ET0
      000000A8H.3 SFRSYM    DATA     BIT       ET1
      00000088H.5 SFRSYM    DATA     BIT       TF0
      000000A8H.5 SFRSYM    DATA     BIT       ET2
      00000088H.7 SFRSYM    DATA     BIT       TF1
      000000D8H   SFRSYM    DATA     BIT       RI1
      00000098H.2 SFRSYM    DATA     BIT       RB8
      000000C8H.7 SFRSYM    DATA     BIT       TF2
      0000008CH   SFRSYM    DATA     BYTE      TH0
      00000086H   SFRSYM    DATA     BYTE      INSCON
      0000008DH   SFRSYM    DATA     BYTE      TH1
      000000D8H.1 SFRSYM    DATA     BIT       TI1
      00000098H.3 SFRSYM    DATA     BIT       TB8
      000000CDH   SFRSYM    DATA     BYTE      TH2
      000000D0H   SFRSYM    DATA     BIT       P
LX51 LINKER/LOCATER V4.66.41.0                                                        11/18/2021  18:54:16  PAGE 113


      0000008AH   SFRSYM    DATA     BYTE      TL0
      000000A8H   SFRSYM    DATA     BIT       EX4
      0000008BH   SFRSYM    DATA     BYTE      TL1
      000000A7H   SFRSYM    DATA     BYTE      FLASHCON
      000000CCH   SFRSYM    DATA     BYTE      TL2
      000000D0H.3 SFRSYM    DATA     BIT       RS0
      000000C5H   SFRSYM    DATA     BYTE      ADCDH
      00000088H.4 SFRSYM    DATA     BIT       TR0
      000000D0H.4 SFRSYM    DATA     BIT       RS1
      0000009FH   SFRSYM    DATA     BYTE      PWMCON
      00000088H.6 SFRSYM    DATA     BIT       TR1
      000000C8H.2 SFRSYM    DATA     BIT       TR2
      000000C4H   SFRSYM    DATA     BYTE      ADCDL
      000000C2H   SFRSYM    DATA     BYTE      ADT
      00000083H   SFRSYM    DATA     BYTE      DPH
      00000082H   SFRSYM    DATA     BYTE      DPL
      000000D9H   SFRSYM    DATA     BYTE      SBUF1
      000000C8H.3 SFRSYM    DATA     BIT       EXEN2
      000000F9H   SFRSYM    DATA     BYTE      SBUF2
      000000D8H.6 SFRSYM    DATA     BIT       SM11_RXOV1
      000000B8H.6 SFRSYM    DATA     BIT       PADCL
      00000098H.4 SFRSYM    DATA     BIT       REN
      000000D8H   SFRSYM    DATA     BYTE      SCON1
      000000D1H   SFRSYM    DATA     BYTE      LCDCON1
      000000C1H   SFRSYM    DATA     BYTE      ADCON
      000000F8H   SFRSYM    DATA     BYTE      SCON2
      0000008FH   SFRSYM    DATA     BYTE      TCON1
      000000D2H   SFRSYM    DATA     BYTE      LCDCON2
      00000092H   SFRSYM    DATA     BYTE      EDTAH
      000000C9H   SFRSYM    DATA     BYTE      T2MOD
      000000C8H   SFRSYM    DATA     BYTE      T2CON
      00000094H   SFRSYM    DATA     BYTE      EDTAL
      00000093H   SFRSYM    DATA     BYTE      EDTAM
      000000BCH   SFRSYM    DATA     BYTE      TK0DIFH
      0000009BH   SFRSYM    DATA     BYTE      SADEN
      000000BEH   SFRSYM    DATA     BYTE      TK1DIFH
      000000B6H   SFRSYM    DATA     BYTE      PBANK
      000000A5H   SFRSYM    DATA     BYTE      TK2DIFH
      000000A8H.6 SFRSYM    DATA     BIT       EADTP
      0000009AH   SFRSYM    DATA     BYTE      SADDR
      000000CFH   SFRSYM    DATA     BYTE      TK0DIFL
      000000BDH   SFRSYM    DATA     BYTE      TK1DIFL
      000000BFH   SFRSYM    DATA     BYTE      TK2DIFL
      000000B8H.2 SFRSYM    DATA     BIT       P7816L
      000000C6H   SFRSYM    DATA     BYTE      LPDCON1
      000000C7H   SFRSYM    DATA     BYTE      LPDCON2
      000000D0H.5 SFRSYM    DATA     BIT       F0
      000000AEH   SFRSYM    DATA     BYTE      IRDAT
      000000D0H.1 SFRSYM    DATA     BIT       F1
      00000096H   SFRSYM    DATA     BYTE      EMUIE
      0000009EH   SFRSYM    DATA     BYTE      SFINE
      000000F7H   SFRSYM    DATA     BYTE      XPAGE
      00000097H   SFRSYM    DATA     BYTE      EMUIF
      000000D0H   SFRSYM    DATA     BYTE      PSW
      000000D8H.2 SFRSYM    DATA     BIT       RB81
      000000A3H   SFRSYM    DATA     BYTE      SPDAT
      000000F2H   SFRSYM    DATA     BYTE      IB_CON1
      0081815CH   SYMBOL    CODE/B1  ---       ApiPwOn_EMUInit
      00818276H   SYMBOL    CODE/B1  ---       ApiPwOn_McuInterruptInit
      008183C2H   SYMBOL    CODE/B1  ---       ApiPwOn_McuLPDInit
      0100004EH   SYMBOL    CONST    ---       _?ix1000
      01000055H   SYMBOL    CONST    ---       _?ix1001
      0081BCB7H   SYMBOL    CODE/B1  ---       ApiPwOn_RemainMoneyCheck
      0081A30AH   SYMBOL    CODE/B1  ---       ApiPwOn_McuGpioInit
      00818271H   SYMBOL    CODE/B1  ---       ApiPwOn_McuDispInit
LX51 LINKER/LOCATER V4.66.41.0                                                        11/18/2021  18:54:16  PAGE 114


      0081812AH   SYMBOL    CODE/B1  ---       ApiPwOn_McuUartInit
      00819FABH   SYMBOL    CODE/B1  ---       ApiPwOn_McuRamInit
      008180D6H   SYMBOL    CODE/B1  ---       _ApiPwOn_McuUartXSetBps

      0081813AH   BLOCK     CODE/B1  ---       LVL=0
      0081813AH   LINE      ---      ---       #119
      0081813AH   LINE      ---      ---       #120
      0081813AH   LINE      ---      ---       #122
      0081813DH   LINE      ---      ---       #124
      00818141H   LINE      ---      ---       #127
      00818143H   LINE      ---      ---       #131
      00818146H   LINE      ---      ---       #135
      00818149H   LINE      ---      ---       #138
      0081814CH   LINE      ---      ---       #141
      0081814EH   LINE      ---      ---       #144
      00818151H   LINE      ---      ---       #147
      00818153H   LINE      ---      ---       #150
      00818155H   LINE      ---      ---       #153
      00818157H   LINE      ---      ---       #155
      00818159H   LINE      ---      ---       #158
      0081815BH   LINE      ---      ---       #159
      ---         BLOCKEND  ---      ---       LVL=0

      008183F7H   BLOCK     CODE/B1  ---       LVL=0
      008183F7H   LINE      ---      ---       #172
      008183F7H   LINE      ---      ---       #173
      008183F7H   LINE      ---      ---       #174
      ---         BLOCKEND  ---      ---       LVL=0

      0081990FH   BLOCK     CODE/B1  ---       LVL=0
      0081990FH   LINE      ---      ---       #188
      0081990FH   LINE      ---      ---       #189
      0081990FH   BLOCK     CODE/B1  NEAR LAB  LVL=1
      0081990FH   LINE      ---      ---       #192
      00819914H   LINE      ---      ---       #193
      00819914H   LINE      ---      ---       #194
      00819917H   LINE      ---      ---       #195
      0081991AH   LINE      ---      ---       #196
      0081991AH   LINE      ---      ---       #198
      00819920H   LINE      ---      ---       #199
      00819920H   LINE      ---      ---       #200
      00819923H   LINE      ---      ---       #201
      00819926H   LINE      ---      ---       #203
      00819929H   LINE      ---      ---       #204
      00819929H   LINE      ---      ---       #205
      00819929H   LINE      ---      ---       #207
      0081992EH   LINE      ---      ---       #208
      0081992EH   LINE      ---      ---       #209
      00819931H   LINE      ---      ---       #210
      00819934H   LINE      ---      ---       #211
      00819934H   LINE      ---      ---       #213
      00819939H   LINE      ---      ---       #214
      00819939H   LINE      ---      ---       #215
      0081993CH   LINE      ---      ---       #216
      0081993FH   LINE      ---      ---       #217
      0081993FH   LINE      ---      ---       #219
      00819941H   LINE      ---      ---       #220
      00819941H   LINE      ---      ---       #221
      00819942H   LINE      ---      ---       #222
      00819947H   LINE      ---      ---       #224
      0081994CH   LINE      ---      ---       #225
      0081994CH   LINE      ---      ---       #226
      0081994FH   LINE      ---      ---       #227
      00819952H   LINE      ---      ---       #228
      00819952H   LINE      ---      ---       #230
LX51 LINKER/LOCATER V4.66.41.0                                                        11/18/2021  18:54:16  PAGE 115


      00819954H   LINE      ---      ---       #231
      00819954H   LINE      ---      ---       #232
      00819955H   LINE      ---      ---       #233
      0081995AH   LINE      ---      ---       #234
      00000007H   SYMBOL    DATA     BYTE      V_ucCnti
      ---         BLOCKEND  CODE/B1  ---       LVL=1
      ---         BLOCKEND  CODE/B1  ---       LVL=0

      008183C2H   BLOCK     CODE/B1  ---       LVL=0
      008183C2H   LINE      ---      ---       #253
      008183C2H   LINE      ---      ---       #254
      008183C2H   LINE      ---      ---       #257
      008183C5H   LINE      ---      ---       #259
      008183C8H   LINE      ---      ---       #260
      008183CBH   LINE      ---      ---       #262
      008183CEH   LINE      ---      ---       #263
      008183D0H   LINE      ---      ---       #274
      008183D3H   LINE      ---      ---       #275
      008183D6H   LINE      ---      ---       #277
      008183D9H   LINE      ---      ---       #278
      008183DCH   LINE      ---      ---       #281
      008183DFH   LINE      ---      ---       #282
      008183E1H   LINE      ---      ---       #285
      008183E7H   LINE      ---      ---       #286
      008183E7H   LINE      ---      ---       #287
      008183E9H   LINE      ---      ---       #288
      008183E9H   LINE      ---      ---       #290
      008183EEH   LINE      ---      ---       #291
      008183EEH   LINE      ---      ---       #292
      008183F1H   LINE      ---      ---       #293
      008183F1H   LINE      ---      ---       #296
      008183F4H   LINE      ---      ---       #298
      008183F6H   LINE      ---      ---       #299
      ---         BLOCKEND  ---      ---       LVL=0

      00819FABH   BLOCK     CODE/B1  ---       LVL=0
      00819FABH   LINE      ---      ---       #311
      00819FABH   LINE      ---      ---       #312
      00819FABH   LINE      ---      ---       #316
      00819FBFH   LINE      ---      ---       #317
      00819FD3H   LINE      ---      ---       #318
      00819FE7H   LINE      ---      ---       #319
      00819FFBH   LINE      ---      ---       #320
      0081A00FH   LINE      ---      ---       #321
      0081A023H   LINE      ---      ---       #322
      0081A037H   LINE      ---      ---       #323
      0081A04BH   LINE      ---      ---       #324
      0081A05FH   LINE      ---      ---       #327
      0081A065H   LINE      ---      ---       #329
      0081A068H   LINE      ---      ---       #330
      0081A06BH   LINE      ---      ---       #331
      0081A06DH   LINE      ---      ---       #332
      0081A070H   LINE      ---      ---       #333
      0081A073H   LINE      ---      ---       #334
      0081A076H   LINE      ---      ---       #338
      0081A078H   LINE      ---      ---       #341
      0081A07DH   LINE      ---      ---       #342
      0081A084H   LINE      ---      ---       #344
      0081A089H   LINE      ---      ---       #345
      0081A090H   LINE      ---      ---       #346
      0081A097H   LINE      ---      ---       #347
      0081A0B5H   LINE      ---      ---       #348
      0081A0BBH   LINE      ---      ---       #349
      0081A0C3H   LINE      ---      ---       #350
      0081A0C7H   LINE      ---      ---       #352
LX51 LINKER/LOCATER V4.66.41.0                                                        11/18/2021  18:54:16  PAGE 116


      0081A0D8H   LINE      ---      ---       #353
      0081A0D8H   LINE      ---      ---       #354
      0081A0DDH   LINE      ---      ---       #355
      0081A0DDH   LINE      ---      ---       #356
      0081A0E4H   LINE      ---      ---       #357
      0081A0E4H   LINE      ---      ---       #358
      0081A0EBH   LINE      ---      ---       #359
      0081A0EBH   LINE      ---      ---       #360
      ---         BLOCKEND  ---      ---       LVL=0

      0081A30AH   BLOCK     CODE/B1  ---       LVL=0
      0081A30AH   LINE      ---      ---       #600
      0081A30AH   LINE      ---      ---       #601
      0081A30AH   LINE      ---      ---       #604
      0081A311H   LINE      ---      ---       #605
      0081A315H   LINE      ---      ---       #606
      0081A319H   LINE      ---      ---       #610
      0081A31DH   LINE      ---      ---       #614
      0081A324H   LINE      ---      ---       #615
      0081A328H   LINE      ---      ---       #616
      0081A32CH   LINE      ---      ---       #617
      0081A330H   LINE      ---      ---       #619
      0081A333H   LINE      ---      ---       #620
      0081A336H   LINE      ---      ---       #621
      0081A339H   LINE      ---      ---       #622
      0081A33CH   LINE      ---      ---       #624
      0081A343H   LINE      ---      ---       #625
      0081A347H   LINE      ---      ---       #626
      0081A34BH   LINE      ---      ---       #628
      0081A34FH   LINE      ---      ---       #633
      0081A356H   LINE      ---      ---       #634
      0081A35AH   LINE      ---      ---       #635
      0081A35EH   LINE      ---      ---       #636
      0081A362H   LINE      ---      ---       #638
      0081A369H   LINE      ---      ---       #639
      0081A36DH   LINE      ---      ---       #640
      0081A371H   LINE      ---      ---       #641
      0081A375H   LINE      ---      ---       #643
      0081A37CH   LINE      ---      ---       #644
      0081A380H   LINE      ---      ---       #645
      0081A384H   LINE      ---      ---       #646
      0081A388H   LINE      ---      ---       #651
      0081A38FH   LINE      ---      ---       #652
      0081A393H   LINE      ---      ---       #653
      0081A397H   LINE      ---      ---       #655
      0081A39EH   LINE      ---      ---       #656
      0081A3A2H   LINE      ---      ---       #657
      0081A3A6H   LINE      ---      ---       #659
      0081A3A9H   LINE      ---      ---       #660
      0081A3ACH   LINE      ---      ---       #661
      0081A3AFH   LINE      ---      ---       #665
      0081A3B6H   LINE      ---      ---       #666
      0081A3BAH   LINE      ---      ---       #667
      0081A3BEH   LINE      ---      ---       #669
      0081A3C5H   LINE      ---      ---       #670
      0081A3C9H   LINE      ---      ---       #671
      0081A3CDH   LINE      ---      ---       #673
      0081A3D0H   LINE      ---      ---       #674
      0081A3D3H   LINE      ---      ---       #675
      0081A3D6H   LINE      ---      ---       #677
      0081A3DDH   LINE      ---      ---       #678
      0081A3E1H   LINE      ---      ---       #679
      0081A3E5H   LINE      ---      ---       #681
      0081A3ECH   LINE      ---      ---       #682
      0081A3F0H   LINE      ---      ---       #683
LX51 LINKER/LOCATER V4.66.41.0                                                        11/18/2021  18:54:16  PAGE 117


      0081A3F4H   LINE      ---      ---       #685
      0081A3FBH   LINE      ---      ---       #686
      0081A3FFH   LINE      ---      ---       #687
      0081A403H   LINE      ---      ---       #689
      0081A40AH   LINE      ---      ---       #690
      0081A40EH   LINE      ---      ---       #691
      0081A412H   LINE      ---      ---       #694
      0081A419H   LINE      ---      ---       #695
      0081A41DH   LINE      ---      ---       #696
      0081A421H   LINE      ---      ---       #697
      0081A425H   LINE      ---      ---       #698
      0081A429H   LINE      ---      ---       #700
      0081A430H   LINE      ---      ---       #701
      0081A434H   LINE      ---      ---       #702
      0081A438H   LINE      ---      ---       #703
      0081A43CH   LINE      ---      ---       #704
      0081A440H   LINE      ---      ---       #706
      0081A443H   LINE      ---      ---       #707
      0081A446H   LINE      ---      ---       #708
      0081A449H   LINE      ---      ---       #709
      0081A44CH   LINE      ---      ---       #710
      0081A44FH   LINE      ---      ---       #712
      0081A456H   LINE      ---      ---       #713
      0081A45AH   LINE      ---      ---       #714
      0081A45EH   LINE      ---      ---       #715
      0081A462H   LINE      ---      ---       #716
      0081A466H   LINE      ---      ---       #719
      0081A46DH   LINE      ---      ---       #720
      0081A471H   LINE      ---      ---       #721
      0081A475H   LINE      ---      ---       #722
      0081A479H   LINE      ---      ---       #724
      0081A480H   LINE      ---      ---       #725
      0081A484H   LINE      ---      ---       #726
      0081A488H   LINE      ---      ---       #727
      0081A48CH   LINE      ---      ---       #729
      0081A48FH   LINE      ---      ---       #730
      0081A492H   LINE      ---      ---       #731
      0081A495H   LINE      ---      ---       #732
      0081A498H   LINE      ---      ---       #735
      0081A49FH   LINE      ---      ---       #736
      0081A4A3H   LINE      ---      ---       #737
      0081A4A7H   LINE      ---      ---       #738
      0081A4ABH   LINE      ---      ---       #739
      0081A4AFH   LINE      ---      ---       #740
      0081A4B3H   LINE      ---      ---       #741
      0081A4B7H   LINE      ---      ---       #742
      0081A4BBH   LINE      ---      ---       #744
      0081A4C2H   LINE      ---      ---       #745
      0081A4C6H   LINE      ---      ---       #746
      0081A4CAH   LINE      ---      ---       #747
      0081A4CEH   LINE      ---      ---       #748
      0081A4D2H   LINE      ---      ---       #749
      0081A4D6H   LINE      ---      ---       #750
      0081A4DAH   LINE      ---      ---       #751
      0081A4DEH   LINE      ---      ---       #753
      0081A4E1H   LINE      ---      ---       #754
      0081A4E4H   LINE      ---      ---       #755
      0081A4E7H   LINE      ---      ---       #756
      0081A4EAH   LINE      ---      ---       #757
      0081A4EDH   LINE      ---      ---       #758
      0081A4F0H   LINE      ---      ---       #759
      0081A4F3H   LINE      ---      ---       #760
      0081A4F6H   LINE      ---      ---       #763
      0081A4FDH   LINE      ---      ---       #764
      0081A501H   LINE      ---      ---       #765
LX51 LINKER/LOCATER V4.66.41.0                                                        11/18/2021  18:54:16  PAGE 118


      0081A505H   LINE      ---      ---       #766
      0081A509H   LINE      ---      ---       #767
      0081A50DH   LINE      ---      ---       #768
      0081A511H   LINE      ---      ---       #769
      0081A515H   LINE      ---      ---       #771
      0081A51CH   LINE      ---      ---       #772
      0081A520H   LINE      ---      ---       #773
      0081A524H   LINE      ---      ---       #774
      0081A528H   LINE      ---      ---       #775
      0081A52CH   LINE      ---      ---       #776
      0081A530H   LINE      ---      ---       #777
      0081A534H   LINE      ---      ---       #779
      0081A537H   LINE      ---      ---       #780
      0081A53AH   LINE      ---      ---       #781
      0081A53DH   LINE      ---      ---       #782
      0081A540H   LINE      ---      ---       #783
      0081A543H   LINE      ---      ---       #784
      0081A546H   LINE      ---      ---       #785
      0081A549H   LINE      ---      ---       #788
      0081A550H   LINE      ---      ---       #789
      0081A554H   LINE      ---      ---       #790
      0081A558H   LINE      ---      ---       #792
      0081A55FH   LINE      ---      ---       #793
      0081A563H   LINE      ---      ---       #794
      0081A567H   LINE      ---      ---       #796
      0081A56AH   LINE      ---      ---       #797
      0081A56DH   LINE      ---      ---       #798
      0081A570H   LINE      ---      ---       #801
      0081A577H   LINE      ---      ---       #802
      0081A57BH   LINE      ---      ---       #804
      0081A582H   LINE      ---      ---       #805
      0081A586H   LINE      ---      ---       #807
      0081A589H   LINE      ---      ---       #808
      0081A58CH   LINE      ---      ---       #811
      0081A593H   LINE      ---      ---       #812
      0081A597H   LINE      ---      ---       #813
      0081A59BH   LINE      ---      ---       #814
      0081A59FH   LINE      ---      ---       #815
      0081A5A3H   LINE      ---      ---       #816
      0081A5A7H   LINE      ---      ---       #817
      0081A5ABH   LINE      ---      ---       #818
      0081A5AFH   LINE      ---      ---       #820
      0081A5B6H   LINE      ---      ---       #821
      0081A5BAH   LINE      ---      ---       #822
      0081A5BEH   LINE      ---      ---       #823
      0081A5C2H   LINE      ---      ---       #824
      0081A5C6H   LINE      ---      ---       #825
      0081A5CAH   LINE      ---      ---       #826
      0081A5CEH   LINE      ---      ---       #827
      0081A5D2H   LINE      ---      ---       #829
      0081A5D5H   LINE      ---      ---       #830
      0081A5D8H   LINE      ---      ---       #831
      0081A5DBH   LINE      ---      ---       #832
      0081A5DEH   LINE      ---      ---       #833
      0081A5E1H   LINE      ---      ---       #834
      0081A5E4H   LINE      ---      ---       #835
      0081A5E7H   LINE      ---      ---       #836
      0081A5EAH   LINE      ---      ---       #838
      0081A5EDH   LINE      ---      ---       #840
      ---         BLOCKEND  ---      ---       LVL=0

      00818271H   BLOCK     CODE/B1  ---       LVL=0
      00818271H   LINE      ---      ---       #852
      00818271H   LINE      ---      ---       #853
      00818271H   LINE      ---      ---       #854
LX51 LINKER/LOCATER V4.66.41.0                                                        11/18/2021  18:54:16  PAGE 119


      ---         BLOCKEND  ---      ---       LVL=0

      0081B330H   BLOCK     CODE/B1  ---       LVL=0
      0081B330H   LINE      ---      ---       #867
      0081B330H   LINE      ---      ---       #868
      0081B330H   BLOCK     CODE/B1  NEAR LAB  LVL=1
      0081B330H   LINE      ---      ---       #869
      0081B332H   LINE      ---      ---       #872
      0081B335H   LINE      ---      ---       #875
      0081B335H   LINE      ---      ---       #876
      0081B33DH   LINE      ---      ---       #877
      0081B33DH   LINE      ---      ---       #878
      0081B340H   LINE      ---      ---       #879
      0081B343H   LINE      ---      ---       #880
      0081B344H   LINE      ---      ---       #881
      0081B344H   LINE      ---      ---       #883
      0081B34AH   LINE      ---      ---       #884
      0081B34AH   LINE      ---      ---       #885
      0081B34DH   LINE      ---      ---       #886
      0081B34FH   LINE      ---      ---       #887
      0081B34FH   LINE      ---      ---       #889
      0081B354H   LINE      ---      ---       #890
      0081B354H   LINE      ---      ---       #891
      0081B357H   LINE      ---      ---       #892
      0081B359H   LINE      ---      ---       #893
      0081B359H   LINE      ---      ---       #895
      0081B35CH   LINE      ---      ---       #897
      0081B35CH   LINE      ---      ---       #899
      0081B360H   LINE      ---      ---       #900
      0081B360H   LINE      ---      ---       #901
      0081B363H   LINE      ---      ---       #902
      0081B366H   LINE      ---      ---       #903
      0081B366H   LINE      ---      ---       #905
      0081B36EH   LINE      ---      ---       #907
      00000007H   SYMBOL    DATA     BYTE      V_ucResult
      ---         BLOCKEND  CODE/B1  ---       LVL=1
      ---         BLOCKEND  CODE/B1  ---       LVL=0

      00818276H   BLOCK     CODE/B1  ---       LVL=0
      00818276H   LINE      ---      ---       #918
      00818276H   LINE      ---      ---       #919
      00818276H   LINE      ---      ---       #922
      00818276H   LINE      ---      ---       #923
      0081827BH   LINE      ---      ---       #924
      0081827BH   LINE      ---      ---       #925
      0081827EH   LINE      ---      ---       #926
      0081827EH   LINE      ---      ---       #927
      00818281H   LINE      ---      ---       #928
      00818284H   LINE      ---      ---       #929
      00818287H   LINE      ---      ---       #931
      00818287H   LINE      ---      ---       #934
      ---         BLOCKEND  ---      ---       LVL=0

      0081812AH   BLOCK     CODE/B1  ---       LVL=0
      0081812AH   LINE      ---      ---       #945
      0081812AH   LINE      ---      ---       #946
      0081812AH   LINE      ---      ---       #947
      0081812EH   LINE      ---      ---       #948
      00818132H   LINE      ---      ---       #949
      00818136H   LINE      ---      ---       #950
      ---         BLOCKEND  ---      ---       LVL=0

      00818043H   BLOCK     CODE/B1  ---       LVL=0
      00818043H   LINE      ---      ---       #965
      00818043H   LINE      ---      ---       #966
LX51 LINKER/LOCATER V4.66.41.0                                                        11/18/2021  18:54:16  PAGE 120


      00000007H   SYMBOL    DATA     BYTE      v_ucChID
      00818043H   BLOCK     CODE/B1  NEAR LAB  LVL=1
      00818043H   LINE      ---      ---       #969
      0081804CH   LINE      ---      ---       #970
      0081804CH   LINE      ---      ---       #971
      0081804CH   LINE      ---      ---       #972
      0081804CH   LINE      ---      ---       #974
      0081804CH   LINE      ---      ---       #976
      00818053H   LINE      ---      ---       #977
      0081805CH   LINE      ---      ---       #978
      00818064H   LINE      ---      ---       #979
      00818064H   LINE      ---      ---       #980
      00818067H   LINE      ---      ---       #981
      00818067H   LINE      ---      ---       #984
      00818075H   LINE      ---      ---       #985
      0081807FH   LINE      ---      ---       #988
      00818083H   LINE      ---      ---       #991
      00818088H   LINE      ---      ---       #992
      0081808EH   LINE      ---      ---       #993
      00818091H   LINE      ---      ---       #994
      00818094H   LINE      ---      ---       #995
      00818097H   LINE      ---      ---       #996
      00818097H   LINE      ---      ---       #998
      00818098H   LINE      ---      ---       #1000
      00818098H   LINE      ---      ---       #1001
      00818098H   LINE      ---      ---       #1003
      00818098H   LINE      ---      ---       #1005
      0081809FH   LINE      ---      ---       #1006
      008180A2H   LINE      ---      ---       #1007
      008180A5H   LINE      ---      ---       #1010
      008180B3H   LINE      ---      ---       #1011
      008180BDH   LINE      ---      ---       #1014
      008180C1H   LINE      ---      ---       #1017
      008180C6H   LINE      ---      ---       #1018
      008180CCH   LINE      ---      ---       #1019
      008180CFH   LINE      ---      ---       #1020
      008180D2H   LINE      ---      ---       #1021
      008180D5H   LINE      ---      ---       #1022
      008180D5H   LINE      ---      ---       #1024
      008180D5H   LINE      ---      ---       #1026
      008180D5H   LINE      ---      ---       #1027
      008180D5H   LINE      ---      ---       #1029
      008180D5H   LINE      ---      ---       #1032
      008180D5H   LINE      ---      ---       #1033
      008180D5H   LINE      ---      ---       #1035
      008180D5H   LINE      ---      ---       #1038
      008180D5H   LINE      ---      ---       #1039
      008180D5H   LINE      ---      ---       #1041
      02000615H   SYMBOL    XDATA    BYTE      V_ucTemp
      ---         BLOCKEND  CODE/B1  ---       LVL=1
      ---         BLOCKEND  CODE/B1  ---       LVL=0

      00818000H   BLOCK     CODE/B1  ---       LVL=0
      00818000H   LINE      ---      ---       #1054
      00818000H   LINE      ---      ---       #1055
      00000007H   SYMBOL    DATA     BYTE      v_ucChID
      00818000H   BLOCK     CODE/B1  NEAR LAB  LVL=1
      00818000H   LINE      ---      ---       #1058
      00818007H   LINE      ---      ---       #1059
      00818007H   LINE      ---      ---       #1060
      00818007H   LINE      ---      ---       #1061
      00818007H   LINE      ---      ---       #1062
      0081800EH   LINE      ---      ---       #1063
      00818011H   LINE      ---      ---       #1065
      00818014H   LINE      ---      ---       #1068
LX51 LINKER/LOCATER V4.66.41.0                                                        11/18/2021  18:54:16  PAGE 121


      00818018H   LINE      ---      ---       #1071
      0081801EH   LINE      ---      ---       #1072
      00818021H   LINE      ---      ---       #1073
      00818024H   LINE      ---      ---       #1075
      00818025H   LINE      ---      ---       #1077
      00818025H   LINE      ---      ---       #1078
      00818025H   LINE      ---      ---       #1079
      0081802CH   LINE      ---      ---       #1080
      0081802FH   LINE      ---      ---       #1082
      00818032H   LINE      ---      ---       #1085
      00818036H   LINE      ---      ---       #1088
      0081803CH   LINE      ---      ---       #1089
      0081803FH   LINE      ---      ---       #1090
      00818042H   LINE      ---      ---       #1092
      00818042H   LINE      ---      ---       #1094
      00818042H   LINE      ---      ---       #1095
      00818042H   LINE      ---      ---       #1097
      00818042H   LINE      ---      ---       #1100
      00818042H   LINE      ---      ---       #1101
      00818042H   LINE      ---      ---       #1103
      00818042H   LINE      ---      ---       #1106
      00818042H   LINE      ---      ---       #1107
      00818042H   LINE      ---      ---       #1108
      0200077DH   SYMBOL    XDATA    BYTE      V_ucTemp
      ---         BLOCKEND  CODE/B1  ---       LVL=1
      ---         BLOCKEND  CODE/B1  ---       LVL=0

      008180D6H   BLOCK     CODE/B1  ---       LVL=0
      008180D6H   LINE      ---      ---       #1109
      008180D6H   LINE      ---      ---       #1110
      008180D6H   LINE      ---      ---       #1114
      008180DDH   LINE      ---      ---       #1115
      008180DDH   LINE      ---      ---       #1116
      008180DDH   LINE      ---      ---       #1117
      008180DDH   LINE      ---      ---       #1119
      008180E6H   LINE      ---      ---       #1120
      008180EFH   LINE      ---      ---       #1122
      008180F7H   LINE      ---      ---       #1123
      008180F7H   LINE      ---      ---       #1124
      008180FAH   LINE      ---      ---       #1125
      008180FDH   LINE      ---      ---       #1126
      008180FDH   LINE      ---      ---       #1128
      00818105H   LINE      ---      ---       #1130
      00818106H   LINE      ---      ---       #1132
      00818106H   LINE      ---      ---       #1133
      00818106H   LINE      ---      ---       #1147
      0081810FH   LINE      ---      ---       #1148
      00818118H   LINE      ---      ---       #1150
      0081811EH   LINE      ---      ---       #1151
      0081811EH   LINE      ---      ---       #1152
      00818121H   LINE      ---      ---       #1153
      00818121H   LINE      ---      ---       #1155
      00818129H   LINE      ---      ---       #1157
      00818129H   LINE      ---      ---       #1159
      00818129H   LINE      ---      ---       #1160
      00818129H   LINE      ---      ---       #1162
      00818129H   LINE      ---      ---       #1165
      00818129H   LINE      ---      ---       #1166
      00818129H   LINE      ---      ---       #1168
      00818129H   LINE      ---      ---       #1171
      00818129H   LINE      ---      ---       #1172
      00818129H   LINE      ---      ---       #1173
      00000007H   SYMBOL    DATA     BYTE      v_ucChID
      ---         BLOCKEND  ---      ---       LVL=0

LX51 LINKER/LOCATER V4.66.41.0                                                        11/18/2021  18:54:16  PAGE 122


      0081815CH   BLOCK     CODE/B1  ---       LVL=0
      ---         BLOCKEND  ---      ---       LVL=0

      008196D8H   BLOCK     CODE/B1  ---       LVL=0
      008196D8H   LINE      ---      ---       #1202
      008196D8H   LINE      ---      ---       #1203
      008196D8H   BLOCK     CODE/B1  NEAR LAB  LVL=1
      008196D8H   LINE      ---      ---       #1204
      008196EBH   LINE      ---      ---       #1208
      008196EEH   LINE      ---      ---       #1213
      008196FFH   LINE      ---      ---       #1214
      008196FFH   LINE      ---      ---       #1215
      00819713H   LINE      ---      ---       #1216
      00819719H   LINE      ---      ---       #1217
      0081971DH   LINE      ---      ---       #1218
      00819721H   LINE      ---      ---       #1219
      00819725H   LINE      ---      ---       #1220
      00819729H   LINE      ---      ---       #1221
      0081972DH   LINE      ---      ---       #1223
      0081973BH   LINE      ---      ---       #1225
      0081973BH   LINE      ---      ---       #1229
      0081973EH   LINE      ---      ---       #1230
      00819743H   LINE      ---      ---       #1231
      0081974CH   LINE      ---      ---       #1234
      00819761H   LINE      ---      ---       #1235
      0081976FH   LINE      ---      ---       #1238
      00819783H   LINE      ---      ---       #1239
      00819789H   LINE      ---      ---       #1243
      0081978DH   LINE      ---      ---       #1245
      0081979BH   LINE      ---      ---       #1250
      0081979BH   LINE      ---      ---       #1251
      008197A1H   LINE      ---      ---       #1252
      008197A3H   LINE      ---      ---       #1253
      008197A7H   LINE      ---      ---       #1254
      008197A9H   LINE      ---      ---       #1256
      008197B7H   LINE      ---      ---       #1257
      008197B7H   LINE      ---      ---       #1258
      008197CBH   LINE      ---      ---       #1259
      008197E6H   LINE      ---      ---       #1260
      00819801H   LINE      ---      ---       #1261
      0081980FH   LINE      ---      ---       #1264
      0081980FH   LINE      ---      ---       #1265
      00819823H   LINE      ---      ---       #1266
      00819829H   LINE      ---      ---       #1267
      00819837H   LINE      ---      ---       #1268
      00819837H   LINE      ---      ---       #1273
      00819837H   LINE      ---      ---       #1274
      0081984BH   LINE      ---      ---       #1275
      00819851H   LINE      ---      ---       #1276
      00819857H   LINE      ---      ---       #1277
      0081985BH   LINE      ---      ---       #1279
      00819869H   LINE      ---      ---       #1280
      00819869H   LINE      ---      ---       #1282
      0081987DH   LINE      ---      ---       #1283
      0081988BH   LINE      ---      ---       #1284
      0081989FH   LINE      ---      ---       #1285
      008198A2H   LINE      ---      ---       #1286
      008198B6H   LINE      ---      ---       #1290
      008198BBH   LINE      ---      ---       #1291
      008198C8H   LINE      ---      ---       #1292
      008198CDH   LINE      ---      ---       #1293
      008198D1H   LINE      ---      ---       #1296
      008198E4H   LINE      ---      ---       #1297
      008198F2H   LINE      ---      ---       #1300
      008198FBH   LINE      ---      ---       #1301
LX51 LINKER/LOCATER V4.66.41.0                                                        11/18/2021  18:54:16  PAGE 123


      00819909H   LINE      ---      ---       #1303
      0081990CH   LINE      ---      ---       #1304
      02000639H   SYMBOL    XDATA    ---       V_TempData
      02000640H   SYMBOL    XDATA    ---       V_ucTemp
      ---         BLOCKEND  CODE/B1  ---       LVL=1
      ---         BLOCKEND  CODE/B1  ---       LVL=0

      00818835H   BLOCK     CODE/B1  ---       LVL=0
      00818835H   LINE      ---      ---       #1317
      00818835H   LINE      ---      ---       #1318
      00818835H   BLOCK     CODE/B1  NEAR LAB  LVL=1
      00818835H   LINE      ---      ---       #1322
      00818849H   LINE      ---      ---       #1323
      00818856H   LINE      ---      ---       #1326
      0081886AH   LINE      ---      ---       #1327
      0081887EH   LINE      ---      ---       #1328
      00818892H   LINE      ---      ---       #1329
      008188A1H   LINE      ---      ---       #1330
      008188A1H   LINE      ---      ---       #1331
      008188AEH   LINE      ---      ---       #1332
      008188C0H   LINE      ---      ---       #1333
      008188C8H   LINE      ---      ---       #1336
      008188D0H   LINE      ---      ---       #1337
      008188D3H   LINE      ---      ---       #1338
      008188DBH   LINE      ---      ---       #1339
      008188DEH   LINE      ---      ---       #1340
      008188ECH   LINE      ---      ---       #1345
      00818900H   LINE      ---      ---       #1346
      00818909H   LINE      ---      ---       #1347
      00818912H   LINE      ---      ---       #1348
      00818923H   LINE      ---      ---       #1349
      00818931H   LINE      ---      ---       #1350
      0081893FH   LINE      ---      ---       #1352
      0081894EH   LINE      ---      ---       #1353
      0081894EH   LINE      ---      ---       #1354
      00818964H   LINE      ---      ---       #1355
      0081896CH   LINE      ---      ---       #1358
      00818973H   LINE      ---      ---       #1359
      00818973H   LINE      ---      ---       #1360
      0081897CH   LINE      ---      ---       #1361
      00818981H   LINE      ---      ---       #1362
      00818985H   LINE      ---      ---       #1363
      00818985H   LINE      ---      ---       #1364
      0081898EH   LINE      ---      ---       #1365
      00818997H   LINE      ---      ---       #1366
      008189A0H   LINE      ---      ---       #1367
      008189A9H   LINE      ---      ---       #1368
      008189B2H   LINE      ---      ---       #1369
      008189C7H   LINE      ---      ---       #1370
      008189D5H   LINE      ---      ---       #1372
      008189E9H   LINE      ---      ---       #1373
      008189FEH   LINE      ---      ---       #1375
      00818A12H   LINE      ---      ---       #1376
      00818A25H   LINE      ---      ---       #1379
      00818A33H   LINE      ---      ---       #1381
      00818A38H   LINE      ---      ---       #1382
      00818A45H   LINE      ---      ---       #1383
      00818A4AH   LINE      ---      ---       #1384
      00818A51H   LINE      ---      ---       #1385
      02000786H   SYMBOL    XDATA    BYTE      V_ucCnt_i
      02000787H   SYMBOL    XDATA    ---       V_ucTempBuff
      ---         BLOCKEND  CODE/B1  ---       LVL=1
      ---         BLOCKEND  CODE/B1  ---       LVL=0

      0081B36FH   BLOCK     CODE/B1  ---       LVL=0
LX51 LINKER/LOCATER V4.66.41.0                                                        11/18/2021  18:54:16  PAGE 124


      0081B36FH   LINE      ---      ---       #1397
      0081B36FH   LINE      ---      ---       #1398
      0081B36FH   LINE      ---      ---       #1400
      0081B38CH   LINE      ---      ---       #1401
      0081B38CH   LINE      ---      ---       #1402
      0081B39DH   LINE      ---      ---       #1403
      0081B39DH   LINE      ---      ---       #1404
      0081B3B1H   LINE      ---      ---       #1405
      0081B3B7H   LINE      ---      ---       #1406
      0081B3BBH   LINE      ---      ---       #1407
      0081B3BFH   LINE      ---      ---       #1408
      0081B3C3H   LINE      ---      ---       #1409
      0081B3C7H   LINE      ---      ---       #1410
      0081B3CBH   LINE      ---      ---       #1412
      0081B3CBH   LINE      ---      ---       #1413
      0081B3CBH   LINE      ---      ---       #1426
      0081B3DCH   LINE      ---      ---       #1427
      0081B3DCH   LINE      ---      ---       #1428
      0081B3F6H   LINE      ---      ---       #1429
      0081B3F6H   LINE      ---      ---       #1430
      0081B3F6H   LINE      ---      ---       #1431
      0081B3F6H   LINE      ---      ---       #1432
      0081B3F8H   LINE      ---      ---       #1434
      0081B3F8H   LINE      ---      ---       #1435
      0081B402H   LINE      ---      ---       #1436
      0081B402H   LINE      ---      ---       #1438
      0081B419H   LINE      ---      ---       #1439
      0081B419H   LINE      ---      ---       #1440
      0081B41DH   LINE      ---      ---       #1441
      0081B41EH   LINE      ---      ---       #1443
      0081B41EH   LINE      ---      ---       #1444
      0081B422H   LINE      ---      ---       #1445
      0081B422H   LINE      ---      ---       #1446
      ---         BLOCKEND  ---      ---       LVL=0

      0081B423H   BLOCK     CODE/B1  ---       LVL=0
      0081B423H   LINE      ---      ---       #1459
      0081B423H   LINE      ---      ---       #1460
      0081B423H   BLOCK     CODE/B1  NEAR LAB  LVL=1
      0081B423H   LINE      ---      ---       #1461
      0081B436H   LINE      ---      ---       #1462
      0081B453H   LINE      ---      ---       #1464
      0081B453H   LINE      ---      ---       #1465
      0081B464H   LINE      ---      ---       #1466
      0081B464H   LINE      ---      ---       #1467
      0081B46AH   LINE      ---      ---       #1468
      0081B46CH   LINE      ---      ---       #1469
      0081B470H   LINE      ---      ---       #1470
      0081B472H   LINE      ---      ---       #1472
      0081B472H   LINE      ---      ---       #1473
      0081B472H   LINE      ---      ---       #1474
      0081B48FH   LINE      ---      ---       #1476
      0081B48FH   LINE      ---      ---       #1477
      0081B4A0H   LINE      ---      ---       #1478
      0081B4A0H   LINE      ---      ---       #1479
      0081B4BBH   LINE      ---      ---       #1480
      0081B4D6H   LINE      ---      ---       #1481
      0081B4D6H   LINE      ---      ---       #1482
      0081B4D6H   LINE      ---      ---       #1483
      0081B4E6H   LINE      ---      ---       #1484
      0081B4E6H   LINE      ---      ---       #1485
      0081B4ECH   LINE      ---      ---       #1486
      0081B4ECH   LINE      ---      ---       #1487
      0081B4FCH   LINE      ---      ---       #1488
      0081B4FCH   LINE      ---      ---       #1489
LX51 LINKER/LOCATER V4.66.41.0                                                        11/18/2021  18:54:16  PAGE 125


      0081B502H   LINE      ---      ---       #1490
      0081B502H   LINE      ---      ---       #1491
      0081B50BH   LINE      ---      ---       #1492
      0081B50BH   LINE      ---      ---       #1493
      0081B50EH   LINE      ---      ---       #1494
      0081B50EH   LINE      ---      ---       #1495
      0081B517H   LINE      ---      ---       #1496
      0081B517H   LINE      ---      ---       #1497
      0081B51AH   LINE      ---      ---       #1498
      0081B51AH   LINE      ---      ---       #1499
      0200060FH   SYMBOL    XDATA    ---       V_TempData
      ---         BLOCKEND  CODE/B1  ---       LVL=1
      ---         BLOCKEND  CODE/B1  ---       LVL=0

      0081B51BH   BLOCK     CODE/B1  ---       LVL=0
      0081B51BH   LINE      ---      ---       #1510
      0081B51BH   LINE      ---      ---       #1511
      0081B51BH   LINE      ---      ---       #1513
      0081B538H   LINE      ---      ---       #1515
      0081B538H   LINE      ---      ---       #1516
      0081B549H   LINE      ---      ---       #1517
      0081B549H   LINE      ---      ---       #1518
      0081B55DH   LINE      ---      ---       #1519
      0081B563H   LINE      ---      ---       #1520
      0081B569H   LINE      ---      ---       #1522
      0081B569H   LINE      ---      ---       #1523
      0081B569H   LINE      ---      ---       #1524
      0081B586H   LINE      ---      ---       #1525
      0081B586H   LINE      ---      ---       #1526
      0081B597H   LINE      ---      ---       #1527
      0081B597H   LINE      ---      ---       #1528
      0081B5ABH   LINE      ---      ---       #1529
      0081B5B1H   LINE      ---      ---       #1531
      0081B5B1H   LINE      ---      ---       #1532
      0081B5B1H   LINE      ---      ---       #1534
      ---         BLOCKEND  ---      ---       LVL=0

      0081B6C4H   BLOCK     CODE/B1  ---       LVL=0
      0081B6C4H   LINE      ---      ---       #1547
      0081B6D7H   LINE      ---      ---       #1548
      0200061FH   SYMBOL    XDATA    ---       p_strEnergyPulse
      02000622H   SYMBOL    XDATA    WORD      v_usAddrIndex
      0081B6D7H   BLOCK     CODE/B1  NEAR LAB  LVL=1
      0081B6D7H   LINE      ---      ---       #1552
      0081B6DEH   LINE      ---      ---       #1553
      0081B6E5H   LINE      ---      ---       #1554
      0081B6ECH   LINE      ---      ---       #1556
      0081B700H   LINE      ---      ---       #1557
      0081B72DH   LINE      ---      ---       #1559
      0081B72FH   LINE      ---      ---       #1560
      0081B72FH   LINE      ---      ---       #1561
      0081B73DH   LINE      ---      ---       #1562
      0081B73DH   LINE      ---      ---       #1563
      0081B750H   LINE      ---      ---       #1564
      0081B758H   LINE      ---      ---       #1565
      0081B758H   LINE      ---      ---       #1567
      0081B758H   LINE      ---      ---       #1568
      0081B758H   LINE      ---      ---       #1569
      0081B758H   LINE      ---      ---       #1570
      0081B75DH   LINE      ---      ---       #1571
      0081B769H   LINE      ---      ---       #1572
      0081B77BH   LINE      ---      ---       #1573
      0081B77DH   LINE      ---      ---       #1574
      0081B77DH   LINE      ---      ---       #1575
      0081B781H   LINE      ---      ---       #1576
LX51 LINKER/LOCATER V4.66.41.0                                                        11/18/2021  18:54:16  PAGE 126


      0081B781H   LINE      ---      ---       #1577
      0081B794H   LINE      ---      ---       #1578
      0081B798H   LINE      ---      ---       #1579
      0081B798H   LINE      ---      ---       #1581
      0081B798H   LINE      ---      ---       #1582
      0081B798H   LINE      ---      ---       #1583
      0081B798H   LINE      ---      ---       #1584
      0081B79DH   LINE      ---      ---       #1586
      02000624H   SYMBOL    XDATA    ---       V_TempData
      00000007H   SYMBOL    DATA     BYTE      i
      00000006H   SYMBOL    DATA     BYTE      j
      ---         BLOCKEND  CODE/B1  ---       LVL=1
      ---         BLOCKEND  CODE/B1  ---       LVL=0

      0081B79EH   BLOCK     CODE/B1  ---       LVL=0
      0081B79EH   LINE      ---      ---       #1594
      0081B79EH   LINE      ---      ---       #1595
      0081B79EH   BLOCK     CODE/B1  NEAR LAB  LVL=1
      0081B79EH   LINE      ---      ---       #1596
      0081B7A3H   LINE      ---      ---       #1598
      0081B7C0H   LINE      ---      ---       #1599
      0081B7C0H   LINE      ---      ---       #1600
      0081B7D2H   LINE      ---      ---       #1601
      0081B7D2H   LINE      ---      ---       #1603
      0081B7D7H   LINE      ---      ---       #1604
      02000614H   SYMBOL    XDATA    BYTE      V_ucResultChk
      ---         BLOCKEND  CODE/B1  ---       LVL=1
      ---         BLOCKEND  CODE/B1  ---       LVL=0

      0081B7D8H   BLOCK     CODE/B1  ---       LVL=0
      0081B7D8H   LINE      ---      ---       #1612
      0081B7D8H   LINE      ---      ---       #1613
      0081B7D8H   BLOCK     CODE/B1  NEAR LAB  LVL=1
      0081B7D8H   LINE      ---      ---       #1618
      0081B7DDH   LINE      ---      ---       #1619
      0081B7DDH   LINE      ---      ---       #1621
      0081B7E8H   LINE      ---      ---       #1622
      0081B7F5H   LINE      ---      ---       #1625
      0081B802H   LINE      ---      ---       #1626
      0081B80FH   LINE      ---      ---       #1628
      0081B824H   LINE      ---      ---       #1629
      0081B824H   LINE      ---      ---       #1632
      0081B835H   LINE      ---      ---       #1633
      0081B835H   LINE      ---      ---       #1634
      0081B840H   LINE      ---      ---       #1635
      0081B840H   LINE      ---      ---       #1636
      0081B84AH   LINE      ---      ---       #1637
      0081B84AH   LINE      ---      ---       #1638
      0081B855H   LINE      ---      ---       #1639
      0081B855H   LINE      ---      ---       #1640
      0081B85FH   LINE      ---      ---       #1641
      0081B85FH   LINE      ---      ---       #1642
      0081B867H   LINE      ---      ---       #1643
      0081B86BH   LINE      ---      ---       #1644
      0081B86DH   LINE      ---      ---       #1646
      0081B86DH   LINE      ---      ---       #1647
      0081B877H   LINE      ---      ---       #1648
      0081B87BH   LINE      ---      ---       #1649
      0081B87BH   LINE      ---      ---       #1651
      0200060FH   SYMBOL    XDATA    ---       V_ucaTempData
      ---         BLOCKEND  CODE/B1  ---       LVL=1
      ---         BLOCKEND  CODE/B1  ---       LVL=0

      0081A1B5H   BLOCK     CODE/B1  ---       LVL=0
      ---         BLOCKEND  ---      ---       LVL=0
LX51 LINKER/LOCATER V4.66.41.0                                                        11/18/2021  18:54:16  PAGE 127



      0081B61FH   BLOCK     CODE/B1  ---       LVL=0
      0081B61FH   LINE      ---      ---       #1672
      0081B61FH   LINE      ---      ---       #1673
      0081B61FH   LINE      ---      ---       #1674
      0081B63CH   LINE      ---      ---       #1675
      0081B63CH   LINE      ---      ---       #1676
      0081B64DH   LINE      ---      ---       #1677
      0081B64DH   LINE      ---      ---       #1678
      0081B653H   LINE      ---      ---       #1682
      0081B657H   LINE      ---      ---       #1684
      0081B657H   LINE      ---      ---       #1686
      0081B657H   LINE      ---      ---       #1687
      0081B65CH   LINE      ---      ---       #1688
      0081B669H   LINE      ---      ---       #1689
      0081B66CH   LINE      ---      ---       #1690
      ---         BLOCKEND  ---      ---       LVL=0

      0081B87CH   BLOCK     CODE/B1  ---       LVL=0
      0081B87CH   LINE      ---      ---       #1702
      0081B87CH   LINE      ---      ---       #1703
      0081B87CH   BLOCK     CODE/B1  NEAR LAB  LVL=1
      0081B87CH   LINE      ---      ---       #1704
      0081B880H   LINE      ---      ---       #1706
      0081B885H   LINE      ---      ---       #1707
      0081B885H   LINE      ---      ---       #1708
      0081B88AH   LINE      ---      ---       #1709
      0081B88DH   LINE      ---      ---       #1710
      0081B891H   LINE      ---      ---       #1711
      0081B891H   LINE      ---      ---       #1712
      0081B894H   LINE      ---      ---       #1713
      0081B894H   LINE      ---      ---       #1714
      0081B894H   LINE      ---      ---       #1716
      0081B896H   LINE      ---      ---       #1717
      00000006H   SYMBOL    DATA     WORD      V_usCnti
      ---         BLOCKEND  CODE/B1  ---       LVL=1
      ---         BLOCKEND  CODE/B1  ---       LVL=0

      0081B5B2H   BLOCK     CODE/B1  ---       LVL=0
      0081B5B8H   LINE      ---      ---       #1725
      0081B5B8H   LINE      ---      ---       #1726
      0081B5B8H   LINE      ---      ---       #1727
      0081B5BBH   LINE      ---      ---       #1728
      0081B5D8H   LINE      ---      ---       #1729
      0081B5D8H   LINE      ---      ---       #1730
      0081B5E9H   LINE      ---      ---       #1731
      0081B5E9H   LINE      ---      ---       #1732
      0081B5F2H   LINE      ---      ---       #1733
      0081B5F5H   LINE      ---      ---       #1734
      0081B5F9H   LINE      ---      ---       #1735
      0081B5F9H   LINE      ---      ---       #1736
      0081B5F9H   LINE      ---      ---       #1737
      0081B604H   LINE      ---      ---       #1738
      0081B604H   LINE      ---      ---       #1739
      0081B608H   LINE      ---      ---       #1740
      0081B60AH   LINE      ---      ---       #1742
      0081B60AH   LINE      ---      ---       #1743
      0081B60EH   LINE      ---      ---       #1744
      0081B60EH   LINE      ---      ---       #1746
      0081B615H   LINE      ---      ---       #1747
      0081B615H   LINE      ---      ---       #1748
      0081B619H   LINE      ---      ---       #1749
      0081B61AH   LINE      ---      ---       #1751
      0081B61AH   LINE      ---      ---       #1752
      0081B61EH   LINE      ---      ---       #1753
LX51 LINKER/LOCATER V4.66.41.0                                                        11/18/2021  18:54:16  PAGE 128


      0081B61EH   LINE      ---      ---       #1755
      ---         BLOCKEND  ---      ---       LVL=0

      0081BC97H   BLOCK     CODE/B1  ---       LVL=0
      0081BC97H   LINE      ---      ---       #1767
      0081BC97H   LINE      ---      ---       #1768
      0081BC97H   LINE      ---      ---       #1769
      ---         BLOCKEND  ---      ---       LVL=0

      0081BC9AH   BLOCK     CODE/B1  ---       LVL=0
      0081BC9AH   LINE      ---      ---       #1782
      0081BC9AH   LINE      ---      ---       #1783
      0081BC9AH   LINE      ---      ---       #1784
      0081BC9FH   LINE      ---      ---       #1786
      0081BCA5H   LINE      ---      ---       #1788
      0081BCADH   LINE      ---      ---       #1789
      0081BCADH   LINE      ---      ---       #1790
      0081BCB0H   LINE      ---      ---       #1792
      0081BCB6H   LINE      ---      ---       #1793
      0081BCB6H   LINE      ---      ---       #1794
      ---         BLOCKEND  ---      ---       LVL=0

      0081A0EEH   BLOCK     CODE/B1  ---       LVL=0
      0081A0EEH   LINE      ---      ---       #1802
      0081A0EEH   LINE      ---      ---       #1803
      0081A0EEH   LINE      ---      ---       #1806
      0081A10BH   LINE      ---      ---       #1807
      0081A10BH   LINE      ---      ---       #1808
      0081A11CH   LINE      ---      ---       #1809
      0081A11CH   LINE      ---      ---       #1810
      0081A130H   LINE      ---      ---       #1811
      0081A130H   LINE      ---      ---       #1812
      0081A130H   LINE      ---      ---       #1813
      0081A14DH   LINE      ---      ---       #1814
      0081A14DH   LINE      ---      ---       #1815
      0081A15EH   LINE      ---      ---       #1816
      0081A15EH   LINE      ---      ---       #1817
      0081A172H   LINE      ---      ---       #1818
      0081A172H   LINE      ---      ---       #1819
      0081A172H   LINE      ---      ---       #1820
      0081A18FH   LINE      ---      ---       #1821
      0081A18FH   LINE      ---      ---       #1822
      0081A1A0H   LINE      ---      ---       #1823
      0081A1A0H   LINE      ---      ---       #1824
      0081A1B4H   LINE      ---      ---       #1825
      0081A1B4H   LINE      ---      ---       #1826
      0081A1B4H   LINE      ---      ---       #1828
      ---         BLOCKEND  ---      ---       LVL=0

      0081BCB7H   BLOCK     CODE/B1  ---       LVL=0
      0081BCB7H   LINE      ---      ---       #1837
      0081BCB7H   LINE      ---      ---       #1838
      0081BCB7H   BLOCK     CODE/B1  NEAR LAB  LVL=1
      0081BCB7H   LINE      ---      ---       #1846
      0081BCD8H   LINE      ---      ---       #1850
      0081BCD8H   LINE      ---      ---       #1852
      0081BCF7H   LINE      ---      ---       #1856
      0081BCF7H   LINE      ---      ---       #1857
      0081BD11H   LINE      ---      ---       #1858
      0081BD2CH   LINE      ---      ---       #1859
      0081BD32H   LINE      ---      ---       #1860
      0081BD34H   LINE      ---      ---       #1862
      0081BD34H   LINE      ---      ---       #1863
      0081BD39H   LINE      ---      ---       #1864
      0081BD39H   LINE      ---      ---       #1865
LX51 LINKER/LOCATER V4.66.41.0                                                        11/18/2021  18:54:16  PAGE 129


      0081BD4AH   LINE      ---      ---       #1866
      0081BD4AH   LINE      ---      ---       #1867
      0081BD72H   LINE      ---      ---       #1871
      0081BD72H   LINE      ---      ---       #1872
      0081BD9BH   LINE      ---      ---       #1873
      0081BDC4H   LINE      ---      ---       #1874
      0081BDCAH   LINE      ---      ---       #1875
      0081BDCAH   LINE      ---      ---       #1876
      0081BDD2H   LINE      ---      ---       #1877
      0081BDD9H   LINE      ---      ---       #1878
      0081BDD9H   LINE      ---      ---       #1879
      0081BDF4H   LINE      ---      ---       #1880
      0081BE0CH   LINE      ---      ---       #1881
      0081BE0EH   LINE      ---      ---       #1882
      0081BE1AH   LINE      ---      ---       #1883
      0081BE1AH   LINE      ---      ---       #1884
      0081BE40H   LINE      ---      ---       #1885
      0081BE5BH   LINE      ---      ---       #1886
      0081BE69H   LINE      ---      ---       #1887
      0081BE69H   LINE      ---      ---       #1888
      0081BE69H   LINE      ---      ---       #1889
      0081BE6BH   LINE      ---      ---       #1891
      0081BE6BH   LINE      ---      ---       #1892
      0081BE94H   LINE      ---      ---       #1893
      0081BEAFH   LINE      ---      ---       #1894
      0081BEAFH   LINE      ---      ---       #1895
      0081BEB1H   LINE      ---      ---       #1897
      0081BEB1H   LINE      ---      ---       #1898
      0081BEC5H   LINE      ---      ---       #1899
      0081BED9H   LINE      ---      ---       #1900
      0081BED9H   LINE      ---      ---       #1901
      0081BEEAH   LINE      ---      ---       #1902
      0081BEF8H   LINE      ---      ---       #1903
      0081BEF8H   LINE      ---      ---       #1905
      0081BEF8H   LINE      ---      ---       #1906
      0200060FH   SYMBOL    XDATA    ---       V_ucTempData
      0200061DH   SYMBOL    XDATA    BYTE      i
      0200061EH   SYMBOL    XDATA    WORD      V_usCRC16
      02000620H   SYMBOL    XDATA    BYTE      V_offset
      02000621H   SYMBOL    XDATA    ---       V_ucRemainMoneyData
      0200063FH   SYMBOL    XDATA    ---       V_ucTickMoneyData
      0200065DH   SYMBOL    XDATA    ---       V_ucResultData
      ---         BLOCKEND  CODE/B1  ---       LVL=1
      ---         BLOCKEND  CODE/B1  ---       LVL=0

      ---         MODULE    ---      ---       APPPOWEROFF
      0081B897H   PUBLIC    CODE/B1  ---       ApiPwOff_PowerOffTask
      000000F3H   SFRSYM    DATA     BYTE      IB_CON2
      000000D8H.3 SFRSYM    DATA     BIT       TB81
      00000080H   SFRSYM    DATA     BYTE      P0
      000000F4H   SFRSYM    DATA     BYTE      IB_CON3
      000000A4H   SFRSYM    DATA     BYTE      TKCON
      00000090H   SFRSYM    DATA     BYTE      P1
      000000F5H   SFRSYM    DATA     BYTE      IB_CON4
      000000E7H   SFRSYM    DATA     BYTE      PASLO
      000000A0H   SFRSYM    DATA     BYTE      P2
      000000FEH   SFRSYM    DATA     BYTE      OSCLO
      000000F6H   SFRSYM    DATA     BYTE      IB_CON5
      00000098H.6 SFRSYM    DATA     BIT       SM1_RXOV
      000000B0H   SFRSYM    DATA     BYTE      P3
      000000D0H.6 SFRSYM    DATA     BIT       AC
      000000C0H   SFRSYM    DATA     BYTE      P4
      000000A1H   SFRSYM    DATA     BYTE      SPCON
      0000009CH   SFRSYM    DATA     BYTE      SBRTH
      000000E9H   SFRSYM    DATA     BYTE      P5
LX51 LINKER/LOCATER V4.66.41.0                                                        11/18/2021  18:54:16  PAGE 130


      000000A8H.7 SFRSYM    DATA     BIT       EA
      000000EAH   SFRSYM    DATA     BYTE      P6
      000000EBH   SFRSYM    DATA     BYTE      P7
      000000EFH   SFRSYM    DATA     BYTE      IB_DATA
      000000ECH   SFRSYM    DATA     BYTE      P8
      0000009DH   SFRSYM    DATA     BYTE      SBRTL
      000000EDH   SFRSYM    DATA     BYTE      P9
      000000B7H   SFRSYM    DATA     BYTE      PBANKLO
      000000A2H   SFRSYM    DATA     BYTE      SPSTA
      000000A8H   SFRSYM    DATA     BYTE      IEN0
      000000B3H   SFRSYM    DATA     BYTE      PWRCON1
      00000095H   SFRSYM    DATA     BYTE      EMUSR
      000000A9H   SFRSYM    DATA     BYTE      IEN1
      000000B4H   SFRSYM    DATA     BYTE      PWRCON2
      00000085H   SFRSYM    DATA     BYTE      DPH1
      00000080H   SFRSYM    DATA     BIT       P0_0
      00000090H   SFRSYM    DATA     BIT       P1_0
      00000080H.1 SFRSYM    DATA     BIT       P0_1
      000000C3H   SFRSYM    DATA     BYTE      ADCH
      000000A0H   SFRSYM    DATA     BIT       P2_0
      00000090H.1 SFRSYM    DATA     BIT       P1_1
      00000080H.2 SFRSYM    DATA     BIT       P0_2
      000000BAH   SFRSYM    DATA     BYTE      IPH0
      00000084H   SFRSYM    DATA     BYTE      DPL1
      000000B0H   SFRSYM    DATA     BIT       P3_0
      000000A0H.1 SFRSYM    DATA     BIT       P2_1
      00000090H.2 SFRSYM    DATA     BIT       P1_2
      00000080H.3 SFRSYM    DATA     BIT       P0_3
      000000BBH   SFRSYM    DATA     BYTE      IPH1
      000000C0H   SFRSYM    DATA     BIT       P4_0
      000000B0H.1 SFRSYM    DATA     BIT       P3_1
      000000A0H.2 SFRSYM    DATA     BIT       P2_2
      00000090H.3 SFRSYM    DATA     BIT       P1_3
      00000080H.4 SFRSYM    DATA     BIT       P0_4
      000000E8H   SFRSYM    DATA     BYTE      EXF0
      000000C0H.1 SFRSYM    DATA     BIT       P4_1
      000000B0H.2 SFRSYM    DATA     BIT       P3_2
      000000A0H.3 SFRSYM    DATA     BIT       P2_3
      00000090H.4 SFRSYM    DATA     BIT       P1_4
      00000080H.5 SFRSYM    DATA     BIT       P0_5
      000000C0H.2 SFRSYM    DATA     BIT       P4_2
      000000B0H.3 SFRSYM    DATA     BIT       P3_3
      000000A0H.4 SFRSYM    DATA     BIT       P2_4
      00000090H.5 SFRSYM    DATA     BIT       P1_5
      00000080H.6 SFRSYM    DATA     BIT       P0_6
      000000C8H.6 SFRSYM    DATA     BIT       EXF2
      000000A6H   SFRSYM    DATA     BYTE      TKF0
      000000B8H   SFRSYM    DATA     BYTE      IPL0
      000000C0H.3 SFRSYM    DATA     BIT       P4_3
      000000B0H.4 SFRSYM    DATA     BIT       P3_4
      000000A0H.5 SFRSYM    DATA     BIT       P2_5
      00000090H.6 SFRSYM    DATA     BIT       P1_6
      00000080H.7 SFRSYM    DATA     BIT       P0_7
      000000D8H.4 SFRSYM    DATA     BIT       REN1
      000000B9H   SFRSYM    DATA     BYTE      IPL1
      000000C0H.4 SFRSYM    DATA     BIT       P4_4
      000000B0H.5 SFRSYM    DATA     BIT       P3_5
      000000A0H.6 SFRSYM    DATA     BIT       P2_6
      00000090H.7 SFRSYM    DATA     BIT       P1_7
      000000E2H   SFRSYM    DATA     BYTE      TK0H
      0000008EH   SFRSYM    DATA     BYTE      SUSLO
      000000C0H.5 SFRSYM    DATA     BIT       P4_5
      000000B0H.6 SFRSYM    DATA     BIT       P3_6
      000000A0H.7 SFRSYM    DATA     BIT       P2_7
      000000E4H   SFRSYM    DATA     BYTE      TK1H
LX51 LINKER/LOCATER V4.66.41.0                                                        11/18/2021  18:54:16  PAGE 131


      000000C0H.6 SFRSYM    DATA     BIT       P4_6
      000000B0H.7 SFRSYM    DATA     BIT       P3_7
      000000E6H   SFRSYM    DATA     BYTE      TK2H
      000000C0H.7 SFRSYM    DATA     BIT       P4_7
      00000098H   SFRSYM    DATA     BIT       RI
      000000A8H.2 SFRSYM    DATA     BIT       E7816
      000000D0H.7 SFRSYM    DATA     BIT       CY
      000000E1H   SFRSYM    DATA     BYTE      TK0L
      00000098H.1 SFRSYM    DATA     BIT       TI
      00000091H   SFRSYM    DATA     BYTE      EADR
      000000E3H   SFRSYM    DATA     BYTE      TK1L
      000000E5H   SFRSYM    DATA     BYTE      TK2L
      000000DBH   SFRSYM    DATA     BYTE      SADEN1
      000000D8H.7 SFRSYM    DATA     BIT       SM10_FE1
      000000FBH   SFRSYM    DATA     BYTE      SADEN2
      000000B8H.4 SFRSYM    DATA     BIT       PS0L
      000000B8H.1 SFRSYM    DATA     BIT       PT0L
      000000DAH   SFRSYM    DATA     BYTE      SADDR1
      000000D8H.5 SFRSYM    DATA     BIT       SM12_TXCOL1
      000000B8H.3 SFRSYM    DATA     BIT       PT1L
      000000FAH   SFRSYM    DATA     BYTE      SADDR2
      000000CBH   SFRSYM    DATA     BYTE      RCAP2H
      000000B8H.5 SFRSYM    DATA     BIT       PT2L
      00000081H   SFRSYM    DATA     BYTE      SP
      000000D0H.2 SFRSYM    DATA     BIT       OV
      000000CAH   SFRSYM    DATA     BYTE      RCAP2L
      000000B8H   SFRSYM    DATA     BIT       PX4L
      000000C8H.1 SFRSYM    DATA     BIT       C_T2
      000000DEH   SFRSYM    DATA     BYTE      SFINE2
      000000ADH   SFRSYM    DATA     BYTE      IRCON1
      000000AFH   SFRSYM    DATA     BYTE      IRCON2
      000000ABH   SFRSYM    DATA     BYTE      EXCON1
      00000099H   SFRSYM    DATA     BYTE      SBUF
      000000ACH   SFRSYM    DATA     BYTE      EXCON2
      00000087H   SFRSYM    DATA     BYTE      PCON
      000000F1H   SFRSYM    DATA     BYTE      AUXC
      00000098H   SFRSYM    DATA     BYTE      SCON
      000000D4H   SFRSYM    DATA     BYTE      TK0BASEH
      00000089H   SFRSYM    DATA     BYTE      TMOD
      00000088H   SFRSYM    DATA     BYTE      TCON
      000000AAH   SFRSYM    DATA     BYTE      IENX
      000000EEH   SFRSYM    DATA     BYTE      IB_OFFSET
      000000D6H   SFRSYM    DATA     BYTE      TK1BASEH
      000000DCH   SFRSYM    DATA     BYTE      SBRT1H
      000000DFH   SFRSYM    DATA     BYTE      TK2BASEH
      000000FCH   SFRSYM    DATA     BYTE      SBRT2H
      000000B1H   SFRSYM    DATA     BYTE      RSTSTAT
      000000D3H   SFRSYM    DATA     BYTE      TK0BASEL
      000000D5H   SFRSYM    DATA     BYTE      TK1BASEL
      000000DDH   SFRSYM    DATA     BYTE      SBRT1L
      000000D7H   SFRSYM    DATA     BYTE      TK2BASEL
      000000FDH   SFRSYM    DATA     BYTE      SBRT2L
      00000098H.7 SFRSYM    DATA     BIT       SM0_FE
      000000B2H   SFRSYM    DATA     BYTE      CLKCON
      00000098H.5 SFRSYM    DATA     BIT       SM2_TXCOL
      000000B5H   SFRSYM    DATA     BYTE      LDOCON
      000000F0H   SFRSYM    DATA     BYTE      B
      000000C8H   SFRSYM    DATA     BIT       CP_RL2
      000000E0H   SFRSYM    DATA     BYTE      ACC
      000000A8H.4 SFRSYM    DATA     BIT       ES0
      000000A8H.1 SFRSYM    DATA     BIT       ET0
      000000A8H.3 SFRSYM    DATA     BIT       ET1
      00000088H.5 SFRSYM    DATA     BIT       TF0
      000000A8H.5 SFRSYM    DATA     BIT       ET2
      00000088H.7 SFRSYM    DATA     BIT       TF1
LX51 LINKER/LOCATER V4.66.41.0                                                        11/18/2021  18:54:16  PAGE 132


      000000D8H   SFRSYM    DATA     BIT       RI1
      00000098H.2 SFRSYM    DATA     BIT       RB8
      000000C8H.7 SFRSYM    DATA     BIT       TF2
      0000008CH   SFRSYM    DATA     BYTE      TH0
      00000086H   SFRSYM    DATA     BYTE      INSCON
      0000008DH   SFRSYM    DATA     BYTE      TH1
      000000D8H.1 SFRSYM    DATA     BIT       TI1
      00000098H.3 SFRSYM    DATA     BIT       TB8
      000000CDH   SFRSYM    DATA     BYTE      TH2
      000000D0H   SFRSYM    DATA     BIT       P
      0000008AH   SFRSYM    DATA     BYTE      TL0
      000000A8H   SFRSYM    DATA     BIT       EX4
      0000008BH   SFRSYM    DATA     BYTE      TL1
      000000A7H   SFRSYM    DATA     BYTE      FLASHCON
      000000CCH   SFRSYM    DATA     BYTE      TL2
      000000D0H.3 SFRSYM    DATA     BIT       RS0
      000000C5H   SFRSYM    DATA     BYTE      ADCDH
      00000088H.4 SFRSYM    DATA     BIT       TR0
      000000D0H.4 SFRSYM    DATA     BIT       RS1
      0000009FH   SFRSYM    DATA     BYTE      PWMCON
      00000088H.6 SFRSYM    DATA     BIT       TR1
      000000C8H.2 SFRSYM    DATA     BIT       TR2
      000000C4H   SFRSYM    DATA     BYTE      ADCDL
      000000C2H   SFRSYM    DATA     BYTE      ADT
      00000083H   SFRSYM    DATA     BYTE      DPH
      00000082H   SFRSYM    DATA     BYTE      DPL
      000000D9H   SFRSYM    DATA     BYTE      SBUF1
      000000C8H.3 SFRSYM    DATA     BIT       EXEN2
      000000F9H   SFRSYM    DATA     BYTE      SBUF2
      000000D8H.6 SFRSYM    DATA     BIT       SM11_RXOV1
      000000B8H.6 SFRSYM    DATA     BIT       PADCL
      00000098H.4 SFRSYM    DATA     BIT       REN
      000000D8H   SFRSYM    DATA     BYTE      SCON1
      000000D1H   SFRSYM    DATA     BYTE      LCDCON1
      000000C1H   SFRSYM    DATA     BYTE      ADCON
      000000F8H   SFRSYM    DATA     BYTE      SCON2
      0000008FH   SFRSYM    DATA     BYTE      TCON1
      000000D2H   SFRSYM    DATA     BYTE      LCDCON2
      00000092H   SFRSYM    DATA     BYTE      EDTAH
      000000C9H   SFRSYM    DATA     BYTE      T2MOD
      000000C8H   SFRSYM    DATA     BYTE      T2CON
      00000094H   SFRSYM    DATA     BYTE      EDTAL
      00000093H   SFRSYM    DATA     BYTE      EDTAM
      000000BCH   SFRSYM    DATA     BYTE      TK0DIFH
      0000009BH   SFRSYM    DATA     BYTE      SADEN
      000000BEH   SFRSYM    DATA     BYTE      TK1DIFH
      000000B6H   SFRSYM    DATA     BYTE      PBANK
      000000A5H   SFRSYM    DATA     BYTE      TK2DIFH
      000000A8H.6 SFRSYM    DATA     BIT       EADTP
      0000009AH   SFRSYM    DATA     BYTE      SADDR
      000000CFH   SFRSYM    DATA     BYTE      TK0DIFL
      000000BDH   SFRSYM    DATA     BYTE      TK1DIFL
      000000BFH   SFRSYM    DATA     BYTE      TK2DIFL
      000000B8H.2 SFRSYM    DATA     BIT       P7816L
      000000C6H   SFRSYM    DATA     BYTE      LPDCON1
      000000C7H   SFRSYM    DATA     BYTE      LPDCON2
      000000D0H.5 SFRSYM    DATA     BIT       F0
      000000AEH   SFRSYM    DATA     BYTE      IRDAT
      000000D0H.1 SFRSYM    DATA     BIT       F1
      00000096H   SFRSYM    DATA     BYTE      EMUIE
      0000009EH   SFRSYM    DATA     BYTE      SFINE
      000000F7H   SFRSYM    DATA     BYTE      XPAGE
      00000097H   SFRSYM    DATA     BYTE      EMUIF
      000000D0H   SFRSYM    DATA     BYTE      PSW
      000000D8H.2 SFRSYM    DATA     BIT       RB81
LX51 LINKER/LOCATER V4.66.41.0                                                        11/18/2021  18:54:16  PAGE 133


      000000A3H   SFRSYM    DATA     BYTE      SPDAT
      000000F2H   SFRSYM    DATA     BYTE      IB_CON1
      0081BC76H   SYMBOL    CODE/B1  ---       ApiPwOff_McuLPDInit
      0081B910H   SYMBOL    CODE/B1  ---       ApiPwOff_McuEnterSleep
      0081B911H   SYMBOL    CODE/B1  ---       ApiPwOff_PeripheralInit
      0081BBF2H   SYMBOL    CODE/B1  ---       ApiPwOff_EmuInit
      0081B8F7H   SYMBOL    CODE/B1  ---       ApiPwOff_CloseDevices
      0081BC67H   SYMBOL    CODE/B1  ---       ApiPwOff_McuTimerInit
      0081B911H   SYMBOL    CODE/B1  ---       ApiPwOff_McuGpioInit
      0081B8FFH   SYMBOL    CODE/B1  ---       ApiPwOff_McuDispInit
      0081BC4DH   SYMBOL    CODE/B1  ---       ApiPwOff_Display
      0081BC5AH   SYMBOL    CODE/B1  ---       ApiPwOff_McuUartInit
      0081BC4CH   SYMBOL    CODE/B1  ---       ApiPwOff_DataProcess
      0081BC4EH   SYMBOL    CODE/B1  ---       ApiPwOff_SysClkInit
      0081BC4FH   SYMBOL    CODE/B1  ---       ApiPwOff_BLEPOWERInit
      0081B904H   SYMBOL    CODE/B1  ---       ApiPwOff_EnterSleep
      0081BBFEH   SYMBOL    CODE/B1  ---       ApiPwOff_DataSave

      0081B897H   BLOCK     CODE/B1  ---       LVL=0
      0081B897H   LINE      ---      ---       #98
      0081B897H   LINE      ---      ---       #99
      0081B897H   BLOCK     CODE/B1  NEAR LAB  LVL=1
      0081B897H   LINE      ---      ---       #102
      0081B89EH   LINE      ---      ---       #103
      0081B89EH   LINE      ---      ---       #105
      0081B8A0H   LINE      ---      ---       #108
      0081B8A7H   LINE      ---      ---       #109
      0081B8A7H   LINE      ---      ---       #110
      0081B8A9H   LINE      ---      ---       #111
      0081B8B0H   LINE      ---      ---       #112
      0081B8B0H   LINE      ---      ---       #115
      0081B8B5H   LINE      ---      ---       #116
      0081B8B5H   LINE      ---      ---       #117
      0081B8BCH   LINE      ---      ---       #118
      0081B8C1H   LINE      ---      ---       #119
      0081B8C1H   LINE      ---      ---       #120
      0081B8C8H   LINE      ---      ---       #121
      0081B8CAH   LINE      ---      ---       #122
      0081B8CAH   LINE      ---      ---       #123
      0081B8CDH   LINE      ---      ---       #124
      0081B8D9H   LINE      ---      ---       #127
      0081B8E0H   LINE      ---      ---       #128
      0081B8E0H   LINE      ---      ---       #129
      0081B8E4H   LINE      ---      ---       #130
      0081B8E8H   LINE      ---      ---       #131
      0081B8E8H   LINE      ---      ---       #134
      0081B8EBH   LINE      ---      ---       #136
      0081B8EBH   LINE      ---      ---       #139
      0081B8F2H   LINE      ---      ---       #140
      0081B8F2H   LINE      ---      ---       #141
      0081B8F6H   LINE      ---      ---       #142
      0081B8F6H   LINE      ---      ---       #143
      0200060EH   SYMBOL    XDATA    BYTE      V_ucCnti
      ---         BLOCKEND  CODE/B1  ---       LVL=1
      ---         BLOCKEND  CODE/B1  ---       LVL=0

      0081B8F7H   BLOCK     CODE/B1  ---       LVL=0
      0081B8F7H   LINE      ---      ---       #156
      0081B8F7H   LINE      ---      ---       #157
      0081B8F7H   LINE      ---      ---       #159
      0081B8F9H   LINE      ---      ---       #162
      0081B8FBH   LINE      ---      ---       #165
      0081B8FDH   LINE      ---      ---       #168
      ---         BLOCKEND  ---      ---       LVL=0

LX51 LINKER/LOCATER V4.66.41.0                                                        11/18/2021  18:54:16  PAGE 134


      0081BC76H   BLOCK     CODE/B1  ---       LVL=0
      0081BC76H   LINE      ---      ---       #187
      0081BC76H   LINE      ---      ---       #188
      0081BC76H   LINE      ---      ---       #189
      0081BC79H   LINE      ---      ---       #190
      0081BC7CH   LINE      ---      ---       #192
      0081BC7FH   LINE      ---      ---       #193
      0081BC81H   LINE      ---      ---       #195
      0081BC84H   LINE      ---      ---       #199
      0081BC87H   LINE      ---      ---       #202
      0081BC8AH   LINE      ---      ---       #206
      0081BC8CH   LINE      ---      ---       #209
      0081BC8FH   LINE      ---      ---       #210
      0081BC91H   LINE      ---      ---       #212
      0081BC94H   LINE      ---      ---       #216
      0081BC96H   LINE      ---      ---       #218
      ---         BLOCKEND  ---      ---       LVL=0

      0081BBFEH   BLOCK     CODE/B1  ---       LVL=0
      0081BBFEH   LINE      ---      ---       #231
      0081BBFEH   LINE      ---      ---       #232
      0081BBFEH   BLOCK     CODE/B1  NEAR LAB  LVL=1
      0081BBFEH   LINE      ---      ---       #236
      0081BC0FH   LINE      ---      ---       #237
      0081BC22H   LINE      ---      ---       #240
      0081BC2AH   LINE      ---      ---       #241
      0081BC2DH   LINE      ---      ---       #242
      0081BC35H   LINE      ---      ---       #243
      0081BC3EH   LINE      ---      ---       #244
      0200060FH   SYMBOL    XDATA    ---       V_ucTempBuff
      ---         BLOCKEND  CODE/B1  ---       LVL=1
      ---         BLOCKEND  CODE/B1  ---       LVL=0

      0081B904H   BLOCK     CODE/B1  ---       LVL=0
      0081B904H   LINE      ---      ---       #262
      0081B904H   LINE      ---      ---       #263
      0081B904H   LINE      ---      ---       #265
      0081B906H   LINE      ---      ---       #268
      0081B908H   LINE      ---      ---       #271
      0081B90AH   LINE      ---      ---       #274
      0081B90CH   LINE      ---      ---       #277
      0081B90EH   LINE      ---      ---       #280
      ---         BLOCKEND  ---      ---       LVL=0

      0081B911H   BLOCK     CODE/B1  ---       LVL=0
      ---         BLOCKEND  ---      ---       LVL=0

      0081BC4CH   BLOCK     CODE/B1  ---       LVL=0
      0081BC4CH   LINE      ---      ---       #316
      0081BC4CH   LINE      ---      ---       #317
      0081BC4CH   LINE      ---      ---       #319
      ---         BLOCKEND  ---      ---       LVL=0

      0081BC4DH   BLOCK     CODE/B1  ---       LVL=0
      0081BC4DH   LINE      ---      ---       #333
      0081BC4DH   LINE      ---      ---       #334
      0081BC4DH   LINE      ---      ---       #336
      ---         BLOCKEND  ---      ---       LVL=0

      0081BC4EH   BLOCK     CODE/B1  ---       LVL=0
      0081BC4EH   LINE      ---      ---       #349
      0081BC4EH   LINE      ---      ---       #350
      0081BC4EH   LINE      ---      ---       #352
      ---         BLOCKEND  ---      ---       LVL=0

LX51 LINKER/LOCATER V4.66.41.0                                                        11/18/2021  18:54:16  PAGE 135


      0081BC4FH   BLOCK     CODE/B1  ---       LVL=0
      0081BC4FH   LINE      ---      ---       #364
      0081BC4FH   LINE      ---      ---       #365
      0081BC4FH   LINE      ---      ---       #366
      0081BC59H   LINE      ---      ---       #367
      ---         BLOCKEND  ---      ---       LVL=0

      0081BC67H   BLOCK     CODE/B1  ---       LVL=0
      0081BC67H   LINE      ---      ---       #379
      0081BC67H   LINE      ---      ---       #380
      0081BC67H   LINE      ---      ---       #381
      0081BC6AH   LINE      ---      ---       #382
      0081BC6DH   LINE      ---      ---       #383
      0081BC75H   LINE      ---      ---       #384
      ---         BLOCKEND  ---      ---       LVL=0

      0081B911H   BLOCK     CODE/B1  ---       LVL=0
      0081B911H   LINE      ---      ---       #622
      0081B911H   LINE      ---      ---       #623
      0081B911H   LINE      ---      ---       #626
      0081B918H   LINE      ---      ---       #627
      0081B91CH   LINE      ---      ---       #628
      0081B920H   LINE      ---      ---       #629
      0081B924H   LINE      ---      ---       #631
      0081B92BH   LINE      ---      ---       #632
      0081B92FH   LINE      ---      ---       #633
      0081B933H   LINE      ---      ---       #634
      0081B937H   LINE      ---      ---       #636
      0081B93AH   LINE      ---      ---       #637
      0081B93DH   LINE      ---      ---       #638
      0081B940H   LINE      ---      ---       #639
      0081B943H   LINE      ---      ---       #641
      0081B94AH   LINE      ---      ---       #642
      0081B94EH   LINE      ---      ---       #643
      0081B952H   LINE      ---      ---       #644
      0081B956H   LINE      ---      ---       #646
      0081B95DH   LINE      ---      ---       #647
      0081B961H   LINE      ---      ---       #648
      0081B965H   LINE      ---      ---       #649
      0081B969H   LINE      ---      ---       #651
      0081B970H   LINE      ---      ---       #652
      0081B974H   LINE      ---      ---       #653
      0081B978H   LINE      ---      ---       #654
      0081B97CH   LINE      ---      ---       #656
      0081B983H   LINE      ---      ---       #657
      0081B987H   LINE      ---      ---       #658
      0081B98BH   LINE      ---      ---       #659
      0081B98FH   LINE      ---      ---       #664
      0081B996H   LINE      ---      ---       #665
      0081B99AH   LINE      ---      ---       #666
      0081B99EH   LINE      ---      ---       #668
      0081B9A5H   LINE      ---      ---       #669
      0081B9A9H   LINE      ---      ---       #670
      0081B9ADH   LINE      ---      ---       #672
      0081B9B0H   LINE      ---      ---       #673
      0081B9B3H   LINE      ---      ---       #674
      0081B9B6H   LINE      ---      ---       #677
      0081B9BDH   LINE      ---      ---       #678
      0081B9C1H   LINE      ---      ---       #679
      0081B9C5H   LINE      ---      ---       #681
      0081B9CCH   LINE      ---      ---       #682
      0081B9D0H   LINE      ---      ---       #683
      0081B9D4H   LINE      ---      ---       #685
      0081B9D7H   LINE      ---      ---       #686
      0081B9DAH   LINE      ---      ---       #687
LX51 LINKER/LOCATER V4.66.41.0                                                        11/18/2021  18:54:16  PAGE 136


      0081B9DDH   LINE      ---      ---       #689
      0081B9E4H   LINE      ---      ---       #690
      0081B9E8H   LINE      ---      ---       #691
      0081B9ECH   LINE      ---      ---       #693
      0081B9F3H   LINE      ---      ---       #694
      0081B9F7H   LINE      ---      ---       #695
      0081B9FBH   LINE      ---      ---       #697
      0081BA02H   LINE      ---      ---       #698
      0081BA06H   LINE      ---      ---       #699
      0081BA0AH   LINE      ---      ---       #701
      0081BA11H   LINE      ---      ---       #702
      0081BA15H   LINE      ---      ---       #703
      0081BA19H   LINE      ---      ---       #706
      0081BA20H   LINE      ---      ---       #707
      0081BA24H   LINE      ---      ---       #708
      0081BA28H   LINE      ---      ---       #709
      0081BA2CH   LINE      ---      ---       #710
      0081BA30H   LINE      ---      ---       #712
      0081BA37H   LINE      ---      ---       #713
      0081BA3BH   LINE      ---      ---       #714
      0081BA3FH   LINE      ---      ---       #715
      0081BA43H   LINE      ---      ---       #716
      0081BA47H   LINE      ---      ---       #718
      0081BA4AH   LINE      ---      ---       #719
      0081BA4DH   LINE      ---      ---       #720
      0081BA50H   LINE      ---      ---       #721
      0081BA53H   LINE      ---      ---       #722
      0081BA56H   LINE      ---      ---       #724
      0081BA5DH   LINE      ---      ---       #725
      0081BA61H   LINE      ---      ---       #726
      0081BA65H   LINE      ---      ---       #727
      0081BA69H   LINE      ---      ---       #728
      0081BA6DH   LINE      ---      ---       #731
      0081BA74H   LINE      ---      ---       #732
      0081BA78H   LINE      ---      ---       #733
      0081BA7CH   LINE      ---      ---       #734
      0081BA80H   LINE      ---      ---       #736
      0081BA87H   LINE      ---      ---       #737
      0081BA8BH   LINE      ---      ---       #738
      0081BA8FH   LINE      ---      ---       #739
      0081BA93H   LINE      ---      ---       #741
      0081BA96H   LINE      ---      ---       #742
      0081BA99H   LINE      ---      ---       #743
      0081BA9CH   LINE      ---      ---       #744
      0081BA9FH   LINE      ---      ---       #747
      0081BAA6H   LINE      ---      ---       #748
      0081BAAAH   LINE      ---      ---       #749
      0081BAAEH   LINE      ---      ---       #750
      0081BAB2H   LINE      ---      ---       #751
      0081BAB6H   LINE      ---      ---       #752
      0081BABAH   LINE      ---      ---       #753
      0081BABEH   LINE      ---      ---       #754
      0081BAC2H   LINE      ---      ---       #756
      0081BAC9H   LINE      ---      ---       #757
      0081BACDH   LINE      ---      ---       #758
      0081BAD1H   LINE      ---      ---       #759
      0081BAD5H   LINE      ---      ---       #760
      0081BAD9H   LINE      ---      ---       #761
      0081BADDH   LINE      ---      ---       #762
      0081BAE1H   LINE      ---      ---       #763
      0081BAE5H   LINE      ---      ---       #765
      0081BAE8H   LINE      ---      ---       #766
      0081BAEBH   LINE      ---      ---       #767
      0081BAEEH   LINE      ---      ---       #768
      0081BAF1H   LINE      ---      ---       #769
LX51 LINKER/LOCATER V4.66.41.0                                                        11/18/2021  18:54:16  PAGE 137


      0081BAF4H   LINE      ---      ---       #770
      0081BAF7H   LINE      ---      ---       #771
      0081BAFAH   LINE      ---      ---       #772
      0081BAFDH   LINE      ---      ---       #775
      0081BB04H   LINE      ---      ---       #776
      0081BB08H   LINE      ---      ---       #777
      0081BB0CH   LINE      ---      ---       #778
      0081BB10H   LINE      ---      ---       #779
      0081BB14H   LINE      ---      ---       #780
      0081BB18H   LINE      ---      ---       #781
      0081BB1CH   LINE      ---      ---       #783
      0081BB23H   LINE      ---      ---       #784
      0081BB27H   LINE      ---      ---       #785
      0081BB2BH   LINE      ---      ---       #786
      0081BB2FH   LINE      ---      ---       #787
      0081BB33H   LINE      ---      ---       #788
      0081BB37H   LINE      ---      ---       #789
      0081BB3BH   LINE      ---      ---       #791
      0081BB3EH   LINE      ---      ---       #792
      0081BB41H   LINE      ---      ---       #793
      0081BB44H   LINE      ---      ---       #794
      0081BB47H   LINE      ---      ---       #795
      0081BB4AH   LINE      ---      ---       #796
      0081BB4DH   LINE      ---      ---       #797
      0081BB50H   LINE      ---      ---       #800
      0081BB57H   LINE      ---      ---       #801
      0081BB5BH   LINE      ---      ---       #802
      0081BB5FH   LINE      ---      ---       #804
      0081BB66H   LINE      ---      ---       #805
      0081BB6AH   LINE      ---      ---       #806
      0081BB6EH   LINE      ---      ---       #808
      0081BB71H   LINE      ---      ---       #809
      0081BB74H   LINE      ---      ---       #810
      0081BB77H   LINE      ---      ---       #813
      0081BB7EH   LINE      ---      ---       #814
      0081BB82H   LINE      ---      ---       #816
      0081BB89H   LINE      ---      ---       #817
      0081BB8DH   LINE      ---      ---       #819
      0081BB90H   LINE      ---      ---       #820
      0081BB93H   LINE      ---      ---       #823
      0081BB9AH   LINE      ---      ---       #824
      0081BB9EH   LINE      ---      ---       #825
      0081BBA2H   LINE      ---      ---       #826
      0081BBA6H   LINE      ---      ---       #827
      0081BBAAH   LINE      ---      ---       #828
      0081BBAEH   LINE      ---      ---       #829
      0081BBB2H   LINE      ---      ---       #830
      0081BBB6H   LINE      ---      ---       #832
      0081BBBDH   LINE      ---      ---       #833
      0081BBC1H   LINE      ---      ---       #834
      0081BBC5H   LINE      ---      ---       #835
      0081BBC9H   LINE      ---      ---       #836
      0081BBCDH   LINE      ---      ---       #837
      0081BBD1H   LINE      ---      ---       #838
      0081BBD5H   LINE      ---      ---       #839
      0081BBD9H   LINE      ---      ---       #841
      0081BBDCH   LINE      ---      ---       #842
      0081BBDFH   LINE      ---      ---       #843
      0081BBE2H   LINE      ---      ---       #844
      0081BBE5H   LINE      ---      ---       #845
      0081BBE8H   LINE      ---      ---       #846
      0081BBEBH   LINE      ---      ---       #847
      0081BBEEH   LINE      ---      ---       #848
      0081BBF1H   LINE      ---      ---       #849
      ---         BLOCKEND  ---      ---       LVL=0
LX51 LINKER/LOCATER V4.66.41.0                                                        11/18/2021  18:54:16  PAGE 138



      0081BC5AH   BLOCK     CODE/B1  ---       LVL=0
      0081BC5AH   LINE      ---      ---       #862
      0081BC5AH   LINE      ---      ---       #863
      0081BC5AH   LINE      ---      ---       #864
      0081BC5DH   LINE      ---      ---       #865
      0081BC60H   LINE      ---      ---       #867
      0081BC63H   LINE      ---      ---       #868
      0081BC66H   LINE      ---      ---       #870
      ---         BLOCKEND  ---      ---       LVL=0

      0081B8FFH   BLOCK     CODE/B1  ---       LVL=0
      0081B8FFH   LINE      ---      ---       #883
      0081B8FFH   LINE      ---      ---       #884
      0081B8FFH   LINE      ---      ---       #885
      ---         BLOCKEND  ---      ---       LVL=0

      0081BBF2H   BLOCK     CODE/B1  ---       LVL=0
      0081BBF2H   LINE      ---      ---       #898
      0081BBF2H   LINE      ---      ---       #899
      0081BBF2H   LINE      ---      ---       #900
      ---         BLOCKEND  ---      ---       LVL=0

      0081B910H   BLOCK     CODE/B1  ---       LVL=0
      0081B910H   LINE      ---      ---       #914
      0081B910H   LINE      ---      ---       #915
      0081B910H   LINE      ---      ---       #917
      ---         BLOCKEND  ---      ---       LVL=0

      ---         MODULE    ---      ---       APPEMU7021A
      000000F3H   SFRSYM    DATA     BYTE      IB_CON2
      000000D8H.3 SFRSYM    DATA     BIT       TB81
      00000080H   SFRSYM    DATA     BYTE      P0
      000000F4H   SFRSYM    DATA     BYTE      IB_CON3
      000000A4H   SFRSYM    DATA     BYTE      TKCON
      00000090H   SFRSYM    DATA     BYTE      P1
      000000F5H   SFRSYM    DATA     BYTE      IB_CON4
      000000E7H   SFRSYM    DATA     BYTE      PASLO
      000000A0H   SFRSYM    DATA     BYTE      P2
      000000FEH   SFRSYM    DATA     BYTE      OSCLO
      000000F6H   SFRSYM    DATA     BYTE      IB_CON5
      00000098H.6 SFRSYM    DATA     BIT       SM1_RXOV
      000000B0H   SFRSYM    DATA     BYTE      P3
      000000D0H.6 SFRSYM    DATA     BIT       AC
      000000C0H   SFRSYM    DATA     BYTE      P4
      000000A1H   SFRSYM    DATA     BYTE      SPCON
      0000009CH   SFRSYM    DATA     BYTE      SBRTH
      000000E9H   SFRSYM    DATA     BYTE      P5
      000000A8H.7 SFRSYM    DATA     BIT       EA
      000000EAH   SFRSYM    DATA     BYTE      P6
      000000EBH   SFRSYM    DATA     BYTE      P7
      000000EFH   SFRSYM    DATA     BYTE      IB_DATA
      000000ECH   SFRSYM    DATA     BYTE      P8
      0000009DH   SFRSYM    DATA     BYTE      SBRTL
      000000EDH   SFRSYM    DATA     BYTE      P9
      000000B7H   SFRSYM    DATA     BYTE      PBANKLO
      000000A2H   SFRSYM    DATA     BYTE      SPSTA
      000000A8H   SFRSYM    DATA     BYTE      IEN0
      000000B3H   SFRSYM    DATA     BYTE      PWRCON1
      00000095H   SFRSYM    DATA     BYTE      EMUSR
      000000A9H   SFRSYM    DATA     BYTE      IEN1
      000000B4H   SFRSYM    DATA     BYTE      PWRCON2
      00000085H   SFRSYM    DATA     BYTE      DPH1
      00000080H   SFRSYM    DATA     BIT       P0_0
      00000090H   SFRSYM    DATA     BIT       P1_0
LX51 LINKER/LOCATER V4.66.41.0                                                        11/18/2021  18:54:16  PAGE 139


      00000080H.1 SFRSYM    DATA     BIT       P0_1
      000000C3H   SFRSYM    DATA     BYTE      ADCH
      000000A0H   SFRSYM    DATA     BIT       P2_0
      00000090H.1 SFRSYM    DATA     BIT       P1_1
      00000080H.2 SFRSYM    DATA     BIT       P0_2
      000000BAH   SFRSYM    DATA     BYTE      IPH0
      00000084H   SFRSYM    DATA     BYTE      DPL1
      000000B0H   SFRSYM    DATA     BIT       P3_0
      000000A0H.1 SFRSYM    DATA     BIT       P2_1
      00000090H.2 SFRSYM    DATA     BIT       P1_2
      00000080H.3 SFRSYM    DATA     BIT       P0_3
      000000BBH   SFRSYM    DATA     BYTE      IPH1
      000000C0H   SFRSYM    DATA     BIT       P4_0
      000000B0H.1 SFRSYM    DATA     BIT       P3_1
      000000A0H.2 SFRSYM    DATA     BIT       P2_2
      00000090H.3 SFRSYM    DATA     BIT       P1_3
      00000080H.4 SFRSYM    DATA     BIT       P0_4
      000000E8H   SFRSYM    DATA     BYTE      EXF0
      000000C0H.1 SFRSYM    DATA     BIT       P4_1
      000000B0H.2 SFRSYM    DATA     BIT       P3_2
      000000A0H.3 SFRSYM    DATA     BIT       P2_3
      00000090H.4 SFRSYM    DATA     BIT       P1_4
      00000080H.5 SFRSYM    DATA     BIT       P0_5
      000000C0H.2 SFRSYM    DATA     BIT       P4_2
      000000B0H.3 SFRSYM    DATA     BIT       P3_3
      000000A0H.4 SFRSYM    DATA     BIT       P2_4
      00000090H.5 SFRSYM    DATA     BIT       P1_5
      00000080H.6 SFRSYM    DATA     BIT       P0_6
      000000C8H.6 SFRSYM    DATA     BIT       EXF2
      000000A6H   SFRSYM    DATA     BYTE      TKF0
      000000B8H   SFRSYM    DATA     BYTE      IPL0
      000000C0H.3 SFRSYM    DATA     BIT       P4_3
      000000B0H.4 SFRSYM    DATA     BIT       P3_4
      000000A0H.5 SFRSYM    DATA     BIT       P2_5
      00000090H.6 SFRSYM    DATA     BIT       P1_6
      00000080H.7 SFRSYM    DATA     BIT       P0_7
      000000D8H.4 SFRSYM    DATA     BIT       REN1
      000000B9H   SFRSYM    DATA     BYTE      IPL1
      000000C0H.4 SFRSYM    DATA     BIT       P4_4
      000000B0H.5 SFRSYM    DATA     BIT       P3_5
      000000A0H.6 SFRSYM    DATA     BIT       P2_6
      00000090H.7 SFRSYM    DATA     BIT       P1_7
      000000E2H   SFRSYM    DATA     BYTE      TK0H
      0000008EH   SFRSYM    DATA     BYTE      SUSLO
      000000C0H.5 SFRSYM    DATA     BIT       P4_5
      000000B0H.6 SFRSYM    DATA     BIT       P3_6
      000000A0H.7 SFRSYM    DATA     BIT       P2_7
      000000E4H   SFRSYM    DATA     BYTE      TK1H
      000000C0H.6 SFRSYM    DATA     BIT       P4_6
      000000B0H.7 SFRSYM    DATA     BIT       P3_7
      000000E6H   SFRSYM    DATA     BYTE      TK2H
      000000C0H.7 SFRSYM    DATA     BIT       P4_7
      00000098H   SFRSYM    DATA     BIT       RI
      000000A8H.2 SFRSYM    DATA     BIT       E7816
      000000D0H.7 SFRSYM    DATA     BIT       CY
      000000E1H   SFRSYM    DATA     BYTE      TK0L
      00000098H.1 SFRSYM    DATA     BIT       TI
      00000091H   SFRSYM    DATA     BYTE      EADR
      000000E3H   SFRSYM    DATA     BYTE      TK1L
      000000E5H   SFRSYM    DATA     BYTE      TK2L
      000000DBH   SFRSYM    DATA     BYTE      SADEN1
      000000D8H.7 SFRSYM    DATA     BIT       SM10_FE1
      000000FBH   SFRSYM    DATA     BYTE      SADEN2
      000000B8H.4 SFRSYM    DATA     BIT       PS0L
      000000B8H.1 SFRSYM    DATA     BIT       PT0L
LX51 LINKER/LOCATER V4.66.41.0                                                        11/18/2021  18:54:16  PAGE 140


      000000DAH   SFRSYM    DATA     BYTE      SADDR1
      000000D8H.5 SFRSYM    DATA     BIT       SM12_TXCOL1
      000000B8H.3 SFRSYM    DATA     BIT       PT1L
      000000FAH   SFRSYM    DATA     BYTE      SADDR2
      000000CBH   SFRSYM    DATA     BYTE      RCAP2H
      000000B8H.5 SFRSYM    DATA     BIT       PT2L
      00000081H   SFRSYM    DATA     BYTE      SP
      000000D0H.2 SFRSYM    DATA     BIT       OV
      000000CAH   SFRSYM    DATA     BYTE      RCAP2L
      000000B8H   SFRSYM    DATA     BIT       PX4L
      000000C8H.1 SFRSYM    DATA     BIT       C_T2
      000000DEH   SFRSYM    DATA     BYTE      SFINE2
      000000ADH   SFRSYM    DATA     BYTE      IRCON1
      000000AFH   SFRSYM    DATA     BYTE      IRCON2
      000000ABH   SFRSYM    DATA     BYTE      EXCON1
      00000099H   SFRSYM    DATA     BYTE      SBUF
      000000ACH   SFRSYM    DATA     BYTE      EXCON2
      00000087H   SFRSYM    DATA     BYTE      PCON
      000000F1H   SFRSYM    DATA     BYTE      AUXC
      00000098H   SFRSYM    DATA     BYTE      SCON
      000000D4H   SFRSYM    DATA     BYTE      TK0BASEH
      00000089H   SFRSYM    DATA     BYTE      TMOD
      00000088H   SFRSYM    DATA     BYTE      TCON
      000000AAH   SFRSYM    DATA     BYTE      IENX
      000000EEH   SFRSYM    DATA     BYTE      IB_OFFSET
      000000D6H   SFRSYM    DATA     BYTE      TK1BASEH
      000000DCH   SFRSYM    DATA     BYTE      SBRT1H
      000000DFH   SFRSYM    DATA     BYTE      TK2BASEH
      000000FCH   SFRSYM    DATA     BYTE      SBRT2H
      000000B1H   SFRSYM    DATA     BYTE      RSTSTAT
      000000D3H   SFRSYM    DATA     BYTE      TK0BASEL
      000000D5H   SFRSYM    DATA     BYTE      TK1BASEL
      000000DDH   SFRSYM    DATA     BYTE      SBRT1L
      000000D7H   SFRSYM    DATA     BYTE      TK2BASEL
      000000FDH   SFRSYM    DATA     BYTE      SBRT2L
      00000098H.7 SFRSYM    DATA     BIT       SM0_FE
      000000B2H   SFRSYM    DATA     BYTE      CLKCON
      00000098H.5 SFRSYM    DATA     BIT       SM2_TXCOL
      000000B5H   SFRSYM    DATA     BYTE      LDOCON
      000000F0H   SFRSYM    DATA     BYTE      B
      000000C8H   SFRSYM    DATA     BIT       CP_RL2
      000000E0H   SFRSYM    DATA     BYTE      ACC
      000000A8H.4 SFRSYM    DATA     BIT       ES0
      000000A8H.1 SFRSYM    DATA     BIT       ET0
      000000A8H.3 SFRSYM    DATA     BIT       ET1
      00000088H.5 SFRSYM    DATA     BIT       TF0
      000000A8H.5 SFRSYM    DATA     BIT       ET2
      00000088H.7 SFRSYM    DATA     BIT       TF1
      000000D8H   SFRSYM    DATA     BIT       RI1
      00000098H.2 SFRSYM    DATA     BIT       RB8
      000000C8H.7 SFRSYM    DATA     BIT       TF2
      0000008CH   SFRSYM    DATA     BYTE      TH0
      00000086H   SFRSYM    DATA     BYTE      INSCON
      0000008DH   SFRSYM    DATA     BYTE      TH1
      000000D8H.1 SFRSYM    DATA     BIT       TI1
      00000098H.3 SFRSYM    DATA     BIT       TB8
      000000CDH   SFRSYM    DATA     BYTE      TH2
      000000D0H   SFRSYM    DATA     BIT       P
      0000008AH   SFRSYM    DATA     BYTE      TL0
      000000A8H   SFRSYM    DATA     BIT       EX4
      0000008BH   SFRSYM    DATA     BYTE      TL1
      000000A7H   SFRSYM    DATA     BYTE      FLASHCON
      000000CCH   SFRSYM    DATA     BYTE      TL2
      000000D0H.3 SFRSYM    DATA     BIT       RS0
      000000C5H   SFRSYM    DATA     BYTE      ADCDH
LX51 LINKER/LOCATER V4.66.41.0                                                        11/18/2021  18:54:16  PAGE 141


      00000088H.4 SFRSYM    DATA     BIT       TR0
      000000D0H.4 SFRSYM    DATA     BIT       RS1
      0000009FH   SFRSYM    DATA     BYTE      PWMCON
      00000088H.6 SFRSYM    DATA     BIT       TR1
      000000C8H.2 SFRSYM    DATA     BIT       TR2
      000000C4H   SFRSYM    DATA     BYTE      ADCDL
      000000C2H   SFRSYM    DATA     BYTE      ADT
      00000083H   SFRSYM    DATA     BYTE      DPH
      00000082H   SFRSYM    DATA     BYTE      DPL
      000000D9H   SFRSYM    DATA     BYTE      SBUF1
      000000C8H.3 SFRSYM    DATA     BIT       EXEN2
      000000F9H   SFRSYM    DATA     BYTE      SBUF2
      000000D8H.6 SFRSYM    DATA     BIT       SM11_RXOV1
      000000B8H.6 SFRSYM    DATA     BIT       PADCL
      00000098H.4 SFRSYM    DATA     BIT       REN
      000000D8H   SFRSYM    DATA     BYTE      SCON1
      000000D1H   SFRSYM    DATA     BYTE      LCDCON1
      000000C1H   SFRSYM    DATA     BYTE      ADCON
      000000F8H   SFRSYM    DATA     BYTE      SCON2
      0000008FH   SFRSYM    DATA     BYTE      TCON1
      000000D2H   SFRSYM    DATA     BYTE      LCDCON2
      00000092H   SFRSYM    DATA     BYTE      EDTAH
      000000C9H   SFRSYM    DATA     BYTE      T2MOD
      000000C8H   SFRSYM    DATA     BYTE      T2CON
      00000094H   SFRSYM    DATA     BYTE      EDTAL
      00000093H   SFRSYM    DATA     BYTE      EDTAM
      000000BCH   SFRSYM    DATA     BYTE      TK0DIFH
      0000009BH   SFRSYM    DATA     BYTE      SADEN
      000000BEH   SFRSYM    DATA     BYTE      TK1DIFH
      000000B6H   SFRSYM    DATA     BYTE      PBANK
      000000A5H   SFRSYM    DATA     BYTE      TK2DIFH
      000000A8H.6 SFRSYM    DATA     BIT       EADTP
      0000009AH   SFRSYM    DATA     BYTE      SADDR
      000000CFH   SFRSYM    DATA     BYTE      TK0DIFL
      000000BDH   SFRSYM    DATA     BYTE      TK1DIFL
      000000BFH   SFRSYM    DATA     BYTE      TK2DIFL
      000000B8H.2 SFRSYM    DATA     BIT       P7816L
      000000C6H   SFRSYM    DATA     BYTE      LPDCON1
      000000C7H   SFRSYM    DATA     BYTE      LPDCON2
      000000D0H.5 SFRSYM    DATA     BIT       F0
      000000AEH   SFRSYM    DATA     BYTE      IRDAT
      000000D0H.1 SFRSYM    DATA     BIT       F1
      00000096H   SFRSYM    DATA     BYTE      EMUIE
      0000009EH   SFRSYM    DATA     BYTE      SFINE
      000000F7H   SFRSYM    DATA     BYTE      XPAGE
      00000097H   SFRSYM    DATA     BYTE      EMUIF
      000000D0H   SFRSYM    DATA     BYTE      PSW
      000000D8H.2 SFRSYM    DATA     BIT       RB81
      000000A3H   SFRSYM    DATA     BYTE      SPDAT
      000000F2H   SFRSYM    DATA     BYTE      IB_CON1

      ---         MODULE    ---      ---       APPEMUATT7036
      02000AE4H   PUBLIC    XDATA    ---       C_ucCurrentTab
      02000AD8H   PUBLIC    XDATA    ---       Str_EnergyRegADDr
      02000A66H   PUBLIC    XDATA    ---       GA_EmuRegData
      02000A55H   PUBLIC    XDATA    ---       Str_RmsRegADDr
      020009E3H   PUBLIC    XDATA    ---       Str_TRIPEmuCalPara
      020009DDH   PUBLIC    XDATA    ---       Str_TRIPUIPKmsPara
      010018A4H   PUBLIC    CONST    ---       EMU_READ_TRIPEMUC_TAB
      01001884H   PUBLIC    CONST    ---       EMU_COMM_TRIPEMUC_TAB
      01001858H   PUBLIC    CONST    ---       Const_Cpu_Init
      010017E8H   PUBLIC    CONST    ---       Dl_Cpu_Init
      0081C599H   PUBLIC    CODE/B1  ---       ApiEMU_GetDirP
      0081A5EEH   PUBLIC    CODE/B1  ---       ApiEMU_UpdateUIP
      0081C2AAH   PUBLIC    CODE/B1  ---       _AppEMU_TripReadEmuReg
LX51 LINKER/LOCATER V4.66.41.0                                                        11/18/2021  18:54:16  PAGE 142


      0081BFD1H   PUBLIC    CODE/B1  ---       _ApiEMU_CommEndCal
      0081C0A3H   PUBLIC    CODE/B1  ---       _ApiEMU_CommErrCal
      00818610H   PUBLIC    CODE/B1  ---       _AppEMU_TRipCommSetReg
      0081C00AH   PUBLIC    CODE/B1  ---       _ApiEMU_CommStartCal
      0081815CH   PUBLIC    CODE/B1  ---       ApiEMU_EMUInit
      0081A1B5H   PUBLIC    CODE/B1  ---       ApiEMU_EMUParaCheck
      008183A6H   PUBLIC    CODE/B1  ---       AppEMU_SoftwareRESET_MeterIC
      0081BF9FH   PUBLIC    CODE/B1  ---       AppEMU_ClearEnergyData_MeterIC
      0081870BH   PUBLIC    CODE/B1  ---       _AppEMU_WriteRegToEE
      008182ACH   PUBLIC    CODE/B1  ---       _AppEMU_WriteOneReg_MeterIC
      020006B5H   PUBLIC    XDATA    BYTE      ?_AppEMU_ReadOneReg_MeterIC?BYTE
      0081A2A7H   PUBLIC    CODE/B1  ---       _AppEMU_ReadOneReg_MeterIC
      0081BF4DH   PUBLIC    CODE/B1  ---       _AppEMU_ReadDataModeSet
      00818309H   PUBLIC    CODE/B1  ---       AppEMU_WriteDisable_MeterIC
      0081BF13H   PUBLIC    CODE/B1  ---       AppEMU_WriteEnable_MeterIC
      0081BBF4H   PUBLIC    CODE/B1  ---       _ApiEMU_DisOrEnable
      000000F3H   SFRSYM    DATA     BYTE      IB_CON2
      000000D8H.3 SFRSYM    DATA     BIT       TB81
      00000080H   SFRSYM    DATA     BYTE      P0
      000000F4H   SFRSYM    DATA     BYTE      IB_CON3
      000000A4H   SFRSYM    DATA     BYTE      TKCON
      00000090H   SFRSYM    DATA     BYTE      P1
      000000F5H   SFRSYM    DATA     BYTE      IB_CON4
      000000E7H   SFRSYM    DATA     BYTE      PASLO
      000000A0H   SFRSYM    DATA     BYTE      P2
      000000FEH   SFRSYM    DATA     BYTE      OSCLO
      000000F6H   SFRSYM    DATA     BYTE      IB_CON5
      00000098H.6 SFRSYM    DATA     BIT       SM1_RXOV
      000000B0H   SFRSYM    DATA     BYTE      P3
      000000D0H.6 SFRSYM    DATA     BIT       AC
      000000C0H   SFRSYM    DATA     BYTE      P4
      000000A1H   SFRSYM    DATA     BYTE      SPCON
      0000009CH   SFRSYM    DATA     BYTE      SBRTH
      000000E9H   SFRSYM    DATA     BYTE      P5
      000000A8H.7 SFRSYM    DATA     BIT       EA
      000000EAH   SFRSYM    DATA     BYTE      P6
      000000EBH   SFRSYM    DATA     BYTE      P7
      000000EFH   SFRSYM    DATA     BYTE      IB_DATA
      000000ECH   SFRSYM    DATA     BYTE      P8
      0000009DH   SFRSYM    DATA     BYTE      SBRTL
      000000EDH   SFRSYM    DATA     BYTE      P9
      000000B7H   SFRSYM    DATA     BYTE      PBANKLO
      000000A2H   SFRSYM    DATA     BYTE      SPSTA
      000000A8H   SFRSYM    DATA     BYTE      IEN0
      000000B3H   SFRSYM    DATA     BYTE      PWRCON1
      00000095H   SFRSYM    DATA     BYTE      EMUSR
      000000A9H   SFRSYM    DATA     BYTE      IEN1
      000000B4H   SFRSYM    DATA     BYTE      PWRCON2
      00000085H   SFRSYM    DATA     BYTE      DPH1
      00000080H   SFRSYM    DATA     BIT       P0_0
      00000090H   SFRSYM    DATA     BIT       P1_0
      00000080H.1 SFRSYM    DATA     BIT       P0_1
      000000C3H   SFRSYM    DATA     BYTE      ADCH
      000000A0H   SFRSYM    DATA     BIT       P2_0
      00000090H.1 SFRSYM    DATA     BIT       P1_1
      00000080H.2 SFRSYM    DATA     BIT       P0_2
      000000BAH   SFRSYM    DATA     BYTE      IPH0
      00000084H   SFRSYM    DATA     BYTE      DPL1
      000000B0H   SFRSYM    DATA     BIT       P3_0
      000000A0H.1 SFRSYM    DATA     BIT       P2_1
      00000090H.2 SFRSYM    DATA     BIT       P1_2
      00000080H.3 SFRSYM    DATA     BIT       P0_3
      000000BBH   SFRSYM    DATA     BYTE      IPH1
      000000C0H   SFRSYM    DATA     BIT       P4_0
      000000B0H.1 SFRSYM    DATA     BIT       P3_1
LX51 LINKER/LOCATER V4.66.41.0                                                        11/18/2021  18:54:16  PAGE 143


      000000A0H.2 SFRSYM    DATA     BIT       P2_2
      00000090H.3 SFRSYM    DATA     BIT       P1_3
      00000080H.4 SFRSYM    DATA     BIT       P0_4
      000000E8H   SFRSYM    DATA     BYTE      EXF0
      000000C0H.1 SFRSYM    DATA     BIT       P4_1
      000000B0H.2 SFRSYM    DATA     BIT       P3_2
      000000A0H.3 SFRSYM    DATA     BIT       P2_3
      00000090H.4 SFRSYM    DATA     BIT       P1_4
      00000080H.5 SFRSYM    DATA     BIT       P0_5
      000000C0H.2 SFRSYM    DATA     BIT       P4_2
      000000B0H.3 SFRSYM    DATA     BIT       P3_3
      000000A0H.4 SFRSYM    DATA     BIT       P2_4
      00000090H.5 SFRSYM    DATA     BIT       P1_5
      00000080H.6 SFRSYM    DATA     BIT       P0_6
      000000C8H.6 SFRSYM    DATA     BIT       EXF2
      000000A6H   SFRSYM    DATA     BYTE      TKF0
      000000B8H   SFRSYM    DATA     BYTE      IPL0
      000000C0H.3 SFRSYM    DATA     BIT       P4_3
      000000B0H.4 SFRSYM    DATA     BIT       P3_4
      000000A0H.5 SFRSYM    DATA     BIT       P2_5
      00000090H.6 SFRSYM    DATA     BIT       P1_6
      00000080H.7 SFRSYM    DATA     BIT       P0_7
      000000D8H.4 SFRSYM    DATA     BIT       REN1
      000000B9H   SFRSYM    DATA     BYTE      IPL1
      000000C0H.4 SFRSYM    DATA     BIT       P4_4
      000000B0H.5 SFRSYM    DATA     BIT       P3_5
      000000A0H.6 SFRSYM    DATA     BIT       P2_6
      00000090H.7 SFRSYM    DATA     BIT       P1_7
      000000E2H   SFRSYM    DATA     BYTE      TK0H
      0000008EH   SFRSYM    DATA     BYTE      SUSLO
      000000C0H.5 SFRSYM    DATA     BIT       P4_5
      000000B0H.6 SFRSYM    DATA     BIT       P3_6
      000000A0H.7 SFRSYM    DATA     BIT       P2_7
      000000E4H   SFRSYM    DATA     BYTE      TK1H
      000000C0H.6 SFRSYM    DATA     BIT       P4_6
      000000B0H.7 SFRSYM    DATA     BIT       P3_7
      000000E6H   SFRSYM    DATA     BYTE      TK2H
      000000C0H.7 SFRSYM    DATA     BIT       P4_7
      00000098H   SFRSYM    DATA     BIT       RI
      000000A8H.2 SFRSYM    DATA     BIT       E7816
      000000D0H.7 SFRSYM    DATA     BIT       CY
      000000E1H   SFRSYM    DATA     BYTE      TK0L
      00000098H.1 SFRSYM    DATA     BIT       TI
      00000091H   SFRSYM    DATA     BYTE      EADR
      000000E3H   SFRSYM    DATA     BYTE      TK1L
      000000E5H   SFRSYM    DATA     BYTE      TK2L
      000000DBH   SFRSYM    DATA     BYTE      SADEN1
      000000D8H.7 SFRSYM    DATA     BIT       SM10_FE1
      000000FBH   SFRSYM    DATA     BYTE      SADEN2
      000000B8H.4 SFRSYM    DATA     BIT       PS0L
      000000B8H.1 SFRSYM    DATA     BIT       PT0L
      000000DAH   SFRSYM    DATA     BYTE      SADDR1
      000000D8H.5 SFRSYM    DATA     BIT       SM12_TXCOL1
      000000B8H.3 SFRSYM    DATA     BIT       PT1L
      000000FAH   SFRSYM    DATA     BYTE      SADDR2
      000000CBH   SFRSYM    DATA     BYTE      RCAP2H
      000000B8H.5 SFRSYM    DATA     BIT       PT2L
      00000081H   SFRSYM    DATA     BYTE      SP
      000000D0H.2 SFRSYM    DATA     BIT       OV
      000000CAH   SFRSYM    DATA     BYTE      RCAP2L
      000000B8H   SFRSYM    DATA     BIT       PX4L
      000000C8H.1 SFRSYM    DATA     BIT       C_T2
      000000DEH   SFRSYM    DATA     BYTE      SFINE2
      000000ADH   SFRSYM    DATA     BYTE      IRCON1
      000000AFH   SFRSYM    DATA     BYTE      IRCON2
LX51 LINKER/LOCATER V4.66.41.0                                                        11/18/2021  18:54:16  PAGE 144


      000000ABH   SFRSYM    DATA     BYTE      EXCON1
      00000099H   SFRSYM    DATA     BYTE      SBUF
      000000ACH   SFRSYM    DATA     BYTE      EXCON2
      00000087H   SFRSYM    DATA     BYTE      PCON
      000000F1H   SFRSYM    DATA     BYTE      AUXC
      00000098H   SFRSYM    DATA     BYTE      SCON
      000000D4H   SFRSYM    DATA     BYTE      TK0BASEH
      00000089H   SFRSYM    DATA     BYTE      TMOD
      00000088H   SFRSYM    DATA     BYTE      TCON
      000000AAH   SFRSYM    DATA     BYTE      IENX
      000000EEH   SFRSYM    DATA     BYTE      IB_OFFSET
      000000D6H   SFRSYM    DATA     BYTE      TK1BASEH
      000000DCH   SFRSYM    DATA     BYTE      SBRT1H
      000000DFH   SFRSYM    DATA     BYTE      TK2BASEH
      000000FCH   SFRSYM    DATA     BYTE      SBRT2H
      000000B1H   SFRSYM    DATA     BYTE      RSTSTAT
      000000D3H   SFRSYM    DATA     BYTE      TK0BASEL
      000000D5H   SFRSYM    DATA     BYTE      TK1BASEL
      000000DDH   SFRSYM    DATA     BYTE      SBRT1L
      000000D7H   SFRSYM    DATA     BYTE      TK2BASEL
      000000FDH   SFRSYM    DATA     BYTE      SBRT2L
      00000098H.7 SFRSYM    DATA     BIT       SM0_FE
      000000B2H   SFRSYM    DATA     BYTE      CLKCON
      00000098H.5 SFRSYM    DATA     BIT       SM2_TXCOL
      000000B5H   SFRSYM    DATA     BYTE      LDOCON
      000000F0H   SFRSYM    DATA     BYTE      B
      000000C8H   SFRSYM    DATA     BIT       CP_RL2
      000000E0H   SFRSYM    DATA     BYTE      ACC
      000000A8H.4 SFRSYM    DATA     BIT       ES0
      000000A8H.1 SFRSYM    DATA     BIT       ET0
      000000A8H.3 SFRSYM    DATA     BIT       ET1
      00000088H.5 SFRSYM    DATA     BIT       TF0
      000000A8H.5 SFRSYM    DATA     BIT       ET2
      00000088H.7 SFRSYM    DATA     BIT       TF1
      000000D8H   SFRSYM    DATA     BIT       RI1
      00000098H.2 SFRSYM    DATA     BIT       RB8
      000000C8H.7 SFRSYM    DATA     BIT       TF2
      0000008CH   SFRSYM    DATA     BYTE      TH0
      00000086H   SFRSYM    DATA     BYTE      INSCON
      0000008DH   SFRSYM    DATA     BYTE      TH1
      000000D8H.1 SFRSYM    DATA     BIT       TI1
      00000098H.3 SFRSYM    DATA     BIT       TB8
      000000CDH   SFRSYM    DATA     BYTE      TH2
      000000D0H   SFRSYM    DATA     BIT       P
      0000008AH   SFRSYM    DATA     BYTE      TL0
      000000A8H   SFRSYM    DATA     BIT       EX4
      0000008BH   SFRSYM    DATA     BYTE      TL1
      000000A7H   SFRSYM    DATA     BYTE      FLASHCON
      000000CCH   SFRSYM    DATA     BYTE      TL2
      000000D0H.3 SFRSYM    DATA     BIT       RS0
      000000C5H   SFRSYM    DATA     BYTE      ADCDH
      00000088H.4 SFRSYM    DATA     BIT       TR0
      000000D0H.4 SFRSYM    DATA     BIT       RS1
      0000009FH   SFRSYM    DATA     BYTE      PWMCON
      00000088H.6 SFRSYM    DATA     BIT       TR1
      000000C8H.2 SFRSYM    DATA     BIT       TR2
      000000C4H   SFRSYM    DATA     BYTE      ADCDL
      000000C2H   SFRSYM    DATA     BYTE      ADT
      00000083H   SFRSYM    DATA     BYTE      DPH
      00000082H   SFRSYM    DATA     BYTE      DPL
      000000D9H   SFRSYM    DATA     BYTE      SBUF1
      000000C8H.3 SFRSYM    DATA     BIT       EXEN2
      000000F9H   SFRSYM    DATA     BYTE      SBUF2
      000000D8H.6 SFRSYM    DATA     BIT       SM11_RXOV1
      000000B8H.6 SFRSYM    DATA     BIT       PADCL
LX51 LINKER/LOCATER V4.66.41.0                                                        11/18/2021  18:54:16  PAGE 145


      00000098H.4 SFRSYM    DATA     BIT       REN
      000000D8H   SFRSYM    DATA     BYTE      SCON1
      000000D1H   SFRSYM    DATA     BYTE      LCDCON1
      000000C1H   SFRSYM    DATA     BYTE      ADCON
      000000F8H   SFRSYM    DATA     BYTE      SCON2
      0000008FH   SFRSYM    DATA     BYTE      TCON1
      000000D2H   SFRSYM    DATA     BYTE      LCDCON2
      00000092H   SFRSYM    DATA     BYTE      EDTAH
      000000C9H   SFRSYM    DATA     BYTE      T2MOD
      000000C8H   SFRSYM    DATA     BYTE      T2CON
      00000094H   SFRSYM    DATA     BYTE      EDTAL
      00000093H   SFRSYM    DATA     BYTE      EDTAM
      000000BCH   SFRSYM    DATA     BYTE      TK0DIFH
      0000009BH   SFRSYM    DATA     BYTE      SADEN
      000000BEH   SFRSYM    DATA     BYTE      TK1DIFH
      000000B6H   SFRSYM    DATA     BYTE      PBANK
      000000A5H   SFRSYM    DATA     BYTE      TK2DIFH
      000000A8H.6 SFRSYM    DATA     BIT       EADTP
      0000009AH   SFRSYM    DATA     BYTE      SADDR
      000000CFH   SFRSYM    DATA     BYTE      TK0DIFL
      000000BDH   SFRSYM    DATA     BYTE      TK1DIFL
      000000BFH   SFRSYM    DATA     BYTE      TK2DIFL
      000000B8H.2 SFRSYM    DATA     BIT       P7816L
      000000C6H   SFRSYM    DATA     BYTE      LPDCON1
      000000C7H   SFRSYM    DATA     BYTE      LPDCON2
      000000D0H.5 SFRSYM    DATA     BIT       F0
      000000AEH   SFRSYM    DATA     BYTE      IRDAT
      000000D0H.1 SFRSYM    DATA     BIT       F1
      00000096H   SFRSYM    DATA     BYTE      EMUIE
      0000009EH   SFRSYM    DATA     BYTE      SFINE
      000000F7H   SFRSYM    DATA     BYTE      XPAGE
      00000097H   SFRSYM    DATA     BYTE      EMUIF
      000000D0H   SFRSYM    DATA     BYTE      PSW
      000000D8H.2 SFRSYM    DATA     BIT       RB81
      000000A3H   SFRSYM    DATA     BYTE      SPDAT
      000000F2H   SFRSYM    DATA     BYTE      IB_CON1
      0081BFDFH   SYMBOL    CODE/B1  ---       AppEMU_TripCheckCalParaCRC
      0081833BH   SYMBOL    CODE/B1  ---       AppEMU_ClearCalReg_MeterIC

      0081BBF4H   BLOCK     CODE/B1  ---       LVL=0
      0081BBF4H   LINE      ---      ---       #209
      0081BBF4H   LINE      ---      ---       #210
      0081BBF4H   LINE      ---      ---       #211
      0081BBF8H   LINE      ---      ---       #212
      0081BBF8H   LINE      ---      ---       #213
      0081BBFBH   LINE      ---      ---       #214
      0081BBFBH   LINE      ---      ---       #216
      0081BBFBH   LINE      ---      ---       #217
      00000007H   SYMBOL    DATA     BYTE      v_ucWorkMode
      ---         BLOCKEND  ---      ---       LVL=0

      0081BF13H   BLOCK     CODE/B1  ---       LVL=0
      0081BF13H   LINE      ---      ---       #231
      0081BF13H   LINE      ---      ---       #232
      0081BF13H   BLOCK     CODE/B1  NEAR LAB  LVL=1
      0081BF13H   LINE      ---      ---       #235
      0081BF1DH   LINE      ---      ---       #236
      0081BF20H   LINE      ---      ---       #238
      0081BF30H   LINE      ---      ---       #239
      0081BF30H   LINE      ---      ---       #240
      0081BF42H   LINE      ---      ---       #241
      0081BF4AH   LINE      ---      ---       #242
      0200064FH   SYMBOL    XDATA    ---       V_Data
      02000653H   SYMBOL    XDATA    BYTE      i
      02000654H   SYMBOL    XDATA    DWORD     V_EnWriteData
LX51 LINKER/LOCATER V4.66.41.0                                                        11/18/2021  18:54:16  PAGE 146


      ---         BLOCKEND  CODE/B1  ---       LVL=1
      ---         BLOCKEND  CODE/B1  ---       LVL=0

      00818309H   BLOCK     CODE/B1  ---       LVL=0
      00818309H   LINE      ---      ---       #254
      00818309H   LINE      ---      ---       #255
      00818309H   BLOCK     CODE/B1  NEAR LAB  LVL=1
      00818309H   LINE      ---      ---       #258
      00818313H   LINE      ---      ---       #259
      00818316H   LINE      ---      ---       #261
      00818325H   LINE      ---      ---       #262
      00818325H   LINE      ---      ---       #263
      00818330H   LINE      ---      ---       #264
      00818338H   LINE      ---      ---       #265
      0200064FH   SYMBOL    XDATA    ---       V_Data
      02000653H   SYMBOL    XDATA    BYTE      i
      02000654H   SYMBOL    XDATA    DWORD     V_DisWriteData
      ---         BLOCKEND  CODE/B1  ---       LVL=1
      ---         BLOCKEND  CODE/B1  ---       LVL=0

      0081BF4DH   BLOCK     CODE/B1  ---       LVL=0
      0081BF4DH   LINE      ---      ---       #278
      0081BF4DH   LINE      ---      ---       #279
      00000007H   SYMBOL    DATA     BYTE      V_ModeData
      0081BF4DH   BLOCK     CODE/B1  NEAR LAB  LVL=1
      0081BF4DH   LINE      ---      ---       #282
      0081BF53H   LINE      ---      ---       #283
      0081BF53H   LINE      ---      ---       #284
      0081BF5AH   LINE      ---      ---       #285
      0081BF5CH   LINE      ---      ---       #287
      0081BF5CH   LINE      ---      ---       #288
      0081BF63H   LINE      ---      ---       #289
      0081BF63H   LINE      ---      ---       #290
      0081BF66H   LINE      ---      ---       #291
      0081BF72H   LINE      ---      ---       #292
      0081BF82H   LINE      ---      ---       #293
      0081BF82H   LINE      ---      ---       #294
      0081BF94H   LINE      ---      ---       #295
      0081BF9CH   LINE      ---      ---       #296
      020006BAH   SYMBOL    XDATA    ---       V_Data
      020006BEH   SYMBOL    XDATA    BYTE      i
      020006BFH   SYMBOL    XDATA    DWORD     V_EnWriteData
      ---         BLOCKEND  CODE/B1  ---       LVL=1
      ---         BLOCKEND  CODE/B1  ---       LVL=0

      0081A289H   BLOCK     CODE/B1  ---       LVL=0
      0081A2A7H   LINE      ---      ---       #311
      0081A2B5H   LINE      ---      ---       #312
      0081A2B5H   LINE      ---      ---       #313
      0081A2BBH   LINE      ---      ---       #314
      0081A2BEH   LINE      ---      ---       #315
      0081A2C8H   LINE      ---      ---       #316
      0081A2CBH   LINE      ---      ---       #317
      0081A2DDH   LINE      ---      ---       #318
      0081A2F2H   LINE      ---      ---       #319
      0081A307H   LINE      ---      ---       #320
      020006B5H   SYMBOL    XDATA    BYTE      V_usRegAddr
      020006B6H   SYMBOL    XDATA    ---       P_Data
      020006B9H   SYMBOL    XDATA    BYTE      V_MeaORCal
      ---         BLOCKEND  ---      ---       LVL=0

      00818288H   BLOCK     CODE/B1  ---       LVL=0
      008182ACH   LINE      ---      ---       #336
      008182B1H   LINE      ---      ---       #337
      00000001H   SYMBOL    DATA     ---       P_Data
LX51 LINKER/LOCATER V4.66.41.0                                                        11/18/2021  18:54:16  PAGE 147


      0200064AH   SYMBOL    XDATA    BYTE      V_RegAddr
      008182B1H   BLOCK     CODE/B1  NEAR LAB  LVL=1
      008182B1H   LINE      ---      ---       #339
      008182B8H   LINE      ---      ---       #340
      008182C2H   LINE      ---      ---       #341
      008182CCH   LINE      ---      ---       #342
      008182CFH   LINE      ---      ---       #343
      008182D2H   LINE      ---      ---       #344
      008182DCH   LINE      ---      ---       #345
      008182ECH   LINE      ---      ---       #346
      008182ECH   LINE      ---      ---       #347
      008182FEH   LINE      ---      ---       #348
      00818306H   LINE      ---      ---       #349
      0200064BH   SYMBOL    XDATA    ---       V_Data
      0200064EH   SYMBOL    XDATA    BYTE      i
      ---         BLOCKEND  CODE/B1  ---       LVL=1
      ---         BLOCKEND  CODE/B1  ---       LVL=0

      0081870BH   BLOCK     CODE/B1  ---       LVL=0
      0081870BH   LINE      ---      ---       #365
      00818710H   LINE      ---      ---       #366
      00000001H   SYMBOL    DATA     ---       P_Data
      0200064AH   SYMBOL    XDATA    BYTE      V_RegAddr
      00818710H   BLOCK     CODE/B1  NEAR LAB  LVL=1
      00818710H   LINE      ---      ---       #368
      00818717H   LINE      ---      ---       #369
      00818721H   LINE      ---      ---       #370
      0081872BH   LINE      ---      ---       #371
      00818732H   LINE      ---      ---       #372
      00818744H   LINE      ---      ---       #373
      00818744H   LINE      ---      ---       #374
      0081875EH   LINE      ---      ---       #375
      0081876DH   LINE      ---      ---       #376
      0081876DH   LINE      ---      ---       #377
      00818774H   LINE      ---      ---       #378
      00818779H   LINE      ---      ---       #379
      00818794H   LINE      ---      ---       #380
      008187AAH   LINE      ---      ---       #381
      008187D3H   LINE      ---      ---       #383
      008187EEH   LINE      ---      ---       #384
      00818803H   LINE      ---      ---       #386
      00818806H   LINE      ---      ---       #390
      0081881CH   LINE      ---      ---       #391
      00818825H   LINE      ---      ---       #392
      0081882AH   LINE      ---      ---       #393
      0081882BH   LINE      ---      ---       #394
      0081882BH   LINE      ---      ---       #395
      00818834H   LINE      ---      ---       #396
      0200064BH   SYMBOL    XDATA    ---       V_Data
      0200064EH   SYMBOL    XDATA    BYTE      i
      0200064FH   SYMBOL    XDATA    ---       V_WriteData
      ---         BLOCKEND  CODE/B1  ---       LVL=1
      ---         BLOCKEND  CODE/B1  ---       LVL=0

      0081833BH   BLOCK     CODE/B1  ---       LVL=0
      0081833BH   LINE      ---      ---       #407
      0081833BH   LINE      ---      ---       #408
      0081833BH   BLOCK     CODE/B1  NEAR LAB  LVL=1
      0081833BH   LINE      ---      ---       #411
      00818344H   LINE      ---      ---       #412
      0081834AH   LINE      ---      ---       #413
      00818353H   LINE      ---      ---       #414
      0081835AH   LINE      ---      ---       #415
      0081835FH   LINE      ---      ---       #417
      00818362H   LINE      ---      ---       #419
LX51 LINKER/LOCATER V4.66.41.0                                                        11/18/2021  18:54:16  PAGE 148


      00818371H   LINE      ---      ---       #420
      00818371H   LINE      ---      ---       #421
      0081838BH   LINE      ---      ---       #422
      00818395H   LINE      ---      ---       #423
      0081839DH   LINE      ---      ---       #424
      008183A5H   LINE      ---      ---       #425
      02000641H   SYMBOL    XDATA    BYTE      V_Addr
      02000642H   SYMBOL    XDATA    ---       V_WriteData
      02000646H   SYMBOL    XDATA    BYTE      i
      ---         BLOCKEND  CODE/B1  ---       LVL=1
      ---         BLOCKEND  CODE/B1  ---       LVL=0

      0081BF9FH   BLOCK     CODE/B1  ---       LVL=0
      0081BF9FH   LINE      ---      ---       #437
      0081BF9FH   LINE      ---      ---       #438
      0081BF9FH   BLOCK     CODE/B1  NEAR LAB  LVL=1
      0081BF9FH   LINE      ---      ---       #440
      0081BFAEH   LINE      ---      ---       #441
      0081BFAEH   LINE      ---      ---       #442
      0081BFC8H   LINE      ---      ---       #443
      0081BFD0H   LINE      ---      ---       #444
      0200063BH   SYMBOL    XDATA    BYTE      i
      0200063CH   SYMBOL    XDATA    ---       V_Data
      ---         BLOCKEND  CODE/B1  ---       LVL=1
      ---         BLOCKEND  CODE/B1  ---       LVL=0

      008183A6H   BLOCK     CODE/B1  ---       LVL=0
      008183A6H   LINE      ---      ---       #455
      008183A6H   LINE      ---      ---       #456
      008183A6H   BLOCK     CODE/B1  NEAR LAB  LVL=1
      008183A6H   LINE      ---      ---       #458
      008183AFH   LINE      ---      ---       #459
      008183B1H   LINE      ---      ---       #460
      008183BBH   LINE      ---      ---       #461
      008183C0H   LINE      ---      ---       #463
      00000007H   SYMBOL    DATA     BYTE      V_Addr
      02000625H   SYMBOL    XDATA    ---       V_WriteData
      ---         BLOCKEND  CODE/B1  ---       LVL=1
      ---         BLOCKEND  CODE/B1  ---       LVL=0

      0081A1B5H   BLOCK     CODE/B1  ---       LVL=0
      0081A1B5H   LINE      ---      ---       #476
      0081A1B5H   LINE      ---      ---       #477
      0081A1B5H   BLOCK     CODE/B1  NEAR LAB  LVL=1
      0081A1B5H   LINE      ---      ---       #478
      0081A1BBH   LINE      ---      ---       #481
      0081A1BBH   LINE      ---      ---       #484
      0081A1C8H   LINE      ---      ---       #485
      0081A1C8H   LINE      ---      ---       #486
      0081A1DBH   LINE      ---      ---       #490
      0081A1FDH   LINE      ---      ---       #491
      0081A1FDH   LINE      ---      ---       #492
      0081A1FDH   LINE      ---      ---       #493
      0081A1FDH   LINE      ---      ---       #494
      0081A205H   LINE      ---      ---       #495
      0081A20EH   LINE      ---      ---       #498
      0081A216H   LINE      ---      ---       #499
      0081A216H   LINE      ---      ---       #500
      0081A216H   LINE      ---      ---       #501
      0081A216H   LINE      ---      ---       #503
      0081A225H   LINE      ---      ---       #504
      0081A225H   LINE      ---      ---       #505
      0081A240H   LINE      ---      ---       #509
      0081A262H   LINE      ---      ---       #510
      0081A262H   LINE      ---      ---       #511
LX51 LINKER/LOCATER V4.66.41.0                                                        11/18/2021  18:54:16  PAGE 149


      0081A262H   LINE      ---      ---       #512
      0081A262H   LINE      ---      ---       #513
      0081A26AH   LINE      ---      ---       #514
      0081A273H   LINE      ---      ---       #516
      0081A278H   LINE      ---      ---       #518
      0081A278H   LINE      ---      ---       #521
      0081A285H   LINE      ---      ---       #522
      0081A285H   LINE      ---      ---       #523
      0081A288H   LINE      ---      ---       #524
      0081A288H   LINE      ---      ---       #528
      0200060FH   SYMBOL    XDATA    BYTE      V_ucResult
      02000610H   SYMBOL    XDATA    BYTE      V_ucCnti
      02000611H   SYMBOL    XDATA    BYTE      V_Addr
      02000612H   SYMBOL    XDATA    ---       V_ReadData
      02000616H   SYMBOL    XDATA    ---       V_WriteData
      ---         BLOCKEND  CODE/B1  ---       LVL=1
      ---         BLOCKEND  CODE/B1  ---       LVL=0

      0081815CH   BLOCK     CODE/B1  ---       LVL=0
      0081815CH   LINE      ---      ---       #539
      0081815CH   LINE      ---      ---       #540
      0081815CH   BLOCK     CODE/B1  NEAR LAB  LVL=1
      0081815CH   LINE      ---      ---       #544
      0081815FH   LINE      ---      ---       #545
      00818162H   LINE      ---      ---       #547
      00818164H   LINE      ---      ---       #549
      0081817DH   LINE      ---      ---       #551
      0081817DH   LINE      ---      ---       #552
      00818183H   LINE      ---      ---       #555
      00818183H   LINE      ---      ---       #556
      00818192H   LINE      ---      ---       #557
      00818192H   LINE      ---      ---       #558
      008181B4H   LINE      ---      ---       #559
      008181BCH   LINE      ---      ---       #560
      008181BCH   LINE      ---      ---       #561
      008181BCH   LINE      ---      ---       #562
      008181BCH   LINE      ---      ---       #564
      008181BEH   LINE      ---      ---       #566
      008181D2H   LINE      ---      ---       #567
      008181DCH   LINE      ---      ---       #568
      008181E8H   LINE      ---      ---       #569
      008181F2H   LINE      ---      ---       #571
      00818201H   LINE      ---      ---       #572
      00818201H   LINE      ---      ---       #573
      00818223H   LINE      ---      ---       #574
      0081822DH   LINE      ---      ---       #575
      00818235H   LINE      ---      ---       #576
      0081823DH   LINE      ---      ---       #578
      00818251H   LINE      ---      ---       #579
      0081825BH   LINE      ---      ---       #580
      00818267H   LINE      ---      ---       #581
      0200061AH   SYMBOL    XDATA    ---       V_CalRegData
      0200061DH   SYMBOL    XDATA    BYTE      i
      0200061EH   SYMBOL    XDATA    BYTE      V_Addr
      0200061FH   SYMBOL    XDATA    ---       V_WriteData
      02000623H   SYMBOL    XDATA    WORD      V_Data
      ---         BLOCKEND  CODE/B1  ---       LVL=1
      ---         BLOCKEND  CODE/B1  ---       LVL=0

      0081BFDFH   BLOCK     CODE/B1  ---       LVL=0
      0081BFDFH   LINE      ---      ---       #595
      0081BFDFH   LINE      ---      ---       #596
      0081BFDFH   LINE      ---      ---       #597
      0081BFE5H   LINE      ---      ---       #598
      0081BFE5H   LINE      ---      ---       #599
LX51 LINKER/LOCATER V4.66.41.0                                                        11/18/2021  18:54:16  PAGE 150


      0081BFFEH   LINE      ---      ---       #601
      0081BFFEH   LINE      ---      ---       #602
      0081C004H   LINE      ---      ---       #605
      0081C004H   LINE      ---      ---       #606
      0081C007H   LINE      ---      ---       #607
      0081C007H   LINE      ---      ---       #608
      0081C007H   LINE      ---      ---       #609
      0081C007H   LINE      ---      ---       #611
      0081C007H   LINE      ---      ---       #613
      0081C009H   LINE      ---      ---       #614
      ---         BLOCKEND  ---      ---       LVL=0

      0081C00AH   BLOCK     CODE/B1  ---       LVL=0
      0081C00AH   LINE      ---      ---       #646
      0081C012H   LINE      ---      ---       #647
      02000639H   SYMBOL    XDATA    INT       v_ucChID
      0081C012H   BLOCK     CODE/B1  NEAR LAB  LVL=1
      0081C012H   LINE      ---      ---       #650
      0081C019H   LINE      ---      ---       #652
      0081C02DH   LINE      ---      ---       #654
      0081C030H   LINE      ---      ---       #656
      0081C037H   LINE      ---      ---       #657
      0081C046H   LINE      ---      ---       #658
      0081C046H   LINE      ---      ---       #659
      0081C060H   LINE      ---      ---       #660
      0081C06AH   LINE      ---      ---       #661
      0081C073H   LINE      ---      ---       #662
      0081C07BH   LINE      ---      ---       #663
      0081C07EH   LINE      ---      ---       #667
      0081C094H   LINE      ---      ---       #668
      0081C09DH   LINE      ---      ---       #669
      0081C0A2H   LINE      ---      ---       #672
      0200063BH   SYMBOL    XDATA    BYTE      V_Addr
      0200063CH   SYMBOL    XDATA    ---       V_WriteData
      02000640H   SYMBOL    XDATA    BYTE      i
      ---         BLOCKEND  CODE/B1  ---       LVL=1
      ---         BLOCKEND  CODE/B1  ---       LVL=0

      00818610H   BLOCK     CODE/B1  ---       LVL=0
      00818610H   LINE      ---      ---       #683
      00818615H   LINE      ---      ---       #684
      02000639H   SYMBOL    XDATA    BYTE      v_ucChID
      00818615H   BLOCK     CODE/B1  NEAR LAB  LVL=1
      00818615H   LINE      ---      ---       #689
      00818619H   LINE      ---      ---       #690
      0081861CH   LINE      ---      ---       #691
      00818639H   LINE      ---      ---       #692
      00818648H   LINE      ---      ---       #697
      0081864EH   LINE      ---      ---       #698
      00818651H   LINE      ---      ---       #699
      0081866EH   LINE      ---      ---       #700
      0081867DH   LINE      ---      ---       #705
      00818683H   LINE      ---      ---       #706
      00818686H   LINE      ---      ---       #707
      008186A3H   LINE      ---      ---       #708
      008186B2H   LINE      ---      ---       #713
      008186B8H   LINE      ---      ---       #714
      008186BBH   LINE      ---      ---       #715
      008186D8H   LINE      ---      ---       #716
      008186F1H   LINE      ---      ---       #717
      008186FEH   LINE      ---      ---       #718
      0200063AH   SYMBOL    XDATA    ---       V_WriteData
      ---         BLOCKEND  CODE/B1  ---       LVL=1
      ---         BLOCKEND  CODE/B1  ---       LVL=0

LX51 LINKER/LOCATER V4.66.41.0                                                        11/18/2021  18:54:16  PAGE 151


      0081C0A3H   BLOCK     CODE/B1  ---       LVL=0
      0081C0A3H   LINE      ---      ---       #739
      0081C0A8H   LINE      ---      ---       #740
      02000639H   SYMBOL    XDATA    BYTE      v_ucChID
      0081C0A8H   BLOCK     CODE/B1  NEAR LAB  LVL=1
      0081C0A8H   LINE      ---      ---       #741
      0081C0ABH   LINE      ---      ---       #745
      0081C0ABH   LINE      ---      ---       #747
      0081C0CFH   LINE      ---      ---       #749
      0081C0CFH   LINE      ---      ---       #750
      0081C0D5H   LINE      ---      ---       #751
      0081C0D7H   LINE      ---      ---       #752
      0081C0D7H   LINE      ---      ---       #756
      0081C107H   LINE      ---      ---       #757
      0081C123H   LINE      ---      ---       #758
      0081C123H   LINE      ---      ---       #759
      0081C14DH   LINE      ---      ---       #760
      0081C17DH   LINE      ---      ---       #761
      0081C17DH   LINE      ---      ---       #766
      0081C18EH   LINE      ---      ---       #767
      0081C18EH   LINE      ---      ---       #768
      0081C1BDH   LINE      ---      ---       #769
      0081C1BDH   LINE      ---      ---       #770
      0081C1D6H   LINE      ---      ---       #771
      0081C1D6H   LINE      ---      ---       #772
      0081C1DBH   LINE      ---      ---       #773
      0081C200H   LINE      ---      ---       #774
      0081C209H   LINE      ---      ---       #775
      0081C217H   LINE      ---      ---       #776
      0081C21DH   LINE      ---      ---       #777
      0081C21FH   LINE      ---      ---       #779
      0081C21FH   LINE      ---      ---       #780
      0081C224H   LINE      ---      ---       #781
      0081C224H   LINE      ---      ---       #782
      0081C24AH   LINE      ---      ---       #783
      0081C25EH   LINE      ---      ---       #784
      0081C276H   LINE      ---      ---       #785
      0081C28EH   LINE      ---      ---       #786
      0081C29CH   LINE      ---      ---       #787
      0081C29CH   LINE      ---      ---       #788
      0081C29CH   LINE      ---      ---       #789
      0081C29CH   LINE      ---      ---       #791
      0081C2A4H   LINE      ---      ---       #805
      0081C2A4H   LINE      ---      ---       #808
      0081C2A9H   LINE      ---      ---       #809
      0200063AH   SYMBOL    XDATA    BYTE      V_ucResult
      0200063BH   SYMBOL    XDATA    BYTE      i
      0200063CH   SYMBOL    XDATA    BYTE      j
      0200063DH   SYMBOL    XDATA    BYTE      V_ucRegAddress
      0200063EH   SYMBOL    XDATA    ---       V_WriteData
      ---         BLOCKEND  CODE/B1  ---       LVL=1
      ---         BLOCKEND  CODE/B1  ---       LVL=0

      0081BFD1H   BLOCK     CODE/B1  ---       LVL=0
      0081BFD1H   LINE      ---      ---       #823
      0081BFD6H   LINE      ---      ---       #824
      02000639H   SYMBOL    XDATA    BYTE      v_ucChID
      0081BFD6H   BLOCK     CODE/B1  NEAR LAB  LVL=1
      0081BFD6H   LINE      ---      ---       #827
      0081BFD8H   LINE      ---      ---       #829
      0081BFDEH   LINE      ---      ---       #830
      0200063AH   SYMBOL    XDATA    BYTE      V_ucTemp
      ---         BLOCKEND  CODE/B1  ---       LVL=1
      ---         BLOCKEND  CODE/B1  ---       LVL=0

LX51 LINKER/LOCATER V4.66.41.0                                                        11/18/2021  18:54:16  PAGE 152


      0081C2AAH   BLOCK     CODE/B1  ---       LVL=0
      0081C2AAH   LINE      ---      ---       #844
      0081C2AFH   LINE      ---      ---       #845
      02000639H   SYMBOL    XDATA    BYTE      v_ucChID
      0081C2AFH   BLOCK     CODE/B1  NEAR LAB  LVL=1
      0081C2AFH   LINE      ---      ---       #846
      0081C2B2H   LINE      ---      ---       #850
      0081C2D1H   LINE      ---      ---       #851
      0081C2D1H   LINE      ---      ---       #852
      0081C2E1H   LINE      ---      ---       #853
      0081C2E1H   LINE      ---      ---       #854
      0081C310H   LINE      ---      ---       #855
      0081C310H   LINE      ---      ---       #856
      0081C329H   LINE      ---      ---       #857
      0081C329H   LINE      ---      ---       #858
      0081C32EH   LINE      ---      ---       #859
      0081C350H   LINE      ---      ---       #863
      0081C352H   LINE      ---      ---       #865
      0081C352H   LINE      ---      ---       #866
      0081C363H   LINE      ---      ---       #867
      0081C363H   LINE      ---      ---       #868
      0081C385H   LINE      ---      ---       #869
      0081C38EH   LINE      ---      ---       #870
      0081C393H   LINE      ---      ---       #871
      0081C3B9H   LINE      ---      ---       #872
      0081C3C1H   LINE      ---      ---       #873
      0081C3C1H   LINE      ---      ---       #875
      0081C3C1H   LINE      ---      ---       #876
      0081C3C9H   LINE      ---      ---       #877
      0081C3DAH   LINE      ---      ---       #878
      0081C3DAH   LINE      ---      ---       #879
      0081C409H   LINE      ---      ---       #880
      0081C409H   LINE      ---      ---       #881
      0081C422H   LINE      ---      ---       #882
      0081C422H   LINE      ---      ---       #883
      0081C427H   LINE      ---      ---       #884
      0081C44BH   LINE      ---      ---       #885
      0081C458H   LINE      ---      ---       #888
      0081C45AH   LINE      ---      ---       #890
      0081C45AH   LINE      ---      ---       #891
      0081C469H   LINE      ---      ---       #892
      0081C469H   LINE      ---      ---       #893
      0081C48BH   LINE      ---      ---       #894
      0081C499H   LINE      ---      ---       #895
      0081C49EH   LINE      ---      ---       #896
      0081C4C4H   LINE      ---      ---       #897
      0081C4CCH   LINE      ---      ---       #898
      0081C4CCH   LINE      ---      ---       #899
      0081C4CEH   LINE      ---      ---       #900
      0081C4CEH   LINE      ---      ---       #901
      0081C4D6H   LINE      ---      ---       #904
      0081C4D6H   LINE      ---      ---       #906
      0081C4F3H   LINE      ---      ---       #907
      0081C4F3H   LINE      ---      ---       #908
      0081C50AH   LINE      ---      ---       #909
      0081C50AH   LINE      ---      ---       #910
      0081C50AH   LINE      ---      ---       #911
      0081C50CH   LINE      ---      ---       #912
      0081C50CH   LINE      ---      ---       #913
      0081C52AH   LINE      ---      ---       #914
      0081C537H   LINE      ---      ---       #917
      0081C539H   LINE      ---      ---       #918
      0081C539H   LINE      ---      ---       #919
      0081C556H   LINE      ---      ---       #920
      0081C556H   LINE      ---      ---       #921
LX51 LINKER/LOCATER V4.66.41.0                                                        11/18/2021  18:54:16  PAGE 153


      0081C56DH   LINE      ---      ---       #922
      0081C56DH   LINE      ---      ---       #923
      0081C56DH   LINE      ---      ---       #924
      0081C56FH   LINE      ---      ---       #925
      0081C56FH   LINE      ---      ---       #926
      0081C58BH   LINE      ---      ---       #930
      0081C591H   LINE      ---      ---       #931
      0081C591H   LINE      ---      ---       #933
      0081C597H   LINE      ---      ---       #934
      0081C598H   LINE      ---      ---       #935
      0200063AH   SYMBOL    XDATA    BYTE      V_ucResult
      0200063BH   SYMBOL    XDATA    BYTE      i
      0200063CH   SYMBOL    XDATA    BYTE      j
      0200063DH   SYMBOL    XDATA    BYTE      V_ucRegAddress
      0200063EH   SYMBOL    XDATA    ---       V_ReadData
      ---         BLOCKEND  CODE/B1  ---       LVL=1
      ---         BLOCKEND  CODE/B1  ---       LVL=0

      0081A5EEH   BLOCK     CODE/B1  ---       LVL=0
      0081A5EEH   LINE      ---      ---       #950
      0081A5EEH   LINE      ---      ---       #951
      0081A5EEH   BLOCK     CODE/B1  NEAR LAB  LVL=1
      0081A5EEH   LINE      ---      ---       #958
      0081A5F3H   LINE      ---      ---       #959
      0081A5F5H   LINE      ---      ---       #960
      0081A5F7H   LINE      ---      ---       #963
      0081A61BH   LINE      ---      ---       #966
      0081A62AH   LINE      ---      ---       #967
      0081A62AH   LINE      ---      ---       #968
      0081A64CH   LINE      ---      ---       #969
      0081A660H   LINE      ---      ---       #970
      0081A686H   LINE      ---      ---       #971
      0081A68EH   LINE      ---      ---       #975
      0081A6BCH   LINE      ---      ---       #976
      0081A6EAH   LINE      ---      ---       #977
      0081A718H   LINE      ---      ---       #978
      0081A747H   LINE      ---      ---       #980
      0081A758H   LINE      ---      ---       #981
      0081A758H   LINE      ---      ---       #983
      0081A77DH   LINE      ---      ---       #984
      0081A77DH   LINE      ---      ---       #985
      0081A795H   LINE      ---      ---       #986
      0081A795H   LINE      ---      ---       #987
      0081A7CEH   LINE      ---      ---       #988
      0081A7D6H   LINE      ---      ---       #990
      0081A7F3H   LINE      ---      ---       #991
      0081A810H   LINE      ---      ---       #993
      0081A82DH   LINE      ---      ---       #994
      0081A84AH   LINE      ---      ---       #996
      0081A867H   LINE      ---      ---       #997
      0081A884H   LINE      ---      ---       #999
      0081A8A1H   LINE      ---      ---       #1000
      0081A8BEH   LINE      ---      ---       #1003
      0081A923H   LINE      ---      ---       #1004
      0081A988H   LINE      ---      ---       #1005
      0081A9EDH   LINE      ---      ---       #1006
      0081AA53H   LINE      ---      ---       #1008
      0081AA70H   LINE      ---      ---       #1009
      0081AA8DH   LINE      ---      ---       #1010
      0081AAAAH   LINE      ---      ---       #1011
      0081AAC7H   LINE      ---      ---       #1013
      0081AAE2H   LINE      ---      ---       #1014
      0081AAFDH   LINE      ---      ---       #1015
      0081AB18H   LINE      ---      ---       #1016
      0081AB33H   LINE      ---      ---       #1021
LX51 LINKER/LOCATER V4.66.41.0                                                        11/18/2021  18:54:16  PAGE 154


      0081AB69H   LINE      ---      ---       #1023
      0081AB73H   LINE      ---      ---       #1024
      0081AB84H   LINE      ---      ---       #1025
      0081AB84H   LINE      ---      ---       #1026
      0081ABADH   LINE      ---      ---       #1027
      0081ABADH   LINE      ---      ---       #1028
      0081ABD7H   LINE      ---      ---       #1029
      0081ABD9H   LINE      ---      ---       #1031
      0081ABD9H   LINE      ---      ---       #1032
      0081AC03H   LINE      ---      ---       #1033
      0081AC03H   LINE      ---      ---       #1034
      0081AC0CH   LINE      ---      ---       #1035
      0081AC0CH   LINE      ---      ---       #1036
      0081AC85H   LINE      ---      ---       #1037
      0081AC87H   LINE      ---      ---       #1039
      0081AC87H   LINE      ---      ---       #1040
      0081AD23H   LINE      ---      ---       #1041
      0081AD23H   LINE      ---      ---       #1042
      0081AD2BH   LINE      ---      ---       #1043
      0081AD48H   LINE      ---      ---       #1044
      0081AD65H   LINE      ---      ---       #1045
      0081AD82H   LINE      ---      ---       #1046
      0081AD9FH   LINE      ---      ---       #1048
      0081ADBAH   LINE      ---      ---       #1049
      0081ADD5H   LINE      ---      ---       #1050
      0081ADF0H   LINE      ---      ---       #1051
      0081AE0BH   LINE      ---      ---       #1055
      0081AE1CH   LINE      ---      ---       #1056
      0081AE1CH   LINE      ---      ---       #1057
      0081AE45H   LINE      ---      ---       #1058
      0081AE45H   LINE      ---      ---       #1059
      0081AE6FH   LINE      ---      ---       #1060
      0081AE71H   LINE      ---      ---       #1062
      0081AE71H   LINE      ---      ---       #1063
      0081AE9BH   LINE      ---      ---       #1064
      0081AE9BH   LINE      ---      ---       #1065
      0081AEEFH   LINE      ---      ---       #1066
      0081AEF7H   LINE      ---      ---       #1067
      0081AF14H   LINE      ---      ---       #1068
      0081AF31H   LINE      ---      ---       #1069
      0081AF4EH   LINE      ---      ---       #1070
      0081AF6BH   LINE      ---      ---       #1072
      0081AF86H   LINE      ---      ---       #1073
      0081AFA1H   LINE      ---      ---       #1074
      0081AFBCH   LINE      ---      ---       #1075
      0081AFD7H   LINE      ---      ---       #1079
      0081AFE9H   LINE      ---      ---       #1080
      0081B017H   LINE      ---      ---       #1081
      0081B034H   LINE      ---      ---       #1083
      0081B044H   LINE      ---      ---       #1084
      0081B04CH   LINE      ---      ---       #1085
      0081B04CH   LINE      ---      ---       #1086
      0081B050H   LINE      ---      ---       #1087
      0081B057H   LINE      ---      ---       #1088
      0081B05EH   LINE      ---      ---       #1089
      0081B065H   LINE      ---      ---       #1090
      0081B065H   LINE      ---      ---       #1091
      0081B069H   LINE      ---      ---       #1092
      0081B069H   LINE      ---      ---       #1093
      0081B06FH   LINE      ---      ---       #1094
      0081B076H   LINE      ---      ---       #1095
      0081B07DH   LINE      ---      ---       #1096
      0081B084H   LINE      ---      ---       #1097
      0081B084H   LINE      ---      ---       #1098
      0081B08BH   LINE      ---      ---       #1099
LX51 LINKER/LOCATER V4.66.41.0                                                        11/18/2021  18:54:16  PAGE 155


      0081B08BH   LINE      ---      ---       #1100
      0081B091H   LINE      ---      ---       #1101
      0081B098H   LINE      ---      ---       #1102
      0081B09FH   LINE      ---      ---       #1103
      0081B0A6H   LINE      ---      ---       #1104
      0081B0A6H   LINE      ---      ---       #1105
      0081B0ADH   LINE      ---      ---       #1106
      0081B0ADH   LINE      ---      ---       #1107
      0081B0B4H   LINE      ---      ---       #1108
      0081B0BBH   LINE      ---      ---       #1109
      0081B0C2H   LINE      ---      ---       #1110
      0081B0C2H   LINE      ---      ---       #1114
      0081B0D2H   LINE      ---      ---       #1116
      0081B0DBH   LINE      ---      ---       #1117
      0081B0DBH   LINE      ---      ---       #1118
      0081B0E2H   LINE      ---      ---       #1119
      0081B0E2H   LINE      ---      ---       #1120
      0081B11BH   LINE      ---      ---       #1121
      0081B11BH   LINE      ---      ---       #1122
      0081B124H   LINE      ---      ---       #1123
      0081B12DH   LINE      ---      ---       #1124
      0081B12DH   LINE      ---      ---       #1125
      0081B136H   LINE      ---      ---       #1126
      0081B13FH   LINE      ---      ---       #1127
      0081B13FH   LINE      ---      ---       #1128
      0081B148H   LINE      ---      ---       #1129
      0081B151H   LINE      ---      ---       #1130
      0081B157H   LINE      ---      ---       #1131
      0081B15BH   LINE      ---      ---       #1132
      0081B160H   LINE      ---      ---       #1133
      0081B160H   LINE      ---      ---       #1134
      0081B169H   LINE      ---      ---       #1135
      0081B169H   LINE      ---      ---       #1136
      0081B170H   LINE      ---      ---       #1137
      0081B170H   LINE      ---      ---       #1138
      0081B1A9H   LINE      ---      ---       #1139
      0081B1A9H   LINE      ---      ---       #1140
      0081B1B2H   LINE      ---      ---       #1141
      0081B1BBH   LINE      ---      ---       #1142
      0081B1BBH   LINE      ---      ---       #1143
      0081B1C4H   LINE      ---      ---       #1144
      0081B1CDH   LINE      ---      ---       #1145
      0081B1CDH   LINE      ---      ---       #1146
      0081B1D6H   LINE      ---      ---       #1147
      0081B1DFH   LINE      ---      ---       #1148
      0081B1E5H   LINE      ---      ---       #1149
      0081B1E9H   LINE      ---      ---       #1150
      0081B1EEH   LINE      ---      ---       #1151
      0081B1EEH   LINE      ---      ---       #1152
      0081B1F7H   LINE      ---      ---       #1153
      0081B1F7H   LINE      ---      ---       #1154
      0081B1FEH   LINE      ---      ---       #1155
      0081B1FEH   LINE      ---      ---       #1156
      0081B237H   LINE      ---      ---       #1157
      0081B237H   LINE      ---      ---       #1158
      0081B240H   LINE      ---      ---       #1159
      0081B249H   LINE      ---      ---       #1160
      0081B249H   LINE      ---      ---       #1161
      0081B252H   LINE      ---      ---       #1162
      0081B25BH   LINE      ---      ---       #1163
      0081B25BH   LINE      ---      ---       #1164
      0081B264H   LINE      ---      ---       #1165
      0081B26DH   LINE      ---      ---       #1166
      0081B273H   LINE      ---      ---       #1167
      0081B277H   LINE      ---      ---       #1168
LX51 LINKER/LOCATER V4.66.41.0                                                        11/18/2021  18:54:16  PAGE 156


      0081B27CH   LINE      ---      ---       #1169
      0081B27CH   LINE      ---      ---       #1170
      0081B290H   LINE      ---      ---       #1171
      0081B290H   LINE      ---      ---       #1172
      0081B297H   LINE      ---      ---       #1173
      0081B297H   LINE      ---      ---       #1174
      0081B2CFH   LINE      ---      ---       #1175
      0081B2CFH   LINE      ---      ---       #1176
      0081B2D8H   LINE      ---      ---       #1177
      0081B2E1H   LINE      ---      ---       #1178
      0081B2E1H   LINE      ---      ---       #1179
      0081B2EAH   LINE      ---      ---       #1180
      0081B2F3H   LINE      ---      ---       #1181
      0081B2F3H   LINE      ---      ---       #1182
      0081B2FCH   LINE      ---      ---       #1183
      0081B305H   LINE      ---      ---       #1184
      0081B30BH   LINE      ---      ---       #1185
      0081B30FH   LINE      ---      ---       #1186
      0081B30FH   LINE      ---      ---       #1188
      0081B31DH   LINE      ---      ---       #1189
      0081B31DH   LINE      ---      ---       #1190
      0081B324H   LINE      ---      ---       #1191
      0081B326H   LINE      ---      ---       #1193
      0081B326H   LINE      ---      ---       #1194
      0081B32DH   LINE      ---      ---       #1195
      0081B32DH   LINE      ---      ---       #1198
      0081B32FH   LINE      ---      ---       #1199
      0200060EH   SYMBOL    XDATA    BYTE      i
      0200060FH   SYMBOL    XDATA    ---       V_ucaRegData
      02000653H   SYMBOL    XDATA    ---       V_ulaRegData
      02000697H   SYMBOL    XDATA    ---       V_ulTemp
      020006A7H   SYMBOL    XDATA    DWORD     V_ulKms1
      020006ABH   SYMBOL    XDATA    DWORD     V_ulKms2
      020006AFH   SYMBOL    XDATA    ---       V_ucaReverseData
      020006B2H   SYMBOL    XDATA    BYTE      V_ucaReverseFlag_A
      020006B3H   SYMBOL    XDATA    BYTE      V_ucaReverseFlag_B
      020006B4H   SYMBOL    XDATA    BYTE      V_ucaReverseFlag_C
      ---         BLOCKEND  CODE/B1  ---       LVL=1
      ---         BLOCKEND  CODE/B1  ---       LVL=0

      0081C599H   BLOCK     CODE/B1  ---       LVL=0
      0081C599H   LINE      ---      ---       #1210
      0081C599H   LINE      ---      ---       #1211
      0081C599H   BLOCK     CODE/B1  NEAR LAB  LVL=1
      0081C599H   LINE      ---      ---       #1214
      0081C5A9H   LINE      ---      ---       #1216
      0081C5B2H   LINE      ---      ---       #1217
      0081C5B2H   LINE      ---      ---       #1218
      0081C5B4H   LINE      ---      ---       #1219
      0081C5B4H   LINE      ---      ---       #1220
      0081C5B4H   LINE      ---      ---       #1221
      02000614H   SYMBOL    XDATA    ---       V_ucaRegData
      ---         BLOCKEND  CODE/B1  ---       LVL=1
      ---         BLOCKEND  CODE/B1  ---       LVL=0

      ---         MODULE    ---      ---       APPMEASURE
      0081BBF4H   PUBLIC    CODE/B1  ---       _ApiMS_DisOrEnable
      0081C5B5H   PUBLIC    CODE/B1  ---       ApiMS_GetPowerDir
      0081A1B5H   PUBLIC    CODE/B1  ---       ApiMS_MeterICParaCheck
      0081815CH   PUBLIC    CODE/B1  ---       ApiMS_InitMeterICPara
      008183FDH   PUBLIC    CODE/B1  ---       _ApiMS_CalibrationMeterComm
      0081C626H   PUBLIC    CODE/B1  ---       ApiMS_UpdateUIP
      0081C64FH   PUBLIC    CODE/B1  ---       _ApiMS_EnergyProcess
      0081C5B7H   PUBLIC    CODE/B1  ---       ApiMS_EnergyPulseUpdate
      0081C624H   PUBLIC    CODE/B1  ---       ApiMS_MeasureTask
LX51 LINKER/LOCATER V4.66.41.0                                                        11/18/2021  18:54:16  PAGE 157


      000000F3H   SFRSYM    DATA     BYTE      IB_CON2
      000000D8H.3 SFRSYM    DATA     BIT       TB81
      00000080H   SFRSYM    DATA     BYTE      P0
      000000F4H   SFRSYM    DATA     BYTE      IB_CON3
      000000A4H   SFRSYM    DATA     BYTE      TKCON
      00000090H   SFRSYM    DATA     BYTE      P1
      000000F5H   SFRSYM    DATA     BYTE      IB_CON4
      000000E7H   SFRSYM    DATA     BYTE      PASLO
      000000A0H   SFRSYM    DATA     BYTE      P2
      000000FEH   SFRSYM    DATA     BYTE      OSCLO
      000000F6H   SFRSYM    DATA     BYTE      IB_CON5
      00000098H.6 SFRSYM    DATA     BIT       SM1_RXOV
      000000B0H   SFRSYM    DATA     BYTE      P3
      000000D0H.6 SFRSYM    DATA     BIT       AC
      000000C0H   SFRSYM    DATA     BYTE      P4
      000000A1H   SFRSYM    DATA     BYTE      SPCON
      0000009CH   SFRSYM    DATA     BYTE      SBRTH
      000000E9H   SFRSYM    DATA     BYTE      P5
      000000A8H.7 SFRSYM    DATA     BIT       EA
      000000EAH   SFRSYM    DATA     BYTE      P6
      000000EBH   SFRSYM    DATA     BYTE      P7
      000000EFH   SFRSYM    DATA     BYTE      IB_DATA
      000000ECH   SFRSYM    DATA     BYTE      P8
      0000009DH   SFRSYM    DATA     BYTE      SBRTL
      000000EDH   SFRSYM    DATA     BYTE      P9
      000000B7H   SFRSYM    DATA     BYTE      PBANKLO
      000000A2H   SFRSYM    DATA     BYTE      SPSTA
      000000A8H   SFRSYM    DATA     BYTE      IEN0
      000000B3H   SFRSYM    DATA     BYTE      PWRCON1
      00000095H   SFRSYM    DATA     BYTE      EMUSR
      000000A9H   SFRSYM    DATA     BYTE      IEN1
      000000B4H   SFRSYM    DATA     BYTE      PWRCON2
      00000085H   SFRSYM    DATA     BYTE      DPH1
      00000080H   SFRSYM    DATA     BIT       P0_0
      00000090H   SFRSYM    DATA     BIT       P1_0
      00000080H.1 SFRSYM    DATA     BIT       P0_1
      000000C3H   SFRSYM    DATA     BYTE      ADCH
      000000A0H   SFRSYM    DATA     BIT       P2_0
      00000090H.1 SFRSYM    DATA     BIT       P1_1
      00000080H.2 SFRSYM    DATA     BIT       P0_2
      000000BAH   SFRSYM    DATA     BYTE      IPH0
      00000084H   SFRSYM    DATA     BYTE      DPL1
      000000B0H   SFRSYM    DATA     BIT       P3_0
      000000A0H.1 SFRSYM    DATA     BIT       P2_1
      00000090H.2 SFRSYM    DATA     BIT       P1_2
      00000080H.3 SFRSYM    DATA     BIT       P0_3
      000000BBH   SFRSYM    DATA     BYTE      IPH1
      000000C0H   SFRSYM    DATA     BIT       P4_0
      000000B0H.1 SFRSYM    DATA     BIT       P3_1
      000000A0H.2 SFRSYM    DATA     BIT       P2_2
      00000090H.3 SFRSYM    DATA     BIT       P1_3
      00000080H.4 SFRSYM    DATA     BIT       P0_4
      000000E8H   SFRSYM    DATA     BYTE      EXF0
      000000C0H.1 SFRSYM    DATA     BIT       P4_1
      000000B0H.2 SFRSYM    DATA     BIT       P3_2
      000000A0H.3 SFRSYM    DATA     BIT       P2_3
      00000090H.4 SFRSYM    DATA     BIT       P1_4
      00000080H.5 SFRSYM    DATA     BIT       P0_5
      000000C0H.2 SFRSYM    DATA     BIT       P4_2
      000000B0H.3 SFRSYM    DATA     BIT       P3_3
      000000A0H.4 SFRSYM    DATA     BIT       P2_4
      00000090H.5 SFRSYM    DATA     BIT       P1_5
      00000080H.6 SFRSYM    DATA     BIT       P0_6
      000000C8H.6 SFRSYM    DATA     BIT       EXF2
      000000A6H   SFRSYM    DATA     BYTE      TKF0
LX51 LINKER/LOCATER V4.66.41.0                                                        11/18/2021  18:54:16  PAGE 158


      000000B8H   SFRSYM    DATA     BYTE      IPL0
      000000C0H.3 SFRSYM    DATA     BIT       P4_3
      000000B0H.4 SFRSYM    DATA     BIT       P3_4
      000000A0H.5 SFRSYM    DATA     BIT       P2_5
      00000090H.6 SFRSYM    DATA     BIT       P1_6
      00000080H.7 SFRSYM    DATA     BIT       P0_7
      000000D8H.4 SFRSYM    DATA     BIT       REN1
      000000B9H   SFRSYM    DATA     BYTE      IPL1
      000000C0H.4 SFRSYM    DATA     BIT       P4_4
      000000B0H.5 SFRSYM    DATA     BIT       P3_5
      000000A0H.6 SFRSYM    DATA     BIT       P2_6
      00000090H.7 SFRSYM    DATA     BIT       P1_7
      000000E2H   SFRSYM    DATA     BYTE      TK0H
      0000008EH   SFRSYM    DATA     BYTE      SUSLO
      000000C0H.5 SFRSYM    DATA     BIT       P4_5
      000000B0H.6 SFRSYM    DATA     BIT       P3_6
      000000A0H.7 SFRSYM    DATA     BIT       P2_7
      000000E4H   SFRSYM    DATA     BYTE      TK1H
      000000C0H.6 SFRSYM    DATA     BIT       P4_6
      000000B0H.7 SFRSYM    DATA     BIT       P3_7
      000000E6H   SFRSYM    DATA     BYTE      TK2H
      000000C0H.7 SFRSYM    DATA     BIT       P4_7
      00000098H   SFRSYM    DATA     BIT       RI
      000000A8H.2 SFRSYM    DATA     BIT       E7816
      000000D0H.7 SFRSYM    DATA     BIT       CY
      000000E1H   SFRSYM    DATA     BYTE      TK0L
      00000098H.1 SFRSYM    DATA     BIT       TI
      00000091H   SFRSYM    DATA     BYTE      EADR
      000000E3H   SFRSYM    DATA     BYTE      TK1L
      000000E5H   SFRSYM    DATA     BYTE      TK2L
      000000DBH   SFRSYM    DATA     BYTE      SADEN1
      000000D8H.7 SFRSYM    DATA     BIT       SM10_FE1
      000000FBH   SFRSYM    DATA     BYTE      SADEN2
      000000B8H.4 SFRSYM    DATA     BIT       PS0L
      000000B8H.1 SFRSYM    DATA     BIT       PT0L
      000000DAH   SFRSYM    DATA     BYTE      SADDR1
      000000D8H.5 SFRSYM    DATA     BIT       SM12_TXCOL1
      000000B8H.3 SFRSYM    DATA     BIT       PT1L
      000000FAH   SFRSYM    DATA     BYTE      SADDR2
      000000CBH   SFRSYM    DATA     BYTE      RCAP2H
      000000B8H.5 SFRSYM    DATA     BIT       PT2L
      00000081H   SFRSYM    DATA     BYTE      SP
      000000D0H.2 SFRSYM    DATA     BIT       OV
      000000CAH   SFRSYM    DATA     BYTE      RCAP2L
      000000B8H   SFRSYM    DATA     BIT       PX4L
      000000C8H.1 SFRSYM    DATA     BIT       C_T2
      000000DEH   SFRSYM    DATA     BYTE      SFINE2
      000000ADH   SFRSYM    DATA     BYTE      IRCON1
      000000AFH   SFRSYM    DATA     BYTE      IRCON2
      000000ABH   SFRSYM    DATA     BYTE      EXCON1
      00000099H   SFRSYM    DATA     BYTE      SBUF
      000000ACH   SFRSYM    DATA     BYTE      EXCON2
      00000087H   SFRSYM    DATA     BYTE      PCON
      000000F1H   SFRSYM    DATA     BYTE      AUXC
      00000098H   SFRSYM    DATA     BYTE      SCON
      000000D4H   SFRSYM    DATA     BYTE      TK0BASEH
      00000089H   SFRSYM    DATA     BYTE      TMOD
      00000088H   SFRSYM    DATA     BYTE      TCON
      000000AAH   SFRSYM    DATA     BYTE      IENX
      000000EEH   SFRSYM    DATA     BYTE      IB_OFFSET
      000000D6H   SFRSYM    DATA     BYTE      TK1BASEH
      000000DCH   SFRSYM    DATA     BYTE      SBRT1H
      000000DFH   SFRSYM    DATA     BYTE      TK2BASEH
      000000FCH   SFRSYM    DATA     BYTE      SBRT2H
      000000B1H   SFRSYM    DATA     BYTE      RSTSTAT
LX51 LINKER/LOCATER V4.66.41.0                                                        11/18/2021  18:54:16  PAGE 159


      000000D3H   SFRSYM    DATA     BYTE      TK0BASEL
      000000D5H   SFRSYM    DATA     BYTE      TK1BASEL
      000000DDH   SFRSYM    DATA     BYTE      SBRT1L
      000000D7H   SFRSYM    DATA     BYTE      TK2BASEL
      000000FDH   SFRSYM    DATA     BYTE      SBRT2L
      00000098H.7 SFRSYM    DATA     BIT       SM0_FE
      000000B2H   SFRSYM    DATA     BYTE      CLKCON
      00000098H.5 SFRSYM    DATA     BIT       SM2_TXCOL
      000000B5H   SFRSYM    DATA     BYTE      LDOCON
      000000F0H   SFRSYM    DATA     BYTE      B
      000000C8H   SFRSYM    DATA     BIT       CP_RL2
      000000E0H   SFRSYM    DATA     BYTE      ACC
      000000A8H.4 SFRSYM    DATA     BIT       ES0
      000000A8H.1 SFRSYM    DATA     BIT       ET0
      000000A8H.3 SFRSYM    DATA     BIT       ET1
      00000088H.5 SFRSYM    DATA     BIT       TF0
      000000A8H.5 SFRSYM    DATA     BIT       ET2
      00000088H.7 SFRSYM    DATA     BIT       TF1
      000000D8H   SFRSYM    DATA     BIT       RI1
      00000098H.2 SFRSYM    DATA     BIT       RB8
      000000C8H.7 SFRSYM    DATA     BIT       TF2
      0000008CH   SFRSYM    DATA     BYTE      TH0
      00000086H   SFRSYM    DATA     BYTE      INSCON
      0000008DH   SFRSYM    DATA     BYTE      TH1
      000000D8H.1 SFRSYM    DATA     BIT       TI1
      00000098H.3 SFRSYM    DATA     BIT       TB8
      000000CDH   SFRSYM    DATA     BYTE      TH2
      000000D0H   SFRSYM    DATA     BIT       P
      0000008AH   SFRSYM    DATA     BYTE      TL0
      000000A8H   SFRSYM    DATA     BIT       EX4
      0000008BH   SFRSYM    DATA     BYTE      TL1
      000000A7H   SFRSYM    DATA     BYTE      FLASHCON
      000000CCH   SFRSYM    DATA     BYTE      TL2
      000000D0H.3 SFRSYM    DATA     BIT       RS0
      000000C5H   SFRSYM    DATA     BYTE      ADCDH
      00000088H.4 SFRSYM    DATA     BIT       TR0
      000000D0H.4 SFRSYM    DATA     BIT       RS1
      0000009FH   SFRSYM    DATA     BYTE      PWMCON
      00000088H.6 SFRSYM    DATA     BIT       TR1
      000000C8H.2 SFRSYM    DATA     BIT       TR2
      000000C4H   SFRSYM    DATA     BYTE      ADCDL
      000000C2H   SFRSYM    DATA     BYTE      ADT
      00000083H   SFRSYM    DATA     BYTE      DPH
      00000082H   SFRSYM    DATA     BYTE      DPL
      000000D9H   SFRSYM    DATA     BYTE      SBUF1
      000000C8H.3 SFRSYM    DATA     BIT       EXEN2
      000000F9H   SFRSYM    DATA     BYTE      SBUF2
      000000D8H.6 SFRSYM    DATA     BIT       SM11_RXOV1
      000000B8H.6 SFRSYM    DATA     BIT       PADCL
      00000098H.4 SFRSYM    DATA     BIT       REN
      000000D8H   SFRSYM    DATA     BYTE      SCON1
      000000D1H   SFRSYM    DATA     BYTE      LCDCON1
      000000C1H   SFRSYM    DATA     BYTE      ADCON
      000000F8H   SFRSYM    DATA     BYTE      SCON2
      0000008FH   SFRSYM    DATA     BYTE      TCON1
      000000D2H   SFRSYM    DATA     BYTE      LCDCON2
      00000092H   SFRSYM    DATA     BYTE      EDTAH
      000000C9H   SFRSYM    DATA     BYTE      T2MOD
      000000C8H   SFRSYM    DATA     BYTE      T2CON
      00000094H   SFRSYM    DATA     BYTE      EDTAL
      00000093H   SFRSYM    DATA     BYTE      EDTAM
      000000BCH   SFRSYM    DATA     BYTE      TK0DIFH
      0000009BH   SFRSYM    DATA     BYTE      SADEN
      000000BEH   SFRSYM    DATA     BYTE      TK1DIFH
      000000B6H   SFRSYM    DATA     BYTE      PBANK
LX51 LINKER/LOCATER V4.66.41.0                                                        11/18/2021  18:54:16  PAGE 160


      000000A5H   SFRSYM    DATA     BYTE      TK2DIFH
      000000A8H.6 SFRSYM    DATA     BIT       EADTP
      0000009AH   SFRSYM    DATA     BYTE      SADDR
      000000CFH   SFRSYM    DATA     BYTE      TK0DIFL
      000000BDH   SFRSYM    DATA     BYTE      TK1DIFL
      000000BFH   SFRSYM    DATA     BYTE      TK2DIFL
      000000B8H.2 SFRSYM    DATA     BIT       P7816L
      000000C6H   SFRSYM    DATA     BYTE      LPDCON1
      000000C7H   SFRSYM    DATA     BYTE      LPDCON2
      000000D0H.5 SFRSYM    DATA     BIT       F0
      000000AEH   SFRSYM    DATA     BYTE      IRDAT
      000000D0H.1 SFRSYM    DATA     BIT       F1
      00000096H   SFRSYM    DATA     BYTE      EMUIE
      0000009EH   SFRSYM    DATA     BYTE      SFINE
      000000F7H   SFRSYM    DATA     BYTE      XPAGE
      00000097H   SFRSYM    DATA     BYTE      EMUIF
      000000D0H   SFRSYM    DATA     BYTE      PSW
      000000D8H.2 SFRSYM    DATA     BIT       RB81
      000000A3H   SFRSYM    DATA     BYTE      SPDAT
      000000F2H   SFRSYM    DATA     BYTE      IB_CON1

      0081C624H   BLOCK     CODE/B1  ---       LVL=0
      0081C624H   LINE      ---      ---       #92
      0081C624H   LINE      ---      ---       #93
      0081C624H   LINE      ---      ---       #96
      ---         BLOCKEND  ---      ---       LVL=0

      0081C5B7H   BLOCK     CODE/B1  ---       LVL=0
      0081C5B7H   LINE      ---      ---       #115
      0081C5B7H   LINE      ---      ---       #116
      0081C5B7H   BLOCK     CODE/B1  NEAR LAB  LVL=1
      0081C5B7H   LINE      ---      ---       #118
      0081C5C1H   LINE      ---      ---       #119
      0081C5C6H   LINE      ---      ---       #121
      0081C5CCH   LINE      ---      ---       #122
      0081C5CCH   LINE      ---      ---       #124
      0081C5D1H   LINE      ---      ---       #128
      0081C5D8H   LINE      ---      ---       #130
      0081C5DFH   LINE      ---      ---       #131
      0081C5E7H   LINE      ---      ---       #132
      0081C5ECH   LINE      ---      ---       #134
      0081C5F4H   LINE      ---      ---       #136
      0081C5FFH   LINE      ---      ---       #137
      0081C606H   LINE      ---      ---       #138
      0081C606H   LINE      ---      ---       #139
      0081C60CH   LINE      ---      ---       #140
      0081C60CH   LINE      ---      ---       #143
      0081C614H   LINE      ---      ---       #144
      0081C614H   LINE      ---      ---       #146
      0081C614H   LINE      ---      ---       #147
      0081C61CH   LINE      ---      ---       #148
      0081C61CH   LINE      ---      ---       #150
      0081C61CH   LINE      ---      ---       #153
      0081C623H   LINE      ---      ---       #154
      0081C623H   LINE      ---      ---       #155
      0200060EH   SYMBOL    XDATA    BYTE      V_ucDirection
      0200060FH   SYMBOL    XDATA    DWORD     V_ulPowerReg
      02000613H   SYMBOL    XDATA    BYTE      V_ucPulseAdd
      ---         BLOCKEND  CODE/B1  ---       LVL=1
      ---         BLOCKEND  CODE/B1  ---       LVL=0

      0081C64FH   BLOCK     CODE/B1  ---       LVL=0
      0081C64FH   LINE      ---      ---       #169
      0081C65AH   LINE      ---      ---       #170
      02000614H   SYMBOL    XDATA    ---       p_strEnergyPulse
LX51 LINKER/LOCATER V4.66.41.0                                                        11/18/2021  18:54:16  PAGE 161


      0081C65AH   BLOCK     CODE/B1  NEAR LAB  LVL=1
      0081C65AH   LINE      ---      ---       #172
      0081C65FH   LINE      ---      ---       #173
      0081C665H   LINE      ---      ---       #177
      0081C68DH   LINE      ---      ---       #178
      0081C68DH   LINE      ---      ---       #179
      0081C694H   LINE      ---      ---       #180
      0081C697H   LINE      ---      ---       #181
      0081C697H   LINE      ---      ---       #182
      0081C6A6H   LINE      ---      ---       #185
      0081C6C4H   LINE      ---      ---       #186
      0081C6C4H   LINE      ---      ---       #187
      0081C6CBH   LINE      ---      ---       #188
      0081C6E3H   LINE      ---      ---       #190
      0081C6F6H   LINE      ---      ---       #191
      0081C705H   LINE      ---      ---       #193
      0081C71BH   LINE      ---      ---       #194
      0081C71BH   LINE      ---      ---       #195
      0081C72AH   LINE      ---      ---       #196
      0081C72AH   LINE      ---      ---       #200
      0081C74DH   LINE      ---      ---       #201
      0081C74DH   LINE      ---      ---       #202
      0081C759H   LINE      ---      ---       #204
      0081C760H   LINE      ---      ---       #205
      0081C762H   LINE      ---      ---       #207
      0081C762H   LINE      ---      ---       #208
      0081C76FH   LINE      ---      ---       #210
      0081C76FH   LINE      ---      ---       #212
      0081C785H   LINE      ---      ---       #213
      0081C798H   LINE      ---      ---       #214
      0081C7A8H   LINE      ---      ---       #215
      0081C7C1H   LINE      ---      ---       #218
      0081C7E9H   LINE      ---      ---       #219
      0081C7E9H   LINE      ---      ---       #220
      0081C7ECH   LINE      ---      ---       #221
      0081C7ECH   LINE      ---      ---       #222
      0081C7EEH   LINE      ---      ---       #226
      0081C805H   LINE      ---      ---       #227
      0081C805H   LINE      ---      ---       #228
      0081C80AH   LINE      ---      ---       #229
      0081C80CH   LINE      ---      ---       #230
      0081C80FH   LINE      ---      ---       #231
      0081C824H   LINE      ---      ---       #232
      0081C824H   LINE      ---      ---       #233
      0081C83BH   LINE      ---      ---       #234
      0081C83DH   LINE      ---      ---       #236
      0081C83DH   LINE      ---      ---       #237
      0081C858H   LINE      ---      ---       #238
      0081C858H   LINE      ---      ---       #242
      0081C865H   LINE      ---      ---       #245
      0081C86AH   LINE      ---      ---       #246
      0081C87CH   LINE      ---      ---       #247
      0081C88BH   LINE      ---      ---       #248
      0081C88BH   LINE      ---      ---       #249
      0081C89AH   LINE      ---      ---       #250
      0081C8A2H   LINE      ---      ---       #252
      0081C8A9H   LINE      ---      ---       #253
      0081C8ABH   LINE      ---      ---       #255
      0081C8ABH   LINE      ---      ---       #256
      0081C8C0H   LINE      ---      ---       #257
      0081C8C0H   LINE      ---      ---       #260
      0081C8C3H   LINE      ---      ---       #261
      0081C8C6H   LINE      ---      ---       #263
      0081C8DEH   LINE      ---      ---       #266
      0081C8E0H   LINE      ---      ---       #267
LX51 LINKER/LOCATER V4.66.41.0                                                        11/18/2021  18:54:16  PAGE 162


      02000617H   SYMBOL    XDATA    ---       V_ucaTempBuff
      0200061BH   SYMBOL    XDATA    BYTE      V_ucTemp08
      0200061CH   SYMBOL    XDATA    BYTE      V_ucCnt_i
      0200061DH   SYMBOL    XDATA    WORD      V_usE2pIndex
      ---         BLOCKEND  CODE/B1  ---       LVL=1
      ---         BLOCKEND  CODE/B1  ---       LVL=0

      0081C626H   BLOCK     CODE/B1  ---       LVL=0
      0081C626H   LINE      ---      ---       #280
      0081C626H   LINE      ---      ---       #281
      0081C626H   LINE      ---      ---       #282
      0081C642H   LINE      ---      ---       #283
      0081C642H   LINE      ---      ---       #284
      0081C64BH   LINE      ---      ---       #287
      0081C64EH   LINE      ---      ---       #289
      0081C64EH   LINE      ---      ---       #290
      ---         BLOCKEND  ---      ---       LVL=0

      008183FDH   BLOCK     CODE/B1  ---       LVL=0
      008183FDH   LINE      ---      ---       #310
      00818402H   LINE      ---      ---       #311
      0200062EH   SYMBOL    XDATA    BYTE      v_ucChID
      00818402H   BLOCK     CODE/B1  NEAR LAB  LVL=1
      00818402H   LINE      ---      ---       #319
      00818407H   LINE      ---      ---       #323
      0081842BH   LINE      ---      ---       #324
      00818472H   LINE      ---      ---       #325
      008184B9H   LINE      ---      ---       #326
      00818500H   LINE      ---      ---       #335
      0081851DH   LINE      ---      ---       #339
      00818535H   LINE      ---      ---       #340
      00818535H   LINE      ---      ---       #352
      00818541H   LINE      ---      ---       #354
      00818541H   LINE      ---      ---       #357
      00818560H   LINE      ---      ---       #358
      00818560H   LINE      ---      ---       #366
      0081858AH   LINE      ---      ---       #370
      008185B2H   LINE      ---      ---       #371
      008185B2H   LINE      ---      ---       #372
      008185B2H   LINE      ---      ---       #373
      008185B2H   LINE      ---      ---       #374
      008185B2H   LINE      ---      ---       #378
      008185BFH   LINE      ---      ---       #380
      008185C1H   LINE      ---      ---       #382
      008185C1H   LINE      ---      ---       #383
      008185C1H   LINE      ---      ---       #384
      008185E0H   LINE      ---      ---       #385
      008185E0H   LINE      ---      ---       #386
      008185E0H   LINE      ---      ---       #387
      008185E0H   LINE      ---      ---       #388
      008185E5H   LINE      ---      ---       #389
      008185E7H   LINE      ---      ---       #391
      008185E7H   LINE      ---      ---       #392
      008185E7H   LINE      ---      ---       #393
      008185EEH   LINE      ---      ---       #394
      008185F0H   LINE      ---      ---       #396
      008185F0H   LINE      ---      ---       #400
      008185F0H   LINE      ---      ---       #401
      008185F0H   LINE      ---      ---       #403
      008185F0H   LINE      ---      ---       #404
      008185F0H   LINE      ---      ---       #405
      008185F8H   LINE      ---      ---       #406
      008185FAH   LINE      ---      ---       #408
      008185FAH   LINE      ---      ---       #409
      008185FAH   LINE      ---      ---       #410
LX51 LINKER/LOCATER V4.66.41.0                                                        11/18/2021  18:54:16  PAGE 163


      00818602H   LINE      ---      ---       #411
      00818604H   LINE      ---      ---       #413
      00818604H   LINE      ---      ---       #414
      00818604H   LINE      ---      ---       #415
      0081860AH   LINE      ---      ---       #416
      0081860AH   LINE      ---      ---       #417
      0081860AH   LINE      ---      ---       #419
      0081860AH   LINE      ---      ---       #421
      0081860FH   LINE      ---      ---       #422
      0200062FH   SYMBOL    XDATA    ---       V_WriteData
      02000633H   SYMBOL    XDATA    BYTE      V_Addr
      02000634H   SYMBOL    XDATA    DWORD     V_ulDI3DI2DI1DI0
      02000638H   SYMBOL    XDATA    BYTE      V_ucErrorType
      ---         BLOCKEND  CODE/B1  ---       LVL=1
      ---         BLOCKEND  CODE/B1  ---       LVL=0

      0081815CH   BLOCK     CODE/B1  ---       LVL=0
      ---         BLOCKEND  ---      ---       LVL=0

      0081A1B5H   BLOCK     CODE/B1  ---       LVL=0
      ---         BLOCKEND  ---      ---       LVL=0

      0081C5B5H   BLOCK     CODE/B1  ---       LVL=0
      0081C5B5H   LINE      ---      ---       #465
      0081C5B5H   LINE      ---      ---       #466
      0081C5B5H   LINE      ---      ---       #467
      ---         BLOCKEND  ---      ---       LVL=0

      0081BBF4H   BLOCK     CODE/B1  ---       LVL=0
      0081BBF4H   LINE      ---      ---       #484
      00000007H   SYMBOL    DATA     BYTE      v_ucWorkMode
      ---         BLOCKEND  ---      ---       LVL=0

      ---         MODULE    ---      ---       APPMONEY
      0081CA96H   PUBLIC    CODE/B1  ---       _ApiMoney_MultPTCT
      0081CB01H   PUBLIC    CODE/B1  ---       ApiMoney_TimeingHoldMoney
      0081B66DH   PUBLIC    CODE/B1  ---       ApiMoney_RefreshPrice
      0081C8E1H   PUBLIC    CODE/B1  ---       ApiMoney_RemainMoneyProcess
      000000F3H   SFRSYM    DATA     BYTE      IB_CON2
      000000D8H.3 SFRSYM    DATA     BIT       TB81
      00000080H   SFRSYM    DATA     BYTE      P0
      000000F4H   SFRSYM    DATA     BYTE      IB_CON3
      000000A4H   SFRSYM    DATA     BYTE      TKCON
      00000090H   SFRSYM    DATA     BYTE      P1
      000000F5H   SFRSYM    DATA     BYTE      IB_CON4
      000000E7H   SFRSYM    DATA     BYTE      PASLO
      000000A0H   SFRSYM    DATA     BYTE      P2
      000000FEH   SFRSYM    DATA     BYTE      OSCLO
      000000F6H   SFRSYM    DATA     BYTE      IB_CON5
      00000098H.6 SFRSYM    DATA     BIT       SM1_RXOV
      000000B0H   SFRSYM    DATA     BYTE      P3
      000000D0H.6 SFRSYM    DATA     BIT       AC
      000000C0H   SFRSYM    DATA     BYTE      P4
      000000A1H   SFRSYM    DATA     BYTE      SPCON
      0000009CH   SFRSYM    DATA     BYTE      SBRTH
      000000E9H   SFRSYM    DATA     BYTE      P5
      000000A8H.7 SFRSYM    DATA     BIT       EA
      000000EAH   SFRSYM    DATA     BYTE      P6
      000000EBH   SFRSYM    DATA     BYTE      P7
      000000EFH   SFRSYM    DATA     BYTE      IB_DATA
      000000ECH   SFRSYM    DATA     BYTE      P8
      0000009DH   SFRSYM    DATA     BYTE      SBRTL
      000000EDH   SFRSYM    DATA     BYTE      P9
      000000B7H   SFRSYM    DATA     BYTE      PBANKLO
      000000A2H   SFRSYM    DATA     BYTE      SPSTA
LX51 LINKER/LOCATER V4.66.41.0                                                        11/18/2021  18:54:16  PAGE 164


      000000A8H   SFRSYM    DATA     BYTE      IEN0
      000000B3H   SFRSYM    DATA     BYTE      PWRCON1
      00000095H   SFRSYM    DATA     BYTE      EMUSR
      000000A9H   SFRSYM    DATA     BYTE      IEN1
      000000B4H   SFRSYM    DATA     BYTE      PWRCON2
      00000085H   SFRSYM    DATA     BYTE      DPH1
      00000080H   SFRSYM    DATA     BIT       P0_0
      00000090H   SFRSYM    DATA     BIT       P1_0
      00000080H.1 SFRSYM    DATA     BIT       P0_1
      000000C3H   SFRSYM    DATA     BYTE      ADCH
      000000A0H   SFRSYM    DATA     BIT       P2_0
      00000090H.1 SFRSYM    DATA     BIT       P1_1
      00000080H.2 SFRSYM    DATA     BIT       P0_2
      000000BAH   SFRSYM    DATA     BYTE      IPH0
      00000084H   SFRSYM    DATA     BYTE      DPL1
      000000B0H   SFRSYM    DATA     BIT       P3_0
      000000A0H.1 SFRSYM    DATA     BIT       P2_1
      00000090H.2 SFRSYM    DATA     BIT       P1_2
      00000080H.3 SFRSYM    DATA     BIT       P0_3
      000000BBH   SFRSYM    DATA     BYTE      IPH1
      000000C0H   SFRSYM    DATA     BIT       P4_0
      000000B0H.1 SFRSYM    DATA     BIT       P3_1
      000000A0H.2 SFRSYM    DATA     BIT       P2_2
      00000090H.3 SFRSYM    DATA     BIT       P1_3
      00000080H.4 SFRSYM    DATA     BIT       P0_4
      000000E8H   SFRSYM    DATA     BYTE      EXF0
      000000C0H.1 SFRSYM    DATA     BIT       P4_1
      000000B0H.2 SFRSYM    DATA     BIT       P3_2
      000000A0H.3 SFRSYM    DATA     BIT       P2_3
      00000090H.4 SFRSYM    DATA     BIT       P1_4
      00000080H.5 SFRSYM    DATA     BIT       P0_5
      000000C0H.2 SFRSYM    DATA     BIT       P4_2
      000000B0H.3 SFRSYM    DATA     BIT       P3_3
      000000A0H.4 SFRSYM    DATA     BIT       P2_4
      00000090H.5 SFRSYM    DATA     BIT       P1_5
      00000080H.6 SFRSYM    DATA     BIT       P0_6
      000000C8H.6 SFRSYM    DATA     BIT       EXF2
      000000A6H   SFRSYM    DATA     BYTE      TKF0
      000000B8H   SFRSYM    DATA     BYTE      IPL0
      000000C0H.3 SFRSYM    DATA     BIT       P4_3
      000000B0H.4 SFRSYM    DATA     BIT       P3_4
      000000A0H.5 SFRSYM    DATA     BIT       P2_5
      00000090H.6 SFRSYM    DATA     BIT       P1_6
      00000080H.7 SFRSYM    DATA     BIT       P0_7
      000000D8H.4 SFRSYM    DATA     BIT       REN1
      000000B9H   SFRSYM    DATA     BYTE      IPL1
      000000C0H.4 SFRSYM    DATA     BIT       P4_4
      000000B0H.5 SFRSYM    DATA     BIT       P3_5
      000000A0H.6 SFRSYM    DATA     BIT       P2_6
      00000090H.7 SFRSYM    DATA     BIT       P1_7
      000000E2H   SFRSYM    DATA     BYTE      TK0H
      0000008EH   SFRSYM    DATA     BYTE      SUSLO
      000000C0H.5 SFRSYM    DATA     BIT       P4_5
      000000B0H.6 SFRSYM    DATA     BIT       P3_6
      000000A0H.7 SFRSYM    DATA     BIT       P2_7
      000000E4H   SFRSYM    DATA     BYTE      TK1H
      000000C0H.6 SFRSYM    DATA     BIT       P4_6
      000000B0H.7 SFRSYM    DATA     BIT       P3_7
      000000E6H   SFRSYM    DATA     BYTE      TK2H
      000000C0H.7 SFRSYM    DATA     BIT       P4_7
      00000098H   SFRSYM    DATA     BIT       RI
      000000A8H.2 SFRSYM    DATA     BIT       E7816
      000000D0H.7 SFRSYM    DATA     BIT       CY
      000000E1H   SFRSYM    DATA     BYTE      TK0L
      00000098H.1 SFRSYM    DATA     BIT       TI
LX51 LINKER/LOCATER V4.66.41.0                                                        11/18/2021  18:54:16  PAGE 165


      00000091H   SFRSYM    DATA     BYTE      EADR
      000000E3H   SFRSYM    DATA     BYTE      TK1L
      000000E5H   SFRSYM    DATA     BYTE      TK2L
      000000DBH   SFRSYM    DATA     BYTE      SADEN1
      000000D8H.7 SFRSYM    DATA     BIT       SM10_FE1
      000000FBH   SFRSYM    DATA     BYTE      SADEN2
      000000B8H.4 SFRSYM    DATA     BIT       PS0L
      000000B8H.1 SFRSYM    DATA     BIT       PT0L
      000000DAH   SFRSYM    DATA     BYTE      SADDR1
      000000D8H.5 SFRSYM    DATA     BIT       SM12_TXCOL1
      000000B8H.3 SFRSYM    DATA     BIT       PT1L
      000000FAH   SFRSYM    DATA     BYTE      SADDR2
      000000CBH   SFRSYM    DATA     BYTE      RCAP2H
      000000B8H.5 SFRSYM    DATA     BIT       PT2L
      00000081H   SFRSYM    DATA     BYTE      SP
      000000D0H.2 SFRSYM    DATA     BIT       OV
      000000CAH   SFRSYM    DATA     BYTE      RCAP2L
      000000B8H   SFRSYM    DATA     BIT       PX4L
      000000C8H.1 SFRSYM    DATA     BIT       C_T2
      000000DEH   SFRSYM    DATA     BYTE      SFINE2
      000000ADH   SFRSYM    DATA     BYTE      IRCON1
      000000AFH   SFRSYM    DATA     BYTE      IRCON2
      000000ABH   SFRSYM    DATA     BYTE      EXCON1
      00000099H   SFRSYM    DATA     BYTE      SBUF
      000000ACH   SFRSYM    DATA     BYTE      EXCON2
      00000087H   SFRSYM    DATA     BYTE      PCON
      000000F1H   SFRSYM    DATA     BYTE      AUXC
      00000098H   SFRSYM    DATA     BYTE      SCON
      000000D4H   SFRSYM    DATA     BYTE      TK0BASEH
      00000089H   SFRSYM    DATA     BYTE      TMOD
      00000088H   SFRSYM    DATA     BYTE      TCON
      000000AAH   SFRSYM    DATA     BYTE      IENX
      000000EEH   SFRSYM    DATA     BYTE      IB_OFFSET
      000000D6H   SFRSYM    DATA     BYTE      TK1BASEH
      000000DCH   SFRSYM    DATA     BYTE      SBRT1H
      000000DFH   SFRSYM    DATA     BYTE      TK2BASEH
      000000FCH   SFRSYM    DATA     BYTE      SBRT2H
      000000B1H   SFRSYM    DATA     BYTE      RSTSTAT
      000000D3H   SFRSYM    DATA     BYTE      TK0BASEL
      000000D5H   SFRSYM    DATA     BYTE      TK1BASEL
      000000DDH   SFRSYM    DATA     BYTE      SBRT1L
      000000D7H   SFRSYM    DATA     BYTE      TK2BASEL
      000000FDH   SFRSYM    DATA     BYTE      SBRT2L
      00000098H.7 SFRSYM    DATA     BIT       SM0_FE
      000000B2H   SFRSYM    DATA     BYTE      CLKCON
      00000098H.5 SFRSYM    DATA     BIT       SM2_TXCOL
      000000B5H   SFRSYM    DATA     BYTE      LDOCON
      000000F0H   SFRSYM    DATA     BYTE      B
      000000C8H   SFRSYM    DATA     BIT       CP_RL2
      000000E0H   SFRSYM    DATA     BYTE      ACC
      000000A8H.4 SFRSYM    DATA     BIT       ES0
      000000A8H.1 SFRSYM    DATA     BIT       ET0
      000000A8H.3 SFRSYM    DATA     BIT       ET1
      00000088H.5 SFRSYM    DATA     BIT       TF0
      000000A8H.5 SFRSYM    DATA     BIT       ET2
      00000088H.7 SFRSYM    DATA     BIT       TF1
      000000D8H   SFRSYM    DATA     BIT       RI1
      00000098H.2 SFRSYM    DATA     BIT       RB8
      000000C8H.7 SFRSYM    DATA     BIT       TF2
      0000008CH   SFRSYM    DATA     BYTE      TH0
      00000086H   SFRSYM    DATA     BYTE      INSCON
      0000008DH   SFRSYM    DATA     BYTE      TH1
      000000D8H.1 SFRSYM    DATA     BIT       TI1
      00000098H.3 SFRSYM    DATA     BIT       TB8
      000000CDH   SFRSYM    DATA     BYTE      TH2
LX51 LINKER/LOCATER V4.66.41.0                                                        11/18/2021  18:54:16  PAGE 166


      000000D0H   SFRSYM    DATA     BIT       P
      0000008AH   SFRSYM    DATA     BYTE      TL0
      000000A8H   SFRSYM    DATA     BIT       EX4
      0000008BH   SFRSYM    DATA     BYTE      TL1
      000000A7H   SFRSYM    DATA     BYTE      FLASHCON
      000000CCH   SFRSYM    DATA     BYTE      TL2
      000000D0H.3 SFRSYM    DATA     BIT       RS0
      000000C5H   SFRSYM    DATA     BYTE      ADCDH
      00000088H.4 SFRSYM    DATA     BIT       TR0
      000000D0H.4 SFRSYM    DATA     BIT       RS1
      0000009FH   SFRSYM    DATA     BYTE      PWMCON
      00000088H.6 SFRSYM    DATA     BIT       TR1
      000000C8H.2 SFRSYM    DATA     BIT       TR2
      000000C4H   SFRSYM    DATA     BYTE      ADCDL
      000000C2H   SFRSYM    DATA     BYTE      ADT
      00000083H   SFRSYM    DATA     BYTE      DPH
      00000082H   SFRSYM    DATA     BYTE      DPL
      000000D9H   SFRSYM    DATA     BYTE      SBUF1
      000000C8H.3 SFRSYM    DATA     BIT       EXEN2
      000000F9H   SFRSYM    DATA     BYTE      SBUF2
      000000D8H.6 SFRSYM    DATA     BIT       SM11_RXOV1
      000000B8H.6 SFRSYM    DATA     BIT       PADCL
      00000098H.4 SFRSYM    DATA     BIT       REN
      000000D8H   SFRSYM    DATA     BYTE      SCON1
      000000D1H   SFRSYM    DATA     BYTE      LCDCON1
      000000C1H   SFRSYM    DATA     BYTE      ADCON
      000000F8H   SFRSYM    DATA     BYTE      SCON2
      0000008FH   SFRSYM    DATA     BYTE      TCON1
      000000D2H   SFRSYM    DATA     BYTE      LCDCON2
      00000092H   SFRSYM    DATA     BYTE      EDTAH
      000000C9H   SFRSYM    DATA     BYTE      T2MOD
      000000C8H   SFRSYM    DATA     BYTE      T2CON
      00000094H   SFRSYM    DATA     BYTE      EDTAL
      00000093H   SFRSYM    DATA     BYTE      EDTAM
      000000BCH   SFRSYM    DATA     BYTE      TK0DIFH
      0000009BH   SFRSYM    DATA     BYTE      SADEN
      000000BEH   SFRSYM    DATA     BYTE      TK1DIFH
      000000B6H   SFRSYM    DATA     BYTE      PBANK
      000000A5H   SFRSYM    DATA     BYTE      TK2DIFH
      000000A8H.6 SFRSYM    DATA     BIT       EADTP
      0000009AH   SFRSYM    DATA     BYTE      SADDR
      000000CFH   SFRSYM    DATA     BYTE      TK0DIFL
      000000BDH   SFRSYM    DATA     BYTE      TK1DIFL
      000000BFH   SFRSYM    DATA     BYTE      TK2DIFL
      000000B8H.2 SFRSYM    DATA     BIT       P7816L
      000000C6H   SFRSYM    DATA     BYTE      LPDCON1
      000000C7H   SFRSYM    DATA     BYTE      LPDCON2
      000000D0H.5 SFRSYM    DATA     BIT       F0
      000000AEH   SFRSYM    DATA     BYTE      IRDAT
      000000D0H.1 SFRSYM    DATA     BIT       F1
      00000096H   SFRSYM    DATA     BYTE      EMUIE
      0000009EH   SFRSYM    DATA     BYTE      SFINE
      000000F7H   SFRSYM    DATA     BYTE      XPAGE
      00000097H   SFRSYM    DATA     BYTE      EMUIF
      000000D0H   SFRSYM    DATA     BYTE      PSW
      000000D8H.2 SFRSYM    DATA     BIT       RB81
      000000A3H   SFRSYM    DATA     BYTE      SPDAT
      000000F2H   SFRSYM    DATA     BYTE      IB_CON1
      0081CA96H   SYMBOL    CODE/B1  ---       _ApiMoney_MultPTCT

      0081C8E1H   BLOCK     CODE/B1  ---       LVL=0
      0081C8E1H   LINE      ---      ---       #86
      0081C8E1H   LINE      ---      ---       #87
      0081C8E1H   BLOCK     CODE/B1  NEAR LAB  LVL=1
      0081C8E1H   LINE      ---      ---       #96
LX51 LINKER/LOCATER V4.66.41.0                                                        11/18/2021  18:54:16  PAGE 167


      0081C8EAH   LINE      ---      ---       #97
      0081C8EAH   LINE      ---      ---       #99
      0081C8EAH   LINE      ---      ---       #100
      0081C8F1H   LINE      ---      ---       #104
      0081C8F4H   LINE      ---      ---       #105
      0081C908H   LINE      ---      ---       #106
      0081C923H   LINE      ---      ---       #110
      0081C926H   LINE      ---      ---       #113
      0081C937H   LINE      ---      ---       #114
      0081C94DH   LINE      ---      ---       #115
      0081C96AH   LINE      ---      ---       #119
      0081C96FH   LINE      ---      ---       #120
      0081C971H   LINE      ---      ---       #125
      0081C994H   LINE      ---      ---       #126
      0081C994H   LINE      ---      ---       #127
      0081C9B6H   LINE      ---      ---       #128
      0081C9B6H   LINE      ---      ---       #130
      0081C9BDH   LINE      ---      ---       #131
      0081C9BDH   LINE      ---      ---       #133
      0081C9D8H   LINE      ---      ---       #134
      0081C9DAH   LINE      ---      ---       #136
      0081C9DAH   LINE      ---      ---       #137
      0081C9F5H   LINE      ---      ---       #138
      0081CA09H   LINE      ---      ---       #139
      0081CA24H   LINE      ---      ---       #140
      0081CA24H   LINE      ---      ---       #143
      0081CA3FH   LINE      ---      ---       #144
      0081CA5AH   LINE      ---      ---       #146
      0081CA6BH   LINE      ---      ---       #150
      0081CA72H   LINE      ---      ---       #151
      0081CA72H   LINE      ---      ---       #152
      0081CA76H   LINE      ---      ---       #156
      0081CA87H   LINE      ---      ---       #157
      0081CA87H   LINE      ---      ---       #158
      0081CA95H   LINE      ---      ---       #159
      0081CA95H   LINE      ---      ---       #161
      0081CA95H   LINE      ---      ---       #163
      0200061FH   SYMBOL    XDATA    ---       V_ucaBuff_RemainMoney
      02000625H   SYMBOL    XDATA    ---       V_ucaBuff_TickMoney
      0200062BH   SYMBOL    XDATA    ---       V_ucaBuff_Price
      02000631H   SYMBOL    XDATA    ---       V_ulBuff
      ---         BLOCKEND  CODE/B1  ---       LVL=1
      ---         BLOCKEND  CODE/B1  ---       LVL=0

      0081B66DH   BLOCK     CODE/B1  ---       LVL=0
      0081B66DH   LINE      ---      ---       #202
      0081B66DH   LINE      ---      ---       #203
      0081B66DH   LINE      ---      ---       #204
      0081B68AH   LINE      ---      ---       #205
      0081B68AH   LINE      ---      ---       #206
      0081B69BH   LINE      ---      ---       #207
      0081B69BH   LINE      ---      ---       #208
      0081B6AFH   LINE      ---      ---       #209
      0081B6B5H   LINE      ---      ---       #210
      0081B6C3H   LINE      ---      ---       #211
      0081B6C3H   LINE      ---      ---       #212
      0081B6C3H   LINE      ---      ---       #213
      ---         BLOCKEND  ---      ---       LVL=0

      0081CB01H   BLOCK     CODE/B1  ---       LVL=0
      0081CB01H   LINE      ---      ---       #225
      0081CB01H   LINE      ---      ---       #226
      0081CB01H   BLOCK     CODE/B1  NEAR LAB  LVL=1
      0081CB01H   LINE      ---      ---       #230
      0081CB07H   LINE      ---      ---       #231
LX51 LINKER/LOCATER V4.66.41.0                                                        11/18/2021  18:54:16  PAGE 168


      0081CB0DH   LINE      ---      ---       #232
      0081CB0DH   LINE      ---      ---       #233
      0081CB0FH   LINE      ---      ---       #234
      0081CB0FH   LINE      ---      ---       #235
      0081CB16H   LINE      ---      ---       #236
      0081CB16H   LINE      ---      ---       #237
      0081CB1EH   LINE      ---      ---       #238
      0081CB2CH   LINE      ---      ---       #239
      0081CB40H   LINE      ---      ---       #240
      0081CB4AH   LINE      ---      ---       #241
      0081CB4DH   LINE      ---      ---       #243
      0081CB66H   LINE      ---      ---       #250
      0081CB66H   LINE      ---      ---       #251
      0200060FH   SYMBOL    XDATA    BYTE      V_ucTemp
      02000610H   SYMBOL    XDATA    BYTE      V_usCRC16
      02000611H   SYMBOL    XDATA    ---       V_MoneyDataCRC
      ---         BLOCKEND  CODE/B1  ---       LVL=1
      ---         BLOCKEND  CODE/B1  ---       LVL=0

      0081CA96H   BLOCK     CODE/B1  ---       LVL=0
      0081CA96H   LINE      ---      ---       #264
      0081CAA1H   LINE      ---      ---       #265
      02000639H   SYMBOL    XDATA    ---       sourceptr
      0200063CH   SYMBOL    XDATA    ---       resultptr
      0081CAA1H   BLOCK     CODE/B1  NEAR LAB  LVL=1
      0081CAA1H   LINE      ---      ---       #268
      0081CAB2H   LINE      ---      ---       #269
      0081CAC3H   LINE      ---      ---       #271
      0200063FH   SYMBOL    XDATA    ---       V_ulBuff
      ---         BLOCKEND  CODE/B1  ---       LVL=1
      ---         BLOCKEND  CODE/B1  ---       LVL=0

      ---         MODULE    ---      ---       APPRELAYCONTROL
      0081CB67H   PUBLIC    CODE/B1  ---       Api_PowerLoadLimitedCheck
      0081922DH   PUBLIC    CODE/B1  ---       ApiRelay_SubtractMoneyRelayJudge
      00819018H   PUBLIC    CODE/B1  ---       ApiRelay_ControlProcess
      000000F3H   SFRSYM    DATA     BYTE      IB_CON2
      000000D8H.3 SFRSYM    DATA     BIT       TB81
      00000080H   SFRSYM    DATA     BYTE      P0
      000000F4H   SFRSYM    DATA     BYTE      IB_CON3
      000000A4H   SFRSYM    DATA     BYTE      TKCON
      00000090H   SFRSYM    DATA     BYTE      P1
      000000F5H   SFRSYM    DATA     BYTE      IB_CON4
      000000E7H   SFRSYM    DATA     BYTE      PASLO
      000000A0H   SFRSYM    DATA     BYTE      P2
      000000FEH   SFRSYM    DATA     BYTE      OSCLO
      000000F6H   SFRSYM    DATA     BYTE      IB_CON5
      00000098H.6 SFRSYM    DATA     BIT       SM1_RXOV
      000000B0H   SFRSYM    DATA     BYTE      P3
      000000D0H.6 SFRSYM    DATA     BIT       AC
      000000C0H   SFRSYM    DATA     BYTE      P4
      000000A1H   SFRSYM    DATA     BYTE      SPCON
      0000009CH   SFRSYM    DATA     BYTE      SBRTH
      000000E9H   SFRSYM    DATA     BYTE      P5
      000000A8H.7 SFRSYM    DATA     BIT       EA
      000000EAH   SFRSYM    DATA     BYTE      P6
      000000EBH   SFRSYM    DATA     BYTE      P7
      000000EFH   SFRSYM    DATA     BYTE      IB_DATA
      000000ECH   SFRSYM    DATA     BYTE      P8
      0000009DH   SFRSYM    DATA     BYTE      SBRTL
      000000EDH   SFRSYM    DATA     BYTE      P9
      000000B7H   SFRSYM    DATA     BYTE      PBANKLO
      000000A2H   SFRSYM    DATA     BYTE      SPSTA
      000000A8H   SFRSYM    DATA     BYTE      IEN0
      000000B3H   SFRSYM    DATA     BYTE      PWRCON1
LX51 LINKER/LOCATER V4.66.41.0                                                        11/18/2021  18:54:16  PAGE 169


      00000095H   SFRSYM    DATA     BYTE      EMUSR
      000000A9H   SFRSYM    DATA     BYTE      IEN1
      000000B4H   SFRSYM    DATA     BYTE      PWRCON2
      00000085H   SFRSYM    DATA     BYTE      DPH1
      00000080H   SFRSYM    DATA     BIT       P0_0
      00000090H   SFRSYM    DATA     BIT       P1_0
      00000080H.1 SFRSYM    DATA     BIT       P0_1
      000000C3H   SFRSYM    DATA     BYTE      ADCH
      000000A0H   SFRSYM    DATA     BIT       P2_0
      00000090H.1 SFRSYM    DATA     BIT       P1_1
      00000080H.2 SFRSYM    DATA     BIT       P0_2
      000000BAH   SFRSYM    DATA     BYTE      IPH0
      00000084H   SFRSYM    DATA     BYTE      DPL1
      000000B0H   SFRSYM    DATA     BIT       P3_0
      000000A0H.1 SFRSYM    DATA     BIT       P2_1
      00000090H.2 SFRSYM    DATA     BIT       P1_2
      00000080H.3 SFRSYM    DATA     BIT       P0_3
      000000BBH   SFRSYM    DATA     BYTE      IPH1
      000000C0H   SFRSYM    DATA     BIT       P4_0
      000000B0H.1 SFRSYM    DATA     BIT       P3_1
      000000A0H.2 SFRSYM    DATA     BIT       P2_2
      00000090H.3 SFRSYM    DATA     BIT       P1_3
      00000080H.4 SFRSYM    DATA     BIT       P0_4
      000000E8H   SFRSYM    DATA     BYTE      EXF0
      000000C0H.1 SFRSYM    DATA     BIT       P4_1
      000000B0H.2 SFRSYM    DATA     BIT       P3_2
      000000A0H.3 SFRSYM    DATA     BIT       P2_3
      00000090H.4 SFRSYM    DATA     BIT       P1_4
      00000080H.5 SFRSYM    DATA     BIT       P0_5
      000000C0H.2 SFRSYM    DATA     BIT       P4_2
      000000B0H.3 SFRSYM    DATA     BIT       P3_3
      000000A0H.4 SFRSYM    DATA     BIT       P2_4
      00000090H.5 SFRSYM    DATA     BIT       P1_5
      00000080H.6 SFRSYM    DATA     BIT       P0_6
      000000C8H.6 SFRSYM    DATA     BIT       EXF2
      000000A6H   SFRSYM    DATA     BYTE      TKF0
      000000B8H   SFRSYM    DATA     BYTE      IPL0
      000000C0H.3 SFRSYM    DATA     BIT       P4_3
      000000B0H.4 SFRSYM    DATA     BIT       P3_4
      000000A0H.5 SFRSYM    DATA     BIT       P2_5
      00000090H.6 SFRSYM    DATA     BIT       P1_6
      00000080H.7 SFRSYM    DATA     BIT       P0_7
      000000D8H.4 SFRSYM    DATA     BIT       REN1
      000000B9H   SFRSYM    DATA     BYTE      IPL1
      000000C0H.4 SFRSYM    DATA     BIT       P4_4
      000000B0H.5 SFRSYM    DATA     BIT       P3_5
      000000A0H.6 SFRSYM    DATA     BIT       P2_6
      00000090H.7 SFRSYM    DATA     BIT       P1_7
      000000E2H   SFRSYM    DATA     BYTE      TK0H
      0000008EH   SFRSYM    DATA     BYTE      SUSLO
      000000C0H.5 SFRSYM    DATA     BIT       P4_5
      000000B0H.6 SFRSYM    DATA     BIT       P3_6
      000000A0H.7 SFRSYM    DATA     BIT       P2_7
      000000E4H   SFRSYM    DATA     BYTE      TK1H
      000000C0H.6 SFRSYM    DATA     BIT       P4_6
      000000B0H.7 SFRSYM    DATA     BIT       P3_7
      000000E6H   SFRSYM    DATA     BYTE      TK2H
      000000C0H.7 SFRSYM    DATA     BIT       P4_7
      00000098H   SFRSYM    DATA     BIT       RI
      000000A8H.2 SFRSYM    DATA     BIT       E7816
      000000D0H.7 SFRSYM    DATA     BIT       CY
      000000E1H   SFRSYM    DATA     BYTE      TK0L
      00000098H.1 SFRSYM    DATA     BIT       TI
      00000091H   SFRSYM    DATA     BYTE      EADR
      000000E3H   SFRSYM    DATA     BYTE      TK1L
LX51 LINKER/LOCATER V4.66.41.0                                                        11/18/2021  18:54:16  PAGE 170


      000000E5H   SFRSYM    DATA     BYTE      TK2L
      000000DBH   SFRSYM    DATA     BYTE      SADEN1
      000000D8H.7 SFRSYM    DATA     BIT       SM10_FE1
      000000FBH   SFRSYM    DATA     BYTE      SADEN2
      000000B8H.4 SFRSYM    DATA     BIT       PS0L
      000000B8H.1 SFRSYM    DATA     BIT       PT0L
      000000DAH   SFRSYM    DATA     BYTE      SADDR1
      000000D8H.5 SFRSYM    DATA     BIT       SM12_TXCOL1
      000000B8H.3 SFRSYM    DATA     BIT       PT1L
      000000FAH   SFRSYM    DATA     BYTE      SADDR2
      000000CBH   SFRSYM    DATA     BYTE      RCAP2H
      000000B8H.5 SFRSYM    DATA     BIT       PT2L
      00000081H   SFRSYM    DATA     BYTE      SP
      000000D0H.2 SFRSYM    DATA     BIT       OV
      000000CAH   SFRSYM    DATA     BYTE      RCAP2L
      000000B8H   SFRSYM    DATA     BIT       PX4L
      000000C8H.1 SFRSYM    DATA     BIT       C_T2
      000000DEH   SFRSYM    DATA     BYTE      SFINE2
      000000ADH   SFRSYM    DATA     BYTE      IRCON1
      000000AFH   SFRSYM    DATA     BYTE      IRCON2
      000000ABH   SFRSYM    DATA     BYTE      EXCON1
      00000099H   SFRSYM    DATA     BYTE      SBUF
      000000ACH   SFRSYM    DATA     BYTE      EXCON2
      00000087H   SFRSYM    DATA     BYTE      PCON
      000000F1H   SFRSYM    DATA     BYTE      AUXC
      00000098H   SFRSYM    DATA     BYTE      SCON
      000000D4H   SFRSYM    DATA     BYTE      TK0BASEH
      00000089H   SFRSYM    DATA     BYTE      TMOD
      00000088H   SFRSYM    DATA     BYTE      TCON
      000000AAH   SFRSYM    DATA     BYTE      IENX
      000000EEH   SFRSYM    DATA     BYTE      IB_OFFSET
      000000D6H   SFRSYM    DATA     BYTE      TK1BASEH
      000000DCH   SFRSYM    DATA     BYTE      SBRT1H
      000000DFH   SFRSYM    DATA     BYTE      TK2BASEH
      000000FCH   SFRSYM    DATA     BYTE      SBRT2H
      000000B1H   SFRSYM    DATA     BYTE      RSTSTAT
      000000D3H   SFRSYM    DATA     BYTE      TK0BASEL
      000000D5H   SFRSYM    DATA     BYTE      TK1BASEL
      000000DDH   SFRSYM    DATA     BYTE      SBRT1L
      000000D7H   SFRSYM    DATA     BYTE      TK2BASEL
      000000FDH   SFRSYM    DATA     BYTE      SBRT2L
      00000098H.7 SFRSYM    DATA     BIT       SM0_FE
      000000B2H   SFRSYM    DATA     BYTE      CLKCON
      00000098H.5 SFRSYM    DATA     BIT       SM2_TXCOL
      000000B5H   SFRSYM    DATA     BYTE      LDOCON
      000000F0H   SFRSYM    DATA     BYTE      B
      000000C8H   SFRSYM    DATA     BIT       CP_RL2
      000000E0H   SFRSYM    DATA     BYTE      ACC
      000000A8H.4 SFRSYM    DATA     BIT       ES0
      000000A8H.1 SFRSYM    DATA     BIT       ET0
      000000A8H.3 SFRSYM    DATA     BIT       ET1
      00000088H.5 SFRSYM    DATA     BIT       TF0
      000000A8H.5 SFRSYM    DATA     BIT       ET2
      00000088H.7 SFRSYM    DATA     BIT       TF1
      000000D8H   SFRSYM    DATA     BIT       RI1
      00000098H.2 SFRSYM    DATA     BIT       RB8
      000000C8H.7 SFRSYM    DATA     BIT       TF2
      0000008CH   SFRSYM    DATA     BYTE      TH0
      00000086H   SFRSYM    DATA     BYTE      INSCON
      0000008DH   SFRSYM    DATA     BYTE      TH1
      000000D8H.1 SFRSYM    DATA     BIT       TI1
      00000098H.3 SFRSYM    DATA     BIT       TB8
      000000CDH   SFRSYM    DATA     BYTE      TH2
      000000D0H   SFRSYM    DATA     BIT       P
      0000008AH   SFRSYM    DATA     BYTE      TL0
LX51 LINKER/LOCATER V4.66.41.0                                                        11/18/2021  18:54:16  PAGE 171


      000000A8H   SFRSYM    DATA     BIT       EX4
      0000008BH   SFRSYM    DATA     BYTE      TL1
      000000A7H   SFRSYM    DATA     BYTE      FLASHCON
      000000CCH   SFRSYM    DATA     BYTE      TL2
      000000D0H.3 SFRSYM    DATA     BIT       RS0
      000000C5H   SFRSYM    DATA     BYTE      ADCDH
      00000088H.4 SFRSYM    DATA     BIT       TR0
      000000D0H.4 SFRSYM    DATA     BIT       RS1
      0000009FH   SFRSYM    DATA     BYTE      PWMCON
      00000088H.6 SFRSYM    DATA     BIT       TR1
      000000C8H.2 SFRSYM    DATA     BIT       TR2
      000000C4H   SFRSYM    DATA     BYTE      ADCDL
      000000C2H   SFRSYM    DATA     BYTE      ADT
      00000083H   SFRSYM    DATA     BYTE      DPH
      00000082H   SFRSYM    DATA     BYTE      DPL
      000000D9H   SFRSYM    DATA     BYTE      SBUF1
      000000C8H.3 SFRSYM    DATA     BIT       EXEN2
      000000F9H   SFRSYM    DATA     BYTE      SBUF2
      000000D8H.6 SFRSYM    DATA     BIT       SM11_RXOV1
      000000B8H.6 SFRSYM    DATA     BIT       PADCL
      00000098H.4 SFRSYM    DATA     BIT       REN
      000000D8H   SFRSYM    DATA     BYTE      SCON1
      000000D1H   SFRSYM    DATA     BYTE      LCDCON1
      000000C1H   SFRSYM    DATA     BYTE      ADCON
      000000F8H   SFRSYM    DATA     BYTE      SCON2
      0000008FH   SFRSYM    DATA     BYTE      TCON1
      000000D2H   SFRSYM    DATA     BYTE      LCDCON2
      00000092H   SFRSYM    DATA     BYTE      EDTAH
      000000C9H   SFRSYM    DATA     BYTE      T2MOD
      000000C8H   SFRSYM    DATA     BYTE      T2CON
      00000094H   SFRSYM    DATA     BYTE      EDTAL
      00000093H   SFRSYM    DATA     BYTE      EDTAM
      000000BCH   SFRSYM    DATA     BYTE      TK0DIFH
      0000009BH   SFRSYM    DATA     BYTE      SADEN
      000000BEH   SFRSYM    DATA     BYTE      TK1DIFH
      000000B6H   SFRSYM    DATA     BYTE      PBANK
      000000A5H   SFRSYM    DATA     BYTE      TK2DIFH
      000000A8H.6 SFRSYM    DATA     BIT       EADTP
      0000009AH   SFRSYM    DATA     BYTE      SADDR
      000000CFH   SFRSYM    DATA     BYTE      TK0DIFL
      000000BDH   SFRSYM    DATA     BYTE      TK1DIFL
      000000BFH   SFRSYM    DATA     BYTE      TK2DIFL
      000000B8H.2 SFRSYM    DATA     BIT       P7816L
      000000C6H   SFRSYM    DATA     BYTE      LPDCON1
      000000C7H   SFRSYM    DATA     BYTE      LPDCON2
      000000D0H.5 SFRSYM    DATA     BIT       F0
      000000AEH   SFRSYM    DATA     BYTE      IRDAT
      000000D0H.1 SFRSYM    DATA     BIT       F1
      00000096H   SFRSYM    DATA     BYTE      EMUIE
      0000009EH   SFRSYM    DATA     BYTE      SFINE
      000000F7H   SFRSYM    DATA     BYTE      XPAGE
      00000097H   SFRSYM    DATA     BYTE      EMUIF
      000000D0H   SFRSYM    DATA     BYTE      PSW
      000000D8H.2 SFRSYM    DATA     BIT       RB81
      000000A3H   SFRSYM    DATA     BYTE      SPDAT
      000000F2H   SFRSYM    DATA     BYTE      IB_CON1

      00819018H   BLOCK     CODE/B1  ---       LVL=0
      00819018H   LINE      ---      ---       #84
      00819018H   LINE      ---      ---       #85
      00819018H   LINE      ---      ---       #87
      0081901FH   LINE      ---      ---       #88
      0081901FH   LINE      ---      ---       #90
      00819028H   LINE      ---      ---       #91
      00819028H   LINE      ---      ---       #93
LX51 LINKER/LOCATER V4.66.41.0                                                        11/18/2021  18:54:16  PAGE 172


      00819028H   LINE      ---      ---       #94
      00819028H   LINE      ---      ---       #95
      00819030H   LINE      ---      ---       #96
      00819030H   LINE      ---      ---       #98
      00819030H   LINE      ---      ---       #99
      00819061H   LINE      ---      ---       #103
      00819061H   LINE      ---      ---       #104
      00819068H   LINE      ---      ---       #105
      00819068H   LINE      ---      ---       #106
      0081906BH   LINE      ---      ---       #110
      00819072H   LINE      ---      ---       #111
      00819079H   LINE      ---      ---       #112
      0081907EH   LINE      ---      ---       #113
      00819080H   LINE      ---      ---       #114
      00819087H   LINE      ---      ---       #115
      00819087H   LINE      ---      ---       #116
      00819090H   LINE      ---      ---       #117
      00819090H   LINE      ---      ---       #118
      00819090H   LINE      ---      ---       #119
      00819090H   LINE      ---      ---       #120
      00819090H   LINE      ---      ---       #121
      00819090H   LINE      ---      ---       #122
      00819090H   LINE      ---      ---       #123
      00819090H   LINE      ---      ---       #128
      00819092H   LINE      ---      ---       #130
      00819092H   LINE      ---      ---       #131
      00819099H   LINE      ---      ---       #132
      00819099H   LINE      ---      ---       #133
      008190ACH   LINE      ---      ---       #136
      008190ACH   LINE      ---      ---       #137
      008190AFH   LINE      ---      ---       #138
      008190B5H   LINE      ---      ---       #139
      008190BCH   LINE      ---      ---       #140
      008190BCH   LINE      ---      ---       #141
      008190D0H   LINE      ---      ---       #142
      008190D0H   LINE      ---      ---       #143
      008190D5H   LINE      ---      ---       #144
      008190DCH   LINE      ---      ---       #145
      008190E0H   LINE      ---      ---       #146
      008190E0H   LINE      ---      ---       #147
      008190E2H   LINE      ---      ---       #149
      008190E2H   LINE      ---      ---       #150
      008190E9H   LINE      ---      ---       #151
      008190E9H   LINE      ---      ---       #152
      008190ECH   LINE      ---      ---       #153
      008190F2H   LINE      ---      ---       #154
      008190F7H   LINE      ---      ---       #155
      008190FEH   LINE      ---      ---       #156
      00819105H   LINE      ---      ---       #157
      00819113H   LINE      ---      ---       #158
      00819113H   LINE      ---      ---       #163
      00819113H   LINE      ---      ---       #164
      00819113H   LINE      ---      ---       #166
      00819115H   LINE      ---      ---       #168
      00819115H   LINE      ---      ---       #169
      0081911CH   LINE      ---      ---       #170
      0081911CH   LINE      ---      ---       #171
      00819123H   LINE      ---      ---       #172
      00819123H   LINE      ---      ---       #173
      00819126H   LINE      ---      ---       #177
      0081912DH   LINE      ---      ---       #178
      0081912DH   LINE      ---      ---       #184
      0081912FH   LINE      ---      ---       #186
      0081912FH   LINE      ---      ---       #187
      00819136H   LINE      ---      ---       #188
LX51 LINKER/LOCATER V4.66.41.0                                                        11/18/2021  18:54:16  PAGE 173


      00819136H   LINE      ---      ---       #189
      0081913DH   LINE      ---      ---       #190
      00819144H   LINE      ---      ---       #191
      00819147H   LINE      ---      ---       #192
      0081914DH   LINE      ---      ---       #196
      00819152H   LINE      ---      ---       #197
      00819152H   LINE      ---      ---       #199
      00819152H   LINE      ---      ---       #210
      00819152H   LINE      ---      ---       #211
      00819152H   LINE      ---      ---       #212
      00819152H   LINE      ---      ---       #214
      0081915CH   LINE      ---      ---       #215
      0081915CH   LINE      ---      ---       #216
      0081915FH   LINE      ---      ---       #217
      0081915FH   LINE      ---      ---       #218
      00819161H   LINE      ---      ---       #220
      00819161H   LINE      ---      ---       #221
      00819165H   LINE      ---      ---       #222
      00819173H   LINE      ---      ---       #223
      00819173H   LINE      ---      ---       #224
      ---         BLOCKEND  ---      ---       LVL=0

      0081922DH   BLOCK     CODE/B1  ---       LVL=0
      0081922DH   LINE      ---      ---       #241
      0081922DH   LINE      ---      ---       #242
      0081922DH   BLOCK     CODE/B1  NEAR LAB  LVL=1
      0081922DH   LINE      ---      ---       #248
      00819232H   LINE      ---      ---       #249
      00819234H   LINE      ---      ---       #251
      00819241H   LINE      ---      ---       #254
      00819248H   LINE      ---      ---       #255
      00819248H   LINE      ---      ---       #256
      00819257H   LINE      ---      ---       #258
      0081926BH   LINE      ---      ---       #259
      0081926BH   LINE      ---      ---       #260
      0081927FH   LINE      ---      ---       #261
      0081927FH   LINE      ---      ---       #262
      00819285H   LINE      ---      ---       #263
      0081928CH   LINE      ---      ---       #264
      0081928EH   LINE      ---      ---       #266
      0081928EH   LINE      ---      ---       #267
      00819293H   LINE      ---      ---       #268
      00819295H   LINE      ---      ---       #269
      0081929CH   LINE      ---      ---       #270
      008192A0H   LINE      ---      ---       #271
      008192A0H   LINE      ---      ---       #272
      008192A2H   LINE      ---      ---       #274
      008192A2H   LINE      ---      ---       #275
      008192A8H   LINE      ---      ---       #276
      008192B5H   LINE      ---      ---       #277
      008192B5H   LINE      ---      ---       #278
      008192B5H   LINE      ---      ---       #281
      008192C4H   LINE      ---      ---       #283
      008192E8H   LINE      ---      ---       #284
      008192E8H   LINE      ---      ---       #285
      008192EFH   LINE      ---      ---       #286
      008192FEH   LINE      ---      ---       #287
      00819322H   LINE      ---      ---       #288
      00819322H   LINE      ---      ---       #289
      00819329H   LINE      ---      ---       #290
      00819329H   LINE      ---      ---       #291
      0081932DH   LINE      ---      ---       #293
      0081932DH   LINE      ---      ---       #294
      00819348H   LINE      ---      ---       #295
      00819348H   LINE      ---      ---       #296
LX51 LINKER/LOCATER V4.66.41.0                                                        11/18/2021  18:54:16  PAGE 174


      0081934FH   LINE      ---      ---       #297
      0081934FH   LINE      ---      ---       #298
      00819353H   LINE      ---      ---       #300
      00819353H   LINE      ---      ---       #301
      00819362H   LINE      ---      ---       #302
      0081937BH   LINE      ---      ---       #303
      0081937BH   LINE      ---      ---       #304
      00819382H   LINE      ---      ---       #305
      00819382H   LINE      ---      ---       #306
      00819386H   LINE      ---      ---       #307
      00819386H   LINE      ---      ---       #308
      00819388H   LINE      ---      ---       #310
      00819388H   LINE      ---      ---       #311
      0081938FH   LINE      ---      ---       #312
      0081938FH   LINE      ---      ---       #313
      0081939EH   LINE      ---      ---       #314
      008193C4H   LINE      ---      ---       #315
      008193C4H   LINE      ---      ---       #316
      008193C7H   LINE      ---      ---       #318
      008193C9H   LINE      ---      ---       #320
      008193C9H   LINE      ---      ---       #321
      008193CCH   LINE      ---      ---       #322
      008193CCH   LINE      ---      ---       #323
      008193CEH   LINE      ---      ---       #325
      008193CEH   LINE      ---      ---       #326
      008193D5H   LINE      ---      ---       #327
      008193DCH   LINE      ---      ---       #328
      008193E2H   LINE      ---      ---       #329
      008193E2H   LINE      ---      ---       #330
      008193E2H   LINE      ---      ---       #331
      008193E4H   LINE      ---      ---       #333
      008193E4H   LINE      ---      ---       #334
      008193EBH   LINE      ---      ---       #335
      008193EBH   LINE      ---      ---       #336
      008193EDH   LINE      ---      ---       #338
      008193EDH   LINE      ---      ---       #339
      008193F4H   LINE      ---      ---       #340
      008193FBH   LINE      ---      ---       #341
      008193FBH   LINE      ---      ---       #343
      00819402H   LINE      ---      ---       #344
      00819402H   LINE      ---      ---       #345
      00819409H   LINE      ---      ---       #346
      00819409H   LINE      ---      ---       #347
      00819410H   LINE      ---      ---       #348
      00819410H   LINE      ---      ---       #349
      00819417H   LINE      ---      ---       #350
      00819417H   LINE      ---      ---       #352
      0081941EH   LINE      ---      ---       #353
      0081941EH   LINE      ---      ---       #354
      00819422H   LINE      ---      ---       #355
      00819422H   LINE      ---      ---       #356
      0200076BH   SYMBOL    XDATA    ---       V_Buff
      02000784H   SYMBOL    XDATA    BYTE      V_B_OverDraftLockRelayflag
      02000785H   SYMBOL    XDATA    BYTE      V_B_OverDraftLockRelayflag1
      02000786H   SYMBOL    XDATA    ---       V_ulBuff
      ---         BLOCKEND  CODE/B1  ---       LVL=1
      ---         BLOCKEND  CODE/B1  ---       LVL=0

      0081CB67H   BLOCK     CODE/B1  ---       LVL=0
      0081CB67H   LINE      ---      ---       #382
      0081CB67H   LINE      ---      ---       #383
      0081CB67H   BLOCK     CODE/B1  NEAR LAB  LVL=1
      0081CB67H   LINE      ---      ---       #390
      0081CBB6H   LINE      ---      ---       #392
      0081CBB6H   LINE      ---      ---       #393
LX51 LINKER/LOCATER V4.66.41.0                                                        11/18/2021  18:54:16  PAGE 175


      0081CBBDH   LINE      ---      ---       #394
      0081CBBFH   LINE      ---      ---       #396
      0081CBBFH   LINE      ---      ---       #397
      0081CBC6H   LINE      ---      ---       #398
      0081CBC6H   LINE      ---      ---       #401
      0081CC17H   LINE      ---      ---       #402
      0081CC17H   LINE      ---      ---       #403
      0081CC1EH   LINE      ---      ---       #404
      0081CC20H   LINE      ---      ---       #406
      0081CC20H   LINE      ---      ---       #407
      0081CC27H   LINE      ---      ---       #408
      0081CC27H   LINE      ---      ---       #411
      0081CC39H   LINE      ---      ---       #412
      0081CC39H   LINE      ---      ---       #413
      0081CC3DH   LINE      ---      ---       #414
      0081CC57H   LINE      ---      ---       #415
      0081CC68H   LINE      ---      ---       #417
      0081CCCEH   LINE      ---      ---       #421
      0081CCCEH   LINE      ---      ---       #422
      0081CCD4H   LINE      ---      ---       #423
      0081CCD6H   LINE      ---      ---       #425
      0081CCD6H   LINE      ---      ---       #426
      0081CCDBH   LINE      ---      ---       #427
      0081CCDBH   LINE      ---      ---       #429
      0081CCE4H   LINE      ---      ---       #430
      0081CCE4H   LINE      ---      ---       #431
      0081CCE6H   LINE      ---      ---       #433
      0081CCEDH   LINE      ---      ---       #434
      0081CCF0H   LINE      ---      ---       #435
      0081CCF9H   LINE      ---      ---       #438
      0081CCF9H   LINE      ---      ---       #439
      0081CCF9H   LINE      ---      ---       #441
      0081CCF9H   LINE      ---      ---       #442
      0081CD00H   LINE      ---      ---       #443
      0081CD00H   LINE      ---      ---       #444
      0200060FH   SYMBOL    XDATA    DWORD     v_ulTemp
      02000613H   SYMBOL    XDATA    ---       v_ucTemp
      ---         BLOCKEND  CODE/B1  ---       LVL=1
      ---         BLOCKEND  CODE/B1  ---       LVL=0

      ---         MODULE    ---      ---       APPEVENT
      02000D73H   PUBLIC    XDATA    ---       GA_ucRelayOperCode
      02000D6FH   PUBLIC    XDATA    ---       GA_ucOperCode
      02000D6BH   PUBLIC    XDATA    ---       GA_ucDICode
      02000D2FH   PUBLIC    XDATA    ---       GA_ucEventRecordBuff
      010000E6H   PUBLIC    CONST    ---       GT_ucBuyMoneyRecLen
      010000E1H   PUBLIC    CONST    ---       GT_ucBuyMoneyRecOffset
      02000683H   PUBLIC    XDATA    BYTE      ?_ReadEventRecordData?BYTE
      0081995BH   PUBLIC    CODE/B1  ---       _ReadEventRecordData
      00818A71H   PUBLIC    CODE/B1  ---       _ApiEvent_WriteRecord
      0081CD06H   PUBLIC    CODE/B1  ---       _ApiEvent_RecTotalNum_Add
      000000F3H   SFRSYM    DATA     BYTE      IB_CON2
      000000D8H.3 SFRSYM    DATA     BIT       TB81
      00000080H   SFRSYM    DATA     BYTE      P0
      000000F4H   SFRSYM    DATA     BYTE      IB_CON3
      000000A4H   SFRSYM    DATA     BYTE      TKCON
      00000090H   SFRSYM    DATA     BYTE      P1
      000000F5H   SFRSYM    DATA     BYTE      IB_CON4
      000000E7H   SFRSYM    DATA     BYTE      PASLO
      000000A0H   SFRSYM    DATA     BYTE      P2
      000000FEH   SFRSYM    DATA     BYTE      OSCLO
      000000F6H   SFRSYM    DATA     BYTE      IB_CON5
      00000098H.6 SFRSYM    DATA     BIT       SM1_RXOV
      000000B0H   SFRSYM    DATA     BYTE      P3
      000000D0H.6 SFRSYM    DATA     BIT       AC
LX51 LINKER/LOCATER V4.66.41.0                                                        11/18/2021  18:54:16  PAGE 176


      000000C0H   SFRSYM    DATA     BYTE      P4
      000000A1H   SFRSYM    DATA     BYTE      SPCON
      0000009CH   SFRSYM    DATA     BYTE      SBRTH
      000000E9H   SFRSYM    DATA     BYTE      P5
      000000A8H.7 SFRSYM    DATA     BIT       EA
      000000EAH   SFRSYM    DATA     BYTE      P6
      000000EBH   SFRSYM    DATA     BYTE      P7
      000000EFH   SFRSYM    DATA     BYTE      IB_DATA
      000000ECH   SFRSYM    DATA     BYTE      P8
      0000009DH   SFRSYM    DATA     BYTE      SBRTL
      000000EDH   SFRSYM    DATA     BYTE      P9
      000000B7H   SFRSYM    DATA     BYTE      PBANKLO
      000000A2H   SFRSYM    DATA     BYTE      SPSTA
      000000A8H   SFRSYM    DATA     BYTE      IEN0
      000000B3H   SFRSYM    DATA     BYTE      PWRCON1
      00000095H   SFRSYM    DATA     BYTE      EMUSR
      000000A9H   SFRSYM    DATA     BYTE      IEN1
      000000B4H   SFRSYM    DATA     BYTE      PWRCON2
      00000085H   SFRSYM    DATA     BYTE      DPH1
      00000080H   SFRSYM    DATA     BIT       P0_0
      00000090H   SFRSYM    DATA     BIT       P1_0
      00000080H.1 SFRSYM    DATA     BIT       P0_1
      000000C3H   SFRSYM    DATA     BYTE      ADCH
      000000A0H   SFRSYM    DATA     BIT       P2_0
      00000090H.1 SFRSYM    DATA     BIT       P1_1
      00000080H.2 SFRSYM    DATA     BIT       P0_2
      000000BAH   SFRSYM    DATA     BYTE      IPH0
      00000084H   SFRSYM    DATA     BYTE      DPL1
      000000B0H   SFRSYM    DATA     BIT       P3_0
      000000A0H.1 SFRSYM    DATA     BIT       P2_1
      00000090H.2 SFRSYM    DATA     BIT       P1_2
      00000080H.3 SFRSYM    DATA     BIT       P0_3
      000000BBH   SFRSYM    DATA     BYTE      IPH1
      000000C0H   SFRSYM    DATA     BIT       P4_0
      000000B0H.1 SFRSYM    DATA     BIT       P3_1
      000000A0H.2 SFRSYM    DATA     BIT       P2_2
      00000090H.3 SFRSYM    DATA     BIT       P1_3
      00000080H.4 SFRSYM    DATA     BIT       P0_4
      000000E8H   SFRSYM    DATA     BYTE      EXF0
      000000C0H.1 SFRSYM    DATA     BIT       P4_1
      000000B0H.2 SFRSYM    DATA     BIT       P3_2
      000000A0H.3 SFRSYM    DATA     BIT       P2_3
      00000090H.4 SFRSYM    DATA     BIT       P1_4
      00000080H.5 SFRSYM    DATA     BIT       P0_5
      000000C0H.2 SFRSYM    DATA     BIT       P4_2
      000000B0H.3 SFRSYM    DATA     BIT       P3_3
      000000A0H.4 SFRSYM    DATA     BIT       P2_4
      00000090H.5 SFRSYM    DATA     BIT       P1_5
      00000080H.6 SFRSYM    DATA     BIT       P0_6
      000000C8H.6 SFRSYM    DATA     BIT       EXF2
      000000A6H   SFRSYM    DATA     BYTE      TKF0
      000000B8H   SFRSYM    DATA     BYTE      IPL0
      000000C0H.3 SFRSYM    DATA     BIT       P4_3
      000000B0H.4 SFRSYM    DATA     BIT       P3_4
      000000A0H.5 SFRSYM    DATA     BIT       P2_5
      00000090H.6 SFRSYM    DATA     BIT       P1_6
      00000080H.7 SFRSYM    DATA     BIT       P0_7
      000000D8H.4 SFRSYM    DATA     BIT       REN1
      000000B9H   SFRSYM    DATA     BYTE      IPL1
      000000C0H.4 SFRSYM    DATA     BIT       P4_4
      000000B0H.5 SFRSYM    DATA     BIT       P3_5
      000000A0H.6 SFRSYM    DATA     BIT       P2_6
      00000090H.7 SFRSYM    DATA     BIT       P1_7
      000000E2H   SFRSYM    DATA     BYTE      TK0H
      0000008EH   SFRSYM    DATA     BYTE      SUSLO
LX51 LINKER/LOCATER V4.66.41.0                                                        11/18/2021  18:54:16  PAGE 177


      000000C0H.5 SFRSYM    DATA     BIT       P4_5
      000000B0H.6 SFRSYM    DATA     BIT       P3_6
      000000A0H.7 SFRSYM    DATA     BIT       P2_7
      000000E4H   SFRSYM    DATA     BYTE      TK1H
      000000C0H.6 SFRSYM    DATA     BIT       P4_6
      000000B0H.7 SFRSYM    DATA     BIT       P3_7
      000000E6H   SFRSYM    DATA     BYTE      TK2H
      000000C0H.7 SFRSYM    DATA     BIT       P4_7
      00000098H   SFRSYM    DATA     BIT       RI
      000000A8H.2 SFRSYM    DATA     BIT       E7816
      000000D0H.7 SFRSYM    DATA     BIT       CY
      000000E1H   SFRSYM    DATA     BYTE      TK0L
      00000098H.1 SFRSYM    DATA     BIT       TI
      00000091H   SFRSYM    DATA     BYTE      EADR
      000000E3H   SFRSYM    DATA     BYTE      TK1L
      000000E5H   SFRSYM    DATA     BYTE      TK2L
      000000DBH   SFRSYM    DATA     BYTE      SADEN1
      000000D8H.7 SFRSYM    DATA     BIT       SM10_FE1
      000000FBH   SFRSYM    DATA     BYTE      SADEN2
      000000B8H.4 SFRSYM    DATA     BIT       PS0L
      000000B8H.1 SFRSYM    DATA     BIT       PT0L
      000000DAH   SFRSYM    DATA     BYTE      SADDR1
      000000D8H.5 SFRSYM    DATA     BIT       SM12_TXCOL1
      000000B8H.3 SFRSYM    DATA     BIT       PT1L
      000000FAH   SFRSYM    DATA     BYTE      SADDR2
      000000CBH   SFRSYM    DATA     BYTE      RCAP2H
      000000B8H.5 SFRSYM    DATA     BIT       PT2L
      00000081H   SFRSYM    DATA     BYTE      SP
      000000D0H.2 SFRSYM    DATA     BIT       OV
      000000CAH   SFRSYM    DATA     BYTE      RCAP2L
      000000B8H   SFRSYM    DATA     BIT       PX4L
      000000C8H.1 SFRSYM    DATA     BIT       C_T2
      000000DEH   SFRSYM    DATA     BYTE      SFINE2
      000000ADH   SFRSYM    DATA     BYTE      IRCON1
      000000AFH   SFRSYM    DATA     BYTE      IRCON2
      000000ABH   SFRSYM    DATA     BYTE      EXCON1
      00000099H   SFRSYM    DATA     BYTE      SBUF
      000000ACH   SFRSYM    DATA     BYTE      EXCON2
      00000087H   SFRSYM    DATA     BYTE      PCON
      000000F1H   SFRSYM    DATA     BYTE      AUXC
      00000098H   SFRSYM    DATA     BYTE      SCON
      000000D4H   SFRSYM    DATA     BYTE      TK0BASEH
      00000089H   SFRSYM    DATA     BYTE      TMOD
      00000088H   SFRSYM    DATA     BYTE      TCON
      000000AAH   SFRSYM    DATA     BYTE      IENX
      000000EEH   SFRSYM    DATA     BYTE      IB_OFFSET
      000000D6H   SFRSYM    DATA     BYTE      TK1BASEH
      000000DCH   SFRSYM    DATA     BYTE      SBRT1H
      000000DFH   SFRSYM    DATA     BYTE      TK2BASEH
      000000FCH   SFRSYM    DATA     BYTE      SBRT2H
      000000B1H   SFRSYM    DATA     BYTE      RSTSTAT
      000000D3H   SFRSYM    DATA     BYTE      TK0BASEL
      000000D5H   SFRSYM    DATA     BYTE      TK1BASEL
      000000DDH   SFRSYM    DATA     BYTE      SBRT1L
      000000D7H   SFRSYM    DATA     BYTE      TK2BASEL
      000000FDH   SFRSYM    DATA     BYTE      SBRT2L
      00000098H.7 SFRSYM    DATA     BIT       SM0_FE
      000000B2H   SFRSYM    DATA     BYTE      CLKCON
      00000098H.5 SFRSYM    DATA     BIT       SM2_TXCOL
      000000B5H   SFRSYM    DATA     BYTE      LDOCON
      000000F0H   SFRSYM    DATA     BYTE      B
      000000C8H   SFRSYM    DATA     BIT       CP_RL2
      000000E0H   SFRSYM    DATA     BYTE      ACC
      000000A8H.4 SFRSYM    DATA     BIT       ES0
      000000A8H.1 SFRSYM    DATA     BIT       ET0
LX51 LINKER/LOCATER V4.66.41.0                                                        11/18/2021  18:54:16  PAGE 178


      000000A8H.3 SFRSYM    DATA     BIT       ET1
      00000088H.5 SFRSYM    DATA     BIT       TF0
      000000A8H.5 SFRSYM    DATA     BIT       ET2
      00000088H.7 SFRSYM    DATA     BIT       TF1
      000000D8H   SFRSYM    DATA     BIT       RI1
      00000098H.2 SFRSYM    DATA     BIT       RB8
      000000C8H.7 SFRSYM    DATA     BIT       TF2
      0000008CH   SFRSYM    DATA     BYTE      TH0
      00000086H   SFRSYM    DATA     BYTE      INSCON
      0000008DH   SFRSYM    DATA     BYTE      TH1
      000000D8H.1 SFRSYM    DATA     BIT       TI1
      00000098H.3 SFRSYM    DATA     BIT       TB8
      000000CDH   SFRSYM    DATA     BYTE      TH2
      000000D0H   SFRSYM    DATA     BIT       P
      0000008AH   SFRSYM    DATA     BYTE      TL0
      000000A8H   SFRSYM    DATA     BIT       EX4
      0000008BH   SFRSYM    DATA     BYTE      TL1
      000000A7H   SFRSYM    DATA     BYTE      FLASHCON
      000000CCH   SFRSYM    DATA     BYTE      TL2
      000000D0H.3 SFRSYM    DATA     BIT       RS0
      000000C5H   SFRSYM    DATA     BYTE      ADCDH
      00000088H.4 SFRSYM    DATA     BIT       TR0
      000000D0H.4 SFRSYM    DATA     BIT       RS1
      0000009FH   SFRSYM    DATA     BYTE      PWMCON
      00000088H.6 SFRSYM    DATA     BIT       TR1
      000000C8H.2 SFRSYM    DATA     BIT       TR2
      000000C4H   SFRSYM    DATA     BYTE      ADCDL
      000000C2H   SFRSYM    DATA     BYTE      ADT
      00000083H   SFRSYM    DATA     BYTE      DPH
      00000082H   SFRSYM    DATA     BYTE      DPL
      000000D9H   SFRSYM    DATA     BYTE      SBUF1
      000000C8H.3 SFRSYM    DATA     BIT       EXEN2
      000000F9H   SFRSYM    DATA     BYTE      SBUF2
      000000D8H.6 SFRSYM    DATA     BIT       SM11_RXOV1
      000000B8H.6 SFRSYM    DATA     BIT       PADCL
      00000098H.4 SFRSYM    DATA     BIT       REN
      000000D8H   SFRSYM    DATA     BYTE      SCON1
      000000D1H   SFRSYM    DATA     BYTE      LCDCON1
      000000C1H   SFRSYM    DATA     BYTE      ADCON
      000000F8H   SFRSYM    DATA     BYTE      SCON2
      0000008FH   SFRSYM    DATA     BYTE      TCON1
      000000D2H   SFRSYM    DATA     BYTE      LCDCON2
      00000092H   SFRSYM    DATA     BYTE      EDTAH
      000000C9H   SFRSYM    DATA     BYTE      T2MOD
      000000C8H   SFRSYM    DATA     BYTE      T2CON
      00000094H   SFRSYM    DATA     BYTE      EDTAL
      00000093H   SFRSYM    DATA     BYTE      EDTAM
      000000BCH   SFRSYM    DATA     BYTE      TK0DIFH
      0000009BH   SFRSYM    DATA     BYTE      SADEN
      000000BEH   SFRSYM    DATA     BYTE      TK1DIFH
      000000B6H   SFRSYM    DATA     BYTE      PBANK
      000000A5H   SFRSYM    DATA     BYTE      TK2DIFH
      000000A8H.6 SFRSYM    DATA     BIT       EADTP
      0000009AH   SFRSYM    DATA     BYTE      SADDR
      000000CFH   SFRSYM    DATA     BYTE      TK0DIFL
      000000BDH   SFRSYM    DATA     BYTE      TK1DIFL
      000000BFH   SFRSYM    DATA     BYTE      TK2DIFL
      000000B8H.2 SFRSYM    DATA     BIT       P7816L
      000000C6H   SFRSYM    DATA     BYTE      LPDCON1
      000000C7H   SFRSYM    DATA     BYTE      LPDCON2
      000000D0H.5 SFRSYM    DATA     BIT       F0
      000000AEH   SFRSYM    DATA     BYTE      IRDAT
      000000D0H.1 SFRSYM    DATA     BIT       F1
      00000096H   SFRSYM    DATA     BYTE      EMUIE
      0000009EH   SFRSYM    DATA     BYTE      SFINE
LX51 LINKER/LOCATER V4.66.41.0                                                        11/18/2021  18:54:16  PAGE 179


      000000F7H   SFRSYM    DATA     BYTE      XPAGE
      00000097H   SFRSYM    DATA     BYTE      EMUIF
      000000D0H   SFRSYM    DATA     BYTE      PSW
      000000D8H.2 SFRSYM    DATA     BIT       RB81
      000000A3H   SFRSYM    DATA     BYTE      SPDAT
      000000F2H   SFRSYM    DATA     BYTE      IB_CON1
      010000C3H   SYMBOL    CONST    ---       GT_EventParaData
      0081CD01H   SYMBOL    CODE/B1  ---       _ApiEvent_RecTotalNum_Add

      0081CD01H   BLOCK     CODE/B1  ---       LVL=0
      0081CD06H   LINE      ---      ---       #44
      0081CD0BH   LINE      ---      ---       #45
      0200098BH   SYMBOL    XDATA    BYTE      V_ucEventType
      0081CD0BH   BLOCK     CODE/B1  NEAR LAB  LVL=1
      0081CD0BH   LINE      ---      ---       #47
      0081CD1BH   LINE      ---      ---       #48
      0081CD1BH   LINE      ---      ---       #49
      0081CD28H   LINE      ---      ---       #50
      0081CD28H   LINE      ---      ---       #51
      0081CD3DH   LINE      ---      ---       #52
      0081CD3DH   LINE      ---      ---       #54
      0081CD46H   LINE      ---      ---       #55
      0081CD4CH   LINE      ---      ---       #56
      0081CD76H   LINE      ---      ---       #58
      0081CD84H   LINE      ---      ---       #59
      0081CD99H   LINE      ---      ---       #61
      0081CD99H   LINE      ---      ---       #62
      0200098CH   SYMBOL    XDATA    ---       v_ucTempData
      ---         BLOCKEND  CODE/B1  ---       LVL=1
      ---         BLOCKEND  CODE/B1  ---       LVL=0

      00818A52H   BLOCK     CODE/B1  ---       LVL=0
      00818A71H   LINE      ---      ---       #72
      00818A76H   LINE      ---      ---       #73
      02000786H   SYMBOL    XDATA    BYTE      v_ucEventType
      00818A76H   BLOCK     CODE/B1  NEAR LAB  LVL=1
      00818A76H   LINE      ---      ---       #79
      00818A79H   LINE      ---      ---       #81
      00818A9AH   LINE      ---      ---       #82
      00818AA5H   LINE      ---      ---       #84
      00818AACH   LINE      ---      ---       #85
      00818ABCH   LINE      ---      ---       #86
      00818ABCH   LINE      ---      ---       #87
      00818ABFH   LINE      ---      ---       #89
      00818B17H   LINE      ---      ---       #90
      00818B3DH   LINE      ---      ---       #91
      00818B3DH   LINE      ---      ---       #92
      00818B58H   LINE      ---      ---       #93
      00818B73H   LINE      ---      ---       #94
      00818B87H   LINE      ---      ---       #96
      00818B8AH   LINE      ---      ---       #98
      00818B9EH   LINE      ---      ---       #99
      00818B9EH   LINE      ---      ---       #100
      00818BABH   LINE      ---      ---       #101
      00818BABH   LINE      ---      ---       #103
      00818BBFH   LINE      ---      ---       #104
      00818BBFH   LINE      ---      ---       #105
      00818BCCH   LINE      ---      ---       #106
      00818BCCH   LINE      ---      ---       #108
      00818BDDH   LINE      ---      ---       #109
      00818BEDH   LINE      ---      ---       #110
      00818BEDH   LINE      ---      ---       #111
      00818BFCH   LINE      ---      ---       #112
      00818BFCH   LINE      ---      ---       #113
      00818BFFH   LINE      ---      ---       #118
LX51 LINKER/LOCATER V4.66.41.0                                                        11/18/2021  18:54:16  PAGE 180


      00818C01H   LINE      ---      ---       #120
      00818C01H   LINE      ---      ---       #121
      00818C03H   LINE      ---      ---       #122
      00818C03H   LINE      ---      ---       #123
      00818C2FH   LINE      ---      ---       #124
      00818C34H   LINE      ---      ---       #125
      00818C4FH   LINE      ---      ---       #126
      00818C4FH   LINE      ---      ---       #127
      00818C56H   LINE      ---      ---       #128
      00818CA3H   LINE      ---      ---       #129
      00818CA3H   LINE      ---      ---       #130
      00818CA3H   LINE      ---      ---       #131
      00818CA3H   LINE      ---      ---       #132
      00818CA3H   LINE      ---      ---       #133
      00818CA5H   LINE      ---      ---       #135
      00818CA5H   LINE      ---      ---       #137
      00818CA8H   LINE      ---      ---       #139
      00818CABH   LINE      ---      ---       #141
      00818D03H   LINE      ---      ---       #142
      00818D25H   LINE      ---      ---       #143
      00818D25H   LINE      ---      ---       #144
      00818D25H   LINE      ---      ---       #145
      00818D25H   LINE      ---      ---       #146
      00818D40H   LINE      ---      ---       #147
      00818D5BH   LINE      ---      ---       #148
      00818D73H   LINE      ---      ---       #149
      00818D75H   LINE      ---      ---       #150
      00818D75H   LINE      ---      ---       #151
      00818D75H   LINE      ---      ---       #152
      00818D90H   LINE      ---      ---       #153
      00818DABH   LINE      ---      ---       #154
      00818DC6H   LINE      ---      ---       #155
      00818DD6H   LINE      ---      ---       #156
      00818DF1H   LINE      ---      ---       #157
      00818DF3H   LINE      ---      ---       #158
      00818DF3H   LINE      ---      ---       #159
      00818DF3H   LINE      ---      ---       #160
      00818E0EH   LINE      ---      ---       #161
      00818E29H   LINE      ---      ---       #162
      00818E3DH   LINE      ---      ---       #163
      00818E44H   LINE      ---      ---       #164
      00818E46H   LINE      ---      ---       #165
      00818E46H   LINE      ---      ---       #166
      00818E46H   LINE      ---      ---       #167
      00818E61H   LINE      ---      ---       #168
      00818E7CH   LINE      ---      ---       #169
      00818E97H   LINE      ---      ---       #170
      00818EB2H   LINE      ---      ---       #171
      00818EB4H   LINE      ---      ---       #172
      00818EB4H   LINE      ---      ---       #173
      00818EB4H   LINE      ---      ---       #174
      00818EB4H   LINE      ---      ---       #175
      00818ECFH   LINE      ---      ---       #176
      00818EEAH   LINE      ---      ---       #177
      00818F05H   LINE      ---      ---       #178
      00818F19H   LINE      ---      ---       #179
      00818F19H   LINE      ---      ---       #188
      00818F19H   LINE      ---      ---       #189
      00818F19H   LINE      ---      ---       #191
      00818F2DH   LINE      ---      ---       #192
      00818F2DH   LINE      ---      ---       #193
      00818F3AH   LINE      ---      ---       #194
      00818F3AH   LINE      ---      ---       #196
      00818F4EH   LINE      ---      ---       #197
      00818F4EH   LINE      ---      ---       #198
LX51 LINKER/LOCATER V4.66.41.0                                                        11/18/2021  18:54:16  PAGE 181


      00818F5BH   LINE      ---      ---       #199
      00818F5BH   LINE      ---      ---       #201
      00818F6CH   LINE      ---      ---       #202
      00818F7CH   LINE      ---      ---       #203
      00818F7CH   LINE      ---      ---       #204
      00818F8BH   LINE      ---      ---       #205
      00818F8BH   LINE      ---      ---       #206
      00818F8EH   LINE      ---      ---       #213
      00818F95H   LINE      ---      ---       #214
      00818FB9H   LINE      ---      ---       #215
      00818FDAH   LINE      ---      ---       #217
      00818FE9H   LINE      ---      ---       #218
      00818FF8H   LINE      ---      ---       #219
      00819012H   LINE      ---      ---       #220
      00819017H   LINE      ---      ---       #224
      00819017H   LINE      ---      ---       #225
      02000787H   SYMBOL    XDATA    WORD      V_usE2addrPage
      02000789H   SYMBOL    XDATA    WORD      V_usE2addrPage1
      00000007H   SYMBOL    DATA     BYTE      i
      0200078BH   SYMBOL    XDATA    ---       V_ucTempData
      00000007H   SYMBOL    DATA     BYTE      V_ucTemp1
      ---         BLOCKEND  CODE/B1  ---       LVL=1
      ---         BLOCKEND  CODE/B1  ---       LVL=0

      0081995BH   BLOCK     CODE/B1  ---       LVL=0
      0081995BH   LINE      ---      ---       #240
      0081996CH   LINE      ---      ---       #241
      02000683H   SYMBOL    XDATA    DWORD     V_ulProgDIx
      02000687H   SYMBOL    XDATA    ---       DataPoint
      0200068AH   SYMBOL    XDATA    ---       PtrDataLen
      0081996CH   BLOCK     CODE/B1  NEAR LAB  LVL=1
      0081996CH   LINE      ---      ---       #254
      00819971H   LINE      ---      ---       #255
      0081997CH   LINE      ---      ---       #256
      00819994H   LINE      ---      ---       #257
      008199ACH   LINE      ---      ---       #258
      008199C4H   LINE      ---      ---       #260
      008199C7H   LINE      ---      ---       #264
      008199E7H   LINE      ---      ---       #265
      008199E7H   LINE      ---      ---       #266
      008199EDH   LINE      ---      ---       #267
      008199EFH   LINE      ---      ---       #269
      008199EFH   LINE      ---      ---       #270
      008199F4H   LINE      ---      ---       #271
      008199F4H   LINE      ---      ---       #272
      00819A03H   LINE      ---      ---       #273
      00819A12H   LINE      ---      ---       #275
      00819A21H   LINE      ---      ---       #276
      00819A21H   LINE      ---      ---       #277
      00819A3AH   LINE      ---      ---       #278
      00819A3AH   LINE      ---      ---       #279
      00819A3AH   LINE      ---      ---       #280
      00819A3AH   LINE      ---      ---       #281
      00819A42H   LINE      ---      ---       #282
      00819A4BH   LINE      ---      ---       #283
      00819A4BH   LINE      ---      ---       #284
      00819A4BH   LINE      ---      ---       #285
      00819A4DH   LINE      ---      ---       #286
      00819A4DH   LINE      ---      ---       #289
      00819A84H   LINE      ---      ---       #290
      00819A84H   LINE      ---      ---       #291
      00819ABAH   LINE      ---      ---       #292
      00819ACAH   LINE      ---      ---       #293
      00819ACDH   LINE      ---      ---       #294
      00819ACDH   LINE      ---      ---       #298
LX51 LINKER/LOCATER V4.66.41.0                                                        11/18/2021  18:54:16  PAGE 182


      00819AD6H   LINE      ---      ---       #299
      00819AD6H   LINE      ---      ---       #300
      00819AD9H   LINE      ---      ---       #301
      00819AD9H   LINE      ---      ---       #303
      00819AF4H   LINE      ---      ---       #305
      00819B26H   LINE      ---      ---       #306
      00819B26H   LINE      ---      ---       #307
      00819B49H   LINE      ---      ---       #308
      00819B50H   LINE      ---      ---       #309
      00819B50H   LINE      ---      ---       #310
      00819B5DH   LINE      ---      ---       #311
      00819B5FH   LINE      ---      ---       #312
      00819B63H   LINE      ---      ---       #313
      00819B63H   LINE      ---      ---       #314
      00819B70H   LINE      ---      ---       #315
      00819B72H   LINE      ---      ---       #316
      00819B76H   LINE      ---      ---       #317
      00819B76H   LINE      ---      ---       #318
      00819B83H   LINE      ---      ---       #319
      00819B85H   LINE      ---      ---       #320
      00819B8FH   LINE      ---      ---       #321
      00819B8FH   LINE      ---      ---       #322
      00819B9FH   LINE      ---      ---       #323
      00819B9FH   LINE      ---      ---       #324
      00819BA8H   LINE      ---      ---       #325
      00819BB0H   LINE      ---      ---       #326
      00819BBAH   LINE      ---      ---       #327
      00819BBAH   LINE      ---      ---       #328
      00819BC1H   LINE      ---      ---       #329
      00819BC1H   LINE      ---      ---       #330
      00819BCBH   LINE      ---      ---       #331
      00819BCDH   LINE      ---      ---       #333
      00819BCDH   LINE      ---      ---       #334
      00819BD7H   LINE      ---      ---       #335
      00819BD7H   LINE      ---      ---       #336
      00819BD9H   LINE      ---      ---       #338
      00819BD9H   LINE      ---      ---       #339
      00819BD9H   LINE      ---      ---       #340
      00819BDBH   LINE      ---      ---       #341
      00819BDBH   LINE      ---      ---       #342
      00819BDBH   LINE      ---      ---       #343
      00819BE3H   LINE      ---      ---       #344
      00819BE3H   LINE      ---      ---       #345
      00819BF2H   LINE      ---      ---       #346
      00819BF2H   LINE      ---      ---       #347
      00819BFBH   LINE      ---      ---       #348
      00819C03H   LINE      ---      ---       #349
      00819C0DH   LINE      ---      ---       #350
      00819C0DH   LINE      ---      ---       #351
      00819C22H   LINE      ---      ---       #353
      00819C24H   LINE      ---      ---       #355
      00819C24H   LINE      ---      ---       #356
      00819C2AH   LINE      ---      ---       #357
      00819C2CH   LINE      ---      ---       #358
      00819C2CH   LINE      ---      ---       #359
      00819C2CH   LINE      ---      ---       #360
      00819C53H   LINE      ---      ---       #361
      00819C56H   LINE      ---      ---       #362
      00819C56H   LINE      ---      ---       #364
      00819C56H   LINE      ---      ---       #365
      00819C76H   LINE      ---      ---       #366
      00819CA0H   LINE      ---      ---       #368
      00819CB7H   LINE      ---      ---       #369
      00819CB7H   LINE      ---      ---       #372
      00819CC3H   LINE      ---      ---       #373
LX51 LINKER/LOCATER V4.66.41.0                                                        11/18/2021  18:54:16  PAGE 183


      00819CF5H   LINE      ---      ---       #375
      00819D16H   LINE      ---      ---       #376
      00819D16H   LINE      ---      ---       #377
      00819D16H   LINE      ---      ---       #378
      00819D16H   LINE      ---      ---       #379
      00819D42H   LINE      ---      ---       #380
      00819D5BH   LINE      ---      ---       #381
      00819D61H   LINE      ---      ---       #382
      00819D63H   LINE      ---      ---       #383
      00819D63H   LINE      ---      ---       #384
      00819D63H   LINE      ---      ---       #385
      00819D8FH   LINE      ---      ---       #386
      00819DA8H   LINE      ---      ---       #387
      00819DBBH   LINE      ---      ---       #388
      00819DBDH   LINE      ---      ---       #389
      00819DBDH   LINE      ---      ---       #390
      00819DBDH   LINE      ---      ---       #391
      00819DE9H   LINE      ---      ---       #392
      00819E02H   LINE      ---      ---       #393
      00819E20H   LINE      ---      ---       #394
      00819E30H   LINE      ---      ---       #395
      00819E32H   LINE      ---      ---       #396
      00819E32H   LINE      ---      ---       #397
      00819E32H   LINE      ---      ---       #398
      00819E32H   LINE      ---      ---       #399
      00819E42H   LINE      ---      ---       #400
      00819E42H   LINE      ---      ---       #401
      00819E4BH   LINE      ---      ---       #402
      00819E53H   LINE      ---      ---       #403
      00819E5FH   LINE      ---      ---       #404
      00819E5FH   LINE      ---      ---       #405
      00819E63H   LINE      ---      ---       #406
      00819E63H   LINE      ---      ---       #407
      00819E70H   LINE      ---      ---       #408
      00819E70H   LINE      ---      ---       #409
      00819E72H   LINE      ---      ---       #410
      00819E80H   LINE      ---      ---       #411
      00819E80H   LINE      ---      ---       #412
      00819E8BH   LINE      ---      ---       #413
      00819E8BH   LINE      ---      ---       #414
      00819E8DH   LINE      ---      ---       #416
      00819E8DH   LINE      ---      ---       #417
      00819E98H   LINE      ---      ---       #418
      00819EE0H   LINE      ---      ---       #419
      00819EE0H   LINE      ---      ---       #420
      00819EE2H   LINE      ---      ---       #432
      00819EE2H   LINE      ---      ---       #433
      00819EE2H   LINE      ---      ---       #434
      00819EF2H   LINE      ---      ---       #435
      00819EF2H   LINE      ---      ---       #436
      00819EFBH   LINE      ---      ---       #437
      00819F03H   LINE      ---      ---       #438
      00819F0FH   LINE      ---      ---       #439
      00819F0FH   LINE      ---      ---       #440
      00819F24H   LINE      ---      ---       #441
      00819F2BH   LINE      ---      ---       #442
      00819F2BH   LINE      ---      ---       #443
      00819F52H   LINE      ---      ---       #444
      00819F54H   LINE      ---      ---       #446
      00819F54H   LINE      ---      ---       #447
      00819F9BH   LINE      ---      ---       #448
      00819F9BH   LINE      ---      ---       #449
      00819F9DH   LINE      ---      ---       #451
      00819F9DH   LINE      ---      ---       #452
      00819F9DH   LINE      ---      ---       #453
LX51 LINKER/LOCATER V4.66.41.0                                                        11/18/2021  18:54:16  PAGE 184


      00819F9DH   LINE      ---      ---       #454
      00819F9FH   LINE      ---      ---       #456
      00819F9FH   LINE      ---      ---       #457
      00819FA5H   LINE      ---      ---       #458
      00819FA5H   LINE      ---      ---       #459
      00819FA5H   LINE      ---      ---       #460
      00819FAAH   LINE      ---      ---       #461
      0200068DH   SYMBOL    XDATA    BYTE      i
      0200068EH   SYMBOL    XDATA    BYTE      V_ucEventType
      0200068FH   SYMBOL    XDATA    WORD      V_ucEventAddress
      02000691H   SYMBOL    XDATA    BYTE      V_ucEventOffset
      02000692H   SYMBOL    XDATA    BYTE      V_EventLen
      02000693H   SYMBOL    XDATA    ---       V_ucDI
      00000006H   SYMBOL    DATA     WORD      V_usDI2DI1
      02000697H   SYMBOL    XDATA    BYTE      V_ucLenJudge
      02000698H   SYMBOL    XDATA    BYTE      V_ucErrorType
      02000699H   SYMBOL    XDATA    ---       V_ucTempData
      02000899H   SYMBOL    XDATA    DWORD     V_ulTempData
      ---         BLOCKEND  CODE/B1  ---       LVL=1
      ---         BLOCKEND  CODE/B1  ---       LVL=0

      ---         MODULE    ---      ---       MAINPRO
      0200FFB7H   PUBLIC    XDATA    BYTE      RTCIF
      0200FFB6H   PUBLIC    XDATA    BYTE      RTCIE
      0200FFF9H   PUBLIC    XDATA    BYTE      P9PCR
      0200FFF8H   PUBLIC    XDATA    BYTE      P8PCR
      0200FFF7H   PUBLIC    XDATA    BYTE      P7PCR
      0200FFF6H   PUBLIC    XDATA    BYTE      P6PCR
      0200FFF5H   PUBLIC    XDATA    BYTE      P5PCR
      0200FFF4H   PUBLIC    XDATA    BYTE      P4PCR
      0200FFA7H   PUBLIC    XDATA    BYTE      DOW
      0200FFC5H   PUBLIC    XDATA    BYTE      S7816CLKDIV
      0200FFF3H   PUBLIC    XDATA    BYTE      P3PCR
      0200FFA5H   PUBLIC    XDATA    BYTE      MTH
      0200FFF2H   PUBLIC    XDATA    BYTE      P2PCR
      0200FF8FH   PUBLIC    XDATA    BYTE      P2PHM
      0200FF9FH   PUBLIC    XDATA    BYTE      TKDIV04
      0200FFF1H   PUBLIC    XDATA    BYTE      P1PCR
      0200FFFBH   PUBLIC    XDATA    BYTE      P2INM
      0200FFD0H   PUBLIC    XDATA    BYTE      SCON3
      0200FF9EH   PUBLIC    XDATA    BYTE      TKDIV03
      0200FFF0H   PUBLIC    XDATA    BYTE      P0PCR
      0200FF8EH   PUBLIC    XDATA    BYTE      P0PHM
      0200FF9DH   PUBLIC    XDATA    BYTE      TKDIV02
      0200FFC7H   PUBLIC    XDATA    BYTE      S7816ETUL
      0200FFFAH   PUBLIC    XDATA    BYTE      P0INM
      0200FF9CH   PUBLIC    XDATA    BYTE      TKDIV01
      0200FFB5H   PUBLIC    XDATA    BYTE      RTCPSW
      0200FFD1H   PUBLIC    XDATA    BYTE      SBUF3
      0200FFA2H   PUBLIC    XDATA    BYTE      MIN
      0200FF9BH   PUBLIC    XDATA    BYTE      TKRANDOM
      0200FFC6H   PUBLIC    XDATA    BYTE      S7816ETUH
      0200FFCDH   PUBLIC    XDATA    BYTE      EGTRSEND
      0200FFA4H   PUBLIC    XDATA    BYTE      DAY
      0200FFBAH   PUBLIC    XDATA    BYTE      RTCTMR
      0200FFAFH   PUBLIC    XDATA    BYTE      A0DOW
      0200FFA1H   PUBLIC    XDATA    BYTE      SEC
      0200FFB1H   PUBLIC    XDATA    BYTE      A1MIN
      0200FFACH   PUBLIC    XDATA    BYTE      A0MIN
      0200FF90H   PUBLIC    XDATA    BYTE      TKVREF
      0200FFAEH   PUBLIC    XDATA    BYTE      A0DAY
      0200FFB0H   PUBLIC    XDATA    BYTE      A1SEC
      0200FFC2H   PUBLIC    XDATA    BYTE      EGTSET
      0200FFABH   PUBLIC    XDATA    BYTE      A0SEC
      0200FFB3H   PUBLIC    XDATA    BYTE      RTCCON
LX51 LINKER/LOCATER V4.66.41.0                                                        11/18/2021  18:54:16  PAGE 185


      0200FF9AH   PUBLIC    XDATA    BYTE      TKST
      0200FFAAH   PUBLIC    XDATA    BYTE      RTCALM
      0200FFB8H   PUBLIC    XDATA    BYTE      RTCECL
      0200FFC0H   PUBLIC    XDATA    BYTE      S7816EN
      0200FFD5H   PUBLIC    XDATA    BYTE      SBRT3L
      0200FF8CH   PUBLIC    XDATA    BYTE      P1DRVL
      0200FFB9H   PUBLIC    XDATA    BYTE      RTCECH
      0200FFCAH   PUBLIC    XDATA    BYTE      S7816IE
      0200FF8DH   PUBLIC    XDATA    BYTE      P2DRVH
      0200FFD4H   PUBLIC    XDATA    BYTE      SBRT3H
      0200FF8BH   PUBLIC    XDATA    BYTE      P0DRVH
      0200FF85H   PUBLIC    XDATA    BYTE      P9SS
      0200FF84H   PUBLIC    XDATA    BYTE      P8SS
      0200FF83H   PUBLIC    XDATA    BYTE      P7SS
      0200FF82H   PUBLIC    XDATA    BYTE      P6SS
      0200FF81H   PUBLIC    XDATA    BYTE      P5SS
      0200FFA0H   PUBLIC    XDATA    BYTE      SBSC
      0200FF80H   PUBLIC    XDATA    BYTE      P4SS
      0200FF91H   PUBLIC    XDATA    BYTE      TKCH
      0200FFA6H   PUBLIC    XDATA    BYTE      YR
      0200FF8AH   PUBLIC    XDATA    BYTE      P3OS
      0200FF89H   PUBLIC    XDATA    BYTE      P2OS
      0200FF88H   PUBLIC    XDATA    BYTE      P0OS
      0200FFD2H   PUBLIC    XDATA    BYTE      SADDR3
      0200FFC4H   PUBLIC    XDATA    BYTE      S7816WTL
      0200FFD3H   PUBLIC    XDATA    BYTE      SADEN3
      0200FFE9H   PUBLIC    XDATA    BYTE      P9CR
      0200FFC3H   PUBLIC    XDATA    BYTE      S7816WTH
      0200FFE8H   PUBLIC    XDATA    BYTE      P8CR
      0200FFE7H   PUBLIC    XDATA    BYTE      P7CR
      0200FFE6H   PUBLIC    XDATA    BYTE      P6CR
      0200FFE5H   PUBLIC    XDATA    BYTE      P5CR
      0200FFE4H   PUBLIC    XDATA    BYTE      P4CR
      0200FFA3H   PUBLIC    XDATA    BYTE      HR
      0200FFE3H   PUBLIC    XDATA    BYTE      P3CR
      0200FFE2H   PUBLIC    XDATA    BYTE      P2CR
      0200FFE1H   PUBLIC    XDATA    BYTE      P1CR
      0200FFE0H   PUBLIC    XDATA    BYTE      P0CR
      0200FFB4H   PUBLIC    XDATA    BYTE      RTCWR
      0200FFCBH   PUBLIC    XDATA    BYTE      S7816STA
      0200FFA9H   PUBLIC    XDATA    BYTE      RTCDATL
      0200FF96H   PUBLIC    XDATA    BYTE      TK2THRL
      0200FF94H   PUBLIC    XDATA    BYTE      TK1THRL
      0200FFA8H   PUBLIC    XDATA    BYTE      RTCDATH
      0200FFB2H   PUBLIC    XDATA    BYTE      A1HR
      0200FF92H   PUBLIC    XDATA    BYTE      TK0THRL
      0200FFADH   PUBLIC    XDATA    BYTE      A0HR
      0200FFC1H   PUBLIC    XDATA    BYTE      S7816CON
      0200FFC9H   PUBLIC    XDATA    BYTE      TXBUF
      0200FF97H   PUBLIC    XDATA    BYTE      TK2THRH
      0200FF95H   PUBLIC    XDATA    BYTE      TK1THRH
      0200FFC8H   PUBLIC    XDATA    BYTE      RXBUF
      0200FF93H   PUBLIC    XDATA    BYTE      TK0THRH
      0200FFCCH   PUBLIC    XDATA    BYTE      S7816ERRSTA
      010018B3H   PUBLIC    CODE     ---       main
      000000F3H   SFRSYM    DATA     BYTE      IB_CON2
      000000D8H.3 SFRSYM    DATA     BIT       TB81
      00000080H   SFRSYM    DATA     BYTE      P0
      000000F4H   SFRSYM    DATA     BYTE      IB_CON3
      000000A4H   SFRSYM    DATA     BYTE      TKCON
      00000090H   SFRSYM    DATA     BYTE      P1
      000000F5H   SFRSYM    DATA     BYTE      IB_CON4
      000000E7H   SFRSYM    DATA     BYTE      PASLO
      000000A0H   SFRSYM    DATA     BYTE      P2
      000000FEH   SFRSYM    DATA     BYTE      OSCLO
LX51 LINKER/LOCATER V4.66.41.0                                                        11/18/2021  18:54:16  PAGE 186


      000000F6H   SFRSYM    DATA     BYTE      IB_CON5
      00000098H.6 SFRSYM    DATA     BIT       SM1_RXOV
      000000B0H   SFRSYM    DATA     BYTE      P3
      000000D0H.6 SFRSYM    DATA     BIT       AC
      000000C0H   SFRSYM    DATA     BYTE      P4
      000000A1H   SFRSYM    DATA     BYTE      SPCON
      0000009CH   SFRSYM    DATA     BYTE      SBRTH
      000000E9H   SFRSYM    DATA     BYTE      P5
      000000A8H.7 SFRSYM    DATA     BIT       EA
      000000EAH   SFRSYM    DATA     BYTE      P6
      000000EBH   SFRSYM    DATA     BYTE      P7
      000000EFH   SFRSYM    DATA     BYTE      IB_DATA
      000000ECH   SFRSYM    DATA     BYTE      P8
      0000009DH   SFRSYM    DATA     BYTE      SBRTL
      000000EDH   SFRSYM    DATA     BYTE      P9
      000000B7H   SFRSYM    DATA     BYTE      PBANKLO
      000000A2H   SFRSYM    DATA     BYTE      SPSTA
      000000A8H   SFRSYM    DATA     BYTE      IEN0
      000000B3H   SFRSYM    DATA     BYTE      PWRCON1
      00000095H   SFRSYM    DATA     BYTE      EMUSR
      000000A9H   SFRSYM    DATA     BYTE      IEN1
      000000B4H   SFRSYM    DATA     BYTE      PWRCON2
      00000085H   SFRSYM    DATA     BYTE      DPH1
      00000080H   SFRSYM    DATA     BIT       P0_0
      00000090H   SFRSYM    DATA     BIT       P1_0
      00000080H.1 SFRSYM    DATA     BIT       P0_1
      000000C3H   SFRSYM    DATA     BYTE      ADCH
      000000A0H   SFRSYM    DATA     BIT       P2_0
      00000090H.1 SFRSYM    DATA     BIT       P1_1
      00000080H.2 SFRSYM    DATA     BIT       P0_2
      000000BAH   SFRSYM    DATA     BYTE      IPH0
      00000084H   SFRSYM    DATA     BYTE      DPL1
      000000B0H   SFRSYM    DATA     BIT       P3_0
      000000A0H.1 SFRSYM    DATA     BIT       P2_1
      00000090H.2 SFRSYM    DATA     BIT       P1_2
      00000080H.3 SFRSYM    DATA     BIT       P0_3
      000000BBH   SFRSYM    DATA     BYTE      IPH1
      000000C0H   SFRSYM    DATA     BIT       P4_0
      000000B0H.1 SFRSYM    DATA     BIT       P3_1
      000000A0H.2 SFRSYM    DATA     BIT       P2_2
      00000090H.3 SFRSYM    DATA     BIT       P1_3
      00000080H.4 SFRSYM    DATA     BIT       P0_4
      000000E8H   SFRSYM    DATA     BYTE      EXF0
      000000C0H.1 SFRSYM    DATA     BIT       P4_1
      000000B0H.2 SFRSYM    DATA     BIT       P3_2
      000000A0H.3 SFRSYM    DATA     BIT       P2_3
      00000090H.4 SFRSYM    DATA     BIT       P1_4
      00000080H.5 SFRSYM    DATA     BIT       P0_5
      000000C0H.2 SFRSYM    DATA     BIT       P4_2
      000000B0H.3 SFRSYM    DATA     BIT       P3_3
      000000A0H.4 SFRSYM    DATA     BIT       P2_4
      00000090H.5 SFRSYM    DATA     BIT       P1_5
      00000080H.6 SFRSYM    DATA     BIT       P0_6
      000000C8H.6 SFRSYM    DATA     BIT       EXF2
      000000A6H   SFRSYM    DATA     BYTE      TKF0
      000000B8H   SFRSYM    DATA     BYTE      IPL0
      000000C0H.3 SFRSYM    DATA     BIT       P4_3
      000000B0H.4 SFRSYM    DATA     BIT       P3_4
      000000A0H.5 SFRSYM    DATA     BIT       P2_5
      00000090H.6 SFRSYM    DATA     BIT       P1_6
      00000080H.7 SFRSYM    DATA     BIT       P0_7
      000000D8H.4 SFRSYM    DATA     BIT       REN1
      000000B9H   SFRSYM    DATA     BYTE      IPL1
      000000C0H.4 SFRSYM    DATA     BIT       P4_4
      000000B0H.5 SFRSYM    DATA     BIT       P3_5
LX51 LINKER/LOCATER V4.66.41.0                                                        11/18/2021  18:54:16  PAGE 187


      000000A0H.6 SFRSYM    DATA     BIT       P2_6
      00000090H.7 SFRSYM    DATA     BIT       P1_7
      000000E2H   SFRSYM    DATA     BYTE      TK0H
      0000008EH   SFRSYM    DATA     BYTE      SUSLO
      000000C0H.5 SFRSYM    DATA     BIT       P4_5
      000000B0H.6 SFRSYM    DATA     BIT       P3_6
      000000A0H.7 SFRSYM    DATA     BIT       P2_7
      000000E4H   SFRSYM    DATA     BYTE      TK1H
      000000C0H.6 SFRSYM    DATA     BIT       P4_6
      000000B0H.7 SFRSYM    DATA     BIT       P3_7
      000000E6H   SFRSYM    DATA     BYTE      TK2H
      000000C0H.7 SFRSYM    DATA     BIT       P4_7
      00000098H   SFRSYM    DATA     BIT       RI
      000000A8H.2 SFRSYM    DATA     BIT       E7816
      000000D0H.7 SFRSYM    DATA     BIT       CY
      000000E1H   SFRSYM    DATA     BYTE      TK0L
      00000098H.1 SFRSYM    DATA     BIT       TI
      00000091H   SFRSYM    DATA     BYTE      EADR
      000000E3H   SFRSYM    DATA     BYTE      TK1L
      000000E5H   SFRSYM    DATA     BYTE      TK2L
      000000DBH   SFRSYM    DATA     BYTE      SADEN1
      000000D8H.7 SFRSYM    DATA     BIT       SM10_FE1
      000000FBH   SFRSYM    DATA     BYTE      SADEN2
      000000B8H.4 SFRSYM    DATA     BIT       PS0L
      000000B8H.1 SFRSYM    DATA     BIT       PT0L
      000000DAH   SFRSYM    DATA     BYTE      SADDR1
      000000D8H.5 SFRSYM    DATA     BIT       SM12_TXCOL1
      000000B8H.3 SFRSYM    DATA     BIT       PT1L
      000000FAH   SFRSYM    DATA     BYTE      SADDR2
      000000CBH   SFRSYM    DATA     BYTE      RCAP2H
      000000B8H.5 SFRSYM    DATA     BIT       PT2L
      00000081H   SFRSYM    DATA     BYTE      SP
      000000D0H.2 SFRSYM    DATA     BIT       OV
      000000CAH   SFRSYM    DATA     BYTE      RCAP2L
      000000B8H   SFRSYM    DATA     BIT       PX4L
      000000C8H.1 SFRSYM    DATA     BIT       C_T2
      000000DEH   SFRSYM    DATA     BYTE      SFINE2
      000000ADH   SFRSYM    DATA     BYTE      IRCON1
      000000AFH   SFRSYM    DATA     BYTE      IRCON2
      000000ABH   SFRSYM    DATA     BYTE      EXCON1
      00000099H   SFRSYM    DATA     BYTE      SBUF
      000000ACH   SFRSYM    DATA     BYTE      EXCON2
      00000087H   SFRSYM    DATA     BYTE      PCON
      000000F1H   SFRSYM    DATA     BYTE      AUXC
      00000098H   SFRSYM    DATA     BYTE      SCON
      000000D4H   SFRSYM    DATA     BYTE      TK0BASEH
      00000089H   SFRSYM    DATA     BYTE      TMOD
      00000088H   SFRSYM    DATA     BYTE      TCON
      000000AAH   SFRSYM    DATA     BYTE      IENX
      000000EEH   SFRSYM    DATA     BYTE      IB_OFFSET
      000000D6H   SFRSYM    DATA     BYTE      TK1BASEH
      000000DCH   SFRSYM    DATA     BYTE      SBRT1H
      000000DFH   SFRSYM    DATA     BYTE      TK2BASEH
      000000FCH   SFRSYM    DATA     BYTE      SBRT2H
      000000B1H   SFRSYM    DATA     BYTE      RSTSTAT
      000000D3H   SFRSYM    DATA     BYTE      TK0BASEL
      000000D5H   SFRSYM    DATA     BYTE      TK1BASEL
      000000DDH   SFRSYM    DATA     BYTE      SBRT1L
      000000D7H   SFRSYM    DATA     BYTE      TK2BASEL
      000000FDH   SFRSYM    DATA     BYTE      SBRT2L
      00000098H.7 SFRSYM    DATA     BIT       SM0_FE
      000000B2H   SFRSYM    DATA     BYTE      CLKCON
      00000098H.5 SFRSYM    DATA     BIT       SM2_TXCOL
      000000B5H   SFRSYM    DATA     BYTE      LDOCON
      000000F0H   SFRSYM    DATA     BYTE      B
LX51 LINKER/LOCATER V4.66.41.0                                                        11/18/2021  18:54:16  PAGE 188


      000000C8H   SFRSYM    DATA     BIT       CP_RL2
      000000E0H   SFRSYM    DATA     BYTE      ACC
      000000A8H.4 SFRSYM    DATA     BIT       ES0
      000000A8H.1 SFRSYM    DATA     BIT       ET0
      000000A8H.3 SFRSYM    DATA     BIT       ET1
      00000088H.5 SFRSYM    DATA     BIT       TF0
      000000A8H.5 SFRSYM    DATA     BIT       ET2
      00000088H.7 SFRSYM    DATA     BIT       TF1
      000000D8H   SFRSYM    DATA     BIT       RI1
      00000098H.2 SFRSYM    DATA     BIT       RB8
      000000C8H.7 SFRSYM    DATA     BIT       TF2
      0000008CH   SFRSYM    DATA     BYTE      TH0
      00000086H   SFRSYM    DATA     BYTE      INSCON
      0000008DH   SFRSYM    DATA     BYTE      TH1
      000000D8H.1 SFRSYM    DATA     BIT       TI1
      00000098H.3 SFRSYM    DATA     BIT       TB8
      000000CDH   SFRSYM    DATA     BYTE      TH2
      000000D0H   SFRSYM    DATA     BIT       P
      0000008AH   SFRSYM    DATA     BYTE      TL0
      000000A8H   SFRSYM    DATA     BIT       EX4
      0000008BH   SFRSYM    DATA     BYTE      TL1
      000000A7H   SFRSYM    DATA     BYTE      FLASHCON
      000000CCH   SFRSYM    DATA     BYTE      TL2
      000000D0H.3 SFRSYM    DATA     BIT       RS0
      000000C5H   SFRSYM    DATA     BYTE      ADCDH
      00000088H.4 SFRSYM    DATA     BIT       TR0
      000000D0H.4 SFRSYM    DATA     BIT       RS1
      0000009FH   SFRSYM    DATA     BYTE      PWMCON
      00000088H.6 SFRSYM    DATA     BIT       TR1
      000000C8H.2 SFRSYM    DATA     BIT       TR2
      000000C4H   SFRSYM    DATA     BYTE      ADCDL
      000000C2H   SFRSYM    DATA     BYTE      ADT
      00000083H   SFRSYM    DATA     BYTE      DPH
      00000082H   SFRSYM    DATA     BYTE      DPL
      000000D9H   SFRSYM    DATA     BYTE      SBUF1
      000000C8H.3 SFRSYM    DATA     BIT       EXEN2
      000000F9H   SFRSYM    DATA     BYTE      SBUF2
      000000D8H.6 SFRSYM    DATA     BIT       SM11_RXOV1
      000000B8H.6 SFRSYM    DATA     BIT       PADCL
      00000098H.4 SFRSYM    DATA     BIT       REN
      000000D8H   SFRSYM    DATA     BYTE      SCON1
      000000D1H   SFRSYM    DATA     BYTE      LCDCON1
      000000C1H   SFRSYM    DATA     BYTE      ADCON
      000000F8H   SFRSYM    DATA     BYTE      SCON2
      0000008FH   SFRSYM    DATA     BYTE      TCON1
      000000D2H   SFRSYM    DATA     BYTE      LCDCON2
      00000092H   SFRSYM    DATA     BYTE      EDTAH
      000000C9H   SFRSYM    DATA     BYTE      T2MOD
      000000C8H   SFRSYM    DATA     BYTE      T2CON
      00000094H   SFRSYM    DATA     BYTE      EDTAL
      00000093H   SFRSYM    DATA     BYTE      EDTAM
      000000BCH   SFRSYM    DATA     BYTE      TK0DIFH
      0000009BH   SFRSYM    DATA     BYTE      SADEN
      000000BEH   SFRSYM    DATA     BYTE      TK1DIFH
      000000B6H   SFRSYM    DATA     BYTE      PBANK
      000000A5H   SFRSYM    DATA     BYTE      TK2DIFH
      000000A8H.6 SFRSYM    DATA     BIT       EADTP
      0000009AH   SFRSYM    DATA     BYTE      SADDR
      000000CFH   SFRSYM    DATA     BYTE      TK0DIFL
      000000BDH   SFRSYM    DATA     BYTE      TK1DIFL
      000000BFH   SFRSYM    DATA     BYTE      TK2DIFL
      000000B8H.2 SFRSYM    DATA     BIT       P7816L
      000000C6H   SFRSYM    DATA     BYTE      LPDCON1
      000000C7H   SFRSYM    DATA     BYTE      LPDCON2
      000000D0H.5 SFRSYM    DATA     BIT       F0
LX51 LINKER/LOCATER V4.66.41.0                                                        11/18/2021  18:54:16  PAGE 189


      000000AEH   SFRSYM    DATA     BYTE      IRDAT
      000000D0H.1 SFRSYM    DATA     BIT       F1
      00000096H   SFRSYM    DATA     BYTE      EMUIE
      0000009EH   SFRSYM    DATA     BYTE      SFINE
      000000F7H   SFRSYM    DATA     BYTE      XPAGE
      00000097H   SFRSYM    DATA     BYTE      EMUIF
      000000D0H   SFRSYM    DATA     BYTE      PSW
      000000D8H.2 SFRSYM    DATA     BIT       RB81
      000000A3H   SFRSYM    DATA     BYTE      SPDAT
      000000F2H   SFRSYM    DATA     BYTE      IB_CON1

      010018B3H   BLOCK     CODE     ---       LVL=0
      010018B3H   LINE      ---      ---       #153
      010018B3H   LINE      ---      ---       #154
      010018B3H   LINE      ---      ---       #156
      010018B9H   LINE      ---      ---       #157
      010018B9H   LINE      ---      ---       #158
      010018BCH   LINE      ---      ---       #159
      010018BCH   LINE      ---      ---       #165
      010018BCH   LINE      ---      ---       #166
      010018BCH   LINE      ---      ---       #168
      010018D2H   LINE      ---      ---       #169
      010018D2H   LINE      ---      ---       #170
      010018D5H   LINE      ---      ---       #171
      010018D5H   LINE      ---      ---       #172
      010018DDH   LINE      ---      ---       #177
      010018E0H   LINE      ---      ---       #179
      010018E3H   LINE      ---      ---       #181
      010018E6H   LINE      ---      ---       #185
      010018E9H   LINE      ---      ---       #187
      010018ECH   LINE      ---      ---       #190
      ---         BLOCKEND  ---      ---       LVL=0

      ---         MODULE    ---      ---       LIBPUBLIC
      01001438H   PUBLIC    CONST    ---       fcstab
      020006B7H   PUBLIC    XDATA    BYTE      ?_LibPub_HEXtoAscii?BYTE
      01003DB7H   PUBLIC    CODE     ---       _LibPub_HEXtoAscii
      02000663H   PUBLIC    XDATA    BYTE      ?_LibPub_CompareNBufs?BYTE
      01002290H   PUBLIC    CODE     ---       _LibPub_CompareNBufs
      02000786H   PUBLIC    XDATA    BYTE      ?_LibPub_HEXtoBCDBytes?BYTE
      01003CC6H   PUBLIC    CODE     ---       _LibPub_HEXtoBCDBytes
      01003B5FH   PUBLIC    CODE     ---       _LibPub_DECtoHEXBytes
      02000786H   PUBLIC    XDATA    BYTE      ?_LibPub_NBytesBCDSub?BYTE
      01003A6BH   PUBLIC    CODE     ---       _LibPub_NBytesBCDSub
      010039DCH   PUBLIC    CODE     ---       _LibPub_Buffer4ToUlong32
      01003968H   PUBLIC    CODE     ---       _LibPub_Ulong32ToBuffer4
      01003944H   PUBLIC    CODE     ---       _LibPub_Ushort16ToBuffer2
      01003915H   PUBLIC    CODE     ---       _LibPub_Buffer2ToUshort16
      0200098BH   PUBLIC    XDATA    BYTE      ?_LibPub_CompareData?BYTE
      010037F1H   PUBLIC    CODE     ---       _LibPub_CompareData
      01002C9FH   PUBLIC    CODE     ---       _LibPub_DelayNms
      01000066H   PUBLIC    CODE     ---       LibPub_Delay10us
      01002BB0H   PUBLIC    CODE     ---       LibPub_Delay5us
      01002B60H   PUBLIC    CODE     ---       LibPub_Delay2us
      010036B1H   PUBLIC    CODE     ---       _LibPub_CheckPassword
      01003601H   PUBLIC    CODE     ---       _LibPub_Inverse
      0100359FH   PUBLIC    CODE     ---       _LibPub_IsBCD
      0200098BH   PUBLIC    XDATA    BYTE      ?_LibPub_MemExchangeBytes?BYTE
      0100353BH   PUBLIC    CODE     ---       _LibPub_MemExchangeBytes
      010034CAH   PUBLIC    CODE     ---       _LibPub_CalSum
      02000990H   PUBLIC    XDATA    BYTE      ?_LibPub_MemSetBytes?BYTE
      01002F29H   PUBLIC    CODE     ---       _LibPub_MemSetBytes
      02000615H   PUBLIC    XDATA    BYTE      ?_LibPub_GetDiffTime?BYTE
      010033FAH   PUBLIC    CODE     ---       _LibPub_GetDiffTime
      01003297H   PUBLIC    CODE     ---       LibPub_GetTimerBeatInt1
LX51 LINKER/LOCATER V4.66.41.0                                                        11/18/2021  18:54:16  PAGE 190


      0100313FH   PUBLIC    CODE     ---       LibPub_GetTimerBeatInt0
      01001906H   PUBLIC    CODE     ---       LibPub_GetTimerBeat
      02000990H   PUBLIC    XDATA    BYTE      ?_LibPub_NBtyesBcdAdd?BYTE
      010030A5H   PUBLIC    CODE     ---       _LibPub_NBtyesBcdAdd
      01003069H   PUBLIC    CODE     ---       _LibPub_1BtyeBcdAdd
      01003096H   PUBLIC    CODE     ---       _LibPub_1BCD_2_1HEX
      0100304DH   PUBLIC    CODE     ---       _LibPub_1Hex_2_1BCD
      01003009H   PUBLIC    CODE     ---       _LibPub_0xFFCheckInt
      01002FD9H   PUBLIC    CODE     ---       _LibPub_ZeroCheck
      0200098BH   PUBLIC    XDATA    BYTE      ?_LibPub_CrcCheck?BYTE
      01002D99H   PUBLIC    CODE     ---       _LibPub_CrcCheck
      020009D6H   PUBLIC    XDATA    BYTE      ?_LibPub_MemCopyBytes?BYTE
      0100224DH   PUBLIC    CODE     ---       _LibPub_MemCopyBytes
      01001C16H   PUBLIC    CODE     ---       _LibPub_CRC16_CCITT
      01002008H   PUBLIC    CODE     ---       _LibPub_ReadDataFromE2prom
      010019F3H   PUBLIC    CODE     ---       _LibPub_WriteDataToE2prom
      000000F3H   SFRSYM    DATA     BYTE      IB_CON2
      000000D8H.3 SFRSYM    DATA     BIT       TB81
      00000080H   SFRSYM    DATA     BYTE      P0
      000000F4H   SFRSYM    DATA     BYTE      IB_CON3
      000000A4H   SFRSYM    DATA     BYTE      TKCON
      00000090H   SFRSYM    DATA     BYTE      P1
      000000F5H   SFRSYM    DATA     BYTE      IB_CON4
      000000E7H   SFRSYM    DATA     BYTE      PASLO
      000000A0H   SFRSYM    DATA     BYTE      P2
      000000FEH   SFRSYM    DATA     BYTE      OSCLO
      000000F6H   SFRSYM    DATA     BYTE      IB_CON5
      00000098H.6 SFRSYM    DATA     BIT       SM1_RXOV
      000000B0H   SFRSYM    DATA     BYTE      P3
      000000D0H.6 SFRSYM    DATA     BIT       AC
      000000C0H   SFRSYM    DATA     BYTE      P4
      000000A1H   SFRSYM    DATA     BYTE      SPCON
      0000009CH   SFRSYM    DATA     BYTE      SBRTH
      000000E9H   SFRSYM    DATA     BYTE      P5
      000000A8H.7 SFRSYM    DATA     BIT       EA
      000000EAH   SFRSYM    DATA     BYTE      P6
      000000EBH   SFRSYM    DATA     BYTE      P7
      000000EFH   SFRSYM    DATA     BYTE      IB_DATA
      000000ECH   SFRSYM    DATA     BYTE      P8
      0000009DH   SFRSYM    DATA     BYTE      SBRTL
      000000EDH   SFRSYM    DATA     BYTE      P9
      000000B7H   SFRSYM    DATA     BYTE      PBANKLO
      000000A2H   SFRSYM    DATA     BYTE      SPSTA
      000000A8H   SFRSYM    DATA     BYTE      IEN0
      000000B3H   SFRSYM    DATA     BYTE      PWRCON1
      00000095H   SFRSYM    DATA     BYTE      EMUSR
      000000A9H   SFRSYM    DATA     BYTE      IEN1
      000000B4H   SFRSYM    DATA     BYTE      PWRCON2
      00000085H   SFRSYM    DATA     BYTE      DPH1
      00000080H   SFRSYM    DATA     BIT       P0_0
      00000090H   SFRSYM    DATA     BIT       P1_0
      00000080H.1 SFRSYM    DATA     BIT       P0_1
      000000C3H   SFRSYM    DATA     BYTE      ADCH
      000000A0H   SFRSYM    DATA     BIT       P2_0
      00000090H.1 SFRSYM    DATA     BIT       P1_1
      00000080H.2 SFRSYM    DATA     BIT       P0_2
      000000BAH   SFRSYM    DATA     BYTE      IPH0
      00000084H   SFRSYM    DATA     BYTE      DPL1
      000000B0H   SFRSYM    DATA     BIT       P3_0
      000000A0H.1 SFRSYM    DATA     BIT       P2_1
      00000090H.2 SFRSYM    DATA     BIT       P1_2
      00000080H.3 SFRSYM    DATA     BIT       P0_3
      000000BBH   SFRSYM    DATA     BYTE      IPH1
      000000C0H   SFRSYM    DATA     BIT       P4_0
      000000B0H.1 SFRSYM    DATA     BIT       P3_1
LX51 LINKER/LOCATER V4.66.41.0                                                        11/18/2021  18:54:16  PAGE 191


      000000A0H.2 SFRSYM    DATA     BIT       P2_2
      00000090H.3 SFRSYM    DATA     BIT       P1_3
      00000080H.4 SFRSYM    DATA     BIT       P0_4
      000000E8H   SFRSYM    DATA     BYTE      EXF0
      000000C0H.1 SFRSYM    DATA     BIT       P4_1
      000000B0H.2 SFRSYM    DATA     BIT       P3_2
      000000A0H.3 SFRSYM    DATA     BIT       P2_3
      00000090H.4 SFRSYM    DATA     BIT       P1_4
      00000080H.5 SFRSYM    DATA     BIT       P0_5
      000000C0H.2 SFRSYM    DATA     BIT       P4_2
      000000B0H.3 SFRSYM    DATA     BIT       P3_3
      000000A0H.4 SFRSYM    DATA     BIT       P2_4
      00000090H.5 SFRSYM    DATA     BIT       P1_5
      00000080H.6 SFRSYM    DATA     BIT       P0_6
      000000C8H.6 SFRSYM    DATA     BIT       EXF2
      000000A6H   SFRSYM    DATA     BYTE      TKF0
      000000B8H   SFRSYM    DATA     BYTE      IPL0
      000000C0H.3 SFRSYM    DATA     BIT       P4_3
      000000B0H.4 SFRSYM    DATA     BIT       P3_4
      000000A0H.5 SFRSYM    DATA     BIT       P2_5
      00000090H.6 SFRSYM    DATA     BIT       P1_6
      00000080H.7 SFRSYM    DATA     BIT       P0_7
      000000D8H.4 SFRSYM    DATA     BIT       REN1
      000000B9H   SFRSYM    DATA     BYTE      IPL1
      000000C0H.4 SFRSYM    DATA     BIT       P4_4
      000000B0H.5 SFRSYM    DATA     BIT       P3_5
      000000A0H.6 SFRSYM    DATA     BIT       P2_6
      00000090H.7 SFRSYM    DATA     BIT       P1_7
      000000E2H   SFRSYM    DATA     BYTE      TK0H
      0000008EH   SFRSYM    DATA     BYTE      SUSLO
      000000C0H.5 SFRSYM    DATA     BIT       P4_5
      000000B0H.6 SFRSYM    DATA     BIT       P3_6
      000000A0H.7 SFRSYM    DATA     BIT       P2_7
      000000E4H   SFRSYM    DATA     BYTE      TK1H
      000000C0H.6 SFRSYM    DATA     BIT       P4_6
      000000B0H.7 SFRSYM    DATA     BIT       P3_7
      000000E6H   SFRSYM    DATA     BYTE      TK2H
      000000C0H.7 SFRSYM    DATA     BIT       P4_7
      00000098H   SFRSYM    DATA     BIT       RI
      000000A8H.2 SFRSYM    DATA     BIT       E7816
      000000D0H.7 SFRSYM    DATA     BIT       CY
      000000E1H   SFRSYM    DATA     BYTE      TK0L
      00000098H.1 SFRSYM    DATA     BIT       TI
      00000091H   SFRSYM    DATA     BYTE      EADR
      000000E3H   SFRSYM    DATA     BYTE      TK1L
      000000E5H   SFRSYM    DATA     BYTE      TK2L
      000000DBH   SFRSYM    DATA     BYTE      SADEN1
      000000D8H.7 SFRSYM    DATA     BIT       SM10_FE1
      000000FBH   SFRSYM    DATA     BYTE      SADEN2
      000000B8H.4 SFRSYM    DATA     BIT       PS0L
      000000B8H.1 SFRSYM    DATA     BIT       PT0L
      000000DAH   SFRSYM    DATA     BYTE      SADDR1
      000000D8H.5 SFRSYM    DATA     BIT       SM12_TXCOL1
      000000B8H.3 SFRSYM    DATA     BIT       PT1L
      000000FAH   SFRSYM    DATA     BYTE      SADDR2
      000000CBH   SFRSYM    DATA     BYTE      RCAP2H
      000000B8H.5 SFRSYM    DATA     BIT       PT2L
      00000081H   SFRSYM    DATA     BYTE      SP
      000000D0H.2 SFRSYM    DATA     BIT       OV
      000000CAH   SFRSYM    DATA     BYTE      RCAP2L
      000000B8H   SFRSYM    DATA     BIT       PX4L
      000000C8H.1 SFRSYM    DATA     BIT       C_T2
      000000DEH   SFRSYM    DATA     BYTE      SFINE2
      000000ADH   SFRSYM    DATA     BYTE      IRCON1
      000000AFH   SFRSYM    DATA     BYTE      IRCON2
LX51 LINKER/LOCATER V4.66.41.0                                                        11/18/2021  18:54:16  PAGE 192


      000000ABH   SFRSYM    DATA     BYTE      EXCON1
      00000099H   SFRSYM    DATA     BYTE      SBUF
      000000ACH   SFRSYM    DATA     BYTE      EXCON2
      00000087H   SFRSYM    DATA     BYTE      PCON
      000000F1H   SFRSYM    DATA     BYTE      AUXC
      00000098H   SFRSYM    DATA     BYTE      SCON
      000000D4H   SFRSYM    DATA     BYTE      TK0BASEH
      00000089H   SFRSYM    DATA     BYTE      TMOD
      00000088H   SFRSYM    DATA     BYTE      TCON
      000000AAH   SFRSYM    DATA     BYTE      IENX
      000000EEH   SFRSYM    DATA     BYTE      IB_OFFSET
      000000D6H   SFRSYM    DATA     BYTE      TK1BASEH
      000000DCH   SFRSYM    DATA     BYTE      SBRT1H
      000000DFH   SFRSYM    DATA     BYTE      TK2BASEH
      000000FCH   SFRSYM    DATA     BYTE      SBRT2H
      000000B1H   SFRSYM    DATA     BYTE      RSTSTAT
      000000D3H   SFRSYM    DATA     BYTE      TK0BASEL
      000000D5H   SFRSYM    DATA     BYTE      TK1BASEL
      000000DDH   SFRSYM    DATA     BYTE      SBRT1L
      000000D7H   SFRSYM    DATA     BYTE      TK2BASEL
      000000FDH   SFRSYM    DATA     BYTE      SBRT2L
      00000098H.7 SFRSYM    DATA     BIT       SM0_FE
      000000B2H   SFRSYM    DATA     BYTE      CLKCON
      00000098H.5 SFRSYM    DATA     BIT       SM2_TXCOL
      000000B5H   SFRSYM    DATA     BYTE      LDOCON
      000000F0H   SFRSYM    DATA     BYTE      B
      000000C8H   SFRSYM    DATA     BIT       CP_RL2
      000000E0H   SFRSYM    DATA     BYTE      ACC
      000000A8H.4 SFRSYM    DATA     BIT       ES0
      000000A8H.1 SFRSYM    DATA     BIT       ET0
      000000A8H.3 SFRSYM    DATA     BIT       ET1
      00000088H.5 SFRSYM    DATA     BIT       TF0
      000000A8H.5 SFRSYM    DATA     BIT       ET2
      00000088H.7 SFRSYM    DATA     BIT       TF1
      000000D8H   SFRSYM    DATA     BIT       RI1
      00000098H.2 SFRSYM    DATA     BIT       RB8
      000000C8H.7 SFRSYM    DATA     BIT       TF2
      0000008CH   SFRSYM    DATA     BYTE      TH0
      00000086H   SFRSYM    DATA     BYTE      INSCON
      0000008DH   SFRSYM    DATA     BYTE      TH1
      000000D8H.1 SFRSYM    DATA     BIT       TI1
      00000098H.3 SFRSYM    DATA     BIT       TB8
      000000CDH   SFRSYM    DATA     BYTE      TH2
      000000D0H   SFRSYM    DATA     BIT       P
      0000008AH   SFRSYM    DATA     BYTE      TL0
      000000A8H   SFRSYM    DATA     BIT       EX4
      0000008BH   SFRSYM    DATA     BYTE      TL1
      000000A7H   SFRSYM    DATA     BYTE      FLASHCON
      000000CCH   SFRSYM    DATA     BYTE      TL2
      000000D0H.3 SFRSYM    DATA     BIT       RS0
      000000C5H   SFRSYM    DATA     BYTE      ADCDH
      00000088H.4 SFRSYM    DATA     BIT       TR0
      000000D0H.4 SFRSYM    DATA     BIT       RS1
      0000009FH   SFRSYM    DATA     BYTE      PWMCON
      00000088H.6 SFRSYM    DATA     BIT       TR1
      000000C8H.2 SFRSYM    DATA     BIT       TR2
      000000C4H   SFRSYM    DATA     BYTE      ADCDL
      000000C2H   SFRSYM    DATA     BYTE      ADT
      00000083H   SFRSYM    DATA     BYTE      DPH
      00000082H   SFRSYM    DATA     BYTE      DPL
      000000D9H   SFRSYM    DATA     BYTE      SBUF1
      000000C8H.3 SFRSYM    DATA     BIT       EXEN2
      000000F9H   SFRSYM    DATA     BYTE      SBUF2
      000000D8H.6 SFRSYM    DATA     BIT       SM11_RXOV1
      000000B8H.6 SFRSYM    DATA     BIT       PADCL
LX51 LINKER/LOCATER V4.66.41.0                                                        11/18/2021  18:54:16  PAGE 193


      00000098H.4 SFRSYM    DATA     BIT       REN
      000000D8H   SFRSYM    DATA     BYTE      SCON1
      000000D1H   SFRSYM    DATA     BYTE      LCDCON1
      000000C1H   SFRSYM    DATA     BYTE      ADCON
      000000F8H   SFRSYM    DATA     BYTE      SCON2
      0000008FH   SFRSYM    DATA     BYTE      TCON1
      000000D2H   SFRSYM    DATA     BYTE      LCDCON2
      00000092H   SFRSYM    DATA     BYTE      EDTAH
      000000C9H   SFRSYM    DATA     BYTE      T2MOD
      000000C8H   SFRSYM    DATA     BYTE      T2CON
      00000094H   SFRSYM    DATA     BYTE      EDTAL
      00000093H   SFRSYM    DATA     BYTE      EDTAM
      000000BCH   SFRSYM    DATA     BYTE      TK0DIFH
      0000009BH   SFRSYM    DATA     BYTE      SADEN
      000000BEH   SFRSYM    DATA     BYTE      TK1DIFH
      000000B6H   SFRSYM    DATA     BYTE      PBANK
      000000A5H   SFRSYM    DATA     BYTE      TK2DIFH
      000000A8H.6 SFRSYM    DATA     BIT       EADTP
      0000009AH   SFRSYM    DATA     BYTE      SADDR
      000000CFH   SFRSYM    DATA     BYTE      TK0DIFL
      000000BDH   SFRSYM    DATA     BYTE      TK1DIFL
      000000BFH   SFRSYM    DATA     BYTE      TK2DIFL
      000000B8H.2 SFRSYM    DATA     BIT       P7816L
      000000C6H   SFRSYM    DATA     BYTE      LPDCON1
      000000C7H   SFRSYM    DATA     BYTE      LPDCON2
      000000D0H.5 SFRSYM    DATA     BIT       F0
      000000AEH   SFRSYM    DATA     BYTE      IRDAT
      000000D0H.1 SFRSYM    DATA     BIT       F1
      00000096H   SFRSYM    DATA     BYTE      EMUIE
      0000009EH   SFRSYM    DATA     BYTE      SFINE
      000000F7H   SFRSYM    DATA     BYTE      XPAGE
      00000097H   SFRSYM    DATA     BYTE      EMUIF
      000000D0H   SFRSYM    DATA     BYTE      PSW
      000000D8H.2 SFRSYM    DATA     BIT       RB81
      000000A3H   SFRSYM    DATA     BYTE      SPDAT
      000000F2H   SFRSYM    DATA     BYTE      IB_CON1

      010019B3H   BLOCK     CODE     ---       LVL=0
      010019F3H   LINE      ---      ---       #170
      01001A09H   LINE      ---      ---       #171
      02000990H   SYMBOL    XDATA    WORD      v_usAddrIndex
      02000992H   SYMBOL    XDATA    BYTE      v_ucOffset
      02000993H   SYMBOL    XDATA    ---       ptr_ucData
      01001A09H   BLOCK     CODE     NEAR LAB  LVL=1
      01001A09H   LINE      ---      ---       #172
      01001A0FH   LINE      ---      ---       #174
      01001A16H   LINE      ---      ---       #176
      01001A21H   LINE      ---      ---       #177
      01001A21H   LINE      ---      ---       #178
      01001A32H   LINE      ---      ---       #179
      01001A32H   LINE      ---      ---       #180
      01001A58H   LINE      ---      ---       #181
      01001A58H   LINE      ---      ---       #182
      01001A73H   LINE      ---      ---       #183
      01001A73H   LINE      ---      ---       #184
      01001A9AH   LINE      ---      ---       #185
      01001AD3H   LINE      ---      ---       #186
      01001B02H   LINE      ---      ---       #187
      01001B02H   LINE      ---      ---       #189
      01001B64H   LINE      ---      ---       #190
      01001B64H   LINE      ---      ---       #191
      01001B68H   LINE      ---      ---       #192
      01001B85H   LINE      ---      ---       #193
      01001B85H   LINE      ---      ---       #194
      01001BD6H   LINE      ---      ---       #195
LX51 LINKER/LOCATER V4.66.41.0                                                        11/18/2021  18:54:16  PAGE 194


      01001BD6H   LINE      ---      ---       #198
      01001BD6H   LINE      ---      ---       #200
      01001BD6H   LINE      ---      ---       #201
      01001BDCH   LINE      ---      ---       #202
      01001BDCH   LINE      ---      ---       #203
      01001BDCH   LINE      ---      ---       #204
      01001BDCH   LINE      ---      ---       #205
      01001BDEH   LINE      ---      ---       #206
      01001BDEH   LINE      ---      ---       #207
      01001BE6H   LINE      ---      ---       #208
      01001BE6H   LINE      ---      ---       #210
      01001BEBH   LINE      ---      ---       #211
      02000996H   SYMBOL    XDATA    BYTE      V_ucResult
      02000997H   SYMBOL    XDATA    BYTE      V_ucIndex
      02000998H   SYMBOL    XDATA    WORD      V_usCRC16
      ---         BLOCKEND  CODE     ---       LVL=1
      ---         BLOCKEND  CODE     ---       LVL=0

      01001FE7H   BLOCK     CODE     ---       LVL=0
      01002008H   LINE      ---      ---       #223
      0100201EH   LINE      ---      ---       #224
      0200098BH   SYMBOL    XDATA    WORD      v_usAddrIndex
      0200098DH   SYMBOL    XDATA    BYTE      v_ucOffset
      0200098EH   SYMBOL    XDATA    ---       ptr_ucData
      0100201EH   BLOCK     CODE     NEAR LAB  LVL=1
      0100201EH   LINE      ---      ---       #225
      01002024H   LINE      ---      ---       #226
      01002029H   LINE      ---      ---       #228
      0100202FH   LINE      ---      ---       #230
      0100203AH   LINE      ---      ---       #231
      0100203AH   LINE      ---      ---       #232
      0100204BH   LINE      ---      ---       #233
      0100204BH   LINE      ---      ---       #234
      01002071H   LINE      ---      ---       #235
      01002071H   LINE      ---      ---       #236
      01002075H   LINE      ---      ---       #237
      01002075H   LINE      ---      ---       #238
      010020D4H   LINE      ---      ---       #239
      010020D4H   LINE      ---      ---       #240
      010020F1H   LINE      ---      ---       #241
      010020F1H   LINE      ---      ---       #242
      0100213FH   LINE      ---      ---       #243
      0100213FH   LINE      ---      ---       #245
      0100213FH   LINE      ---      ---       #246
      0100213FH   LINE      ---      ---       #247
      0100213FH   LINE      ---      ---       #248
      0100213FH   LINE      ---      ---       #250
      0100213FH   LINE      ---      ---       #251
      0100213FH   LINE      ---      ---       #252
      0100213FH   LINE      ---      ---       #253
      0100213FH   LINE      ---      ---       #254
      0100213FH   LINE      ---      ---       #256
      0100213FH   LINE      ---      ---       #257
      0100213FH   LINE      ---      ---       #258
      0100213FH   LINE      ---      ---       #259
      0100214DH   LINE      ---      ---       #260
      01002156H   LINE      ---      ---       #261
      01002156H   LINE      ---      ---       #262
      01002159H   LINE      ---      ---       #263
      01002159H   LINE      ---      ---       #266
      01002176H   LINE      ---      ---       #267
      01002176H   LINE      ---      ---       #268
      01002195H   LINE      ---      ---       #269
      010021AAH   LINE      ---      ---       #271
      010021E0H   LINE      ---      ---       #272
LX51 LINKER/LOCATER V4.66.41.0                                                        11/18/2021  18:54:16  PAGE 195


      010021E0H   LINE      ---      ---       #273
      010021E3H   LINE      ---      ---       #274
      010021E3H   LINE      ---      ---       #275
      010021E3H   LINE      ---      ---       #277
      0100221EH   LINE      ---      ---       #279
      01002223H   LINE      ---      ---       #281
      01002225H   LINE      ---      ---       #282
      01002225H   LINE      ---      ---       #283
      0100222DH   LINE      ---      ---       #284
      0100222DH   LINE      ---      ---       #286
      01002232H   LINE      ---      ---       #287
      02000991H   SYMBOL    XDATA    BYTE      V_ucResult
      02000992H   SYMBOL    XDATA    BYTE      V_ucIndex
      02000993H   SYMBOL    XDATA    BYTE      V_ucCnt
      02000994H   SYMBOL    XDATA    ---       V_ucaE2pBuff
      020009D4H   SYMBOL    XDATA    WORD      V_usCRC16
      ---         BLOCKEND  CODE     ---       LVL=1
      ---         BLOCKEND  CODE     ---       LVL=0

      01001BECH   BLOCK     CODE     ---       LVL=0
      01001C16H   LINE      ---      ---       #302
      01001C27H   LINE      ---      ---       #303
      020009D6H   SYMBOL    XDATA    ---       cp
      020009D9H   SYMBOL    XDATA    WORD      len
      01001C27H   BLOCK     CODE     NEAR LAB  LVL=1
      01001C27H   LINE      ---      ---       #304
      01001C2CH   LINE      ---      ---       #306
      01001C3AH   LINE      ---      ---       #307
      01001C3AH   LINE      ---      ---       #308
      01001C7AH   LINE      ---      ---       #309
      01001C7CH   LINE      ---      ---       #311
      01001C84H   LINE      ---      ---       #312
      020009DBH   SYMBOL    XDATA    WORD      usVfcs
      ---         BLOCKEND  CODE     ---       LVL=1
      ---         BLOCKEND  CODE     ---       LVL=0

      01002233H   BLOCK     CODE     ---       LVL=0
      0100224DH   LINE      ---      ---       #324
      01002258H   LINE      ---      ---       #325
      020009D6H   SYMBOL    XDATA    ---       pSourceData
      020009D9H   SYMBOL    XDATA    ---       pTargetData
      020009DCH   SYMBOL    XDATA    BYTE      len
      01002258H   BLOCK     CODE     NEAR LAB  LVL=1
      01002258H   LINE      ---      ---       #328
      01002264H   LINE      ---      ---       #329
      01002264H   LINE      ---      ---       #330
      0100228CH   LINE      ---      ---       #331
      0100228FH   LINE      ---      ---       #332
      00000007H   SYMBOL    DATA     BYTE      i
      ---         BLOCKEND  CODE     ---       LVL=1
      ---         BLOCKEND  CODE     ---       LVL=0

      01002D6CH   BLOCK     CODE     ---       LVL=0
      01002D99H   LINE      ---      ---       #344
      01002DA7H   LINE      ---      ---       #345
      0200098BH   SYMBOL    XDATA    ---       cp
      0200098EH   SYMBOL    XDATA    BYTE      len
      0200098FH   SYMBOL    XDATA    WORD      cmpcrc
      01002DA7H   BLOCK     CODE     NEAR LAB  LVL=1
      01002DA7H   LINE      ---      ---       #348
      01002DAFH   LINE      ---      ---       #350
      01002DC2H   LINE      ---      ---       #352
      01002DD2H   LINE      ---      ---       #354
      01002DD2H   LINE      ---      ---       #355
      00000006H   SYMBOL    DATA     WORD      V_usResult
LX51 LINKER/LOCATER V4.66.41.0                                                        11/18/2021  18:54:16  PAGE 196


      ---         BLOCKEND  CODE     ---       LVL=1
      ---         BLOCKEND  CODE     ---       LVL=0

      01002FD9H   BLOCK     CODE     ---       LVL=0
      01002FD9H   LINE      ---      ---       #367
      01002FE4H   LINE      ---      ---       #368
      02000991H   SYMBOL    XDATA    ---       cp
      00000005H   SYMBOL    DATA     BYTE      len
      01002FE4H   BLOCK     CODE     NEAR LAB  LVL=1
      01002FE4H   LINE      ---      ---       #371
      01002FEBH   LINE      ---      ---       #372
      01002FEBH   LINE      ---      ---       #373
      01003003H   LINE      ---      ---       #374
      01003006H   LINE      ---      ---       #375
      01003008H   LINE      ---      ---       #376
      00000007H   SYMBOL    DATA     BYTE      i
      ---         BLOCKEND  CODE     ---       LVL=1
      ---         BLOCKEND  CODE     ---       LVL=0

      01003009H   BLOCK     CODE     ---       LVL=0
      01003009H   LINE      ---      ---       #388
      01003014H   LINE      ---      ---       #389
      02000606H   SYMBOL    XDATA    ---       cp
      00000005H   SYMBOL    DATA     BYTE      len
      01003014H   BLOCK     CODE     NEAR LAB  LVL=1
      01003014H   LINE      ---      ---       #392
      0100301BH   LINE      ---      ---       #393
      0100301BH   LINE      ---      ---       #394
      01003034H   LINE      ---      ---       #395
      01003037H   LINE      ---      ---       #396
      01003039H   LINE      ---      ---       #397
      00000007H   SYMBOL    DATA     BYTE      i
      ---         BLOCKEND  CODE     ---       LVL=1
      ---         BLOCKEND  CODE     ---       LVL=0

      0100303AH   BLOCK     CODE     ---       LVL=0
      0100304DH   LINE      ---      ---       #408
      0100304DH   LINE      ---      ---       #409
      0100304DH   LINE      ---      ---       #410
      01003056H   LINE      ---      ---       #412
      01003068H   LINE      ---      ---       #413
      00000007H   SYMBOL    DATA     BYTE      hexdata
      ---         BLOCKEND  ---      ---       LVL=0

      01003092H   BLOCK     CODE     ---       LVL=0
      01003096H   LINE      ---      ---       #423
      01003096H   LINE      ---      ---       #424
      01003096H   LINE      ---      ---       #425
      010030A4H   LINE      ---      ---       #426
      00000007H   SYMBOL    DATA     BYTE      v_ucBcdData
      ---         BLOCKEND  ---      ---       LVL=0

      01003069H   BLOCK     CODE     ---       LVL=0
      01003069H   LINE      ---      ---       #439
      0100306BH   LINE      ---      ---       #440
      00000004H   SYMBOL    DATA     BYTE      v_ucBcdA
      00000005H   SYMBOL    DATA     BYTE      v_ucBcdB
      00000001H   SYMBOL    DATA     ---       p_ucCarry
      0100306BH   BLOCK     CODE     NEAR LAB  LVL=1
      0100306BH   LINE      ---      ---       #443
      01003078H   LINE      ---      ---       #444
      0100307DH   LINE      ---      ---       #445
      01003081H   LINE      ---      ---       #447
      01003087H   LINE      ---      ---       #448
      01003087H   LINE      ---      ---       #449
LX51 LINKER/LOCATER V4.66.41.0                                                        11/18/2021  18:54:16  PAGE 197


      0100308CH   LINE      ---      ---       #450
      01003090H   LINE      ---      ---       #451
      01003090H   LINE      ---      ---       #453
      00000007H   SYMBOL    DATA     BYTE      V_ucResult
      ---         BLOCKEND  CODE     ---       LVL=1
      ---         BLOCKEND  CODE     ---       LVL=0

      010030A5H   BLOCK     CODE     ---       LVL=0
      010030A5H   LINE      ---      ---       #467
      010030B0H   LINE      ---      ---       #468
      02000990H   SYMBOL    XDATA    ---       p_ucBcdA
      02000993H   SYMBOL    XDATA    ---       p_ucBcdB
      02000996H   SYMBOL    XDATA    BYTE      v_ucLen
      010030B0H   BLOCK     CODE     NEAR LAB  LVL=1
      010030B0H   LINE      ---      ---       #469
      010030B5H   LINE      ---      ---       #472
      010030C5H   LINE      ---      ---       #473
      010030C5H   LINE      ---      ---       #474
      01003136H   LINE      ---      ---       #475
      0100313EH   LINE      ---      ---       #477
      02000997H   SYMBOL    XDATA    BYTE      V_ucCarry
      02000998H   SYMBOL    XDATA    BYTE      V_ucCnti
      ---         BLOCKEND  CODE     ---       LVL=1
      ---         BLOCKEND  CODE     ---       LVL=0

      010018EEH   BLOCK     CODE     ---       LVL=0
      01001906H   LINE      ---      ---       #485
      01001906H   LINE      ---      ---       #486
      01001906H   BLOCK     CODE     NEAR LAB  LVL=1
      01001906H   LINE      ---      ---       #490
      01001906H   LINE      ---      ---       #491
      0100191AH   LINE      ---      ---       #492
      0100192EH   LINE      ---      ---       #494
      01001947H   LINE      ---      ---       #495
      01001947H   LINE      ---      ---       #496
      01001975H   LINE      ---      ---       #497
      01001975H   LINE      ---      ---       #498
      01001977H   LINE      ---      ---       #499
      01001977H   LINE      ---      ---       #500
      01001977H   LINE      ---      ---       #501
      01001977H   LINE      ---      ---       #502
      010019A4H   LINE      ---      ---       #504
      010019B2H   LINE      ---      ---       #505
      02000683H   SYMBOL    XDATA    DWORD     V_ulTimeOld
      02000687H   SYMBOL    XDATA    DWORD     V_ulTimeNew
      ---         BLOCKEND  CODE     ---       LVL=1
      ---         BLOCKEND  CODE     ---       LVL=0

      0100313FH   BLOCK     CODE     ---       LVL=0
      0100313FH   LINE      ---      ---       #513
      0100313FH   LINE      ---      ---       #514
      0100313FH   BLOCK     CODE     NEAR LAB  LVL=1
      0100313FH   LINE      ---      ---       #518
      0100313FH   LINE      ---      ---       #519
      01003153H   LINE      ---      ---       #520
      01003167H   LINE      ---      ---       #522
      01003180H   LINE      ---      ---       #523
      01003180H   LINE      ---      ---       #524
      010031AEH   LINE      ---      ---       #525
      010031AEH   LINE      ---      ---       #526
      010031B0H   LINE      ---      ---       #527
      010031B0H   LINE      ---      ---       #528
      010031B0H   LINE      ---      ---       #529
      010031B0H   LINE      ---      ---       #530
      010031DDH   LINE      ---      ---       #532
LX51 LINKER/LOCATER V4.66.41.0                                                        11/18/2021  18:54:16  PAGE 198


      010031EBH   LINE      ---      ---       #533
      020005FAH   SYMBOL    XDATA    DWORD     V_ulTimeOld
      020005FEH   SYMBOL    XDATA    DWORD     V_ulTimeNew
      ---         BLOCKEND  CODE     ---       LVL=1
      ---         BLOCKEND  CODE     ---       LVL=0

      01003297H   BLOCK     CODE     ---       LVL=0
      01003297H   LINE      ---      ---       #541
      01003297H   LINE      ---      ---       #542
      01003297H   BLOCK     CODE     NEAR LAB  LVL=1
      01003297H   LINE      ---      ---       #546
      01003297H   LINE      ---      ---       #547
      010032ABH   LINE      ---      ---       #548
      010032BFH   LINE      ---      ---       #550
      010032D8H   LINE      ---      ---       #551
      010032D8H   LINE      ---      ---       #552
      01003306H   LINE      ---      ---       #553
      01003306H   LINE      ---      ---       #554
      01003308H   LINE      ---      ---       #555
      01003308H   LINE      ---      ---       #556
      01003308H   LINE      ---      ---       #557
      01003308H   LINE      ---      ---       #558
      01003335H   LINE      ---      ---       #560
      01003343H   LINE      ---      ---       #561
      02000606H   SYMBOL    XDATA    DWORD     V_ulTimeOld
      0200060AH   SYMBOL    XDATA    DWORD     V_ulTimeNew
      ---         BLOCKEND  CODE     ---       LVL=1
      ---         BLOCKEND  CODE     ---       LVL=0

      010033EFH   BLOCK     CODE     ---       LVL=0
      010033FAH   LINE      ---      ---       #573
      01003400H   LINE      ---      ---       #574
      01003400H   LINE      ---      ---       #575
      01003424H   LINE      ---      ---       #576
      01003424H   LINE      ---      ---       #577
      0100345FH   LINE      ---      ---       #578
      01003461H   LINE      ---      ---       #580
      01003461H   LINE      ---      ---       #581
      0100348AH   LINE      ---      ---       #582
      0100348AH   LINE      ---      ---       #584
      010034AEH   LINE      ---      ---       #585
      010034AEH   LINE      ---      ---       #586
      010034B0H   LINE      ---      ---       #587
      010034B0H   LINE      ---      ---       #589
      010034B0H   LINE      ---      ---       #590
      02000615H   SYMBOL    XDATA    DWORD     timer
      02000619H   SYMBOL    XDATA    DWORD     basetimer
      0200061DH   SYMBOL    XDATA    DWORD     duration
      ---         BLOCKEND  ---      ---       LVL=0

      01002F06H   BLOCK     CODE     ---       LVL=0
      01002F29H   LINE      ---      ---       #602
      01002F37H   LINE      ---      ---       #603
      02000990H   SYMBOL    XDATA    ---       p_ucdatahead
      02000993H   SYMBOL    XDATA    BYTE      v_ucVal
      02000994H   SYMBOL    XDATA    WORD      v_usLen
      01002F37H   BLOCK     CODE     NEAR LAB  LVL=1
      01002F37H   LINE      ---      ---       #606
      01002F47H   LINE      ---      ---       #607
      01002F47H   LINE      ---      ---       #608
      01002F5FH   LINE      ---      ---       #609
      01002F66H   LINE      ---      ---       #610
      00000006H   SYMBOL    DATA     WORD      V_ucCnt_i
      ---         BLOCKEND  CODE     ---       LVL=1
      ---         BLOCKEND  CODE     ---       LVL=0
LX51 LINKER/LOCATER V4.66.41.0                                                        11/18/2021  18:54:16  PAGE 199



      010034B1H   BLOCK     CODE     ---       LVL=0
      010034CAH   LINE      ---      ---       #622
      010034D5H   LINE      ---      ---       #623
      0200077DH   SYMBOL    XDATA    ---       pData
      00000005H   SYMBOL    DATA     BYTE      v_ucLen
      010034D5H   BLOCK     CODE     NEAR LAB  LVL=1
      010034D5H   LINE      ---      ---       #624
      010034D7H   LINE      ---      ---       #626
      010034DDH   LINE      ---      ---       #627
      010034DDH   LINE      ---      ---       #628
      010034F2H   LINE      ---      ---       #629
      010034F5H   LINE      ---      ---       #631
      010034F5H   LINE      ---      ---       #632
      00000006H   SYMBOL    DATA     BYTE      i
      00000007H   SYMBOL    DATA     BYTE      V_ucSum
      ---         BLOCKEND  CODE     ---       LVL=1
      ---         BLOCKEND  CODE     ---       LVL=0

      010034F6H   BLOCK     CODE     ---       LVL=0
      0100353BH   LINE      ---      ---       #643
      01003546H   LINE      ---      ---       #644
      0200098BH   SYMBOL    XDATA    ---       pSourceData
      0200098EH   SYMBOL    XDATA    ---       pTargetData
      02000991H   SYMBOL    XDATA    BYTE      len
      01003546H   BLOCK     CODE     NEAR LAB  LVL=1
      01003546H   LINE      ---      ---       #647
      01003557H   LINE      ---      ---       #648
      01003557H   LINE      ---      ---       #649
      01003596H   LINE      ---      ---       #650
      0100359EH   LINE      ---      ---       #651
      02000992H   SYMBOL    XDATA    BYTE      V_ucCnt
      ---         BLOCKEND  CODE     ---       LVL=1
      ---         BLOCKEND  CODE     ---       LVL=0

      0100359FH   BLOCK     CODE     ---       LVL=0
      0100359FH   LINE      ---      ---       #661
      010035AAH   LINE      ---      ---       #662
      02000726H   SYMBOL    XDATA    ---       p_ucData
      00000005H   SYMBOL    DATA     BYTE      v_ucLen
      010035AAH   BLOCK     CODE     NEAR LAB  LVL=1
      010035AAH   LINE      ---      ---       #665
      010035B1H   LINE      ---      ---       #666
      010035B1H   LINE      ---      ---       #667
      010035D3H   LINE      ---      ---       #668
      010035D3H   LINE      ---      ---       #669
      010035D6H   LINE      ---      ---       #670
      010035D6H   LINE      ---      ---       #671
      010035D9H   LINE      ---      ---       #673
      010035DBH   LINE      ---      ---       #674
      00000007H   SYMBOL    DATA     BYTE      V_ucCnt
      ---         BLOCKEND  CODE     ---       LVL=1
      ---         BLOCKEND  CODE     ---       LVL=0

      010035DCH   BLOCK     CODE     ---       LVL=0
      01003601H   LINE      ---      ---       #683
      0100360FH   LINE      ---      ---       #684
      02000726H   SYMBOL    XDATA    ---       p_ucData
      02000729H   SYMBOL    XDATA    BYTE      DataLen
      0100360FH   BLOCK     CODE     NEAR LAB  LVL=1
      0100360FH   LINE      ---      ---       #687
      01003620H   LINE      ---      ---       #688
      01003620H   LINE      ---      ---       #689
      0100363CH   LINE      ---      ---       #690
      01003662H   LINE      ---      ---       #691
LX51 LINKER/LOCATER V4.66.41.0                                                        11/18/2021  18:54:16  PAGE 200


      01003690H   LINE      ---      ---       #692
      01003698H   LINE      ---      ---       #693
      0200072AH   SYMBOL    XDATA    BYTE      V_ucCnt
      0200072BH   SYMBOL    XDATA    BYTE      V_ucTemp08
      ---         BLOCKEND  CODE     ---       LVL=1
      ---         BLOCKEND  CODE     ---       LVL=0

      01003699H   BLOCK     CODE     ---       LVL=0
      010036B1H   LINE      ---      ---       #703
      010036BCH   LINE      ---      ---       #704
      02000675H   SYMBOL    XDATA    ---       p_ucPsw
      010036BCH   BLOCK     CODE     NEAR LAB  LVL=1
      010036BCH   LINE      ---      ---       #706
      010036CFH   LINE      ---      ---       #707
      010036CFH   LINE      ---      ---       #708
      010036DCH   LINE      ---      ---       #709
      010036DFH   LINE      ---      ---       #710
      010036DFH   LINE      ---      ---       #712
      010036F0H   LINE      ---      ---       #713
      010036F0H   LINE      ---      ---       #714
      010036F3H   LINE      ---      ---       #715
      010036F3H   LINE      ---      ---       #717
      01003704H   LINE      ---      ---       #718
      01003704H   LINE      ---      ---       #719
      01003708H   LINE      ---      ---       #720
      0100370AH   LINE      ---      ---       #721
      0100370EH   LINE      ---      ---       #722
      0100370EH   LINE      ---      ---       #723
      01003714H   LINE      ---      ---       #724
      01003716H   LINE      ---      ---       #725
      0100371AH   LINE      ---      ---       #726
      0100371AH   LINE      ---      ---       #727
      01003720H   LINE      ---      ---       #728
      01003722H   LINE      ---      ---       #730
      01003722H   LINE      ---      ---       #731
      01003725H   LINE      ---      ---       #732
      01003725H   LINE      ---      ---       #734
      01003727H   LINE      ---      ---       #735
      01003727H   LINE      ---      ---       #736
      01003753H   LINE      ---      ---       #737
      01003753H   LINE      ---      ---       #738
      01003763H   LINE      ---      ---       #739
      01003773H   LINE      ---      ---       #740
      01003773H   LINE      ---      ---       #741
      01003788H   LINE      ---      ---       #742
      01003788H   LINE      ---      ---       #743
      0100378BH   LINE      ---      ---       #744
      0100378BH   LINE      ---      ---       #745
      01003790H   LINE      ---      ---       #747
      010037A9H   LINE      ---      ---       #748
      010037AAH   LINE      ---      ---       #749
      02000678H   SYMBOL    XDATA    BYTE      V_ucTemp
      00000007H   SYMBOL    DATA     BYTE      V_ucCnt_i
      02000679H   SYMBOL    XDATA    ---       V_ucTempBuff
      ---         BLOCKEND  CODE     ---       LVL=1
      ---         BLOCKEND  CODE     ---       LVL=0

      01002B54H   BLOCK     CODE     ---       LVL=0
      01002B60H   LINE      ---      ---       #757
      01002B60H   LINE      ---      ---       #758
      01002B60H   LINE      ---      ---       #760
      ---         BLOCKEND  ---      ---       LVL=0

      01002BB0H   BLOCK     CODE     ---       LVL=0
      01002BB0H   LINE      ---      ---       #770
LX51 LINKER/LOCATER V4.66.41.0                                                        11/18/2021  18:54:16  PAGE 201


      01002BB0H   LINE      ---      ---       #771
      01002BB0H   BLOCK     CODE     NEAR LAB  LVL=1
      01002BB0H   LINE      ---      ---       #772
      01002BB2H   LINE      ---      ---       #774
      01002BB8H   LINE      ---      ---       #775
      01002BB8H   LINE      ---      ---       #777
      01002BB8H   LINE      ---      ---       #778
      00000007H   SYMBOL    DATA     BYTE      V_ucVnt
      ---         BLOCKEND  CODE     ---       LVL=1
      ---         BLOCKEND  CODE     ---       LVL=0

      01000066H   BLOCK     CODE     ---       LVL=0
      01000066H   LINE      ---      ---       #787
      01000066H   LINE      ---      ---       #788
      01000066H   LINE      ---      ---       #792
      01000066H   LINE      ---      ---       #793
      01000069H   LINE      ---      ---       #794
      0100006CH   LINE      ---      ---       #795
      ---         BLOCKEND  ---      ---       LVL=0

      01002C9FH   BLOCK     CODE     ---       LVL=0
      01002C9FH   LINE      ---      ---       #809
      01002CA7H   LINE      ---      ---       #810
      02000675H   SYMBOL    XDATA    WORD      v_uiNums
      01002CA7H   BLOCK     CODE     NEAR LAB  LVL=1
      01002CA7H   LINE      ---      ---       #813
      01002CD2H   LINE      ---      ---       #814
      01002CD2H   LINE      ---      ---       #815
      01002CD5H   LINE      ---      ---       #816
      01002CF6H   LINE      ---      ---       #817
      02000677H   SYMBOL    XDATA    DWORD     V_ulCnt
      ---         BLOCKEND  CODE     ---       LVL=1
      ---         BLOCKEND  CODE     ---       LVL=0

      010037ABH   BLOCK     CODE     ---       LVL=0
      010037F1H   LINE      ---      ---       #850
      010037FCH   LINE      ---      ---       #851
      0200098BH   SYMBOL    XDATA    ---       P_ucData1
      0200098EH   SYMBOL    XDATA    ---       P_ucData2
      02000991H   SYMBOL    XDATA    BYTE      v_ucDataLength
      02000992H   SYMBOL    XDATA    BYTE      v_ucCmpMode
      010037FCH   BLOCK     CODE     NEAR LAB  LVL=1
      010037FCH   LINE      ---      ---       #854
      01003811H   LINE      ---      ---       #855
      01003811H   LINE      ---      ---       #856
      01003819H   LINE      ---      ---       #857
      01003819H   LINE      ---      ---       #858
      01003845H   LINE      ---      ---       #859
      01003845H   LINE      ---      ---       #860
      01003848H   LINE      ---      ---       #861
      01003848H   LINE      ---      ---       #862
      0100384FH   LINE      ---      ---       #863
      0100384FH   LINE      ---      ---       #864
      01003852H   LINE      ---      ---       #865
      01003852H   LINE      ---      ---       #866
      01003852H   LINE      ---      ---       #868
      01003852H   LINE      ---      ---       #869
      010038ABH   LINE      ---      ---       #870
      010038ABH   LINE      ---      ---       #871
      010038AEH   LINE      ---      ---       #872
      010038AEH   LINE      ---      ---       #873
      01003907H   LINE      ---      ---       #874
      01003907H   LINE      ---      ---       #875
      0100390AH   LINE      ---      ---       #876
      0100390AH   LINE      ---      ---       #877
LX51 LINKER/LOCATER V4.66.41.0                                                        11/18/2021  18:54:16  PAGE 202


      0100390AH   LINE      ---      ---       #878
      01003912H   LINE      ---      ---       #880
      01003914H   LINE      ---      ---       #881
      02000993H   SYMBOL    XDATA    BYTE      V_ucCnt_i
      ---         BLOCKEND  CODE     ---       LVL=1
      ---         BLOCKEND  CODE     ---       LVL=0

      01003915H   BLOCK     CODE     ---       LVL=0
      01003915H   LINE      ---      ---       #893
      01003915H   LINE      ---      ---       #894
      00000001H   SYMBOL    DATA     ---       p_ucBytesBuffer
      01003915H   BLOCK     CODE     NEAR LAB  LVL=1
      01003915H   LINE      ---      ---       #895
      01003915H   LINE      ---      ---       #905
      01003921H   LINE      ---      ---       #906
      0100392AH   LINE      ---      ---       #907
      01003943H   LINE      ---      ---       #908
      01003943H   LINE      ---      ---       #911
      01003943H   LINE      ---      ---       #912
      0200063EH   SYMBOL    XDATA    WORD      v_usShort16Buffer
      ---         BLOCKEND  CODE     ---       LVL=1
      ---         BLOCKEND  CODE     ---       LVL=0

      01003944H   BLOCK     CODE     ---       LVL=0
      01003944H   LINE      ---      ---       #926
      01003944H   LINE      ---      ---       #927
      00000001H   SYMBOL    DATA     ---       p_ucBytesBuffer
      00000004H   SYMBOL    DATA     WORD      v_usShort16Buffer
      01003944H   BLOCK     CODE     NEAR LAB  LVL=1
      01003944H   LINE      ---      ---       #930
      01003946H   LINE      ---      ---       #938
      01003946H   LINE      ---      ---       #939
      0100394DH   LINE      ---      ---       #940
      0100394EH   LINE      ---      ---       #941
      00000006H   SYMBOL    DATA     WORD      V_usTempData
      ---         BLOCKEND  CODE     ---       LVL=1
      ---         BLOCKEND  CODE     ---       LVL=0

      01003951H   BLOCK     CODE     ---       LVL=0
      01003968H   LINE      ---      ---       #959
      0100396EH   LINE      ---      ---       #960
      00000001H   SYMBOL    DATA     ---       p_ucBytesBuffer
      020006C3H   SYMBOL    XDATA    DWORD     v_ulDoubleWordBuffer
      0100396EH   BLOCK     CODE     NEAR LAB  LVL=1
      0100396EH   LINE      ---      ---       #961
      01003978H   LINE      ---      ---       #964
      0100398AH   LINE      ---      ---       #966
      0100398FH   LINE      ---      ---       #967
      0100398FH   LINE      ---      ---       #973
      0100398FH   LINE      ---      ---       #974
      010039AAH   LINE      ---      ---       #975
      010039AAH   LINE      ---      ---       #978
      010039C3H   LINE      ---      ---       #979
      010039CDH   LINE      ---      ---       #980
      020006C7H   SYMBOL    XDATA    DWORD     V_ulTempData
      020006CBH   SYMBOL    XDATA    BYTE      V_ucCnti
      ---         BLOCKEND  CODE     ---       LVL=1
      ---         BLOCKEND  CODE     ---       LVL=0

      010039CEH   BLOCK     CODE     ---       LVL=0
      010039DCH   LINE      ---      ---       #995
      010039E7H   LINE      ---      ---       #996
      0200089DH   SYMBOL    XDATA    ---       p_ucBytesBuffer
      010039E7H   BLOCK     CODE     NEAR LAB  LVL=1
      010039E7H   LINE      ---      ---       #997
LX51 LINKER/LOCATER V4.66.41.0                                                        11/18/2021  18:54:16  PAGE 203


      010039EFH   LINE      ---      ---       #1000
      010039F4H   LINE      ---      ---       #1001
      010039F4H   LINE      ---      ---       #1002
      01003A0DH   LINE      ---      ---       #1008
      01003A0DH   LINE      ---      ---       #1009
      01003A52H   LINE      ---      ---       #1010
      01003A52H   LINE      ---      ---       #1012
      01003A5CH   LINE      ---      ---       #1014
      01003A6AH   LINE      ---      ---       #1015
      020008A0H   SYMBOL    XDATA    DWORD     V_ulResult
      020008A4H   SYMBOL    XDATA    BYTE      V_ucCnti
      ---         BLOCKEND  CODE     ---       LVL=1
      ---         BLOCKEND  CODE     ---       LVL=0

      01003A6BH   BLOCK     CODE     ---       LVL=0
      01003A6BH   LINE      ---      ---       #1030
      01003A76H   LINE      ---      ---       #1031
      02000786H   SYMBOL    XDATA    ---       p_ucBufA
      02000789H   SYMBOL    XDATA    ---       p_ucBufB
      0200078CH   SYMBOL    XDATA    BYTE      v_ucLen
      01003A76H   BLOCK     CODE     NEAR LAB  LVL=1
      01003A76H   LINE      ---      ---       #1033
      01003A7BH   LINE      ---      ---       #1035
      01003A8DH   LINE      ---      ---       #1036
      01003A8DH   LINE      ---      ---       #1037
      01003AA7H   LINE      ---      ---       #1038
      01003AACH   LINE      ---      ---       #1040
      01003AB1H   LINE      ---      ---       #1041
      01003AB1H   LINE      ---      ---       #1042
      01003AB4H   LINE      ---      ---       #1043
      01003AB4H   LINE      ---      ---       #1045
      01003AB9H   LINE      ---      ---       #1046
      01003AD9H   LINE      ---      ---       #1047
      01003AD9H   LINE      ---      ---       #1048
      01003AE3H   LINE      ---      ---       #1049
      01003AE3H   LINE      ---      ---       #1050
      01003AEFH   LINE      ---      ---       #1051
      01003AEFH   LINE      ---      ---       #1052
      01003AF1H   LINE      ---      ---       #1054
      01003AF1H   LINE      ---      ---       #1055
      01003B0BH   LINE      ---      ---       #1056
      01003B0BH   LINE      ---      ---       #1057
      01003B0DH   LINE      ---      ---       #1059
      01003B0DH   LINE      ---      ---       #1060
      01003B25H   LINE      ---      ---       #1061
      01003B25H   LINE      ---      ---       #1062
      01003B32H   LINE      ---      ---       #1063
      01003B38H   LINE      ---      ---       #1064
      01003B3AH   LINE      ---      ---       #1066
      01003B51H   LINE      ---      ---       #1067
      01003B51H   LINE      ---      ---       #1068
      01003B57H   LINE      ---      ---       #1069
      01003B57H   LINE      ---      ---       #1070
      01003B5BH   LINE      ---      ---       #1071
      01003B5BH   LINE      ---      ---       #1072
      01003B5EH   LINE      ---      ---       #1075
      00000007H   SYMBOL    DATA     BYTE      V_ucCnt_i
      00000005H   SYMBOL    DATA     BYTE      V_ucCnt_j
      0200078DH   SYMBOL    XDATA    BYTE      V_ucCnt_k
      0200078EH   SYMBOL    XDATA    BYTE      V_ucBfCarry
      ---         BLOCKEND  CODE     ---       LVL=1
      ---         BLOCKEND  CODE     ---       LVL=0

      01003B5FH   BLOCK     CODE     ---       LVL=0
      01003B5FH   LINE      ---      ---       #1088
LX51 LINKER/LOCATER V4.66.41.0                                                        11/18/2021  18:54:16  PAGE 204


      01003B6CH   LINE      ---      ---       #1089
      0200076BH   SYMBOL    XDATA    ---       P_ucSourceData
      00000003H   SYMBOL    DATA     BYTE      V_ucDataLength
      01003B6CH   BLOCK     CODE     NEAR LAB  LVL=1
      01003B6CH   LINE      ---      ---       #1090
      01003B70H   LINE      ---      ---       #1091
      01003B78H   LINE      ---      ---       #1092
      01003B82H   LINE      ---      ---       #1093
      01003B87H   LINE      ---      ---       #1095
      01003B96H   LINE      ---      ---       #1096
      01003B96H   LINE      ---      ---       #1097
      01003BA3H   LINE      ---      ---       #1098
      01003BA3H   LINE      ---      ---       #1099
      01003C0DH   LINE      ---      ---       #1100
      01003C2AH   LINE      ---      ---       #1101
      01003C92H   LINE      ---      ---       #1102
      01003CAFH   LINE      ---      ---       #1103
      01003CB7H   LINE      ---      ---       #1104
      01003CB7H   LINE      ---      ---       #1105
      01003CC5H   LINE      ---      ---       #1106
      0200076EH   SYMBOL    XDATA    BYTE      V_ucFlagTemp
      0200076FH   SYMBOL    XDATA    DWORD     V_ulTemp
      02000773H   SYMBOL    XDATA    DWORD     V_ulDataTemp
      02000777H   SYMBOL    XDATA    BYTE      V_ucTurnTemp
      ---         BLOCKEND  CODE     ---       LVL=1
      ---         BLOCKEND  CODE     ---       LVL=0

      01003CC6H   BLOCK     CODE     ---       LVL=0
      01003CC6H   LINE      ---      ---       #1118
      01003CD1H   LINE      ---      ---       #1119
      00000004H   SYMBOL    DATA     DWORD     V_ulSourceData
      0200078AH   SYMBOL    XDATA    ---       P_ucResultData
      0200078DH   SYMBOL    XDATA    BYTE      V_ucLen
      01003CD1H   BLOCK     CODE     NEAR LAB  LVL=1
      01003CD1H   LINE      ---      ---       #1123
      01003CD7H   LINE      ---      ---       #1125
      01003CE8H   LINE      ---      ---       #1126
      01003CE8H   LINE      ---      ---       #1127
      01003D1EH   LINE      ---      ---       #1128
      01003D3BH   LINE      ---      ---       #1129
      01003D91H   LINE      ---      ---       #1130
      01003DAEH   LINE      ---      ---       #1131
      01003DB6H   LINE      ---      ---       #1132
      0200078EH   SYMBOL    XDATA    BYTE      V_ucTurnTemp
      0200078FH   SYMBOL    XDATA    DWORD     V_ulDataTemp
      ---         BLOCKEND  CODE     ---       LVL=1
      ---         BLOCKEND  CODE     ---       LVL=0

      01002290H   BLOCK     CODE     ---       LVL=0
      01002290H   LINE      ---      ---       #1147
      0100229BH   LINE      ---      ---       #1148
      02000663H   SYMBOL    XDATA    ---       P_ucSourceData
      02000666H   SYMBOL    XDATA    ---       P_ucResultData
      02000669H   SYMBOL    XDATA    BYTE      V_ucLen
      0200066AH   SYMBOL    XDATA    BYTE      V_Num
      0200066BH   SYMBOL    XDATA    BYTE      V_Mode
      0200066CH   SYMBOL    XDATA    BYTE      v_ucCmpMode
      0100229BH   BLOCK     CODE     NEAR LAB  LVL=1
      0100229BH   LINE      ---      ---       #1153
      010022A5H   LINE      ---      ---       #1154
      010022A5H   LINE      ---      ---       #1155
      010022A8H   LINE      ---      ---       #1156
      010022A8H   LINE      ---      ---       #1159
      010022EEH   LINE      ---      ---       #1162
      01002300H   LINE      ---      ---       #1163
LX51 LINKER/LOCATER V4.66.41.0                                                        11/18/2021  18:54:16  PAGE 205


      01002300H   LINE      ---      ---       #1164
      01002308H   LINE      ---      ---       #1165
      01002308H   LINE      ---      ---       #1166
      0100230FH   LINE      ---      ---       #1167
      0100230FH   LINE      ---      ---       #1168
      0100230FH   LINE      ---      ---       #1169
      0100230FH   LINE      ---      ---       #1170
      01002311H   LINE      ---      ---       #1172
      01002311H   LINE      ---      ---       #1173
      0100231DH   LINE      ---      ---       #1174
      0100231DH   LINE      ---      ---       #1175
      01002366H   LINE      ---      ---       #1176
      01002366H   LINE      ---      ---       #1177
      01002366H   LINE      ---      ---       #1178
      0100236EH   LINE      ---      ---       #1179
      01002370H   LINE      ---      ---       #1180
      0200066DH   SYMBOL    XDATA    BYTE      i
      ---         BLOCKEND  CODE     ---       LVL=1
      ---         BLOCKEND  CODE     ---       LVL=0

      01003DB7H   BLOCK     CODE     ---       LVL=0
      01003DB7H   LINE      ---      ---       #1183
      01003DC2H   LINE      ---      ---       #1184
      020006B7H   SYMBOL    XDATA    ---       p_ucSourceData
      020006BAH   SYMBOL    XDATA    ---       p_ucResultData
      020006BDH   SYMBOL    XDATA    BYTE      v_ucLen
      01003DC2H   BLOCK     CODE     NEAR LAB  LVL=1
      01003DC2H   LINE      ---      ---       #1188
      01003DD5H   LINE      ---      ---       #1189
      01003DD5H   LINE      ---      ---       #1190
      01003DF0H   LINE      ---      ---       #1191
      01003DF5H   LINE      ---      ---       #1193
      01003DF7H   LINE      ---      ---       #1194
      01003DF7H   LINE      ---      ---       #1195
      01003E08H   LINE      ---      ---       #1196
      01003E08H   LINE      ---      ---       #1197
      01003E16H   LINE      ---      ---       #1198
      01003E18H   LINE      ---      ---       #1199
      01003E1EH   LINE      ---      ---       #1200
      01003E1EH   LINE      ---      ---       #1201
      01003E2CH   LINE      ---      ---       #1202
      01003E2CH   LINE      ---      ---       #1203
      01003E31H   LINE      ---      ---       #1205
      01003E62H   LINE      ---      ---       #1206
      01003E6AH   LINE      ---      ---       #1207
      020006BEH   SYMBOL    XDATA    BYTE      V_ucCnti
      00000007H   SYMBOL    DATA     BYTE      V_ucCntj
      020006BFH   SYMBOL    XDATA    ---       V_ucAscTemp
      ---         BLOCKEND  CODE     ---       LVL=1
      ---         BLOCKEND  CODE     ---       LVL=0

      ---         MODULE    ---      ---       INTERRUPT
      01004132H   PUBLIC    CODE     ---       Inter_EUART3
      01004105H   PUBLIC    CODE     ---       Inter_LPD
      010040C7H   PUBLIC    CODE     ---       Inter_RTC
      0100409DH   PUBLIC    CODE     ---       Inter_EMU
      01004070H   PUBLIC    CODE     ---       Inter_ADC_TPS
      01004043H   PUBLIC    CODE     ---       Inter_Timer2
      01003344H   PUBLIC    CODE     ---       Inter_EUART1
      010031ECH   PUBLIC    CODE     ---       Inter_EUART0
      01003F20H   PUBLIC    CODE     ---       Inter_Timer0
      01003EF3H   PUBLIC    CODE     ---       Inter_Timer1
      01003E6BH   PUBLIC    CODE     ---       Inter_INT4
      000000F3H   SFRSYM    DATA     BYTE      IB_CON2
      000000D8H.3 SFRSYM    DATA     BIT       TB81
LX51 LINKER/LOCATER V4.66.41.0                                                        11/18/2021  18:54:16  PAGE 206


      00000080H   SFRSYM    DATA     BYTE      P0
      000000F4H   SFRSYM    DATA     BYTE      IB_CON3
      000000A4H   SFRSYM    DATA     BYTE      TKCON
      00000090H   SFRSYM    DATA     BYTE      P1
      000000F5H   SFRSYM    DATA     BYTE      IB_CON4
      000000E7H   SFRSYM    DATA     BYTE      PASLO
      000000A0H   SFRSYM    DATA     BYTE      P2
      000000FEH   SFRSYM    DATA     BYTE      OSCLO
      000000F6H   SFRSYM    DATA     BYTE      IB_CON5
      00000098H.6 SFRSYM    DATA     BIT       SM1_RXOV
      000000B0H   SFRSYM    DATA     BYTE      P3
      000000D0H.6 SFRSYM    DATA     BIT       AC
      000000C0H   SFRSYM    DATA     BYTE      P4
      000000A1H   SFRSYM    DATA     BYTE      SPCON
      0000009CH   SFRSYM    DATA     BYTE      SBRTH
      000000E9H   SFRSYM    DATA     BYTE      P5
      000000A8H.7 SFRSYM    DATA     BIT       EA
      000000EAH   SFRSYM    DATA     BYTE      P6
      000000EBH   SFRSYM    DATA     BYTE      P7
      000000EFH   SFRSYM    DATA     BYTE      IB_DATA
      000000ECH   SFRSYM    DATA     BYTE      P8
      0000009DH   SFRSYM    DATA     BYTE      SBRTL
      000000EDH   SFRSYM    DATA     BYTE      P9
      000000B7H   SFRSYM    DATA     BYTE      PBANKLO
      000000A2H   SFRSYM    DATA     BYTE      SPSTA
      000000A8H   SFRSYM    DATA     BYTE      IEN0
      000000B3H   SFRSYM    DATA     BYTE      PWRCON1
      00000095H   SFRSYM    DATA     BYTE      EMUSR
      000000A9H   SFRSYM    DATA     BYTE      IEN1
      000000B4H   SFRSYM    DATA     BYTE      PWRCON2
      00000085H   SFRSYM    DATA     BYTE      DPH1
      00000080H   SFRSYM    DATA     BIT       P0_0
      00000090H   SFRSYM    DATA     BIT       P1_0
      00000080H.1 SFRSYM    DATA     BIT       P0_1
      000000C3H   SFRSYM    DATA     BYTE      ADCH
      000000A0H   SFRSYM    DATA     BIT       P2_0
      00000090H.1 SFRSYM    DATA     BIT       P1_1
      00000080H.2 SFRSYM    DATA     BIT       P0_2
      000000BAH   SFRSYM    DATA     BYTE      IPH0
      00000084H   SFRSYM    DATA     BYTE      DPL1
      000000B0H   SFRSYM    DATA     BIT       P3_0
      000000A0H.1 SFRSYM    DATA     BIT       P2_1
      00000090H.2 SFRSYM    DATA     BIT       P1_2
      00000080H.3 SFRSYM    DATA     BIT       P0_3
      000000BBH   SFRSYM    DATA     BYTE      IPH1
      000000C0H   SFRSYM    DATA     BIT       P4_0
      000000B0H.1 SFRSYM    DATA     BIT       P3_1
      000000A0H.2 SFRSYM    DATA     BIT       P2_2
      00000090H.3 SFRSYM    DATA     BIT       P1_3
      00000080H.4 SFRSYM    DATA     BIT       P0_4
      000000E8H   SFRSYM    DATA     BYTE      EXF0
      000000C0H.1 SFRSYM    DATA     BIT       P4_1
      000000B0H.2 SFRSYM    DATA     BIT       P3_2
      000000A0H.3 SFRSYM    DATA     BIT       P2_3
      00000090H.4 SFRSYM    DATA     BIT       P1_4
      00000080H.5 SFRSYM    DATA     BIT       P0_5
      000000C0H.2 SFRSYM    DATA     BIT       P4_2
      000000B0H.3 SFRSYM    DATA     BIT       P3_3
      000000A0H.4 SFRSYM    DATA     BIT       P2_4
      00000090H.5 SFRSYM    DATA     BIT       P1_5
      00000080H.6 SFRSYM    DATA     BIT       P0_6
      000000C8H.6 SFRSYM    DATA     BIT       EXF2
      000000A6H   SFRSYM    DATA     BYTE      TKF0
      000000B8H   SFRSYM    DATA     BYTE      IPL0
      000000C0H.3 SFRSYM    DATA     BIT       P4_3
LX51 LINKER/LOCATER V4.66.41.0                                                        11/18/2021  18:54:16  PAGE 207


      000000B0H.4 SFRSYM    DATA     BIT       P3_4
      000000A0H.5 SFRSYM    DATA     BIT       P2_5
      00000090H.6 SFRSYM    DATA     BIT       P1_6
      00000080H.7 SFRSYM    DATA     BIT       P0_7
      000000D8H.4 SFRSYM    DATA     BIT       REN1
      000000B9H   SFRSYM    DATA     BYTE      IPL1
      000000C0H.4 SFRSYM    DATA     BIT       P4_4
      000000B0H.5 SFRSYM    DATA     BIT       P3_5
      000000A0H.6 SFRSYM    DATA     BIT       P2_6
      00000090H.7 SFRSYM    DATA     BIT       P1_7
      000000E2H   SFRSYM    DATA     BYTE      TK0H
      0000008EH   SFRSYM    DATA     BYTE      SUSLO
      000000C0H.5 SFRSYM    DATA     BIT       P4_5
      000000B0H.6 SFRSYM    DATA     BIT       P3_6
      000000A0H.7 SFRSYM    DATA     BIT       P2_7
      000000E4H   SFRSYM    DATA     BYTE      TK1H
      000000C0H.6 SFRSYM    DATA     BIT       P4_6
      000000B0H.7 SFRSYM    DATA     BIT       P3_7
      000000E6H   SFRSYM    DATA     BYTE      TK2H
      000000C0H.7 SFRSYM    DATA     BIT       P4_7
      00000098H   SFRSYM    DATA     BIT       RI
      000000A8H.2 SFRSYM    DATA     BIT       E7816
      000000D0H.7 SFRSYM    DATA     BIT       CY
      000000E1H   SFRSYM    DATA     BYTE      TK0L
      00000098H.1 SFRSYM    DATA     BIT       TI
      00000091H   SFRSYM    DATA     BYTE      EADR
      000000E3H   SFRSYM    DATA     BYTE      TK1L
      000000E5H   SFRSYM    DATA     BYTE      TK2L
      000000DBH   SFRSYM    DATA     BYTE      SADEN1
      000000D8H.7 SFRSYM    DATA     BIT       SM10_FE1
      000000FBH   SFRSYM    DATA     BYTE      SADEN2
      000000B8H.4 SFRSYM    DATA     BIT       PS0L
      000000B8H.1 SFRSYM    DATA     BIT       PT0L
      000000DAH   SFRSYM    DATA     BYTE      SADDR1
      000000D8H.5 SFRSYM    DATA     BIT       SM12_TXCOL1
      000000B8H.3 SFRSYM    DATA     BIT       PT1L
      000000FAH   SFRSYM    DATA     BYTE      SADDR2
      000000CBH   SFRSYM    DATA     BYTE      RCAP2H
      000000B8H.5 SFRSYM    DATA     BIT       PT2L
      00000081H   SFRSYM    DATA     BYTE      SP
      000000D0H.2 SFRSYM    DATA     BIT       OV
      000000CAH   SFRSYM    DATA     BYTE      RCAP2L
      000000B8H   SFRSYM    DATA     BIT       PX4L
      000000C8H.1 SFRSYM    DATA     BIT       C_T2
      000000DEH   SFRSYM    DATA     BYTE      SFINE2
      000000ADH   SFRSYM    DATA     BYTE      IRCON1
      000000AFH   SFRSYM    DATA     BYTE      IRCON2
      000000ABH   SFRSYM    DATA     BYTE      EXCON1
      00000099H   SFRSYM    DATA     BYTE      SBUF
      000000ACH   SFRSYM    DATA     BYTE      EXCON2
      00000087H   SFRSYM    DATA     BYTE      PCON
      000000F1H   SFRSYM    DATA     BYTE      AUXC
      00000098H   SFRSYM    DATA     BYTE      SCON
      000000D4H   SFRSYM    DATA     BYTE      TK0BASEH
      00000089H   SFRSYM    DATA     BYTE      TMOD
      00000088H   SFRSYM    DATA     BYTE      TCON
      000000AAH   SFRSYM    DATA     BYTE      IENX
      000000EEH   SFRSYM    DATA     BYTE      IB_OFFSET
      000000D6H   SFRSYM    DATA     BYTE      TK1BASEH
      000000DCH   SFRSYM    DATA     BYTE      SBRT1H
      000000DFH   SFRSYM    DATA     BYTE      TK2BASEH
      000000FCH   SFRSYM    DATA     BYTE      SBRT2H
      000000B1H   SFRSYM    DATA     BYTE      RSTSTAT
      000000D3H   SFRSYM    DATA     BYTE      TK0BASEL
      000000D5H   SFRSYM    DATA     BYTE      TK1BASEL
LX51 LINKER/LOCATER V4.66.41.0                                                        11/18/2021  18:54:16  PAGE 208


      000000DDH   SFRSYM    DATA     BYTE      SBRT1L
      000000D7H   SFRSYM    DATA     BYTE      TK2BASEL
      000000FDH   SFRSYM    DATA     BYTE      SBRT2L
      00000098H.7 SFRSYM    DATA     BIT       SM0_FE
      000000B2H   SFRSYM    DATA     BYTE      CLKCON
      00000098H.5 SFRSYM    DATA     BIT       SM2_TXCOL
      000000B5H   SFRSYM    DATA     BYTE      LDOCON
      000000F0H   SFRSYM    DATA     BYTE      B
      000000C8H   SFRSYM    DATA     BIT       CP_RL2
      000000E0H   SFRSYM    DATA     BYTE      ACC
      000000A8H.4 SFRSYM    DATA     BIT       ES0
      000000A8H.1 SFRSYM    DATA     BIT       ET0
      000000A8H.3 SFRSYM    DATA     BIT       ET1
      00000088H.5 SFRSYM    DATA     BIT       TF0
      000000A8H.5 SFRSYM    DATA     BIT       ET2
      00000088H.7 SFRSYM    DATA     BIT       TF1
      000000D8H   SFRSYM    DATA     BIT       RI1
      00000098H.2 SFRSYM    DATA     BIT       RB8
      000000C8H.7 SFRSYM    DATA     BIT       TF2
      0000008CH   SFRSYM    DATA     BYTE      TH0
      00000086H   SFRSYM    DATA     BYTE      INSCON
      0000008DH   SFRSYM    DATA     BYTE      TH1
      000000D8H.1 SFRSYM    DATA     BIT       TI1
      00000098H.3 SFRSYM    DATA     BIT       TB8
      000000CDH   SFRSYM    DATA     BYTE      TH2
      000000D0H   SFRSYM    DATA     BIT       P
      0000008AH   SFRSYM    DATA     BYTE      TL0
      000000A8H   SFRSYM    DATA     BIT       EX4
      0000008BH   SFRSYM    DATA     BYTE      TL1
      000000A7H   SFRSYM    DATA     BYTE      FLASHCON
      000000CCH   SFRSYM    DATA     BYTE      TL2
      000000D0H.3 SFRSYM    DATA     BIT       RS0
      000000C5H   SFRSYM    DATA     BYTE      ADCDH
      00000088H.4 SFRSYM    DATA     BIT       TR0
      000000D0H.4 SFRSYM    DATA     BIT       RS1
      0000009FH   SFRSYM    DATA     BYTE      PWMCON
      00000088H.6 SFRSYM    DATA     BIT       TR1
      000000C8H.2 SFRSYM    DATA     BIT       TR2
      000000C4H   SFRSYM    DATA     BYTE      ADCDL
      000000C2H   SFRSYM    DATA     BYTE      ADT
      00000083H   SFRSYM    DATA     BYTE      DPH
      00000082H   SFRSYM    DATA     BYTE      DPL
      000000D9H   SFRSYM    DATA     BYTE      SBUF1
      000000C8H.3 SFRSYM    DATA     BIT       EXEN2
      000000F9H   SFRSYM    DATA     BYTE      SBUF2
      000000D8H.6 SFRSYM    DATA     BIT       SM11_RXOV1
      000000B8H.6 SFRSYM    DATA     BIT       PADCL
      00000098H.4 SFRSYM    DATA     BIT       REN
      000000D8H   SFRSYM    DATA     BYTE      SCON1
      000000D1H   SFRSYM    DATA     BYTE      LCDCON1
      000000C1H   SFRSYM    DATA     BYTE      ADCON
      000000F8H   SFRSYM    DATA     BYTE      SCON2
      0000008FH   SFRSYM    DATA     BYTE      TCON1
      000000D2H   SFRSYM    DATA     BYTE      LCDCON2
      00000092H   SFRSYM    DATA     BYTE      EDTAH
      000000C9H   SFRSYM    DATA     BYTE      T2MOD
      000000C8H   SFRSYM    DATA     BYTE      T2CON
      00000094H   SFRSYM    DATA     BYTE      EDTAL
      00000093H   SFRSYM    DATA     BYTE      EDTAM
      000000BCH   SFRSYM    DATA     BYTE      TK0DIFH
      0000009BH   SFRSYM    DATA     BYTE      SADEN
      000000BEH   SFRSYM    DATA     BYTE      TK1DIFH
      000000B6H   SFRSYM    DATA     BYTE      PBANK
      000000A5H   SFRSYM    DATA     BYTE      TK2DIFH
      000000A8H.6 SFRSYM    DATA     BIT       EADTP
LX51 LINKER/LOCATER V4.66.41.0                                                        11/18/2021  18:54:16  PAGE 209


      0000009AH   SFRSYM    DATA     BYTE      SADDR
      000000CFH   SFRSYM    DATA     BYTE      TK0DIFL
      000000BDH   SFRSYM    DATA     BYTE      TK1DIFL
      000000BFH   SFRSYM    DATA     BYTE      TK2DIFL
      000000B8H.2 SFRSYM    DATA     BIT       P7816L
      000000C6H   SFRSYM    DATA     BYTE      LPDCON1
      000000C7H   SFRSYM    DATA     BYTE      LPDCON2
      000000D0H.5 SFRSYM    DATA     BIT       F0
      000000AEH   SFRSYM    DATA     BYTE      IRDAT
      000000D0H.1 SFRSYM    DATA     BIT       F1
      00000096H   SFRSYM    DATA     BYTE      EMUIE
      0000009EH   SFRSYM    DATA     BYTE      SFINE
      000000F7H   SFRSYM    DATA     BYTE      XPAGE
      00000097H   SFRSYM    DATA     BYTE      EMUIF
      000000D0H   SFRSYM    DATA     BYTE      PSW
      000000D8H.2 SFRSYM    DATA     BIT       RB81
      000000A3H   SFRSYM    DATA     BYTE      SPDAT
      000000F2H   SFRSYM    DATA     BYTE      IB_CON1

      01003E6BH   BLOCK     CODE     ---       LVL=0
      01003E86H   LINE      ---      ---       #81
      01003E86H   BLOCK     CODE     NEAR LAB  LVL=1
      01003E86H   LINE      ---      ---       #85
      01003E88H   LINE      ---      ---       #86
      01003E8BH   LINE      ---      ---       #88
      01003E8EH   LINE      ---      ---       #89
      01003E90H   LINE      ---      ---       #90
      01003E93H   LINE      ---      ---       #93
      01003E98H   LINE      ---      ---       #94
      01003E98H   LINE      ---      ---       #95
      01003E9BH   LINE      ---      ---       #96
      01003EA5H   LINE      ---      ---       #97
      01003EA5H   LINE      ---      ---       #98
      01003EA8H   LINE      ---      ---       #99
      01003EAAH   LINE      ---      ---       #101
      01003EAAH   LINE      ---      ---       #102
      01003EB2H   LINE      ---      ---       #103
      01003EB5H   LINE      ---      ---       #104
      01003EB8H   LINE      ---      ---       #105
      01003EB8H   LINE      ---      ---       #106
      01003EC2H   LINE      ---      ---       #107
      01003ECCH   LINE      ---      ---       #108
      01003ECCH   LINE      ---      ---       #114
      01003ECFH   LINE      ---      ---       #115
      01003ED3H   LINE      ---      ---       #116
      01003ED6H   LINE      ---      ---       #118
      01003EDAH   LINE      ---      ---       #119
      00000002H   SYMBOL    DATA     BYTE      bak_PPBANK
      00000003H   SYMBOL    DATA     BYTE      FLASHCON_bak
      ---         BLOCKEND  CODE     ---       LVL=1
      ---         BLOCKEND  CODE     ---       LVL=0

      01003EF3H   BLOCK     CODE     ---       LVL=0
      01003EFCH   LINE      ---      ---       #132
      01003EFCH   BLOCK     CODE     NEAR LAB  LVL=1
      01003EFCH   LINE      ---      ---       #137
      01003EFEH   LINE      ---      ---       #138
      01003F01H   LINE      ---      ---       #140
      01003F04H   LINE      ---      ---       #141
      01003F06H   LINE      ---      ---       #142
      01003F09H   LINE      ---      ---       #145
      01003F0CH   LINE      ---      ---       #146
      01003F0FH   LINE      ---      ---       #149
      01003F12H   LINE      ---      ---       #150
      01003F14H   LINE      ---      ---       #151
LX51 LINKER/LOCATER V4.66.41.0                                                        11/18/2021  18:54:16  PAGE 210


      01003F17H   LINE      ---      ---       #153
      01003F19H   LINE      ---      ---       #154
      00000006H   SYMBOL    DATA     BYTE      bak_PPBANK
      00000007H   SYMBOL    DATA     BYTE      FLASHCON_bak
      ---         BLOCKEND  CODE     ---       LVL=1
      ---         BLOCKEND  CODE     ---       LVL=0

      01003F20H   BLOCK     CODE     ---       LVL=0
      01003F3DH   LINE      ---      ---       #165
      01003F3DH   BLOCK     CODE     NEAR LAB  LVL=1
      01003F3DH   LINE      ---      ---       #169
      01003F43H   LINE      ---      ---       #170
      01003F46H   LINE      ---      ---       #172
      01003F49H   LINE      ---      ---       #173
      01003F4FH   LINE      ---      ---       #174
      01003F52H   LINE      ---      ---       #177
      01003F55H   LINE      ---      ---       #179
      01003F58H   LINE      ---      ---       #180
      01003F5BH   LINE      ---      ---       #183
      01003F60H   LINE      ---      ---       #184
      01003F60H   LINE      ---      ---       #185
      01003F67H   LINE      ---      ---       #186
      01003F67H   LINE      ---      ---       #188
      01003F81H   LINE      ---      ---       #189
      01003F81H   LINE      ---      ---       #190
      01003FA0H   LINE      ---      ---       #191
      01003FBAH   LINE      ---      ---       #192
      01003FBAH   LINE      ---      ---       #193
      01003FC4H   LINE      ---      ---       #194
      01003FC4H   LINE      ---      ---       #195
      01003FC4H   LINE      ---      ---       #198
      01003FD6H   LINE      ---      ---       #199
      01003FF3H   LINE      ---      ---       #200
      01003FF3H   LINE      ---      ---       #201
      0100400FH   LINE      ---      ---       #202
      01004011H   LINE      ---      ---       #204
      01004011H   LINE      ---      ---       #205
      01004018H   LINE      ---      ---       #206
      01004018H   LINE      ---      ---       #208
      0100401BH   LINE      ---      ---       #209
      01004021H   LINE      ---      ---       #210
      01004024H   LINE      ---      ---       #212
      01004028H   LINE      ---      ---       #213
      020005F4H   SYMBOL    XDATA    BYTE      bak_PPBANK
      020005F5H   SYMBOL    XDATA    BYTE      FLASHCON_bak
      ---         BLOCKEND  CODE     ---       LVL=1
      ---         BLOCKEND  CODE     ---       LVL=0

      010031ECH   BLOCK     CODE     ---       LVL=0
      01003209H   LINE      ---      ---       #224
      01003209H   BLOCK     CODE     NEAR LAB  LVL=1
      01003209H   LINE      ---      ---       #229
      0100320FH   LINE      ---      ---       #230
      01003212H   LINE      ---      ---       #232
      01003215H   LINE      ---      ---       #233
      0100321BH   LINE      ---      ---       #234
      0100321EH   LINE      ---      ---       #239
      01003221H   LINE      ---      ---       #240
      01003221H   LINE      ---      ---       #241
      01003223H   LINE      ---      ---       #243
      01003229H   LINE      ---      ---       #244
      01003234H   LINE      ---      ---       #245
      01003234H   LINE      ---      ---       #246
      0100323CH   LINE      ---      ---       #247
      0100324BH   LINE      ---      ---       #248
LX51 LINKER/LOCATER V4.66.41.0                                                        11/18/2021  18:54:16  PAGE 211


      0100324EH   LINE      ---      ---       #249
      0100324EH   LINE      ---      ---       #250
      01003250H   LINE      ---      ---       #251
      01003252H   LINE      ---      ---       #253
      01003252H   LINE      ---      ---       #254
      01003254H   LINE      ---      ---       #255
      01003254H   LINE      ---      ---       #256
      01003256H   LINE      ---      ---       #257
      01003258H   LINE      ---      ---       #259
      01003258H   LINE      ---      ---       #260
      0100325EH   LINE      ---      ---       #261
      0100325EH   LINE      ---      ---       #262
      0100325EH   LINE      ---      ---       #266
      01003261H   LINE      ---      ---       #267
      01003261H   LINE      ---      ---       #268
      01003263H   LINE      ---      ---       #269
      01003265H   LINE      ---      ---       #274
      01003265H   LINE      ---      ---       #275
      0100326CH   LINE      ---      ---       #276
      0100326CH   LINE      ---      ---       #277
      0100326CH   LINE      ---      ---       #279
      0100326FH   LINE      ---      ---       #280
      01003275H   LINE      ---      ---       #281
      01003278H   LINE      ---      ---       #283
      0100327CH   LINE      ---      ---       #284
      00000007H   SYMBOL    DATA     BYTE      V_ucTempData
      020005F6H   SYMBOL    XDATA    BYTE      bak_PPBANK
      020005F7H   SYMBOL    XDATA    BYTE      FLASHCON_bak
      ---         BLOCKEND  CODE     ---       LVL=1
      ---         BLOCKEND  CODE     ---       LVL=0

      01003344H   BLOCK     CODE     ---       LVL=0
      01003361H   LINE      ---      ---       #296
      01003361H   BLOCK     CODE     NEAR LAB  LVL=1
      01003361H   LINE      ---      ---       #302
      01003367H   LINE      ---      ---       #303
      0100336AH   LINE      ---      ---       #305
      0100336DH   LINE      ---      ---       #306
      01003373H   LINE      ---      ---       #307
      01003376H   LINE      ---      ---       #312
      01003379H   LINE      ---      ---       #313
      01003379H   LINE      ---      ---       #314
      0100337BH   LINE      ---      ---       #316
      01003381H   LINE      ---      ---       #317
      0100338CH   LINE      ---      ---       #318
      0100338CH   LINE      ---      ---       #319
      01003394H   LINE      ---      ---       #320
      010033A3H   LINE      ---      ---       #321
      010033A6H   LINE      ---      ---       #322
      010033A6H   LINE      ---      ---       #323
      010033A8H   LINE      ---      ---       #324
      010033AAH   LINE      ---      ---       #326
      010033AAH   LINE      ---      ---       #327
      010033ACH   LINE      ---      ---       #328
      010033ACH   LINE      ---      ---       #329
      010033AEH   LINE      ---      ---       #330
      010033B0H   LINE      ---      ---       #332
      010033B0H   LINE      ---      ---       #333
      010033B6H   LINE      ---      ---       #334
      010033B6H   LINE      ---      ---       #335
      010033B6H   LINE      ---      ---       #339
      010033B9H   LINE      ---      ---       #340
      010033B9H   LINE      ---      ---       #341
      010033BBH   LINE      ---      ---       #342
      010033BDH   LINE      ---      ---       #347
LX51 LINKER/LOCATER V4.66.41.0                                                        11/18/2021  18:54:16  PAGE 212


      010033BDH   LINE      ---      ---       #348
      010033C4H   LINE      ---      ---       #349
      010033C4H   LINE      ---      ---       #350
      010033C4H   LINE      ---      ---       #352
      010033C7H   LINE      ---      ---       #353
      010033CDH   LINE      ---      ---       #354
      010033D0H   LINE      ---      ---       #356
      010033D4H   LINE      ---      ---       #357
      00000007H   SYMBOL    DATA     BYTE      V_ucTempData
      02000602H   SYMBOL    XDATA    BYTE      bak_PPBANK
      02000603H   SYMBOL    XDATA    BYTE      FLASHCON_bak
      ---         BLOCKEND  CODE     ---       LVL=1
      ---         BLOCKEND  CODE     ---       LVL=0

      01004043H   BLOCK     CODE     ---       LVL=0
      0100404CH   LINE      ---      ---       #369
      0100404CH   BLOCK     CODE     NEAR LAB  LVL=1
      0100404CH   LINE      ---      ---       #373
      0100404EH   LINE      ---      ---       #374
      01004051H   LINE      ---      ---       #376
      01004054H   LINE      ---      ---       #377
      01004056H   LINE      ---      ---       #378
      01004059H   LINE      ---      ---       #381
      0100405CH   LINE      ---      ---       #382
      0100405FH   LINE      ---      ---       #384
      01004062H   LINE      ---      ---       #385
      01004064H   LINE      ---      ---       #386
      01004067H   LINE      ---      ---       #388
      01004069H   LINE      ---      ---       #389
      00000006H   SYMBOL    DATA     BYTE      bak_PPBANK
      00000007H   SYMBOL    DATA     BYTE      FLASHCON_bak
      ---         BLOCKEND  CODE     ---       LVL=1
      ---         BLOCKEND  CODE     ---       LVL=0

      01004070H   BLOCK     CODE     ---       LVL=0
      01004079H   LINE      ---      ---       #400
      01004079H   BLOCK     CODE     NEAR LAB  LVL=1
      01004079H   LINE      ---      ---       #404
      0100407BH   LINE      ---      ---       #405
      0100407EH   LINE      ---      ---       #407
      01004081H   LINE      ---      ---       #408
      01004083H   LINE      ---      ---       #409
      01004086H   LINE      ---      ---       #412
      01004089H   LINE      ---      ---       #413
      0100408CH   LINE      ---      ---       #415
      0100408FH   LINE      ---      ---       #416
      01004091H   LINE      ---      ---       #417
      01004094H   LINE      ---      ---       #419
      01004096H   LINE      ---      ---       #420
      00000006H   SYMBOL    DATA     BYTE      bak_PPBANK
      00000007H   SYMBOL    DATA     BYTE      FLASHCON_bak
      ---         BLOCKEND  CODE     ---       LVL=1
      ---         BLOCKEND  CODE     ---       LVL=0

      0100409DH   BLOCK     CODE     ---       LVL=0
      010040A6H   LINE      ---      ---       #431
      010040A6H   BLOCK     CODE     NEAR LAB  LVL=1
      010040A6H   LINE      ---      ---       #438
      010040A8H   LINE      ---      ---       #439
      010040ABH   LINE      ---      ---       #442
      010040AEH   LINE      ---      ---       #443
      010040B0H   LINE      ---      ---       #444
      010040B3H   LINE      ---      ---       #464
      010040B6H   LINE      ---      ---       #467
      010040B9H   LINE      ---      ---       #468
LX51 LINKER/LOCATER V4.66.41.0                                                        11/18/2021  18:54:16  PAGE 213


      010040BBH   LINE      ---      ---       #469
      010040BEH   LINE      ---      ---       #472
      010040C0H   LINE      ---      ---       #473
      00000006H   SYMBOL    DATA     BYTE      bak_PPBANK
      00000007H   SYMBOL    DATA     BYTE      FLASHCON_bak
      ---         BLOCKEND  CODE     ---       LVL=1
      ---         BLOCKEND  CODE     ---       LVL=0

      010040C7H   BLOCK     CODE     ---       LVL=0
      010040D6H   LINE      ---      ---       #484
      010040D6H   BLOCK     CODE     NEAR LAB  LVL=1
      010040D6H   LINE      ---      ---       #488
      010040D8H   LINE      ---      ---       #489
      010040DBH   LINE      ---      ---       #491
      010040DEH   LINE      ---      ---       #492
      010040E0H   LINE      ---      ---       #493
      010040E3H   LINE      ---      ---       #496
      010040E8H   LINE      ---      ---       #497
      010040ECH   LINE      ---      ---       #498
      010040EFH   LINE      ---      ---       #501
      010040F2H   LINE      ---      ---       #502
      010040F4H   LINE      ---      ---       #503
      010040F6H   LINE      ---      ---       #506
      010040F8H   LINE      ---      ---       #507
      00000006H   SYMBOL    DATA     BYTE      bak_PPBANK
      00000007H   SYMBOL    DATA     BYTE      FLASHCON_bak
      ---         BLOCKEND  CODE     ---       LVL=1
      ---         BLOCKEND  CODE     ---       LVL=0

      01004105H   BLOCK     CODE     ---       LVL=0
      0100410EH   LINE      ---      ---       #519
      0100410EH   BLOCK     CODE     NEAR LAB  LVL=1
      0100410EH   LINE      ---      ---       #524
      01004110H   LINE      ---      ---       #525
      01004113H   LINE      ---      ---       #527
      01004116H   LINE      ---      ---       #528
      01004118H   LINE      ---      ---       #529
      0100411BH   LINE      ---      ---       #531
      0100411EH   LINE      ---      ---       #532
      01004121H   LINE      ---      ---       #541
      01004124H   LINE      ---      ---       #542
      01004126H   LINE      ---      ---       #543
      01004129H   LINE      ---      ---       #546
      0100412BH   LINE      ---      ---       #547
      00000006H   SYMBOL    DATA     BYTE      bak_PPBANK
      00000007H   SYMBOL    DATA     BYTE      FLASHCON_bak
      ---         BLOCKEND  CODE     ---       LVL=1
      ---         BLOCKEND  CODE     ---       LVL=0

      01004132H   BLOCK     CODE     ---       LVL=0
      01004143H   LINE      ---      ---       #558
      01004143H   BLOCK     CODE     NEAR LAB  LVL=1
      01004143H   LINE      ---      ---       #563
      01004145H   LINE      ---      ---       #564
      01004148H   LINE      ---      ---       #566
      0100414BH   LINE      ---      ---       #567
      0100414DH   LINE      ---      ---       #568
      01004150H   LINE      ---      ---       #571
      01004157H   LINE      ---      ---       #572
      0100415AH   LINE      ---      ---       #574
      0100415DH   LINE      ---      ---       #575
      01004161H   LINE      ---      ---       #576
      01004164H   LINE      ---      ---       #579
      01004168H   LINE      ---      ---       #580
      00000006H   SYMBOL    DATA     BYTE      bak_PPBANK
LX51 LINKER/LOCATER V4.66.41.0                                                        11/18/2021  18:54:16  PAGE 214


      00000004H   SYMBOL    DATA     BYTE      FLASHCON_bak
      ---         BLOCKEND  CODE     ---       LVL=1
      ---         BLOCKEND  CODE     ---       LVL=0

      ---         MODULE    ---      ---       RAMDEFINE
      020005DAH   PUBLIC    XDATA    ---       GStr_EventRecordNum
      020005C0H   PUBLIC    XDATA    ---       GStr_ENERGYDEC
      020005A7H   PUBLIC    XDATA    ---       GStr_MoneyPara
      02000597H   PUBLIC    XDATA    ---       GStr_FunConfigPara
      02000589H   PUBLIC    XDATA    ---       GStr_Money
      02000581H   PUBLIC    XDATA    ---       GStr_EventValidPiont
      0200053DH   PUBLIC    XDATA    ---       GStr_UIPGroup
      0200052DH   PUBLIC    XDATA    ---       GStr_Flag
      0200051FH   PUBLIC    XDATA    ---       GStr_PRICE
      020004F6H   PUBLIC    XDATA    ---       GStr_AVAIL
      020004ECH   PUBLIC    XDATA    ---       GStr_Energy
      020004ADH   PUBLIC    XDATA    ---       GStr_Monitor
      020004A3H   PUBLIC    XDATA    ---       GStr_Counter
      02000489H   PUBLIC    XDATA    ---       GStr_BLEGroup
      02000408H   PUBLIC    XDATA    ---       GStr_DisplayPara
      020003EDH   PUBLIC    XDATA    ---       GStr_MeterIFO
      0200009FH   PUBLIC    XDATA    ---       Gstr_UartComm
      02000018H   PUBLIC    XDATA    ---       GStr_UIPDisplay
      02000010H   PUBLIC    XDATA    ---       GStr_EventNumPiont
      02000008H   PUBLIC    XDATA    ---       GStr_EnergyPulseFw
      02000000H   PUBLIC    XDATA    ---       GStr_EnergyPulseBk
      000000F3H   SFRSYM    DATA     BYTE      IB_CON2
      000000D8H.3 SFRSYM    DATA     BIT       TB81
      00000080H   SFRSYM    DATA     BYTE      P0
      000000F4H   SFRSYM    DATA     BYTE      IB_CON3
      000000A4H   SFRSYM    DATA     BYTE      TKCON
      00000090H   SFRSYM    DATA     BYTE      P1
      000000F5H   SFRSYM    DATA     BYTE      IB_CON4
      000000E7H   SFRSYM    DATA     BYTE      PASLO
      000000A0H   SFRSYM    DATA     BYTE      P2
      000000FEH   SFRSYM    DATA     BYTE      OSCLO
      000000F6H   SFRSYM    DATA     BYTE      IB_CON5
      00000098H.6 SFRSYM    DATA     BIT       SM1_RXOV
      000000B0H   SFRSYM    DATA     BYTE      P3
      000000D0H.6 SFRSYM    DATA     BIT       AC
      000000C0H   SFRSYM    DATA     BYTE      P4
      000000A1H   SFRSYM    DATA     BYTE      SPCON
      0000009CH   SFRSYM    DATA     BYTE      SBRTH
      000000E9H   SFRSYM    DATA     BYTE      P5
      000000A8H.7 SFRSYM    DATA     BIT       EA
      000000EAH   SFRSYM    DATA     BYTE      P6
      000000EBH   SFRSYM    DATA     BYTE      P7
      000000EFH   SFRSYM    DATA     BYTE      IB_DATA
      000000ECH   SFRSYM    DATA     BYTE      P8
      0000009DH   SFRSYM    DATA     BYTE      SBRTL
      000000EDH   SFRSYM    DATA     BYTE      P9
      000000B7H   SFRSYM    DATA     BYTE      PBANKLO
      000000A2H   SFRSYM    DATA     BYTE      SPSTA
      000000A8H   SFRSYM    DATA     BYTE      IEN0
      000000B3H   SFRSYM    DATA     BYTE      PWRCON1
      00000095H   SFRSYM    DATA     BYTE      EMUSR
      000000A9H   SFRSYM    DATA     BYTE      IEN1
      000000B4H   SFRSYM    DATA     BYTE      PWRCON2
      00000085H   SFRSYM    DATA     BYTE      DPH1
      00000080H   SFRSYM    DATA     BIT       P0_0
      00000090H   SFRSYM    DATA     BIT       P1_0
      00000080H.1 SFRSYM    DATA     BIT       P0_1
      000000C3H   SFRSYM    DATA     BYTE      ADCH
      000000A0H   SFRSYM    DATA     BIT       P2_0
      00000090H.1 SFRSYM    DATA     BIT       P1_1
LX51 LINKER/LOCATER V4.66.41.0                                                        11/18/2021  18:54:16  PAGE 215


      00000080H.2 SFRSYM    DATA     BIT       P0_2
      000000BAH   SFRSYM    DATA     BYTE      IPH0
      00000084H   SFRSYM    DATA     BYTE      DPL1
      000000B0H   SFRSYM    DATA     BIT       P3_0
      000000A0H.1 SFRSYM    DATA     BIT       P2_1
      00000090H.2 SFRSYM    DATA     BIT       P1_2
      00000080H.3 SFRSYM    DATA     BIT       P0_3
      000000BBH   SFRSYM    DATA     BYTE      IPH1
      000000C0H   SFRSYM    DATA     BIT       P4_0
      000000B0H.1 SFRSYM    DATA     BIT       P3_1
      000000A0H.2 SFRSYM    DATA     BIT       P2_2
      00000090H.3 SFRSYM    DATA     BIT       P1_3
      00000080H.4 SFRSYM    DATA     BIT       P0_4
      000000E8H   SFRSYM    DATA     BYTE      EXF0
      000000C0H.1 SFRSYM    DATA     BIT       P4_1
      000000B0H.2 SFRSYM    DATA     BIT       P3_2
      000000A0H.3 SFRSYM    DATA     BIT       P2_3
      00000090H.4 SFRSYM    DATA     BIT       P1_4
      00000080H.5 SFRSYM    DATA     BIT       P0_5
      000000C0H.2 SFRSYM    DATA     BIT       P4_2
      000000B0H.3 SFRSYM    DATA     BIT       P3_3
      000000A0H.4 SFRSYM    DATA     BIT       P2_4
      00000090H.5 SFRSYM    DATA     BIT       P1_5
      00000080H.6 SFRSYM    DATA     BIT       P0_6
      000000C8H.6 SFRSYM    DATA     BIT       EXF2
      000000A6H   SFRSYM    DATA     BYTE      TKF0
      000000B8H   SFRSYM    DATA     BYTE      IPL0
      000000C0H.3 SFRSYM    DATA     BIT       P4_3
      000000B0H.4 SFRSYM    DATA     BIT       P3_4
      000000A0H.5 SFRSYM    DATA     BIT       P2_5
      00000090H.6 SFRSYM    DATA     BIT       P1_6
      00000080H.7 SFRSYM    DATA     BIT       P0_7
      000000D8H.4 SFRSYM    DATA     BIT       REN1
      000000B9H   SFRSYM    DATA     BYTE      IPL1
      000000C0H.4 SFRSYM    DATA     BIT       P4_4
      000000B0H.5 SFRSYM    DATA     BIT       P3_5
      000000A0H.6 SFRSYM    DATA     BIT       P2_6
      00000090H.7 SFRSYM    DATA     BIT       P1_7
      000000E2H   SFRSYM    DATA     BYTE      TK0H
      0000008EH   SFRSYM    DATA     BYTE      SUSLO
      000000C0H.5 SFRSYM    DATA     BIT       P4_5
      000000B0H.6 SFRSYM    DATA     BIT       P3_6
      000000A0H.7 SFRSYM    DATA     BIT       P2_7
      000000E4H   SFRSYM    DATA     BYTE      TK1H
      000000C0H.6 SFRSYM    DATA     BIT       P4_6
      000000B0H.7 SFRSYM    DATA     BIT       P3_7
      000000E6H   SFRSYM    DATA     BYTE      TK2H
      000000C0H.7 SFRSYM    DATA     BIT       P4_7
      00000098H   SFRSYM    DATA     BIT       RI
      000000A8H.2 SFRSYM    DATA     BIT       E7816
      000000D0H.7 SFRSYM    DATA     BIT       CY
      000000E1H   SFRSYM    DATA     BYTE      TK0L
      00000098H.1 SFRSYM    DATA     BIT       TI
      00000091H   SFRSYM    DATA     BYTE      EADR
      000000E3H   SFRSYM    DATA     BYTE      TK1L
      000000E5H   SFRSYM    DATA     BYTE      TK2L
      000000DBH   SFRSYM    DATA     BYTE      SADEN1
      000000D8H.7 SFRSYM    DATA     BIT       SM10_FE1
      000000FBH   SFRSYM    DATA     BYTE      SADEN2
      000000B8H.4 SFRSYM    DATA     BIT       PS0L
      000000B8H.1 SFRSYM    DATA     BIT       PT0L
      000000DAH   SFRSYM    DATA     BYTE      SADDR1
      000000D8H.5 SFRSYM    DATA     BIT       SM12_TXCOL1
      000000B8H.3 SFRSYM    DATA     BIT       PT1L
      000000FAH   SFRSYM    DATA     BYTE      SADDR2
LX51 LINKER/LOCATER V4.66.41.0                                                        11/18/2021  18:54:16  PAGE 216


      000000CBH   SFRSYM    DATA     BYTE      RCAP2H
      000000B8H.5 SFRSYM    DATA     BIT       PT2L
      00000081H   SFRSYM    DATA     BYTE      SP
      000000D0H.2 SFRSYM    DATA     BIT       OV
      000000CAH   SFRSYM    DATA     BYTE      RCAP2L
      000000B8H   SFRSYM    DATA     BIT       PX4L
      000000C8H.1 SFRSYM    DATA     BIT       C_T2
      000000DEH   SFRSYM    DATA     BYTE      SFINE2
      000000ADH   SFRSYM    DATA     BYTE      IRCON1
      000000AFH   SFRSYM    DATA     BYTE      IRCON2
      000000ABH   SFRSYM    DATA     BYTE      EXCON1
      00000099H   SFRSYM    DATA     BYTE      SBUF
      000000ACH   SFRSYM    DATA     BYTE      EXCON2
      00000087H   SFRSYM    DATA     BYTE      PCON
      000000F1H   SFRSYM    DATA     BYTE      AUXC
      00000098H   SFRSYM    DATA     BYTE      SCON
      000000D4H   SFRSYM    DATA     BYTE      TK0BASEH
      00000089H   SFRSYM    DATA     BYTE      TMOD
      00000088H   SFRSYM    DATA     BYTE      TCON
      000000AAH   SFRSYM    DATA     BYTE      IENX
      000000EEH   SFRSYM    DATA     BYTE      IB_OFFSET
      000000D6H   SFRSYM    DATA     BYTE      TK1BASEH
      000000DCH   SFRSYM    DATA     BYTE      SBRT1H
      000000DFH   SFRSYM    DATA     BYTE      TK2BASEH
      000000FCH   SFRSYM    DATA     BYTE      SBRT2H
      000000B1H   SFRSYM    DATA     BYTE      RSTSTAT
      000000D3H   SFRSYM    DATA     BYTE      TK0BASEL
      000000D5H   SFRSYM    DATA     BYTE      TK1BASEL
      000000DDH   SFRSYM    DATA     BYTE      SBRT1L
      000000D7H   SFRSYM    DATA     BYTE      TK2BASEL
      000000FDH   SFRSYM    DATA     BYTE      SBRT2L
      00000098H.7 SFRSYM    DATA     BIT       SM0_FE
      000000B2H   SFRSYM    DATA     BYTE      CLKCON
      00000098H.5 SFRSYM    DATA     BIT       SM2_TXCOL
      000000B5H   SFRSYM    DATA     BYTE      LDOCON
      000000F0H   SFRSYM    DATA     BYTE      B
      000000C8H   SFRSYM    DATA     BIT       CP_RL2
      000000E0H   SFRSYM    DATA     BYTE      ACC
      000000A8H.4 SFRSYM    DATA     BIT       ES0
      000000A8H.1 SFRSYM    DATA     BIT       ET0
      000000A8H.3 SFRSYM    DATA     BIT       ET1
      00000088H.5 SFRSYM    DATA     BIT       TF0
      000000A8H.5 SFRSYM    DATA     BIT       ET2
      00000088H.7 SFRSYM    DATA     BIT       TF1
      000000D8H   SFRSYM    DATA     BIT       RI1
      00000098H.2 SFRSYM    DATA     BIT       RB8
      000000C8H.7 SFRSYM    DATA     BIT       TF2
      0000008CH   SFRSYM    DATA     BYTE      TH0
      00000086H   SFRSYM    DATA     BYTE      INSCON
      0000008DH   SFRSYM    DATA     BYTE      TH1
      000000D8H.1 SFRSYM    DATA     BIT       TI1
      00000098H.3 SFRSYM    DATA     BIT       TB8
      000000CDH   SFRSYM    DATA     BYTE      TH2
      000000D0H   SFRSYM    DATA     BIT       P
      0000008AH   SFRSYM    DATA     BYTE      TL0
      000000A8H   SFRSYM    DATA     BIT       EX4
      0000008BH   SFRSYM    DATA     BYTE      TL1
      000000A7H   SFRSYM    DATA     BYTE      FLASHCON
      000000CCH   SFRSYM    DATA     BYTE      TL2
      000000D0H.3 SFRSYM    DATA     BIT       RS0
      000000C5H   SFRSYM    DATA     BYTE      ADCDH
      00000088H.4 SFRSYM    DATA     BIT       TR0
      000000D0H.4 SFRSYM    DATA     BIT       RS1
      0000009FH   SFRSYM    DATA     BYTE      PWMCON
      00000088H.6 SFRSYM    DATA     BIT       TR1
LX51 LINKER/LOCATER V4.66.41.0                                                        11/18/2021  18:54:16  PAGE 217


      000000C8H.2 SFRSYM    DATA     BIT       TR2
      000000C4H   SFRSYM    DATA     BYTE      ADCDL
      000000C2H   SFRSYM    DATA     BYTE      ADT
      00000083H   SFRSYM    DATA     BYTE      DPH
      00000082H   SFRSYM    DATA     BYTE      DPL
      000000D9H   SFRSYM    DATA     BYTE      SBUF1
      000000C8H.3 SFRSYM    DATA     BIT       EXEN2
      000000F9H   SFRSYM    DATA     BYTE      SBUF2
      000000D8H.6 SFRSYM    DATA     BIT       SM11_RXOV1
      000000B8H.6 SFRSYM    DATA     BIT       PADCL
      00000098H.4 SFRSYM    DATA     BIT       REN
      000000D8H   SFRSYM    DATA     BYTE      SCON1
      000000D1H   SFRSYM    DATA     BYTE      LCDCON1
      000000C1H   SFRSYM    DATA     BYTE      ADCON
      000000F8H   SFRSYM    DATA     BYTE      SCON2
      0000008FH   SFRSYM    DATA     BYTE      TCON1
      000000D2H   SFRSYM    DATA     BYTE      LCDCON2
      00000092H   SFRSYM    DATA     BYTE      EDTAH
      000000C9H   SFRSYM    DATA     BYTE      T2MOD
      000000C8H   SFRSYM    DATA     BYTE      T2CON
      00000094H   SFRSYM    DATA     BYTE      EDTAL
      00000093H   SFRSYM    DATA     BYTE      EDTAM
      000000BCH   SFRSYM    DATA     BYTE      TK0DIFH
      0000009BH   SFRSYM    DATA     BYTE      SADEN
      000000BEH   SFRSYM    DATA     BYTE      TK1DIFH
      000000B6H   SFRSYM    DATA     BYTE      PBANK
      000000A5H   SFRSYM    DATA     BYTE      TK2DIFH
      000000A8H.6 SFRSYM    DATA     BIT       EADTP
      0000009AH   SFRSYM    DATA     BYTE      SADDR
      000000CFH   SFRSYM    DATA     BYTE      TK0DIFL
      000000BDH   SFRSYM    DATA     BYTE      TK1DIFL
      000000BFH   SFRSYM    DATA     BYTE      TK2DIFL
      000000B8H.2 SFRSYM    DATA     BIT       P7816L
      000000C6H   SFRSYM    DATA     BYTE      LPDCON1
      000000C7H   SFRSYM    DATA     BYTE      LPDCON2
      000000D0H.5 SFRSYM    DATA     BIT       F0
      000000AEH   SFRSYM    DATA     BYTE      IRDAT
      000000D0H.1 SFRSYM    DATA     BIT       F1
      00000096H   SFRSYM    DATA     BYTE      EMUIE
      0000009EH   SFRSYM    DATA     BYTE      SFINE
      000000F7H   SFRSYM    DATA     BYTE      XPAGE
      00000097H   SFRSYM    DATA     BYTE      EMUIF
      000000D0H   SFRSYM    DATA     BYTE      PSW
      000000D8H.2 SFRSYM    DATA     BIT       RB81
      000000A3H   SFRSYM    DATA     BYTE      SPDAT
      000000F2H   SFRSYM    DATA     BYTE      IB_CON1

      ---         MODULE    ---      ---       LIBEEPROMLAYOUT
      02000C06H   PUBLIC    XDATA    ---       EEPROM_MAP_TAB
      000000F3H   SFRSYM    DATA     BYTE      IB_CON2
      000000D8H.3 SFRSYM    DATA     BIT       TB81
      00000080H   SFRSYM    DATA     BYTE      P0
      000000F4H   SFRSYM    DATA     BYTE      IB_CON3
      000000A4H   SFRSYM    DATA     BYTE      TKCON
      00000090H   SFRSYM    DATA     BYTE      P1
      000000F5H   SFRSYM    DATA     BYTE      IB_CON4
      000000E7H   SFRSYM    DATA     BYTE      PASLO
      000000A0H   SFRSYM    DATA     BYTE      P2
      000000FEH   SFRSYM    DATA     BYTE      OSCLO
      000000F6H   SFRSYM    DATA     BYTE      IB_CON5
      00000098H.6 SFRSYM    DATA     BIT       SM1_RXOV
      000000B0H   SFRSYM    DATA     BYTE      P3
      000000D0H.6 SFRSYM    DATA     BIT       AC
      000000C0H   SFRSYM    DATA     BYTE      P4
      000000A1H   SFRSYM    DATA     BYTE      SPCON
LX51 LINKER/LOCATER V4.66.41.0                                                        11/18/2021  18:54:16  PAGE 218


      0000009CH   SFRSYM    DATA     BYTE      SBRTH
      000000E9H   SFRSYM    DATA     BYTE      P5
      000000A8H.7 SFRSYM    DATA     BIT       EA
      000000EAH   SFRSYM    DATA     BYTE      P6
      000000EBH   SFRSYM    DATA     BYTE      P7
      000000EFH   SFRSYM    DATA     BYTE      IB_DATA
      000000ECH   SFRSYM    DATA     BYTE      P8
      0000009DH   SFRSYM    DATA     BYTE      SBRTL
      000000EDH   SFRSYM    DATA     BYTE      P9
      000000B7H   SFRSYM    DATA     BYTE      PBANKLO
      000000A2H   SFRSYM    DATA     BYTE      SPSTA
      000000A8H   SFRSYM    DATA     BYTE      IEN0
      000000B3H   SFRSYM    DATA     BYTE      PWRCON1
      00000095H   SFRSYM    DATA     BYTE      EMUSR
      000000A9H   SFRSYM    DATA     BYTE      IEN1
      000000B4H   SFRSYM    DATA     BYTE      PWRCON2
      00000085H   SFRSYM    DATA     BYTE      DPH1
      00000080H   SFRSYM    DATA     BIT       P0_0
      00000090H   SFRSYM    DATA     BIT       P1_0
      00000080H.1 SFRSYM    DATA     BIT       P0_1
      000000C3H   SFRSYM    DATA     BYTE      ADCH
      000000A0H   SFRSYM    DATA     BIT       P2_0
      00000090H.1 SFRSYM    DATA     BIT       P1_1
      00000080H.2 SFRSYM    DATA     BIT       P0_2
      000000BAH   SFRSYM    DATA     BYTE      IPH0
      00000084H   SFRSYM    DATA     BYTE      DPL1
      000000B0H   SFRSYM    DATA     BIT       P3_0
      000000A0H.1 SFRSYM    DATA     BIT       P2_1
      00000090H.2 SFRSYM    DATA     BIT       P1_2
      00000080H.3 SFRSYM    DATA     BIT       P0_3
      000000BBH   SFRSYM    DATA     BYTE      IPH1
      000000C0H   SFRSYM    DATA     BIT       P4_0
      000000B0H.1 SFRSYM    DATA     BIT       P3_1
      000000A0H.2 SFRSYM    DATA     BIT       P2_2
      00000090H.3 SFRSYM    DATA     BIT       P1_3
      00000080H.4 SFRSYM    DATA     BIT       P0_4
      000000E8H   SFRSYM    DATA     BYTE      EXF0
      000000C0H.1 SFRSYM    DATA     BIT       P4_1
      000000B0H.2 SFRSYM    DATA     BIT       P3_2
      000000A0H.3 SFRSYM    DATA     BIT       P2_3
      00000090H.4 SFRSYM    DATA     BIT       P1_4
      00000080H.5 SFRSYM    DATA     BIT       P0_5
      000000C0H.2 SFRSYM    DATA     BIT       P4_2
      000000B0H.3 SFRSYM    DATA     BIT       P3_3
      000000A0H.4 SFRSYM    DATA     BIT       P2_4
      00000090H.5 SFRSYM    DATA     BIT       P1_5
      00000080H.6 SFRSYM    DATA     BIT       P0_6
      000000C8H.6 SFRSYM    DATA     BIT       EXF2
      000000A6H   SFRSYM    DATA     BYTE      TKF0
      000000B8H   SFRSYM    DATA     BYTE      IPL0
      000000C0H.3 SFRSYM    DATA     BIT       P4_3
      000000B0H.4 SFRSYM    DATA     BIT       P3_4
      000000A0H.5 SFRSYM    DATA     BIT       P2_5
      00000090H.6 SFRSYM    DATA     BIT       P1_6
      00000080H.7 SFRSYM    DATA     BIT       P0_7
      000000D8H.4 SFRSYM    DATA     BIT       REN1
      000000B9H   SFRSYM    DATA     BYTE      IPL1
      000000C0H.4 SFRSYM    DATA     BIT       P4_4
      000000B0H.5 SFRSYM    DATA     BIT       P3_5
      000000A0H.6 SFRSYM    DATA     BIT       P2_6
      00000090H.7 SFRSYM    DATA     BIT       P1_7
      000000E2H   SFRSYM    DATA     BYTE      TK0H
      0000008EH   SFRSYM    DATA     BYTE      SUSLO
      000000C0H.5 SFRSYM    DATA     BIT       P4_5
      000000B0H.6 SFRSYM    DATA     BIT       P3_6
LX51 LINKER/LOCATER V4.66.41.0                                                        11/18/2021  18:54:16  PAGE 219


      000000A0H.7 SFRSYM    DATA     BIT       P2_7
      000000E4H   SFRSYM    DATA     BYTE      TK1H
      000000C0H.6 SFRSYM    DATA     BIT       P4_6
      000000B0H.7 SFRSYM    DATA     BIT       P3_7
      000000E6H   SFRSYM    DATA     BYTE      TK2H
      000000C0H.7 SFRSYM    DATA     BIT       P4_7
      00000098H   SFRSYM    DATA     BIT       RI
      000000A8H.2 SFRSYM    DATA     BIT       E7816
      000000D0H.7 SFRSYM    DATA     BIT       CY
      000000E1H   SFRSYM    DATA     BYTE      TK0L
      00000098H.1 SFRSYM    DATA     BIT       TI
      00000091H   SFRSYM    DATA     BYTE      EADR
      000000E3H   SFRSYM    DATA     BYTE      TK1L
      000000E5H   SFRSYM    DATA     BYTE      TK2L
      000000DBH   SFRSYM    DATA     BYTE      SADEN1
      000000D8H.7 SFRSYM    DATA     BIT       SM10_FE1
      000000FBH   SFRSYM    DATA     BYTE      SADEN2
      000000B8H.4 SFRSYM    DATA     BIT       PS0L
      000000B8H.1 SFRSYM    DATA     BIT       PT0L
      000000DAH   SFRSYM    DATA     BYTE      SADDR1
      000000D8H.5 SFRSYM    DATA     BIT       SM12_TXCOL1
      000000B8H.3 SFRSYM    DATA     BIT       PT1L
      000000FAH   SFRSYM    DATA     BYTE      SADDR2
      000000CBH   SFRSYM    DATA     BYTE      RCAP2H
      000000B8H.5 SFRSYM    DATA     BIT       PT2L
      00000081H   SFRSYM    DATA     BYTE      SP
      000000D0H.2 SFRSYM    DATA     BIT       OV
      000000CAH   SFRSYM    DATA     BYTE      RCAP2L
      000000B8H   SFRSYM    DATA     BIT       PX4L
      000000C8H.1 SFRSYM    DATA     BIT       C_T2
      000000DEH   SFRSYM    DATA     BYTE      SFINE2
      000000ADH   SFRSYM    DATA     BYTE      IRCON1
      000000AFH   SFRSYM    DATA     BYTE      IRCON2
      000000ABH   SFRSYM    DATA     BYTE      EXCON1
      00000099H   SFRSYM    DATA     BYTE      SBUF
      000000ACH   SFRSYM    DATA     BYTE      EXCON2
      00000087H   SFRSYM    DATA     BYTE      PCON
      000000F1H   SFRSYM    DATA     BYTE      AUXC
      00000098H   SFRSYM    DATA     BYTE      SCON
      000000D4H   SFRSYM    DATA     BYTE      TK0BASEH
      00000089H   SFRSYM    DATA     BYTE      TMOD
      00000088H   SFRSYM    DATA     BYTE      TCON
      000000AAH   SFRSYM    DATA     BYTE      IENX
      000000EEH   SFRSYM    DATA     BYTE      IB_OFFSET
      000000D6H   SFRSYM    DATA     BYTE      TK1BASEH
      000000DCH   SFRSYM    DATA     BYTE      SBRT1H
      000000DFH   SFRSYM    DATA     BYTE      TK2BASEH
      000000FCH   SFRSYM    DATA     BYTE      SBRT2H
      000000B1H   SFRSYM    DATA     BYTE      RSTSTAT
      000000D3H   SFRSYM    DATA     BYTE      TK0BASEL
      000000D5H   SFRSYM    DATA     BYTE      TK1BASEL
      000000DDH   SFRSYM    DATA     BYTE      SBRT1L
      000000D7H   SFRSYM    DATA     BYTE      TK2BASEL
      000000FDH   SFRSYM    DATA     BYTE      SBRT2L
      00000098H.7 SFRSYM    DATA     BIT       SM0_FE
      000000B2H   SFRSYM    DATA     BYTE      CLKCON
      00000098H.5 SFRSYM    DATA     BIT       SM2_TXCOL
      000000B5H   SFRSYM    DATA     BYTE      LDOCON
      000000F0H   SFRSYM    DATA     BYTE      B
      000000C8H   SFRSYM    DATA     BIT       CP_RL2
      000000E0H   SFRSYM    DATA     BYTE      ACC
      000000A8H.4 SFRSYM    DATA     BIT       ES0
      000000A8H.1 SFRSYM    DATA     BIT       ET0
      000000A8H.3 SFRSYM    DATA     BIT       ET1
      00000088H.5 SFRSYM    DATA     BIT       TF0
LX51 LINKER/LOCATER V4.66.41.0                                                        11/18/2021  18:54:16  PAGE 220


      000000A8H.5 SFRSYM    DATA     BIT       ET2
      00000088H.7 SFRSYM    DATA     BIT       TF1
      000000D8H   SFRSYM    DATA     BIT       RI1
      00000098H.2 SFRSYM    DATA     BIT       RB8
      000000C8H.7 SFRSYM    DATA     BIT       TF2
      0000008CH   SFRSYM    DATA     BYTE      TH0
      00000086H   SFRSYM    DATA     BYTE      INSCON
      0000008DH   SFRSYM    DATA     BYTE      TH1
      000000D8H.1 SFRSYM    DATA     BIT       TI1
      00000098H.3 SFRSYM    DATA     BIT       TB8
      000000CDH   SFRSYM    DATA     BYTE      TH2
      000000D0H   SFRSYM    DATA     BIT       P
      0000008AH   SFRSYM    DATA     BYTE      TL0
      000000A8H   SFRSYM    DATA     BIT       EX4
      0000008BH   SFRSYM    DATA     BYTE      TL1
      000000A7H   SFRSYM    DATA     BYTE      FLASHCON
      000000CCH   SFRSYM    DATA     BYTE      TL2
      000000D0H.3 SFRSYM    DATA     BIT       RS0
      000000C5H   SFRSYM    DATA     BYTE      ADCDH
      00000088H.4 SFRSYM    DATA     BIT       TR0
      000000D0H.4 SFRSYM    DATA     BIT       RS1
      0000009FH   SFRSYM    DATA     BYTE      PWMCON
      00000088H.6 SFRSYM    DATA     BIT       TR1
      000000C8H.2 SFRSYM    DATA     BIT       TR2
      000000C4H   SFRSYM    DATA     BYTE      ADCDL
      000000C2H   SFRSYM    DATA     BYTE      ADT
      00000083H   SFRSYM    DATA     BYTE      DPH
      00000082H   SFRSYM    DATA     BYTE      DPL
      000000D9H   SFRSYM    DATA     BYTE      SBUF1
      000000C8H.3 SFRSYM    DATA     BIT       EXEN2
      000000F9H   SFRSYM    DATA     BYTE      SBUF2
      000000D8H.6 SFRSYM    DATA     BIT       SM11_RXOV1
      000000B8H.6 SFRSYM    DATA     BIT       PADCL
      00000098H.4 SFRSYM    DATA     BIT       REN
      000000D8H   SFRSYM    DATA     BYTE      SCON1
      000000D1H   SFRSYM    DATA     BYTE      LCDCON1
      000000C1H   SFRSYM    DATA     BYTE      ADCON
      000000F8H   SFRSYM    DATA     BYTE      SCON2
      0000008FH   SFRSYM    DATA     BYTE      TCON1
      000000D2H   SFRSYM    DATA     BYTE      LCDCON2
      00000092H   SFRSYM    DATA     BYTE      EDTAH
      000000C9H   SFRSYM    DATA     BYTE      T2MOD
      000000C8H   SFRSYM    DATA     BYTE      T2CON
      00000094H   SFRSYM    DATA     BYTE      EDTAL
      00000093H   SFRSYM    DATA     BYTE      EDTAM
      000000BCH   SFRSYM    DATA     BYTE      TK0DIFH
      0000009BH   SFRSYM    DATA     BYTE      SADEN
      000000BEH   SFRSYM    DATA     BYTE      TK1DIFH
      000000B6H   SFRSYM    DATA     BYTE      PBANK
      000000A5H   SFRSYM    DATA     BYTE      TK2DIFH
      000000A8H.6 SFRSYM    DATA     BIT       EADTP
      0000009AH   SFRSYM    DATA     BYTE      SADDR
      000000CFH   SFRSYM    DATA     BYTE      TK0DIFL
      000000BDH   SFRSYM    DATA     BYTE      TK1DIFL
      000000BFH   SFRSYM    DATA     BYTE      TK2DIFL
      000000B8H.2 SFRSYM    DATA     BIT       P7816L
      000000C6H   SFRSYM    DATA     BYTE      LPDCON1
      000000C7H   SFRSYM    DATA     BYTE      LPDCON2
      000000D0H.5 SFRSYM    DATA     BIT       F0
      000000AEH   SFRSYM    DATA     BYTE      IRDAT
      000000D0H.1 SFRSYM    DATA     BIT       F1
      00000096H   SFRSYM    DATA     BYTE      EMUIE
      0000009EH   SFRSYM    DATA     BYTE      SFINE
      000000F7H   SFRSYM    DATA     BYTE      XPAGE
      00000097H   SFRSYM    DATA     BYTE      EMUIF
LX51 LINKER/LOCATER V4.66.41.0                                                        11/18/2021  18:54:16  PAGE 221


      000000D0H   SFRSYM    DATA     BYTE      PSW
      000000D8H.2 SFRSYM    DATA     BIT       RB81
      000000A3H   SFRSYM    DATA     BYTE      SPDAT
      000000F2H   SFRSYM    DATA     BYTE      IB_CON1

      ---         MODULE    ---      ---       BLEDRV
      010011F5H   PUBLIC    CONST    ---       C_StrBle_MAP_TAB
      010011E2H   PUBLIC    CONST    ---       C_cBlePayload_Head
      01002CF7H   PUBLIC    CODE     ---       BleDrv_BleReset
      01002836H   PUBLIC    CODE     ---       _BleDrv_BleComm
      0100274BH   PUBLIC    CODE     ---       BleDrv_SetBleRunPara
      01002EB0H   PUBLIC    CODE     ---       BleDrv_InitBleRunPara
      01004318H   PUBLIC    CODE     ---       BleDrv_GetBleUartSta
      01002DDAH   PUBLIC    CODE     ---       BleDrv_BleStatuChk
      01002D1EH   PUBLIC    CODE     ---       _BleDrv_BleParaChk
      01002DD3H   PUBLIC    CODE     ---       BleDrv_InitPwn
      0100430EH   PUBLIC    CODE     ---       _BleDrv_GetBleTPL
      01004306H   PUBLIC    CODE     ---       _BleDrv_CommGetBlePara
      0100424BH   PUBLIC    CODE     ---       _BleDrv_CommSetBlePara
      010041F7H   PUBLIC    CODE     ---       _BleDrv_SetBleTPL
      010042ADH   PUBLIC    CODE     ---       _BleDrv_GetBleName
      010042AAH   PUBLIC    CODE     ---       _BleDrv_GetBleMac
      010041EDH   PUBLIC    CODE     ---       _BleDrv_SetBleMac
      010027C7H   PUBLIC    CODE     ---       BleDrv_SetBleStat
      0100005CH   PUBLIC    CODE     ---       BleDrv_GetBleStat
      01002F6FH   PUBLIC    CODE     ---       _BleDrv_GetBlePara
      01004177H   PUBLIC    CODE     ---       _BleDrv_SetBlePara
      000000F3H   SFRSYM    DATA     BYTE      IB_CON2
      000000D8H.3 SFRSYM    DATA     BIT       TB81
      00000080H   SFRSYM    DATA     BYTE      P0
      000000F4H   SFRSYM    DATA     BYTE      IB_CON3
      000000A4H   SFRSYM    DATA     BYTE      TKCON
      00000090H   SFRSYM    DATA     BYTE      P1
      000000F5H   SFRSYM    DATA     BYTE      IB_CON4
      000000E7H   SFRSYM    DATA     BYTE      PASLO
      000000A0H   SFRSYM    DATA     BYTE      P2
      000000FEH   SFRSYM    DATA     BYTE      OSCLO
      000000F6H   SFRSYM    DATA     BYTE      IB_CON5
      00000098H.6 SFRSYM    DATA     BIT       SM1_RXOV
      000000B0H   SFRSYM    DATA     BYTE      P3
      000000D0H.6 SFRSYM    DATA     BIT       AC
      000000C0H   SFRSYM    DATA     BYTE      P4
      000000A1H   SFRSYM    DATA     BYTE      SPCON
      0000009CH   SFRSYM    DATA     BYTE      SBRTH
      000000E9H   SFRSYM    DATA     BYTE      P5
      000000A8H.7 SFRSYM    DATA     BIT       EA
      000000EAH   SFRSYM    DATA     BYTE      P6
      000000EBH   SFRSYM    DATA     BYTE      P7
      000000EFH   SFRSYM    DATA     BYTE      IB_DATA
      000000ECH   SFRSYM    DATA     BYTE      P8
      0000009DH   SFRSYM    DATA     BYTE      SBRTL
      000000EDH   SFRSYM    DATA     BYTE      P9
      000000B7H   SFRSYM    DATA     BYTE      PBANKLO
      000000A2H   SFRSYM    DATA     BYTE      SPSTA
      000000A8H   SFRSYM    DATA     BYTE      IEN0
      000000B3H   SFRSYM    DATA     BYTE      PWRCON1
      00000095H   SFRSYM    DATA     BYTE      EMUSR
      000000A9H   SFRSYM    DATA     BYTE      IEN1
      000000B4H   SFRSYM    DATA     BYTE      PWRCON2
      00000085H   SFRSYM    DATA     BYTE      DPH1
      00000080H   SFRSYM    DATA     BIT       P0_0
      00000090H   SFRSYM    DATA     BIT       P1_0
      00000080H.1 SFRSYM    DATA     BIT       P0_1
      000000C3H   SFRSYM    DATA     BYTE      ADCH
      000000A0H   SFRSYM    DATA     BIT       P2_0
LX51 LINKER/LOCATER V4.66.41.0                                                        11/18/2021  18:54:16  PAGE 222


      00000090H.1 SFRSYM    DATA     BIT       P1_1
      00000080H.2 SFRSYM    DATA     BIT       P0_2
      000000BAH   SFRSYM    DATA     BYTE      IPH0
      00000084H   SFRSYM    DATA     BYTE      DPL1
      000000B0H   SFRSYM    DATA     BIT       P3_0
      000000A0H.1 SFRSYM    DATA     BIT       P2_1
      00000090H.2 SFRSYM    DATA     BIT       P1_2
      00000080H.3 SFRSYM    DATA     BIT       P0_3
      000000BBH   SFRSYM    DATA     BYTE      IPH1
      000000C0H   SFRSYM    DATA     BIT       P4_0
      000000B0H.1 SFRSYM    DATA     BIT       P3_1
      000000A0H.2 SFRSYM    DATA     BIT       P2_2
      00000090H.3 SFRSYM    DATA     BIT       P1_3
      00000080H.4 SFRSYM    DATA     BIT       P0_4
      000000E8H   SFRSYM    DATA     BYTE      EXF0
      000000C0H.1 SFRSYM    DATA     BIT       P4_1
      000000B0H.2 SFRSYM    DATA     BIT       P3_2
      000000A0H.3 SFRSYM    DATA     BIT       P2_3
      00000090H.4 SFRSYM    DATA     BIT       P1_4
      00000080H.5 SFRSYM    DATA     BIT       P0_5
      000000C0H.2 SFRSYM    DATA     BIT       P4_2
      000000B0H.3 SFRSYM    DATA     BIT       P3_3
      000000A0H.4 SFRSYM    DATA     BIT       P2_4
      00000090H.5 SFRSYM    DATA     BIT       P1_5
      00000080H.6 SFRSYM    DATA     BIT       P0_6
      000000C8H.6 SFRSYM    DATA     BIT       EXF2
      000000A6H   SFRSYM    DATA     BYTE      TKF0
      000000B8H   SFRSYM    DATA     BYTE      IPL0
      000000C0H.3 SFRSYM    DATA     BIT       P4_3
      000000B0H.4 SFRSYM    DATA     BIT       P3_4
      000000A0H.5 SFRSYM    DATA     BIT       P2_5
      00000090H.6 SFRSYM    DATA     BIT       P1_6
      00000080H.7 SFRSYM    DATA     BIT       P0_7
      000000D8H.4 SFRSYM    DATA     BIT       REN1
      000000B9H   SFRSYM    DATA     BYTE      IPL1
      000000C0H.4 SFRSYM    DATA     BIT       P4_4
      000000B0H.5 SFRSYM    DATA     BIT       P3_5
      000000A0H.6 SFRSYM    DATA     BIT       P2_6
      00000090H.7 SFRSYM    DATA     BIT       P1_7
      000000E2H   SFRSYM    DATA     BYTE      TK0H
      0000008EH   SFRSYM    DATA     BYTE      SUSLO
      000000C0H.5 SFRSYM    DATA     BIT       P4_5
      000000B0H.6 SFRSYM    DATA     BIT       P3_6
      000000A0H.7 SFRSYM    DATA     BIT       P2_7
      000000E4H   SFRSYM    DATA     BYTE      TK1H
      000000C0H.6 SFRSYM    DATA     BIT       P4_6
      000000B0H.7 SFRSYM    DATA     BIT       P3_7
      000000E6H   SFRSYM    DATA     BYTE      TK2H
      000000C0H.7 SFRSYM    DATA     BIT       P4_7
      00000098H   SFRSYM    DATA     BIT       RI
      000000A8H.2 SFRSYM    DATA     BIT       E7816
      000000D0H.7 SFRSYM    DATA     BIT       CY
      000000E1H   SFRSYM    DATA     BYTE      TK0L
      00000098H.1 SFRSYM    DATA     BIT       TI
      00000091H   SFRSYM    DATA     BYTE      EADR
      000000E3H   SFRSYM    DATA     BYTE      TK1L
      000000E5H   SFRSYM    DATA     BYTE      TK2L
      000000DBH   SFRSYM    DATA     BYTE      SADEN1
      000000D8H.7 SFRSYM    DATA     BIT       SM10_FE1
      000000FBH   SFRSYM    DATA     BYTE      SADEN2
      000000B8H.4 SFRSYM    DATA     BIT       PS0L
      000000B8H.1 SFRSYM    DATA     BIT       PT0L
      000000DAH   SFRSYM    DATA     BYTE      SADDR1
      000000D8H.5 SFRSYM    DATA     BIT       SM12_TXCOL1
      000000B8H.3 SFRSYM    DATA     BIT       PT1L
LX51 LINKER/LOCATER V4.66.41.0                                                        11/18/2021  18:54:16  PAGE 223


      000000FAH   SFRSYM    DATA     BYTE      SADDR2
      000000CBH   SFRSYM    DATA     BYTE      RCAP2H
      000000B8H.5 SFRSYM    DATA     BIT       PT2L
      00000081H   SFRSYM    DATA     BYTE      SP
      000000D0H.2 SFRSYM    DATA     BIT       OV
      000000CAH   SFRSYM    DATA     BYTE      RCAP2L
      000000B8H   SFRSYM    DATA     BIT       PX4L
      000000C8H.1 SFRSYM    DATA     BIT       C_T2
      000000DEH   SFRSYM    DATA     BYTE      SFINE2
      000000ADH   SFRSYM    DATA     BYTE      IRCON1
      000000AFH   SFRSYM    DATA     BYTE      IRCON2
      000000ABH   SFRSYM    DATA     BYTE      EXCON1
      00000099H   SFRSYM    DATA     BYTE      SBUF
      000000ACH   SFRSYM    DATA     BYTE      EXCON2
      00000087H   SFRSYM    DATA     BYTE      PCON
      000000F1H   SFRSYM    DATA     BYTE      AUXC
      00000098H   SFRSYM    DATA     BYTE      SCON
      000000D4H   SFRSYM    DATA     BYTE      TK0BASEH
      00000089H   SFRSYM    DATA     BYTE      TMOD
      00000088H   SFRSYM    DATA     BYTE      TCON
      000000AAH   SFRSYM    DATA     BYTE      IENX
      000000EEH   SFRSYM    DATA     BYTE      IB_OFFSET
      000000D6H   SFRSYM    DATA     BYTE      TK1BASEH
      000000DCH   SFRSYM    DATA     BYTE      SBRT1H
      000000DFH   SFRSYM    DATA     BYTE      TK2BASEH
      000000FCH   SFRSYM    DATA     BYTE      SBRT2H
      000000B1H   SFRSYM    DATA     BYTE      RSTSTAT
      000000D3H   SFRSYM    DATA     BYTE      TK0BASEL
      000000D5H   SFRSYM    DATA     BYTE      TK1BASEL
      000000DDH   SFRSYM    DATA     BYTE      SBRT1L
      000000D7H   SFRSYM    DATA     BYTE      TK2BASEL
      000000FDH   SFRSYM    DATA     BYTE      SBRT2L
      00000098H.7 SFRSYM    DATA     BIT       SM0_FE
      000000B2H   SFRSYM    DATA     BYTE      CLKCON
      00000098H.5 SFRSYM    DATA     BIT       SM2_TXCOL
      000000B5H   SFRSYM    DATA     BYTE      LDOCON
      000000F0H   SFRSYM    DATA     BYTE      B
      000000C8H   SFRSYM    DATA     BIT       CP_RL2
      000000E0H   SFRSYM    DATA     BYTE      ACC
      000000A8H.4 SFRSYM    DATA     BIT       ES0
      000000A8H.1 SFRSYM    DATA     BIT       ET0
      000000A8H.3 SFRSYM    DATA     BIT       ET1
      00000088H.5 SFRSYM    DATA     BIT       TF0
      000000A8H.5 SFRSYM    DATA     BIT       ET2
      00000088H.7 SFRSYM    DATA     BIT       TF1
      000000D8H   SFRSYM    DATA     BIT       RI1
      00000098H.2 SFRSYM    DATA     BIT       RB8
      000000C8H.7 SFRSYM    DATA     BIT       TF2
      0000008CH   SFRSYM    DATA     BYTE      TH0
      00000086H   SFRSYM    DATA     BYTE      INSCON
      0000008DH   SFRSYM    DATA     BYTE      TH1
      000000D8H.1 SFRSYM    DATA     BIT       TI1
      00000098H.3 SFRSYM    DATA     BIT       TB8
      000000CDH   SFRSYM    DATA     BYTE      TH2
      000000D0H   SFRSYM    DATA     BIT       P
      0000008AH   SFRSYM    DATA     BYTE      TL0
      000000A8H   SFRSYM    DATA     BIT       EX4
      0000008BH   SFRSYM    DATA     BYTE      TL1
      000000A7H   SFRSYM    DATA     BYTE      FLASHCON
      000000CCH   SFRSYM    DATA     BYTE      TL2
      000000D0H.3 SFRSYM    DATA     BIT       RS0
      000000C5H   SFRSYM    DATA     BYTE      ADCDH
      00000088H.4 SFRSYM    DATA     BIT       TR0
      000000D0H.4 SFRSYM    DATA     BIT       RS1
      0000009FH   SFRSYM    DATA     BYTE      PWMCON
LX51 LINKER/LOCATER V4.66.41.0                                                        11/18/2021  18:54:16  PAGE 224


      00000088H.6 SFRSYM    DATA     BIT       TR1
      000000C8H.2 SFRSYM    DATA     BIT       TR2
      000000C4H   SFRSYM    DATA     BYTE      ADCDL
      000000C2H   SFRSYM    DATA     BYTE      ADT
      00000083H   SFRSYM    DATA     BYTE      DPH
      00000082H   SFRSYM    DATA     BYTE      DPL
      000000D9H   SFRSYM    DATA     BYTE      SBUF1
      000000C8H.3 SFRSYM    DATA     BIT       EXEN2
      000000F9H   SFRSYM    DATA     BYTE      SBUF2
      000000D8H.6 SFRSYM    DATA     BIT       SM11_RXOV1
      000000B8H.6 SFRSYM    DATA     BIT       PADCL
      00000098H.4 SFRSYM    DATA     BIT       REN
      000000D8H   SFRSYM    DATA     BYTE      SCON1
      000000D1H   SFRSYM    DATA     BYTE      LCDCON1
      000000C1H   SFRSYM    DATA     BYTE      ADCON
      000000F8H   SFRSYM    DATA     BYTE      SCON2
      0000008FH   SFRSYM    DATA     BYTE      TCON1
      000000D2H   SFRSYM    DATA     BYTE      LCDCON2
      00000092H   SFRSYM    DATA     BYTE      EDTAH
      000000C9H   SFRSYM    DATA     BYTE      T2MOD
      000000C8H   SFRSYM    DATA     BYTE      T2CON
      00000094H   SFRSYM    DATA     BYTE      EDTAL
      00000093H   SFRSYM    DATA     BYTE      EDTAM
      000000BCH   SFRSYM    DATA     BYTE      TK0DIFH
      0000009BH   SFRSYM    DATA     BYTE      SADEN
      000000BEH   SFRSYM    DATA     BYTE      TK1DIFH
      000000B6H   SFRSYM    DATA     BYTE      PBANK
      000000A5H   SFRSYM    DATA     BYTE      TK2DIFH
      000000A8H.6 SFRSYM    DATA     BIT       EADTP
      0000009AH   SFRSYM    DATA     BYTE      SADDR
      000000CFH   SFRSYM    DATA     BYTE      TK0DIFL
      000000BDH   SFRSYM    DATA     BYTE      TK1DIFL
      000000BFH   SFRSYM    DATA     BYTE      TK2DIFL
      000000B8H.2 SFRSYM    DATA     BIT       P7816L
      000000C6H   SFRSYM    DATA     BYTE      LPDCON1
      000000C7H   SFRSYM    DATA     BYTE      LPDCON2
      000000D0H.5 SFRSYM    DATA     BIT       F0
      000000AEH   SFRSYM    DATA     BYTE      IRDAT
      000000D0H.1 SFRSYM    DATA     BIT       F1
      00000096H   SFRSYM    DATA     BYTE      EMUIE
      0000009EH   SFRSYM    DATA     BYTE      SFINE
      000000F7H   SFRSYM    DATA     BYTE      XPAGE
      00000097H   SFRSYM    DATA     BYTE      EMUIF
      000000D0H   SFRSYM    DATA     BYTE      PSW
      000000D8H.2 SFRSYM    DATA     BIT       RB81
      000000A3H   SFRSYM    DATA     BYTE      SPDAT
      000000F2H   SFRSYM    DATA     BYTE      IB_CON1
      01001226H   SYMBOL    CONST    ---       _?ix1000
      0100128AH   SYMBOL    CONST    ---       _?ix1001
      010012EEH   SYMBOL    CONST    ---       _?ix1002
      01001316H   SYMBOL    CONST    ---       _?ix1003
      01002836H   SYMBOL    CODE     ---       _BleDrv_BleComm
      0100132FH   SYMBOL    CONST    ---       _?ix1004
      01001334H   SYMBOL    CONST    ---       _?ix1005
      01001357H   SYMBOL    CONST    ---       _?ix1006
      010013BBH   SYMBOL    CONST    ---       _?ix1007
      010013D4H   SYMBOL    CONST    ---       _?ix1008
      01002F67H   SYMBOL    CODE     ---       _BleDrv_GetBlePara
      01004177H   SYMBOL    CODE     ---       _BleDrv_SetBlePara

      01004177H   BLOCK     CODE     ---       LVL=0
      01004177H   LINE      ---      ---       #144
      01004185H   LINE      ---      ---       #145
      02000697H   SYMBOL    XDATA    BYTE      V_ucCmdIndex
      02000698H   SYMBOL    XDATA    ---       p_ucDataBuf
LX51 LINKER/LOCATER V4.66.41.0                                                        11/18/2021  18:54:16  PAGE 225


      0200069BH   SYMBOL    XDATA    BYTE      v_ucLen
      01004185H   BLOCK     CODE     NEAR LAB  LVL=1
      01004185H   LINE      ---      ---       #146
      01004198H   LINE      ---      ---       #147
      010041A6H   LINE      ---      ---       #148
      010041AAH   LINE      ---      ---       #150
      010041B1H   LINE      ---      ---       #151
      010041B1H   LINE      ---      ---       #152
      010041D0H   LINE      ---      ---       #153
      010041D0H   LINE      ---      ---       #155
      010041E3H   LINE      ---      ---       #156
      010041E3H   LINE      ---      ---       #157
      010041E7H   LINE      ---      ---       #158
      010041E7H   LINE      ---      ---       #160
      010041ECH   LINE      ---      ---       #161
      0200069CH   SYMBOL    XDATA    ---       V_ucTempBuff
      02000700H   SYMBOL    XDATA    ---       P_ucDataEcho
      02000703H   SYMBOL    XDATA    BYTE      V_ucResult
      ---         BLOCKEND  CODE     ---       LVL=1
      ---         BLOCKEND  CODE     ---       LVL=0

      01002F67H   BLOCK     CODE     ---       LVL=0
      01002F6FH   LINE      ---      ---       #174
      01002F7DH   LINE      ---      ---       #175
      02000675H   SYMBOL    XDATA    BYTE      V_ucCmdIndex
      02000676H   SYMBOL    XDATA    ---       p_ucDataBuf
      02000679H   SYMBOL    XDATA    BYTE      v_ucLen
      01002F7DH   BLOCK     CODE     NEAR LAB  LVL=1
      01002F7DH   LINE      ---      ---       #176
      01002F90H   LINE      ---      ---       #177
      01002F96H   LINE      ---      ---       #179
      01002FA8H   LINE      ---      ---       #180
      01002FA8H   LINE      ---      ---       #181
      01002FCEH   LINE      ---      ---       #182
      01002FD3H   LINE      ---      ---       #183
      01002FD3H   LINE      ---      ---       #185
      01002FD8H   LINE      ---      ---       #186
      0200067AH   SYMBOL    XDATA    ---       V_ucTempBuff
      020006DEH   SYMBOL    XDATA    BYTE      V_ucResult
      ---         BLOCKEND  CODE     ---       LVL=1
      ---         BLOCKEND  CODE     ---       LVL=0

      0100005CH   BLOCK     CODE     ---       LVL=0
      0100005CH   LINE      ---      ---       #196
      0100005CH   LINE      ---      ---       #197
      0100005CH   LINE      ---      ---       #198
      01000061H   LINE      ---      ---       #199
      ---         BLOCKEND  ---      ---       LVL=0

      010027C7H   BLOCK     CODE     ---       LVL=0
      010027C7H   LINE      ---      ---       #213
      010027C7H   LINE      ---      ---       #214
      010027C7H   BLOCK     CODE     NEAR LAB  LVL=1
      010027C7H   LINE      ---      ---       #215
      010027DAH   LINE      ---      ---       #216
      010027E0H   LINE      ---      ---       #218
      010027F8H   LINE      ---      ---       #219
      01002813H   LINE      ---      ---       #221
      01002822H   LINE      ---      ---       #222
      01002822H   LINE      ---      ---       #223
      01002826H   LINE      ---      ---       #224
      0100282BH   LINE      ---      ---       #225
      01002830H   LINE      ---      ---       #226
      01002830H   LINE      ---      ---       #227
      01002835H   LINE      ---      ---       #228
LX51 LINKER/LOCATER V4.66.41.0                                                        11/18/2021  18:54:16  PAGE 226


      0200068EH   SYMBOL    XDATA    ---       V_ucTempBuff
      020006B6H   SYMBOL    XDATA    BYTE      V_ucResult
      ---         BLOCKEND  CODE     ---       LVL=1
      ---         BLOCKEND  CODE     ---       LVL=0

      010041EDH   BLOCK     CODE     ---       LVL=0
      010041EDH   LINE      ---      ---       #242
      010041EDH   LINE      ---      ---       #243
      010041EDH   LINE      ---      ---       #244
      00000001H   SYMBOL    DATA     ---       p_ucDataBuf
      ---         BLOCKEND  ---      ---       LVL=0

      010042A6H   BLOCK     CODE     ---       LVL=0
      010042AAH   LINE      ---      ---       #258
      010042AAH   LINE      ---      ---       #259
      010042AAH   LINE      ---      ---       #260
      00000001H   SYMBOL    DATA     ---       p_ucDataBuf
      ---         BLOCKEND  ---      ---       LVL=0

      010042ADH   BLOCK     CODE     ---       LVL=0
      010042ADH   LINE      ---      ---       #322
      010042B8H   LINE      ---      ---       #323
      02000639H   SYMBOL    XDATA    ---       p_ucDataBuf
      010042B8H   BLOCK     CODE     NEAR LAB  LVL=1
      010042B8H   LINE      ---      ---       #324
      010042BCH   LINE      ---      ---       #325
      010042CEH   LINE      ---      ---       #327
      010042DCH   LINE      ---      ---       #329
      010042DEH   LINE      ---      ---       #330
      010042DEH   LINE      ---      ---       #331
      01004300H   LINE      ---      ---       #332
      01004300H   LINE      ---      ---       #333
      01004305H   LINE      ---      ---       #334
      0200063CH   SYMBOL    XDATA    BYTE      V_ucReasult
      0200063DH   SYMBOL    XDATA    ---       V_ucTempBuff
      ---         BLOCKEND  CODE     ---       LVL=1
      ---         BLOCKEND  CODE     ---       LVL=0

      010041F7H   BLOCK     CODE     ---       LVL=0
      010041F7H   LINE      ---      ---       #434
      01004202H   LINE      ---      ---       #435
      0200068EH   SYMBOL    XDATA    ---       p_ucDataBuf
      01004202H   BLOCK     CODE     NEAR LAB  LVL=1
      01004202H   LINE      ---      ---       #436
      01004206H   LINE      ---      ---       #437
      01004218H   LINE      ---      ---       #439
      0100423CH   LINE      ---      ---       #440
      02000691H   SYMBOL    XDATA    BYTE      V_ucLen
      02000692H   SYMBOL    XDATA    ---       V_ucTempBuff
      ---         BLOCKEND  CODE     ---       LVL=1
      ---         BLOCKEND  CODE     ---       LVL=0

      0100424BH   BLOCK     CODE     ---       LVL=0
      0100424BH   LINE      ---      ---       #456
      0100425CH   LINE      ---      ---       #457
      02000639H   SYMBOL    XDATA    BYTE      v_ucComIndex
      0200063AH   SYMBOL    XDATA    BYTE      v_ucLen
      0200063BH   SYMBOL    XDATA    ---       p_ucDataBuf
      0100425CH   BLOCK     CODE     NEAR LAB  LVL=1
      0100425CH   LINE      ---      ---       #458
      0100426FH   LINE      ---      ---       #460
      01004293H   LINE      ---      ---       #462
      0200063EH   SYMBOL    XDATA    ---       V_ucTempBuff
      ---         BLOCKEND  CODE     ---       LVL=1
      ---         BLOCKEND  CODE     ---       LVL=0
LX51 LINKER/LOCATER V4.66.41.0                                                        11/18/2021  18:54:16  PAGE 227



      01004306H   BLOCK     CODE     ---       LVL=0
      01004306H   LINE      ---      ---       #478
      01004306H   LINE      ---      ---       #479
      01004306H   LINE      ---      ---       #480
      00000007H   SYMBOL    DATA     BYTE      v_ucComIndex
      00000005H   SYMBOL    DATA     BYTE      v_ucLen
      00000001H   SYMBOL    DATA     ---       p_ucDataBuf
      ---         BLOCKEND  ---      ---       LVL=0

      0100430EH   BLOCK     CODE     ---       LVL=0
      0100430EH   LINE      ---      ---       #495
      0100430EH   LINE      ---      ---       #496
      0100430EH   LINE      ---      ---       #497
      00000001H   SYMBOL    DATA     ---       p_ucDataBuf
      ---         BLOCKEND  ---      ---       LVL=0

      01002DD3H   BLOCK     CODE     ---       LVL=0
      01002DD3H   LINE      ---      ---       #560
      01002DD3H   LINE      ---      ---       #561
      01002DD3H   LINE      ---      ---       #565
      01002DD7H   LINE      ---      ---       #569
      ---         BLOCKEND  ---      ---       LVL=0

      01002D1EH   BLOCK     CODE     ---       LVL=0
      01002D1EH   LINE      ---      ---       #587
      01002D23H   LINE      ---      ---       #588
      0200060FH   SYMBOL    XDATA    BYTE      v_ucMode
      01002D23H   BLOCK     CODE     NEAR LAB  LVL=1
      01002D23H   LINE      ---      ---       #589
      01002D26H   LINE      ---      ---       #595
      01002D48H   LINE      ---      ---       #597
      01002D48H   LINE      ---      ---       #598
      01002D59H   LINE      ---      ---       #599
      01002D59H   LINE      ---      ---       #600
      01002D5FH   LINE      ---      ---       #601
      01002D5FH   LINE      ---      ---       #604
      01002D61H   LINE      ---      ---       #605
      01002D63H   LINE      ---      ---       #606
      01002D66H   LINE      ---      ---       #607
      01002D66H   LINE      ---      ---       #609
      01002D6BH   LINE      ---      ---       #610
      02000610H   SYMBOL    XDATA    BYTE      V_ucResult
      ---         BLOCKEND  CODE     ---       LVL=1
      ---         BLOCKEND  CODE     ---       LVL=0

      01002DDAH   BLOCK     CODE     ---       LVL=0
      01002DDAH   LINE      ---      ---       #623
      01002DDAH   LINE      ---      ---       #624
      01002DDAH   BLOCK     CODE     NEAR LAB  LVL=1
      01002DDAH   LINE      ---      ---       #625
      01002DE0H   LINE      ---      ---       #626
      01002DF2H   LINE      ---      ---       #627
      01002DF7H   LINE      ---      ---       #629
      01002DFFH   LINE      ---      ---       #631
      01002DFFH   LINE      ---      ---       #633
      01002E0DH   LINE      ---      ---       #634
      01002E0DH   LINE      ---      ---       #635
      01002E0DH   LINE      ---      ---       #636
      01002E0DH   LINE      ---      ---       #638
      01002E10H   LINE      ---      ---       #639
      01002E10H   LINE      ---      ---       #640
      01002E14H   LINE      ---      ---       #641
      01002E17H   LINE      ---      ---       #642
      01002E19H   LINE      ---      ---       #643
LX51 LINKER/LOCATER V4.66.41.0                                                        11/18/2021  18:54:16  PAGE 228


      01002E21H   LINE      ---      ---       #644
      01002E21H   LINE      ---      ---       #645
      01002E26H   LINE      ---      ---       #647
      01002E2FH   LINE      ---      ---       #648
      01002E2FH   LINE      ---      ---       #649
      01002E2FH   LINE      ---      ---       #650
      01002E2FH   LINE      ---      ---       #651
      01002E31H   LINE      ---      ---       #652
      01002E35H   LINE      ---      ---       #653
      01002E35H   LINE      ---      ---       #654
      01002E47H   LINE      ---      ---       #656
      01002E47H   LINE      ---      ---       #657
      01002E49H   LINE      ---      ---       #658
      01002E4FH   LINE      ---      ---       #659
      01002E4FH   LINE      ---      ---       #660
      01002E4FH   LINE      ---      ---       #663
      01002E59H   LINE      ---      ---       #664
      01002E59H   LINE      ---      ---       #665
      01002E59H   LINE      ---      ---       #666
      01002E59H   LINE      ---      ---       #669
      01002E64H   LINE      ---      ---       #670
      01002E64H   LINE      ---      ---       #671
      01002E72H   LINE      ---      ---       #672
      01002E72H   LINE      ---      ---       #673
      01002E98H   LINE      ---      ---       #674
      01002E98H   LINE      ---      ---       #675
      01002EA0H   LINE      ---      ---       #676
      01002EA6H   LINE      ---      ---       #677
      01002EA6H   LINE      ---      ---       #678
      01002EA6H   LINE      ---      ---       #679
      01002EA6H   LINE      ---      ---       #680
      01002EA6H   LINE      ---      ---       #681
      01002EA6H   LINE      ---      ---       #682
      01002EA8H   LINE      ---      ---       #684
      01002EA8H   LINE      ---      ---       #685
      01002EAAH   LINE      ---      ---       #686
      01002EACH   LINE      ---      ---       #687
      01002EAFH   LINE      ---      ---       #688
      01002EAFH   LINE      ---      ---       #689
      01002EAFH   LINE      ---      ---       #690
      0200060FH   SYMBOL    XDATA    BYTE      V_ucBleStatus
      02000610H   SYMBOL    XDATA    ---       p_ucDataBuf
      02000674H   SYMBOL    XDATA    BYTE      i
      ---         BLOCKEND  CODE     ---       LVL=1
      ---         BLOCKEND  CODE     ---       LVL=0

      01004318H   BLOCK     CODE     ---       LVL=0
      01004318H   LINE      ---      ---       #701
      01004318H   LINE      ---      ---       #702
      01004318H   LINE      ---      ---       #703
      01004325H   LINE      ---      ---       #705
      01004325H   LINE      ---      ---       #706
      01004328H   LINE      ---      ---       #707
      01004328H   LINE      ---      ---       #708
      0100432AH   LINE      ---      ---       #709
      ---         BLOCKEND  ---      ---       LVL=0

      01002EB0H   BLOCK     CODE     ---       LVL=0
      01002EB0H   LINE      ---      ---       #721
      01002EB0H   LINE      ---      ---       #722
      01002EB0H   LINE      ---      ---       #725
      01002ECBH   LINE      ---      ---       #730
      01002EE6H   LINE      ---      ---       #734
      01002EEBH   LINE      ---      ---       #735
      01002EEDH   LINE      ---      ---       #736
LX51 LINKER/LOCATER V4.66.41.0                                                        11/18/2021  18:54:16  PAGE 229


      01002EEFH   LINE      ---      ---       #740
      01002EF5H   LINE      ---      ---       #751
      01002EF8H   LINE      ---      ---       #753
      ---         BLOCKEND  ---      ---       LVL=0

      0100274BH   BLOCK     CODE     ---       LVL=0
      0100274BH   LINE      ---      ---       #766
      0100274BH   LINE      ---      ---       #767
      0100274BH   BLOCK     CODE     NEAR LAB  LVL=1
      0100274BH   LINE      ---      ---       #768
      0100275EH   LINE      ---      ---       #774
      01002779H   LINE      ---      ---       #775
      01002793H   LINE      ---      ---       #776
      010027ADH   LINE      ---      ---       #777
      010027B6H   LINE      ---      ---       #779
      010027BEH   LINE      ---      ---       #782
      02000675H   SYMBOL    XDATA    ---       V_ucTempBufA
      ---         BLOCKEND  CODE     ---       LVL=1
      ---         BLOCKEND  CODE     ---       LVL=0

      01002836H   BLOCK     CODE     ---       LVL=0
      01002836H   LINE      ---      ---       #846
      01002847H   LINE      ---      ---       #847
      02000704H   SYMBOL    XDATA    BYTE      v_ucOptIndex
      02000705H   SYMBOL    XDATA    BYTE      C_cBleCmd
      02000706H   SYMBOL    XDATA    ---       p_ucDataBuff
      01002847H   BLOCK     CODE     NEAR LAB  LVL=1
      01002847H   LINE      ---      ---       #848
      0100284DH   LINE      ---      ---       #849
      01002856H   LINE      ---      ---       #850
      01002868H   LINE      ---      ---       #851
      01002876H   LINE      ---      ---       #857
      0100287DH   LINE      ---      ---       #858
      0100287DH   LINE      ---      ---       #859
      0100287FH   LINE      ---      ---       #860
      0100287FH   LINE      ---      ---       #862
      01002885H   LINE      ---      ---       #863
      01002885H   LINE      ---      ---       #864
      01002888H   LINE      ---      ---       #865
      01002888H   LINE      ---      ---       #867
      01002888H   LINE      ---      ---       #869
      01002897H   LINE      ---      ---       #870
      01002897H   LINE      ---      ---       #871
      010028B1H   LINE      ---      ---       #872
      010028B1H   LINE      ---      ---       #873
      010028CCH   LINE      ---      ---       #874
      010028E0H   LINE      ---      ---       #875
      010028E2H   LINE      ---      ---       #876
      010028E2H   LINE      ---      ---       #877
      010028EAH   LINE      ---      ---       #878
      010028F5H   LINE      ---      ---       #879
      010028F5H   LINE      ---      ---       #880
      010028F5H   LINE      ---      ---       #881
      010028F5H   LINE      ---      ---       #884
      010028FAH   LINE      ---      ---       #885
      010028FAH   LINE      ---      ---       #887
      01002903H   LINE      ---      ---       #888
      01002903H   LINE      ---      ---       #889
      01002903H   LINE      ---      ---       #890
      01002903H   LINE      ---      ---       #892
      0100290AH   LINE      ---      ---       #893
      01002911H   LINE      ---      ---       #894
      01002911H   LINE      ---      ---       #895
      01002917H   LINE      ---      ---       #896
      01002917H   LINE      ---      ---       #898
LX51 LINKER/LOCATER V4.66.41.0                                                        11/18/2021  18:54:16  PAGE 230


      0100292AH   LINE      ---      ---       #899
      01002930H   LINE      ---      ---       #900
      01002938H   LINE      ---      ---       #901
      0100293BH   LINE      ---      ---       #902
      0100294DH   LINE      ---      ---       #903
      01002952H   LINE      ---      ---       #904
      01002954H   LINE      ---      ---       #905
      01002958H   LINE      ---      ---       #906
      01002960H   LINE      ---      ---       #907
      01002978H   LINE      ---      ---       #908
      01002990H   LINE      ---      ---       #909
      010029A8H   LINE      ---      ---       #910
      010029B3H   LINE      ---      ---       #911
      010029D9H   LINE      ---      ---       #912
      010029F9H   LINE      ---      ---       #913
      01002A06H   LINE      ---      ---       #915
      01002A0DH   LINE      ---      ---       #918
      01002A12H   LINE      ---      ---       #919
      01002A15H   LINE      ---      ---       #922
      01002A28H   LINE      ---      ---       #923
      01002A28H   LINE      ---      ---       #924
      01002A34H   LINE      ---      ---       #925
      01002A37H   LINE      ---      ---       #926
      01002A37H   LINE      ---      ---       #927
      01002A39H   LINE      ---      ---       #928
      01002A3BH   LINE      ---      ---       #930
      01002A3BH   LINE      ---      ---       #931
      01002A3DH   LINE      ---      ---       #932
      01002A3DH   LINE      ---      ---       #933
      01002A3FH   LINE      ---      ---       #934
      01002A46H   LINE      ---      ---       #935
      01002A46H   LINE      ---      ---       #936
      01002A49H   LINE      ---      ---       #937
      01002A49H   LINE      ---      ---       #938
      01002A4BH   LINE      ---      ---       #939
      01002A4DH   LINE      ---      ---       #940
      01002A4DH   LINE      ---      ---       #941
      01002A4FH   LINE      ---      ---       #942
      01002A6CH   LINE      ---      ---       #943
      01002A7BH   LINE      ---      ---       #944
      01002A7BH   LINE      ---      ---       #945
      01002A7BH   LINE      ---      ---       #946
      01002A7BH   LINE      ---      ---       #947
      01002A83H   LINE      ---      ---       #950
      01002A86H   LINE      ---      ---       #951
      01002A89H   LINE      ---      ---       #953
      01002A8FH   LINE      ---      ---       #956
      01002AA1H   LINE      ---      ---       #957
      01002AA1H   LINE      ---      ---       #958
      01002AB8H   LINE      ---      ---       #959
      01002AB8H   LINE      ---      ---       #960
      01002ABBH   LINE      ---      ---       #961
      01002ABBH   LINE      ---      ---       #962
      01002ABDH   LINE      ---      ---       #963
      01002ACDH   LINE      ---      ---       #965
      01002AD2H   LINE      ---      ---       #966
      01002AD4H   LINE      ---      ---       #967
      01002AD4H   LINE      ---      ---       #968
      01002AE4H   LINE      ---      ---       #969
      01002AEDH   LINE      ---      ---       #970
      01002AEDH   LINE      ---      ---       #971
      01002AEDH   LINE      ---      ---       #972
      01002AEDH   LINE      ---      ---       #973
      01002AF5H   LINE      ---      ---       #974
      01002AFBH   LINE      ---      ---       #975
LX51 LINKER/LOCATER V4.66.41.0                                                        11/18/2021  18:54:16  PAGE 231


      01002AFBH   LINE      ---      ---       #976
      01002AFFH   LINE      ---      ---       #977
      01002B05H   LINE      ---      ---       #978
      01002B05H   LINE      ---      ---       #980
      01002B0BH   LINE      ---      ---       #981
      01002B0BH   LINE      ---      ---       #982
      01002B40H   LINE      ---      ---       #983
      01002B40H   LINE      ---      ---       #987
      01002B4EH   LINE      ---      ---       #988
      01002B4EH   LINE      ---      ---       #991
      01002B53H   LINE      ---      ---       #992
      02000709H   SYMBOL    XDATA    BYTE      V_ucResult
      0200070AH   SYMBOL    XDATA    BYTE      V_ucRxFlg
      0200070BH   SYMBOL    XDATA    BYTE      V_ucCnti
      0200070CH   SYMBOL    XDATA    BYTE      V_ucCntk
      0200070DH   SYMBOL    XDATA    BYTE      V_ucLen
      0200070EH   SYMBOL    XDATA    BYTE      v_ucLen
      0200070FH   SYMBOL    XDATA    ---       V_ucTempDataBuf
      02000773H   SYMBOL    XDATA    ---       P_ucTempDataBuf
      02000776H   SYMBOL    XDATA    BYTE      V_ucIndex
      02000777H   SYMBOL    XDATA    WORD      V_usCntj
      02000779H   SYMBOL    XDATA    DWORD     V_ucDataId
      ---         BLOCKEND  CODE     ---       LVL=1
      ---         BLOCKEND  CODE     ---       LVL=0

      01002CF7H   BLOCK     CODE     ---       LVL=0
      01002CF7H   LINE      ---      ---       #1035
      01002CF7H   LINE      ---      ---       #1036
      01002CF7H   LINE      ---      ---       #1037
      01002D01H   LINE      ---      ---       #1038
      01002D07H   LINE      ---      ---       #1039
      01002D11H   LINE      ---      ---       #1040
      01002D17H   LINE      ---      ---       #1041
      01002D1DH   LINE      ---      ---       #1042
      ---         BLOCKEND  ---      ---       LVL=0

      ---         MODULE    ---      ---       IICDRV
      02000DA7H   PUBLIC    XDATA    BYTE      ?_DrvE2p_ReadData?BYTE
      01001C85H   PUBLIC    CODE     ---       _DrvE2p_ReadData
      02000DB2H   PUBLIC    XDATA    BYTE      ?_DrvE2p_WriteData?BYTE
      010044EDH   PUBLIC    CODE     ---       _DrvE2p_WriteData
      01001E08H   PUBLIC    CODE     ---       _DrvE2p_WRDataTemp
      010044B7H   PUBLIC    CODE     ---       DrvE2p_ChkBusBusy
      01004458H   PUBLIC    CODE     ---       DrvI2C_Init
      000000F3H   SFRSYM    DATA     BYTE      IB_CON2
      000000D8H.3 SFRSYM    DATA     BIT       TB81
      00000080H   SFRSYM    DATA     BYTE      P0
      000000F4H   SFRSYM    DATA     BYTE      IB_CON3
      000000A4H   SFRSYM    DATA     BYTE      TKCON
      00000090H   SFRSYM    DATA     BYTE      P1
      000000F5H   SFRSYM    DATA     BYTE      IB_CON4
      000000E7H   SFRSYM    DATA     BYTE      PASLO
      000000A0H   SFRSYM    DATA     BYTE      P2
      000000FEH   SFRSYM    DATA     BYTE      OSCLO
      000000F6H   SFRSYM    DATA     BYTE      IB_CON5
      00000098H.6 SFRSYM    DATA     BIT       SM1_RXOV
      000000B0H   SFRSYM    DATA     BYTE      P3
      000000D0H.6 SFRSYM    DATA     BIT       AC
      000000C0H   SFRSYM    DATA     BYTE      P4
      000000A1H   SFRSYM    DATA     BYTE      SPCON
      0000009CH   SFRSYM    DATA     BYTE      SBRTH
      000000E9H   SFRSYM    DATA     BYTE      P5
      000000A8H.7 SFRSYM    DATA     BIT       EA
      000000EAH   SFRSYM    DATA     BYTE      P6
      000000EBH   SFRSYM    DATA     BYTE      P7
LX51 LINKER/LOCATER V4.66.41.0                                                        11/18/2021  18:54:16  PAGE 232


      000000EFH   SFRSYM    DATA     BYTE      IB_DATA
      000000ECH   SFRSYM    DATA     BYTE      P8
      0000009DH   SFRSYM    DATA     BYTE      SBRTL
      000000EDH   SFRSYM    DATA     BYTE      P9
      000000B7H   SFRSYM    DATA     BYTE      PBANKLO
      000000A2H   SFRSYM    DATA     BYTE      SPSTA
      000000A8H   SFRSYM    DATA     BYTE      IEN0
      000000B3H   SFRSYM    DATA     BYTE      PWRCON1
      00000095H   SFRSYM    DATA     BYTE      EMUSR
      000000A9H   SFRSYM    DATA     BYTE      IEN1
      000000B4H   SFRSYM    DATA     BYTE      PWRCON2
      00000085H   SFRSYM    DATA     BYTE      DPH1
      00000080H   SFRSYM    DATA     BIT       P0_0
      00000090H   SFRSYM    DATA     BIT       P1_0
      00000080H.1 SFRSYM    DATA     BIT       P0_1
      000000C3H   SFRSYM    DATA     BYTE      ADCH
      000000A0H   SFRSYM    DATA     BIT       P2_0
      00000090H.1 SFRSYM    DATA     BIT       P1_1
      00000080H.2 SFRSYM    DATA     BIT       P0_2
      000000BAH   SFRSYM    DATA     BYTE      IPH0
      00000084H   SFRSYM    DATA     BYTE      DPL1
      000000B0H   SFRSYM    DATA     BIT       P3_0
      000000A0H.1 SFRSYM    DATA     BIT       P2_1
      00000090H.2 SFRSYM    DATA     BIT       P1_2
      00000080H.3 SFRSYM    DATA     BIT       P0_3
      000000BBH   SFRSYM    DATA     BYTE      IPH1
      000000C0H   SFRSYM    DATA     BIT       P4_0
      000000B0H.1 SFRSYM    DATA     BIT       P3_1
      000000A0H.2 SFRSYM    DATA     BIT       P2_2
      00000090H.3 SFRSYM    DATA     BIT       P1_3
      00000080H.4 SFRSYM    DATA     BIT       P0_4
      000000E8H   SFRSYM    DATA     BYTE      EXF0
      000000C0H.1 SFRSYM    DATA     BIT       P4_1
      000000B0H.2 SFRSYM    DATA     BIT       P3_2
      000000A0H.3 SFRSYM    DATA     BIT       P2_3
      00000090H.4 SFRSYM    DATA     BIT       P1_4
      00000080H.5 SFRSYM    DATA     BIT       P0_5
      000000C0H.2 SFRSYM    DATA     BIT       P4_2
      000000B0H.3 SFRSYM    DATA     BIT       P3_3
      000000A0H.4 SFRSYM    DATA     BIT       P2_4
      00000090H.5 SFRSYM    DATA     BIT       P1_5
      00000080H.6 SFRSYM    DATA     BIT       P0_6
      000000C8H.6 SFRSYM    DATA     BIT       EXF2
      000000A6H   SFRSYM    DATA     BYTE      TKF0
      000000B8H   SFRSYM    DATA     BYTE      IPL0
      000000C0H.3 SFRSYM    DATA     BIT       P4_3
      000000B0H.4 SFRSYM    DATA     BIT       P3_4
      000000A0H.5 SFRSYM    DATA     BIT       P2_5
      00000090H.6 SFRSYM    DATA     BIT       P1_6
      00000080H.7 SFRSYM    DATA     BIT       P0_7
      000000D8H.4 SFRSYM    DATA     BIT       REN1
      000000B9H   SFRSYM    DATA     BYTE      IPL1
      000000C0H.4 SFRSYM    DATA     BIT       P4_4
      000000B0H.5 SFRSYM    DATA     BIT       P3_5
      000000A0H.6 SFRSYM    DATA     BIT       P2_6
      00000090H.7 SFRSYM    DATA     BIT       P1_7
      000000E2H   SFRSYM    DATA     BYTE      TK0H
      0000008EH   SFRSYM    DATA     BYTE      SUSLO
      000000C0H.5 SFRSYM    DATA     BIT       P4_5
      000000B0H.6 SFRSYM    DATA     BIT       P3_6
      000000A0H.7 SFRSYM    DATA     BIT       P2_7
      000000E4H   SFRSYM    DATA     BYTE      TK1H
      000000C0H.6 SFRSYM    DATA     BIT       P4_6
      000000B0H.7 SFRSYM    DATA     BIT       P3_7
      000000E6H   SFRSYM    DATA     BYTE      TK2H
LX51 LINKER/LOCATER V4.66.41.0                                                        11/18/2021  18:54:16  PAGE 233


      000000C0H.7 SFRSYM    DATA     BIT       P4_7
      00000098H   SFRSYM    DATA     BIT       RI
      000000A8H.2 SFRSYM    DATA     BIT       E7816
      000000D0H.7 SFRSYM    DATA     BIT       CY
      000000E1H   SFRSYM    DATA     BYTE      TK0L
      00000098H.1 SFRSYM    DATA     BIT       TI
      00000091H   SFRSYM    DATA     BYTE      EADR
      000000E3H   SFRSYM    DATA     BYTE      TK1L
      000000E5H   SFRSYM    DATA     BYTE      TK2L
      000000DBH   SFRSYM    DATA     BYTE      SADEN1
      000000D8H.7 SFRSYM    DATA     BIT       SM10_FE1
      000000FBH   SFRSYM    DATA     BYTE      SADEN2
      000000B8H.4 SFRSYM    DATA     BIT       PS0L
      000000B8H.1 SFRSYM    DATA     BIT       PT0L
      000000DAH   SFRSYM    DATA     BYTE      SADDR1
      000000D8H.5 SFRSYM    DATA     BIT       SM12_TXCOL1
      000000B8H.3 SFRSYM    DATA     BIT       PT1L
      000000FAH   SFRSYM    DATA     BYTE      SADDR2
      000000CBH   SFRSYM    DATA     BYTE      RCAP2H
      000000B8H.5 SFRSYM    DATA     BIT       PT2L
      00000081H   SFRSYM    DATA     BYTE      SP
      000000D0H.2 SFRSYM    DATA     BIT       OV
      000000CAH   SFRSYM    DATA     BYTE      RCAP2L
      000000B8H   SFRSYM    DATA     BIT       PX4L
      000000C8H.1 SFRSYM    DATA     BIT       C_T2
      000000DEH   SFRSYM    DATA     BYTE      SFINE2
      000000ADH   SFRSYM    DATA     BYTE      IRCON1
      000000AFH   SFRSYM    DATA     BYTE      IRCON2
      000000ABH   SFRSYM    DATA     BYTE      EXCON1
      00000099H   SFRSYM    DATA     BYTE      SBUF
      000000ACH   SFRSYM    DATA     BYTE      EXCON2
      00000087H   SFRSYM    DATA     BYTE      PCON
      000000F1H   SFRSYM    DATA     BYTE      AUXC
      00000098H   SFRSYM    DATA     BYTE      SCON
      000000D4H   SFRSYM    DATA     BYTE      TK0BASEH
      00000089H   SFRSYM    DATA     BYTE      TMOD
      00000088H   SFRSYM    DATA     BYTE      TCON
      000000AAH   SFRSYM    DATA     BYTE      IENX
      000000EEH   SFRSYM    DATA     BYTE      IB_OFFSET
      000000D6H   SFRSYM    DATA     BYTE      TK1BASEH
      000000DCH   SFRSYM    DATA     BYTE      SBRT1H
      000000DFH   SFRSYM    DATA     BYTE      TK2BASEH
      000000FCH   SFRSYM    DATA     BYTE      SBRT2H
      000000B1H   SFRSYM    DATA     BYTE      RSTSTAT
      000000D3H   SFRSYM    DATA     BYTE      TK0BASEL
      000000D5H   SFRSYM    DATA     BYTE      TK1BASEL
      000000DDH   SFRSYM    DATA     BYTE      SBRT1L
      000000D7H   SFRSYM    DATA     BYTE      TK2BASEL
      000000FDH   SFRSYM    DATA     BYTE      SBRT2L
      00000098H.7 SFRSYM    DATA     BIT       SM0_FE
      000000B2H   SFRSYM    DATA     BYTE      CLKCON
      00000098H.5 SFRSYM    DATA     BIT       SM2_TXCOL
      000000B5H   SFRSYM    DATA     BYTE      LDOCON
      000000F0H   SFRSYM    DATA     BYTE      B
      000000C8H   SFRSYM    DATA     BIT       CP_RL2
      000000E0H   SFRSYM    DATA     BYTE      ACC
      000000A8H.4 SFRSYM    DATA     BIT       ES0
      000000A8H.1 SFRSYM    DATA     BIT       ET0
      000000A8H.3 SFRSYM    DATA     BIT       ET1
      00000088H.5 SFRSYM    DATA     BIT       TF0
      000000A8H.5 SFRSYM    DATA     BIT       ET2
      00000088H.7 SFRSYM    DATA     BIT       TF1
      000000D8H   SFRSYM    DATA     BIT       RI1
      00000098H.2 SFRSYM    DATA     BIT       RB8
      000000C8H.7 SFRSYM    DATA     BIT       TF2
LX51 LINKER/LOCATER V4.66.41.0                                                        11/18/2021  18:54:16  PAGE 234


      0000008CH   SFRSYM    DATA     BYTE      TH0
      00000086H   SFRSYM    DATA     BYTE      INSCON
      0000008DH   SFRSYM    DATA     BYTE      TH1
      000000D8H.1 SFRSYM    DATA     BIT       TI1
      00000098H.3 SFRSYM    DATA     BIT       TB8
      000000CDH   SFRSYM    DATA     BYTE      TH2
      000000D0H   SFRSYM    DATA     BIT       P
      0000008AH   SFRSYM    DATA     BYTE      TL0
      000000A8H   SFRSYM    DATA     BIT       EX4
      0000008BH   SFRSYM    DATA     BYTE      TL1
      000000A7H   SFRSYM    DATA     BYTE      FLASHCON
      000000CCH   SFRSYM    DATA     BYTE      TL2
      000000D0H.3 SFRSYM    DATA     BIT       RS0
      000000C5H   SFRSYM    DATA     BYTE      ADCDH
      00000088H.4 SFRSYM    DATA     BIT       TR0
      000000D0H.4 SFRSYM    DATA     BIT       RS1
      0000009FH   SFRSYM    DATA     BYTE      PWMCON
      00000088H.6 SFRSYM    DATA     BIT       TR1
      000000C8H.2 SFRSYM    DATA     BIT       TR2
      000000C4H   SFRSYM    DATA     BYTE      ADCDL
      000000C2H   SFRSYM    DATA     BYTE      ADT
      00000083H   SFRSYM    DATA     BYTE      DPH
      00000082H   SFRSYM    DATA     BYTE      DPL
      000000D9H   SFRSYM    DATA     BYTE      SBUF1
      000000C8H.3 SFRSYM    DATA     BIT       EXEN2
      000000F9H   SFRSYM    DATA     BYTE      SBUF2
      000000D8H.6 SFRSYM    DATA     BIT       SM11_RXOV1
      000000B8H.6 SFRSYM    DATA     BIT       PADCL
      00000098H.4 SFRSYM    DATA     BIT       REN
      000000D8H   SFRSYM    DATA     BYTE      SCON1
      000000D1H   SFRSYM    DATA     BYTE      LCDCON1
      000000C1H   SFRSYM    DATA     BYTE      ADCON
      000000F8H   SFRSYM    DATA     BYTE      SCON2
      0000008FH   SFRSYM    DATA     BYTE      TCON1
      000000D2H   SFRSYM    DATA     BYTE      LCDCON2
      00000092H   SFRSYM    DATA     BYTE      EDTAH
      000000C9H   SFRSYM    DATA     BYTE      T2MOD
      000000C8H   SFRSYM    DATA     BYTE      T2CON
      00000094H   SFRSYM    DATA     BYTE      EDTAL
      00000093H   SFRSYM    DATA     BYTE      EDTAM
      000000BCH   SFRSYM    DATA     BYTE      TK0DIFH
      0000009BH   SFRSYM    DATA     BYTE      SADEN
      000000BEH   SFRSYM    DATA     BYTE      TK1DIFH
      000000B6H   SFRSYM    DATA     BYTE      PBANK
      000000A5H   SFRSYM    DATA     BYTE      TK2DIFH
      000000A8H.6 SFRSYM    DATA     BIT       EADTP
      0000009AH   SFRSYM    DATA     BYTE      SADDR
      000000CFH   SFRSYM    DATA     BYTE      TK0DIFL
      000000BDH   SFRSYM    DATA     BYTE      TK1DIFL
      000000BFH   SFRSYM    DATA     BYTE      TK2DIFL
      000000B8H.2 SFRSYM    DATA     BIT       P7816L
      000000C6H   SFRSYM    DATA     BYTE      LPDCON1
      000000C7H   SFRSYM    DATA     BYTE      LPDCON2
      000000D0H.5 SFRSYM    DATA     BIT       F0
      000000AEH   SFRSYM    DATA     BYTE      IRDAT
      000000D0H.1 SFRSYM    DATA     BIT       F1
      00000096H   SFRSYM    DATA     BYTE      EMUIE
      0000009EH   SFRSYM    DATA     BYTE      SFINE
      000000F7H   SFRSYM    DATA     BYTE      XPAGE
      00000097H   SFRSYM    DATA     BYTE      EMUIF
      000000D0H   SFRSYM    DATA     BYTE      PSW
      000000D8H.2 SFRSYM    DATA     BIT       RB81
      000000A3H   SFRSYM    DATA     BYTE      SPDAT
      000000F2H   SFRSYM    DATA     BYTE      IB_CON1
      01004332H   SYMBOL    CODE     ---       DrvE2p_ReadOneByteNoAck
LX51 LINKER/LOCATER V4.66.41.0                                                        11/18/2021  18:54:16  PAGE 235


      01000006H   SYMBOL    CODE     ---       DrvE2p_I2CDelay_2us
      0100432BH   SYMBOL    CODE     ---       DrvE2p_I2CDelay_3us
      010000ECH   SYMBOL    CODE     ---       DrvE2p_I2CDelay_5us
      01001E08H   SYMBOL    CODE     ---       _DrvE2p_WRDataTemp
      01001F4EH   SYMBOL    CODE     ---       _DrvE2p_WriteOneByte
      010043BEH   SYMBOL    CODE     ---       DrvE2p_ReadOneByteAck
      01004486H   SYMBOL    CODE     ---       DrvE2p_I2CStart
      01001D9FH   SYMBOL    CODE     ---       DrvE2p_I2CStop
      010044B7H   SYMBOL    CODE     ---       DrvE2p_ChkBusBusy

      010000ECH   BLOCK     CODE     ---       LVL=0
      010000ECH   LINE      ---      ---       #140
      010000ECH   LINE      ---      ---       #141
      010000ECH   BLOCK     CODE     NEAR LAB  LVL=1
      010000ECH   LINE      ---      ---       #142
      010000F2H   LINE      ---      ---       #143
      010000FCH   LINE      ---      ---       #144
      010000FCH   LINE      ---      ---       #145
      010000FCH   LINE      ---      ---       #146
      02000DD4H   SYMBOL    XDATA    BYTE      i
      ---         BLOCKEND  CODE     ---       LVL=1
      ---         BLOCKEND  CODE     ---       LVL=0

      0100432BH   BLOCK     CODE     ---       LVL=0
      0100432BH   LINE      ---      ---       #148
      0100432BH   LINE      ---      ---       #149
      0100432BH   BLOCK     CODE     NEAR LAB  LVL=1
      0100432BH   LINE      ---      ---       #150
      01004331H   LINE      ---      ---       #156
      02000DD5H   SYMBOL    XDATA    BYTE      i
      ---         BLOCKEND  CODE     ---       LVL=1
      ---         BLOCKEND  CODE     ---       LVL=0

      01000006H   BLOCK     CODE     ---       LVL=0
      01000006H   LINE      ---      ---       #158
      01000006H   LINE      ---      ---       #159
      01000006H   LINE      ---      ---       #161
      ---         BLOCKEND  ---      ---       LVL=0

      01004458H   BLOCK     CODE     ---       LVL=0
      01004458H   LINE      ---      ---       #165
      01004458H   LINE      ---      ---       #166
      01004458H   LINE      ---      ---       #167
      01004466H   LINE      ---      ---       #168
      01004474H   LINE      ---      ---       #169
      01004482H   LINE      ---      ---       #170
      01004485H   LINE      ---      ---       #171
      ---         BLOCKEND  ---      ---       LVL=0

      010044B7H   BLOCK     CODE     ---       LVL=0
      010044B7H   LINE      ---      ---       #179
      010044B7H   LINE      ---      ---       #180
      010044B7H   BLOCK     CODE     NEAR LAB  LVL=1
      010044B7H   LINE      ---      ---       #182
      010044BDH   LINE      ---      ---       #184
      010044D1H   LINE      ---      ---       #185
      010044D1H   LINE      ---      ---       #186
      010044D3H   LINE      ---      ---       #187
      010044DBH   LINE      ---      ---       #188
      010044DBH   LINE      ---      ---       #189
      010044DEH   LINE      ---      ---       #190
      010044DEH   LINE      ---      ---       #191
      010044DEH   LINE      ---      ---       #192
      010044E6H   LINE      ---      ---       #193
      02000DCDH   SYMBOL    XDATA    BYTE      v_ucCnt
LX51 LINKER/LOCATER V4.66.41.0                                                        11/18/2021  18:54:16  PAGE 236


      02000DCEH   SYMBOL    XDATA    BYTE      v_ucCst
      ---         BLOCKEND  CODE     ---       LVL=1
      ---         BLOCKEND  CODE     ---       LVL=0

      01004486H   BLOCK     CODE     ---       LVL=0
      01004486H   LINE      ---      ---       #202
      01004486H   LINE      ---      ---       #203
      01004486H   LINE      ---      ---       #204
      01004488H   LINE      ---      ---       #206
      01004496H   LINE      ---      ---       #207
      01004499H   LINE      ---      ---       #208
      010044A7H   LINE      ---      ---       #209
      010044AAH   LINE      ---      ---       #210
      010044ADH   LINE      ---      ---       #211
      010044B0H   LINE      ---      ---       #212
      010044B3H   LINE      ---      ---       #213
      010044B6H   LINE      ---      ---       #214
      ---         BLOCKEND  ---      ---       LVL=0

      01001D9FH   BLOCK     CODE     ---       LVL=0
      01001D9FH   LINE      ---      ---       #222
      01001D9FH   LINE      ---      ---       #223
      01001D9FH   BLOCK     CODE     NEAR LAB  LVL=1
      01001D9FH   LINE      ---      ---       #224
      01001DA4H   LINE      ---      ---       #226
      01001DB2H   LINE      ---      ---       #228
      01001DC3H   LINE      ---      ---       #229
      01001DC3H   LINE      ---      ---       #231
      01001DC8H   LINE      ---      ---       #232
      01001DC8H   LINE      ---      ---       #233
      01001DC8H   LINE      ---      ---       #234
      01001DC8H   LINE      ---      ---       #235
      01001DCBH   LINE      ---      ---       #236
      01001DCEH   LINE      ---      ---       #237
      01001DD1H   LINE      ---      ---       #238
      01001DD9H   LINE      ---      ---       #239
      01001DE7H   LINE      ---      ---       #240
      01001DF5H   LINE      ---      ---       #241
      01001DF8H   LINE      ---      ---       #242
      01001DFBH   LINE      ---      ---       #243
      01001DFEH   LINE      ---      ---       #244
      01001E01H   LINE      ---      ---       #245
      01001E04H   LINE      ---      ---       #246
      01001E07H   LINE      ---      ---       #247
      02000DD6H   SYMBOL    XDATA    BYTE      V_Couter
      ---         BLOCKEND  CODE     ---       LVL=1
      ---         BLOCKEND  CODE     ---       LVL=0

      010043BEH   BLOCK     CODE     ---       LVL=0
      010043BEH   LINE      ---      ---       #256
      010043BEH   LINE      ---      ---       #257
      010043BEH   BLOCK     CODE     NEAR LAB  LVL=1
      010043BEH   LINE      ---      ---       #258
      010043C3H   LINE      ---      ---       #259
      010043C9H   LINE      ---      ---       #261
      010043D7H   LINE      ---      ---       #262
      010043E5H   LINE      ---      ---       #263
      010043E8H   LINE      ---      ---       #265
      010043F8H   LINE      ---      ---       #266
      010043F8H   LINE      ---      ---       #267
      010043FAH   LINE      ---      ---       #268
      01004408H   LINE      ---      ---       #269
      0100440BH   LINE      ---      ---       #270
      01004410H   LINE      ---      ---       #271
      01004410H   LINE      ---      ---       #272
LX51 LINKER/LOCATER V4.66.41.0                                                        11/18/2021  18:54:16  PAGE 237


      0100441EH   LINE      ---      ---       #273
      0100441EH   LINE      ---      ---       #274
      01004420H   LINE      ---      ---       #275
      0100442AH   LINE      ---      ---       #276
      0100442DH   LINE      ---      ---       #277
      01004435H   LINE      ---      ---       #279
      01004443H   LINE      ---      ---       #280
      01004446H   LINE      ---      ---       #281
      01004449H   LINE      ---      ---       #282
      0100444CH   LINE      ---      ---       #283
      0100444FH   LINE      ---      ---       #284
      01004452H   LINE      ---      ---       #286
      01004457H   LINE      ---      ---       #287
      02000DCFH   SYMBOL    XDATA    BYTE      V_ucResult
      02000DD0H   SYMBOL    XDATA    BYTE      V_ucCnt_i
      ---         BLOCKEND  CODE     ---       LVL=1
      ---         BLOCKEND  CODE     ---       LVL=0

      01004332H   BLOCK     CODE     ---       LVL=0
      01004332H   LINE      ---      ---       #295
      01004332H   LINE      ---      ---       #296
      01004332H   BLOCK     CODE     NEAR LAB  LVL=1
      01004332H   LINE      ---      ---       #297
      01004337H   LINE      ---      ---       #298
      0100433CH   LINE      ---      ---       #300
      0100434AH   LINE      ---      ---       #301
      01004358H   LINE      ---      ---       #302
      0100435BH   LINE      ---      ---       #304
      0100436BH   LINE      ---      ---       #305
      0100436BH   LINE      ---      ---       #306
      0100436DH   LINE      ---      ---       #307
      0100437BH   LINE      ---      ---       #308
      0100437EH   LINE      ---      ---       #310
      01004383H   LINE      ---      ---       #311
      01004383H   LINE      ---      ---       #312
      01004391H   LINE      ---      ---       #313
      01004391H   LINE      ---      ---       #314
      01004393H   LINE      ---      ---       #315
      01004396H   LINE      ---      ---       #316
      0100439EH   LINE      ---      ---       #317
      010043ACH   LINE      ---      ---       #318
      010043AFH   LINE      ---      ---       #319
      010043B2H   LINE      ---      ---       #320
      010043B5H   LINE      ---      ---       #321
      010043B8H   LINE      ---      ---       #323
      010043BDH   LINE      ---      ---       #324
      02000DD1H   SYMBOL    XDATA    BYTE      V_ucResult
      02000DD2H   SYMBOL    XDATA    BYTE      V_ucCnt_i
      ---         BLOCKEND  CODE     ---       LVL=1
      ---         BLOCKEND  CODE     ---       LVL=0

      01001F4EH   BLOCK     CODE     ---       LVL=0
      01001F4EH   LINE      ---      ---       #333
      01001F53H   LINE      ---      ---       #334
      02000DC8H   SYMBOL    XDATA    BYTE      v_ucData
      01001F53H   BLOCK     CODE     NEAR LAB  LVL=1
      01001F53H   LINE      ---      ---       #335
      01001F58H   LINE      ---      ---       #336
      01001F5DH   LINE      ---      ---       #338
      01001F6BH   LINE      ---      ---       #339
      01001F6EH   LINE      ---      ---       #340
      01001F7CH   LINE      ---      ---       #342
      01001F8CH   LINE      ---      ---       #343
      01001F8CH   LINE      ---      ---       #344
      01001F95H   LINE      ---      ---       #345
LX51 LINKER/LOCATER V4.66.41.0                                                        11/18/2021  18:54:16  PAGE 238


      01001F95H   LINE      ---      ---       #346
      01001F98H   LINE      ---      ---       #347
      01001F9AH   LINE      ---      ---       #349
      01001F9AH   LINE      ---      ---       #350
      01001F9DH   LINE      ---      ---       #351
      01001F9DH   LINE      ---      ---       #353
      01001FA0H   LINE      ---      ---       #354
      01001FAEH   LINE      ---      ---       #355
      01001FB1H   LINE      ---      ---       #356
      01001FB4H   LINE      ---      ---       #357
      01001FBCH   LINE      ---      ---       #358
      01001FBFH   LINE      ---      ---       #359
      01001FCDH   LINE      ---      ---       #360
      01001FD0H   LINE      ---      ---       #362
      01001FD3H   LINE      ---      ---       #364
      01001FD8H   LINE      ---      ---       #365
      01001FD8H   LINE      ---      ---       #366
      01001FDEH   LINE      ---      ---       #367
      01001FDEH   LINE      ---      ---       #368
      01001FE1H   LINE      ---      ---       #369
      01001FE6H   LINE      ---      ---       #370
      02000DC9H   SYMBOL    XDATA    BYTE      V_ucOprResult
      02000DCAH   SYMBOL    XDATA    BYTE      V_ucCnt_i
      ---         BLOCKEND  CODE     ---       LVL=1
      ---         BLOCKEND  CODE     ---       LVL=0

      01001E08H   BLOCK     CODE     ---       LVL=0
      01001E08H   LINE      ---      ---       #382
      01001E1BH   LINE      ---      ---       #383
      02000D9BH   SYMBOL    XDATA    WORD      v_usAddress
      02000D9DH   SYMBOL    XDATA    ---       p_ucDatabuf
      02000DA0H   SYMBOL    XDATA    BYTE      v_ucLen
      01001E1BH   BLOCK     CODE     NEAR LAB  LVL=1
      01001E1BH   LINE      ---      ---       #386
      01001E20H   LINE      ---      ---       #388
      01001E33H   LINE      ---      ---       #389
      01001E33H   LINE      ---      ---       #390
      01001E36H   LINE      ---      ---       #391
      01001E36H   LINE      ---      ---       #392
      01001E47H   LINE      ---      ---       #393
      01001E47H   LINE      ---      ---       #394
      01001E4AH   LINE      ---      ---       #395
      01001E4AH   LINE      ---      ---       #396
      01001E7BH   LINE      ---      ---       #397
      01001E7BH   LINE      ---      ---       #398
      01001E7EH   LINE      ---      ---       #400
      01001EA2H   LINE      ---      ---       #401
      01001EB9H   LINE      ---      ---       #403
      01001EC3H   LINE      ---      ---       #404
      01001EC3H   LINE      ---      ---       #405
      01001EC8H   LINE      ---      ---       #406
      01001EC8H   LINE      ---      ---       #408
      01001ED5H   LINE      ---      ---       #409
      01001ED5H   LINE      ---      ---       #410
      01001EDAH   LINE      ---      ---       #411
      01001EDAH   LINE      ---      ---       #412
      01001EF0H   LINE      ---      ---       #413
      01001F0EH   LINE      ---      ---       #414
      01001F0EH   LINE      ---      ---       #415
      01001F22H   LINE      ---      ---       #416
      01001F22H   LINE      ---      ---       #417
      01001F24H   LINE      ---      ---       #418
      01001F27H   LINE      ---      ---       #419
      01001F27H   LINE      ---      ---       #420
      01001F31H   LINE      ---      ---       #421
LX51 LINKER/LOCATER V4.66.41.0                                                        11/18/2021  18:54:16  PAGE 239


      01001F41H   LINE      ---      ---       #422
      01001F43H   LINE      ---      ---       #423
      01001F46H   LINE      ---      ---       #424
      01001F48H   LINE      ---      ---       #427
      01001F48H   LINE      ---      ---       #428
      01001F4BH   LINE      ---      ---       #429
      01001F4BH   LINE      ---      ---       #431
      01001F4DH   LINE      ---      ---       #432
      02000DA1H   SYMBOL    XDATA    WORD      i
      02000DA3H   SYMBOL    XDATA    ---       j
      02000DA6H   SYMBOL    XDATA    BYTE      Temp
      ---         BLOCKEND  CODE     ---       LVL=1
      ---         BLOCKEND  CODE     ---       LVL=0

      010044E7H   BLOCK     CODE     ---       LVL=0
      010044EDH   LINE      ---      ---       #444
      01004500H   LINE      ---      ---       #445
      02000DB2H   SYMBOL    XDATA    WORD      v_usAddress
      02000DB4H   SYMBOL    XDATA    ---       p_ucDatabuf
      02000DB7H   SYMBOL    XDATA    BYTE      v_ucLen
      01004500H   BLOCK     CODE     NEAR LAB  LVL=1
      01004500H   LINE      ---      ---       #452
      01004510H   LINE      ---      ---       #453
      01004526H   LINE      ---      ---       #454
      0100452BH   LINE      ---      ---       #455
      0100453AH   LINE      ---      ---       #456
      0100453AH   LINE      ---      ---       #457
      01004544H   LINE      ---      ---       #458
      01004544H   LINE      ---      ---       #461
      01004544H   LINE      ---      ---       #462
      01004575H   LINE      ---      ---       #463
      01004575H   LINE      ---      ---       #464
      01004578H   LINE      ---      ---       #465
      01004578H   LINE      ---      ---       #467
      01004583H   LINE      ---      ---       #468
      010045A0H   LINE      ---      ---       #469
      010045B3H   LINE      ---      ---       #470
      010045BEH   LINE      ---      ---       #471
      010045BEH   LINE      ---      ---       #472
      010045C4H   LINE      ---      ---       #473
      010045C4H   LINE      ---      ---       #475
      010045CEH   LINE      ---      ---       #521
      010045D0H   LINE      ---      ---       #522
      02000DB8H   SYMBOL    XDATA    WORD      V_usEEAdr
      02000DBAH   SYMBOL    XDATA    BYTE      V_ucDataLen
      02000DBBH   SYMBOL    XDATA    BYTE      V_ucCnti
      ---         BLOCKEND  CODE     ---       LVL=1
      ---         BLOCKEND  CODE     ---       LVL=0

      01001C85H   BLOCK     CODE     ---       LVL=0
      01001C85H   LINE      ---      ---       #530
      01001C98H   LINE      ---      ---       #531
      02000DA7H   SYMBOL    XDATA    WORD      v_usAddress
      02000DA9H   SYMBOL    XDATA    ---       p_ucDatabuf
      02000DACH   SYMBOL    XDATA    BYTE      v_ucLen
      01001C98H   BLOCK     CODE     NEAR LAB  LVL=1
      01001C98H   LINE      ---      ---       #532
      01001C9DH   LINE      ---      ---       #536
      01001CA5H   LINE      ---      ---       #537
      01001CA5H   LINE      ---      ---       #538
      01001CA8H   LINE      ---      ---       #539
      01001CA8H   LINE      ---      ---       #541
      01001CC6H   LINE      ---      ---       #542
      01001CC6H   LINE      ---      ---       #543
      01001CC9H   LINE      ---      ---       #544
LX51 LINKER/LOCATER V4.66.41.0                                                        11/18/2021  18:54:16  PAGE 240


      01001CC9H   LINE      ---      ---       #546
      01001CDEH   LINE      ---      ---       #548
      01001CECH   LINE      ---      ---       #550
      01001CEFH   LINE      ---      ---       #552
      01001CFDH   LINE      ---      ---       #553
      01001D02H   LINE      ---      ---       #556
      01001D0FH   LINE      ---      ---       #557
      01001D14H   LINE      ---      ---       #559
      01001D17H   LINE      ---      ---       #561
      01001D25H   LINE      ---      ---       #562
      01001D2AH   LINE      ---      ---       #564
      01001D40H   LINE      ---      ---       #566
      01001D57H   LINE      ---      ---       #567
      01001D57H   LINE      ---      ---       #568
      01001D73H   LINE      ---      ---       #569
      01001D7BH   LINE      ---      ---       #570
      01001D97H   LINE      ---      ---       #572
      01001D99H   LINE      ---      ---       #574
      01001D9EH   LINE      ---      ---       #575
      02000DADH   SYMBOL    XDATA    BYTE      V_ucOprResult
      02000DAEH   SYMBOL    XDATA    BYTE      V_ucCnt
      02000DAFH   SYMBOL    XDATA    ---       P_ucTempData
      ---         BLOCKEND  CODE     ---       LVL=1
      ---         BLOCKEND  CODE     ---       LVL=0

      ---         MODULE    ---      ---       INTERNALE2DRV
      010047ABH   PUBLIC    CODE     ---       _Hal_EraseFlashSector
      0200098BH   PUBLIC    XDATA    BYTE      ?_Hal_ReadEEPROM?BYTE
      01004715H   PUBLIC    CODE     ---       _Hal_ReadEEPROM
      010046DFH   PUBLIC    CODE     ---       _Hal_ReadFlash_byte
      0200098BH   PUBLIC    XDATA    BYTE      ?_Hal_WriteEEPROM?BYTE
      0100463CH   PUBLIC    CODE     ---       _Hal_WriteEEPROM
      010045D1H   PUBLIC    CODE     ---       _Hal_WriteFlash_byte
      000000F3H   SFRSYM    DATA     BYTE      IB_CON2
      000000D8H.3 SFRSYM    DATA     BIT       TB81
      00000080H   SFRSYM    DATA     BYTE      P0
      000000F4H   SFRSYM    DATA     BYTE      IB_CON3
      000000A4H   SFRSYM    DATA     BYTE      TKCON
      00000090H   SFRSYM    DATA     BYTE      P1
      000000F5H   SFRSYM    DATA     BYTE      IB_CON4
      000000E7H   SFRSYM    DATA     BYTE      PASLO
      000000A0H   SFRSYM    DATA     BYTE      P2
      000000FEH   SFRSYM    DATA     BYTE      OSCLO
      000000F6H   SFRSYM    DATA     BYTE      IB_CON5
      00000098H.6 SFRSYM    DATA     BIT       SM1_RXOV
      000000B0H   SFRSYM    DATA     BYTE      P3
      000000D0H.6 SFRSYM    DATA     BIT       AC
      000000C0H   SFRSYM    DATA     BYTE      P4
      000000A1H   SFRSYM    DATA     BYTE      SPCON
      0000009CH   SFRSYM    DATA     BYTE      SBRTH
      000000E9H   SFRSYM    DATA     BYTE      P5
      000000A8H.7 SFRSYM    DATA     BIT       EA
      000000EAH   SFRSYM    DATA     BYTE      P6
      000000EBH   SFRSYM    DATA     BYTE      P7
      000000EFH   SFRSYM    DATA     BYTE      IB_DATA
      000000ECH   SFRSYM    DATA     BYTE      P8
      0000009DH   SFRSYM    DATA     BYTE      SBRTL
      000000EDH   SFRSYM    DATA     BYTE      P9
      000000B7H   SFRSYM    DATA     BYTE      PBANKLO
      000000A2H   SFRSYM    DATA     BYTE      SPSTA
      000000A8H   SFRSYM    DATA     BYTE      IEN0
      000000B3H   SFRSYM    DATA     BYTE      PWRCON1
      00000095H   SFRSYM    DATA     BYTE      EMUSR
      000000A9H   SFRSYM    DATA     BYTE      IEN1
      000000B4H   SFRSYM    DATA     BYTE      PWRCON2
LX51 LINKER/LOCATER V4.66.41.0                                                        11/18/2021  18:54:16  PAGE 241


      00000085H   SFRSYM    DATA     BYTE      DPH1
      00000080H   SFRSYM    DATA     BIT       P0_0
      00000090H   SFRSYM    DATA     BIT       P1_0
      00000080H.1 SFRSYM    DATA     BIT       P0_1
      000000C3H   SFRSYM    DATA     BYTE      ADCH
      000000A0H   SFRSYM    DATA     BIT       P2_0
      00000090H.1 SFRSYM    DATA     BIT       P1_1
      00000080H.2 SFRSYM    DATA     BIT       P0_2
      000000BAH   SFRSYM    DATA     BYTE      IPH0
      00000084H   SFRSYM    DATA     BYTE      DPL1
      000000B0H   SFRSYM    DATA     BIT       P3_0
      000000A0H.1 SFRSYM    DATA     BIT       P2_1
      00000090H.2 SFRSYM    DATA     BIT       P1_2
      00000080H.3 SFRSYM    DATA     BIT       P0_3
      000000BBH   SFRSYM    DATA     BYTE      IPH1
      000000C0H   SFRSYM    DATA     BIT       P4_0
      000000B0H.1 SFRSYM    DATA     BIT       P3_1
      000000A0H.2 SFRSYM    DATA     BIT       P2_2
      00000090H.3 SFRSYM    DATA     BIT       P1_3
      00000080H.4 SFRSYM    DATA     BIT       P0_4
      000000E8H   SFRSYM    DATA     BYTE      EXF0
      000000C0H.1 SFRSYM    DATA     BIT       P4_1
      000000B0H.2 SFRSYM    DATA     BIT       P3_2
      000000A0H.3 SFRSYM    DATA     BIT       P2_3
      00000090H.4 SFRSYM    DATA     BIT       P1_4
      00000080H.5 SFRSYM    DATA     BIT       P0_5
      000000C0H.2 SFRSYM    DATA     BIT       P4_2
      000000B0H.3 SFRSYM    DATA     BIT       P3_3
      000000A0H.4 SFRSYM    DATA     BIT       P2_4
      00000090H.5 SFRSYM    DATA     BIT       P1_5
      00000080H.6 SFRSYM    DATA     BIT       P0_6
      000000C8H.6 SFRSYM    DATA     BIT       EXF2
      000000A6H   SFRSYM    DATA     BYTE      TKF0
      000000B8H   SFRSYM    DATA     BYTE      IPL0
      000000C0H.3 SFRSYM    DATA     BIT       P4_3
      000000B0H.4 SFRSYM    DATA     BIT       P3_4
      000000A0H.5 SFRSYM    DATA     BIT       P2_5
      00000090H.6 SFRSYM    DATA     BIT       P1_6
      00000080H.7 SFRSYM    DATA     BIT       P0_7
      000000D8H.4 SFRSYM    DATA     BIT       REN1
      000000B9H   SFRSYM    DATA     BYTE      IPL1
      000000C0H.4 SFRSYM    DATA     BIT       P4_4
      000000B0H.5 SFRSYM    DATA     BIT       P3_5
      000000A0H.6 SFRSYM    DATA     BIT       P2_6
      00000090H.7 SFRSYM    DATA     BIT       P1_7
      000000E2H   SFRSYM    DATA     BYTE      TK0H
      0000008EH   SFRSYM    DATA     BYTE      SUSLO
      000000C0H.5 SFRSYM    DATA     BIT       P4_5
      000000B0H.6 SFRSYM    DATA     BIT       P3_6
      000000A0H.7 SFRSYM    DATA     BIT       P2_7
      000000E4H   SFRSYM    DATA     BYTE      TK1H
      000000C0H.6 SFRSYM    DATA     BIT       P4_6
      000000B0H.7 SFRSYM    DATA     BIT       P3_7
      000000E6H   SFRSYM    DATA     BYTE      TK2H
      000000C0H.7 SFRSYM    DATA     BIT       P4_7
      00000098H   SFRSYM    DATA     BIT       RI
      000000A8H.2 SFRSYM    DATA     BIT       E7816
      000000D0H.7 SFRSYM    DATA     BIT       CY
      000000E1H   SFRSYM    DATA     BYTE      TK0L
      00000098H.1 SFRSYM    DATA     BIT       TI
      00000091H   SFRSYM    DATA     BYTE      EADR
      000000E3H   SFRSYM    DATA     BYTE      TK1L
      000000E5H   SFRSYM    DATA     BYTE      TK2L
      000000DBH   SFRSYM    DATA     BYTE      SADEN1
      000000D8H.7 SFRSYM    DATA     BIT       SM10_FE1
LX51 LINKER/LOCATER V4.66.41.0                                                        11/18/2021  18:54:16  PAGE 242


      000000FBH   SFRSYM    DATA     BYTE      SADEN2
      000000B8H.4 SFRSYM    DATA     BIT       PS0L
      000000B8H.1 SFRSYM    DATA     BIT       PT0L
      000000DAH   SFRSYM    DATA     BYTE      SADDR1
      000000D8H.5 SFRSYM    DATA     BIT       SM12_TXCOL1
      000000B8H.3 SFRSYM    DATA     BIT       PT1L
      000000FAH   SFRSYM    DATA     BYTE      SADDR2
      000000CBH   SFRSYM    DATA     BYTE      RCAP2H
      000000B8H.5 SFRSYM    DATA     BIT       PT2L
      00000081H   SFRSYM    DATA     BYTE      SP
      000000D0H.2 SFRSYM    DATA     BIT       OV
      000000CAH   SFRSYM    DATA     BYTE      RCAP2L
      000000B8H   SFRSYM    DATA     BIT       PX4L
      000000C8H.1 SFRSYM    DATA     BIT       C_T2
      000000DEH   SFRSYM    DATA     BYTE      SFINE2
      000000ADH   SFRSYM    DATA     BYTE      IRCON1
      000000AFH   SFRSYM    DATA     BYTE      IRCON2
      000000ABH   SFRSYM    DATA     BYTE      EXCON1
      00000099H   SFRSYM    DATA     BYTE      SBUF
      000000ACH   SFRSYM    DATA     BYTE      EXCON2
      00000087H   SFRSYM    DATA     BYTE      PCON
      000000F1H   SFRSYM    DATA     BYTE      AUXC
      00000098H   SFRSYM    DATA     BYTE      SCON
      000000D4H   SFRSYM    DATA     BYTE      TK0BASEH
      00000089H   SFRSYM    DATA     BYTE      TMOD
      00000088H   SFRSYM    DATA     BYTE      TCON
      000000AAH   SFRSYM    DATA     BYTE      IENX
      000000EEH   SFRSYM    DATA     BYTE      IB_OFFSET
      000000D6H   SFRSYM    DATA     BYTE      TK1BASEH
      000000DCH   SFRSYM    DATA     BYTE      SBRT1H
      000000DFH   SFRSYM    DATA     BYTE      TK2BASEH
      000000FCH   SFRSYM    DATA     BYTE      SBRT2H
      000000B1H   SFRSYM    DATA     BYTE      RSTSTAT
      000000D3H   SFRSYM    DATA     BYTE      TK0BASEL
      000000D5H   SFRSYM    DATA     BYTE      TK1BASEL
      000000DDH   SFRSYM    DATA     BYTE      SBRT1L
      000000D7H   SFRSYM    DATA     BYTE      TK2BASEL
      000000FDH   SFRSYM    DATA     BYTE      SBRT2L
      00000098H.7 SFRSYM    DATA     BIT       SM0_FE
      000000B2H   SFRSYM    DATA     BYTE      CLKCON
      00000098H.5 SFRSYM    DATA     BIT       SM2_TXCOL
      000000B5H   SFRSYM    DATA     BYTE      LDOCON
      000000F0H   SFRSYM    DATA     BYTE      B
      000000C8H   SFRSYM    DATA     BIT       CP_RL2
      000000E0H   SFRSYM    DATA     BYTE      ACC
      000000A8H.4 SFRSYM    DATA     BIT       ES0
      000000A8H.1 SFRSYM    DATA     BIT       ET0
      000000A8H.3 SFRSYM    DATA     BIT       ET1
      00000088H.5 SFRSYM    DATA     BIT       TF0
      000000A8H.5 SFRSYM    DATA     BIT       ET2
      00000088H.7 SFRSYM    DATA     BIT       TF1
      000000D8H   SFRSYM    DATA     BIT       RI1
      00000098H.2 SFRSYM    DATA     BIT       RB8
      000000C8H.7 SFRSYM    DATA     BIT       TF2
      0000008CH   SFRSYM    DATA     BYTE      TH0
      00000086H   SFRSYM    DATA     BYTE      INSCON
      0000008DH   SFRSYM    DATA     BYTE      TH1
      000000D8H.1 SFRSYM    DATA     BIT       TI1
      00000098H.3 SFRSYM    DATA     BIT       TB8
      000000CDH   SFRSYM    DATA     BYTE      TH2
      000000D0H   SFRSYM    DATA     BIT       P
      0000008AH   SFRSYM    DATA     BYTE      TL0
      000000A8H   SFRSYM    DATA     BIT       EX4
      0000008BH   SFRSYM    DATA     BYTE      TL1
      000000A7H   SFRSYM    DATA     BYTE      FLASHCON
LX51 LINKER/LOCATER V4.66.41.0                                                        11/18/2021  18:54:16  PAGE 243


      000000CCH   SFRSYM    DATA     BYTE      TL2
      000000D0H.3 SFRSYM    DATA     BIT       RS0
      000000C5H   SFRSYM    DATA     BYTE      ADCDH
      00000088H.4 SFRSYM    DATA     BIT       TR0
      000000D0H.4 SFRSYM    DATA     BIT       RS1
      0000009FH   SFRSYM    DATA     BYTE      PWMCON
      00000088H.6 SFRSYM    DATA     BIT       TR1
      000000C8H.2 SFRSYM    DATA     BIT       TR2
      000000C4H   SFRSYM    DATA     BYTE      ADCDL
      000000C2H   SFRSYM    DATA     BYTE      ADT
      00000083H   SFRSYM    DATA     BYTE      DPH
      00000082H   SFRSYM    DATA     BYTE      DPL
      000000D9H   SFRSYM    DATA     BYTE      SBUF1
      000000C8H.3 SFRSYM    DATA     BIT       EXEN2
      000000F9H   SFRSYM    DATA     BYTE      SBUF2
      000000D8H.6 SFRSYM    DATA     BIT       SM11_RXOV1
      000000B8H.6 SFRSYM    DATA     BIT       PADCL
      00000098H.4 SFRSYM    DATA     BIT       REN
      000000D8H   SFRSYM    DATA     BYTE      SCON1
      000000D1H   SFRSYM    DATA     BYTE      LCDCON1
      000000C1H   SFRSYM    DATA     BYTE      ADCON
      000000F8H   SFRSYM    DATA     BYTE      SCON2
      0000008FH   SFRSYM    DATA     BYTE      TCON1
      000000D2H   SFRSYM    DATA     BYTE      LCDCON2
      00000092H   SFRSYM    DATA     BYTE      EDTAH
      000000C9H   SFRSYM    DATA     BYTE      T2MOD
      000000C8H   SFRSYM    DATA     BYTE      T2CON
      00000094H   SFRSYM    DATA     BYTE      EDTAL
      00000093H   SFRSYM    DATA     BYTE      EDTAM
      000000BCH   SFRSYM    DATA     BYTE      TK0DIFH
      0000009BH   SFRSYM    DATA     BYTE      SADEN
      000000BEH   SFRSYM    DATA     BYTE      TK1DIFH
      000000B6H   SFRSYM    DATA     BYTE      PBANK
      000000A5H   SFRSYM    DATA     BYTE      TK2DIFH
      000000A8H.6 SFRSYM    DATA     BIT       EADTP
      0000009AH   SFRSYM    DATA     BYTE      SADDR
      000000CFH   SFRSYM    DATA     BYTE      TK0DIFL
      000000BDH   SFRSYM    DATA     BYTE      TK1DIFL
      000000BFH   SFRSYM    DATA     BYTE      TK2DIFL
      000000B8H.2 SFRSYM    DATA     BIT       P7816L
      000000C6H   SFRSYM    DATA     BYTE      LPDCON1
      000000C7H   SFRSYM    DATA     BYTE      LPDCON2
      000000D0H.5 SFRSYM    DATA     BIT       F0
      000000AEH   SFRSYM    DATA     BYTE      IRDAT
      000000D0H.1 SFRSYM    DATA     BIT       F1
      00000096H   SFRSYM    DATA     BYTE      EMUIE
      0000009EH   SFRSYM    DATA     BYTE      SFINE
      000000F7H   SFRSYM    DATA     BYTE      XPAGE
      00000097H   SFRSYM    DATA     BYTE      EMUIF
      000000D0H   SFRSYM    DATA     BYTE      PSW
      000000D8H.2 SFRSYM    DATA     BIT       RB81
      000000A3H   SFRSYM    DATA     BYTE      SPDAT
      000000F2H   SFRSYM    DATA     BYTE      IB_CON1

      010045D1H   BLOCK     CODE     ---       LVL=0
      010045D1H   LINE      ---      ---       #115
      010045E3H   LINE      ---      ---       #116
      010045E3H   LINE      ---      ---       #118
      010045E5H   LINE      ---      ---       #120
      010045ECH   LINE      ---      ---       #121
      010045F9H   LINE      ---      ---       #122
      01004607H   LINE      ---      ---       #123
      0100460AH   LINE      ---      ---       #126
      0100460DH   LINE      ---      ---       #127
      01004610H   LINE      ---      ---       #128
LX51 LINKER/LOCATER V4.66.41.0                                                        11/18/2021  18:54:16  PAGE 244


      01004613H   LINE      ---      ---       #129
      01004616H   LINE      ---      ---       #130
      0100461FH   LINE      ---      ---       #131
      0100461FH   LINE      ---      ---       #132
      01004622H   LINE      ---      ---       #133
      01004623H   LINE      ---      ---       #134
      01004624H   LINE      ---      ---       #135
      01004625H   LINE      ---      ---       #136
      01004626H   LINE      ---      ---       #137
      01004626H   LINE      ---      ---       #139
      01004629H   LINE      ---      ---       #140
      0100462CH   LINE      ---      ---       #141
      0100462EH   LINE      ---      ---       #143
      02000DBCH   SYMBOL    XDATA    WORD      adr
      02000DBEH   SYMBOL    XDATA    BYTE      dat
      02000DBFH   SYMBOL    XDATA    BYTE      sta
      ---         BLOCKEND  ---      ---       LVL=0

      0100462FH   BLOCK     CODE     ---       LVL=0
      0100463CH   LINE      ---      ---       #159
      0100464DH   LINE      ---      ---       #160
      0200098BH   SYMBOL    XDATA    WORD      Dst
      0200098DH   SYMBOL    XDATA    ---       Src
      02000990H   SYMBOL    XDATA    WORD      Len
      0100464DH   BLOCK     CODE     NEAR LAB  LVL=1
      0100464DH   LINE      ---      ---       #161
      0100464DH   LINE      ---      ---       #163
      01004650H   LINE      ---      ---       #165
      01004653H   LINE      ---      ---       #169
      01004654H   LINE      ---      ---       #170
      01004655H   LINE      ---      ---       #171
      0100465AH   LINE      ---      ---       #172
      0100465AH   LINE      ---      ---       #173
      0100465DH   LINE      ---      ---       #174
      0100465DH   LINE      ---      ---       #176
      01004665H   LINE      ---      ---       #177
      01004665H   LINE      ---      ---       #178
      01004668H   LINE      ---      ---       #179
      01004668H   LINE      ---      ---       #181
      01004685H   LINE      ---      ---       #182
      01004685H   LINE      ---      ---       #183
      01004688H   LINE      ---      ---       #184
      01004688H   LINE      ---      ---       #185
      01004697H   LINE      ---      ---       #186
      01004697H   LINE      ---      ---       #187
      010046A6H   LINE      ---      ---       #188
      010046B4H   LINE      ---      ---       #189
      010046C2H   LINE      ---      ---       #190
      010046CCH   LINE      ---      ---       #191
      010046DAH   LINE      ---      ---       #192
      010046DCH   LINE      ---      ---       #194
      010046DEH   LINE      ---      ---       #195
      00000004H   SYMBOL    DATA     BYTE      Dat
      ---         BLOCKEND  CODE     ---       LVL=1
      ---         BLOCKEND  CODE     ---       LVL=0

      010046DFH   BLOCK     CODE     ---       LVL=0
      010046DFH   LINE      ---      ---       #210
      010046E3H   LINE      ---      ---       #211
      00000082H   SYMBOL    DATA     WORD      adr
      00000005H   SYMBOL    DATA     BYTE      sta
      010046E3H   BLOCK     CODE     NEAR LAB  LVL=1
      010046E3H   LINE      ---      ---       #212
      010046E5H   LINE      ---      ---       #214
      010046E9H   LINE      ---      ---       #215
LX51 LINKER/LOCATER V4.66.41.0                                                        11/18/2021  18:54:16  PAGE 245


      010046E9H   LINE      ---      ---       #217
      010046EBH   LINE      ---      ---       #218
      010046EEH   LINE      ---      ---       #219
      010046F1H   LINE      ---      ---       #220
      010046F4H   LINE      ---      ---       #221
      010046F6H   LINE      ---      ---       #223
      010046F6H   LINE      ---      ---       #225
      010046F6H   LINE      ---      ---       #226
      00000007H   SYMBOL    DATA     BYTE      t_tmp
      ---         BLOCKEND  CODE     ---       LVL=1
      ---         BLOCKEND  CODE     ---       LVL=0

      010046F7H   BLOCK     CODE     ---       LVL=0
      01004715H   LINE      ---      ---       #242
      0100471DH   LINE      ---      ---       #243
      0100471DH   LINE      ---      ---       #245
      01004720H   LINE      ---      ---       #247
      01004723H   LINE      ---      ---       #251
      01004724H   LINE      ---      ---       #252
      01004725H   LINE      ---      ---       #253
      0100472AH   LINE      ---      ---       #254
      0100472AH   LINE      ---      ---       #255
      0100472DH   LINE      ---      ---       #256
      0100472DH   LINE      ---      ---       #258
      0100474AH   LINE      ---      ---       #259
      0100474AH   LINE      ---      ---       #260
      0100474DH   LINE      ---      ---       #261
      0100474DH   LINE      ---      ---       #263
      0100475CH   LINE      ---      ---       #264
      0100475CH   LINE      ---      ---       #265
      0100476CH   LINE      ---      ---       #266
      01004773H   LINE      ---      ---       #267
      01004781H   LINE      ---      ---       #268
      0100478FH   LINE      ---      ---       #269
      01004791H   LINE      ---      ---       #271
      01004793H   LINE      ---      ---       #272
      00000001H   SYMBOL    DATA     ---       Dst
      0200098EH   SYMBOL    XDATA    WORD      Src
      02000990H   SYMBOL    XDATA    WORD      Len
      ---         BLOCKEND  ---      ---       LVL=0

      01004794H   BLOCK     CODE     ---       LVL=0
      010047ABH   LINE      ---      ---       #290
      010047BDH   LINE      ---      ---       #291
      010047BDH   LINE      ---      ---       #294
      010047C0H   LINE      ---      ---       #296
      010047C3H   LINE      ---      ---       #300
      010047C4H   LINE      ---      ---       #301
      010047C5H   LINE      ---      ---       #302
      010047CAH   LINE      ---      ---       #303
      010047CAH   LINE      ---      ---       #305
      010047CAH   LINE      ---      ---       #306
      010047D4H   LINE      ---      ---       #307
      010047D4H   LINE      ---      ---       #309
      010047D4H   LINE      ---      ---       #312
      010047D6H   LINE      ---      ---       #313
      010047DDH   LINE      ---      ---       #314
      010047EAH   LINE      ---      ---       #315
      010047F8H   LINE      ---      ---       #316
      010047FBH   LINE      ---      ---       #319
      010047FEH   LINE      ---      ---       #320
      01004801H   LINE      ---      ---       #321
      01004804H   LINE      ---      ---       #322
      01004807H   LINE      ---      ---       #324
      01004810H   LINE      ---      ---       #325
LX51 LINKER/LOCATER V4.66.41.0                                                        11/18/2021  18:54:16  PAGE 246


      01004810H   LINE      ---      ---       #326
      01004813H   LINE      ---      ---       #327
      01004814H   LINE      ---      ---       #328
      01004815H   LINE      ---      ---       #329
      01004816H   LINE      ---      ---       #330
      01004817H   LINE      ---      ---       #331
      01004817H   LINE      ---      ---       #333
      0100481AH   LINE      ---      ---       #334
      0100481DH   LINE      ---      ---       #335
      0100481FH   LINE      ---      ---       #337
      02000DC0H   SYMBOL    XDATA    WORD      adr
      02000DC2H   SYMBOL    XDATA    BYTE      dat
      02000DC3H   SYMBOL    XDATA    BYTE      sta
      ---         BLOCKEND  ---      ---       LVL=0

      ---         MODULE    ---      ---       KEYDRV
      0100487DH   PUBLIC    CODE     ---       DrvKey_DisplayKeyMonitor
      0100482FH   PUBLIC    CODE     ---       DrvKey_FactoryKeyMonitor
      0100486EH   PUBLIC    CODE     ---       DrvKey_DisplayKeyInit
      01004820H   PUBLIC    CODE     ---       DrvKey_FactoryKeyInit
      000000F3H   SFRSYM    DATA     BYTE      IB_CON2
      000000D8H.3 SFRSYM    DATA     BIT       TB81
      00000080H   SFRSYM    DATA     BYTE      P0
      000000F4H   SFRSYM    DATA     BYTE      IB_CON3
      000000A4H   SFRSYM    DATA     BYTE      TKCON
      00000090H   SFRSYM    DATA     BYTE      P1
      000000F5H   SFRSYM    DATA     BYTE      IB_CON4
      000000E7H   SFRSYM    DATA     BYTE      PASLO
      000000A0H   SFRSYM    DATA     BYTE      P2
      000000FEH   SFRSYM    DATA     BYTE      OSCLO
      000000F6H   SFRSYM    DATA     BYTE      IB_CON5
      00000098H.6 SFRSYM    DATA     BIT       SM1_RXOV
      000000B0H   SFRSYM    DATA     BYTE      P3
      000000D0H.6 SFRSYM    DATA     BIT       AC
      000000C0H   SFRSYM    DATA     BYTE      P4
      000000A1H   SFRSYM    DATA     BYTE      SPCON
      0000009CH   SFRSYM    DATA     BYTE      SBRTH
      000000E9H   SFRSYM    DATA     BYTE      P5
      000000A8H.7 SFRSYM    DATA     BIT       EA
      000000EAH   SFRSYM    DATA     BYTE      P6
      000000EBH   SFRSYM    DATA     BYTE      P7
      000000EFH   SFRSYM    DATA     BYTE      IB_DATA
      000000ECH   SFRSYM    DATA     BYTE      P8
      0000009DH   SFRSYM    DATA     BYTE      SBRTL
      000000EDH   SFRSYM    DATA     BYTE      P9
      000000B7H   SFRSYM    DATA     BYTE      PBANKLO
      000000A2H   SFRSYM    DATA     BYTE      SPSTA
      000000A8H   SFRSYM    DATA     BYTE      IEN0
      000000B3H   SFRSYM    DATA     BYTE      PWRCON1
      00000095H   SFRSYM    DATA     BYTE      EMUSR
      000000A9H   SFRSYM    DATA     BYTE      IEN1
      000000B4H   SFRSYM    DATA     BYTE      PWRCON2
      00000085H   SFRSYM    DATA     BYTE      DPH1
      00000080H   SFRSYM    DATA     BIT       P0_0
      00000090H   SFRSYM    DATA     BIT       P1_0
      00000080H.1 SFRSYM    DATA     BIT       P0_1
      000000C3H   SFRSYM    DATA     BYTE      ADCH
      000000A0H   SFRSYM    DATA     BIT       P2_0
      00000090H.1 SFRSYM    DATA     BIT       P1_1
      00000080H.2 SFRSYM    DATA     BIT       P0_2
      000000BAH   SFRSYM    DATA     BYTE      IPH0
      00000084H   SFRSYM    DATA     BYTE      DPL1
      000000B0H   SFRSYM    DATA     BIT       P3_0
      000000A0H.1 SFRSYM    DATA     BIT       P2_1
      00000090H.2 SFRSYM    DATA     BIT       P1_2
LX51 LINKER/LOCATER V4.66.41.0                                                        11/18/2021  18:54:16  PAGE 247


      00000080H.3 SFRSYM    DATA     BIT       P0_3
      000000BBH   SFRSYM    DATA     BYTE      IPH1
      000000C0H   SFRSYM    DATA     BIT       P4_0
      000000B0H.1 SFRSYM    DATA     BIT       P3_1
      000000A0H.2 SFRSYM    DATA     BIT       P2_2
      00000090H.3 SFRSYM    DATA     BIT       P1_3
      00000080H.4 SFRSYM    DATA     BIT       P0_4
      000000E8H   SFRSYM    DATA     BYTE      EXF0
      000000C0H.1 SFRSYM    DATA     BIT       P4_1
      000000B0H.2 SFRSYM    DATA     BIT       P3_2
      000000A0H.3 SFRSYM    DATA     BIT       P2_3
      00000090H.4 SFRSYM    DATA     BIT       P1_4
      00000080H.5 SFRSYM    DATA     BIT       P0_5
      000000C0H.2 SFRSYM    DATA     BIT       P4_2
      000000B0H.3 SFRSYM    DATA     BIT       P3_3
      000000A0H.4 SFRSYM    DATA     BIT       P2_4
      00000090H.5 SFRSYM    DATA     BIT       P1_5
      00000080H.6 SFRSYM    DATA     BIT       P0_6
      000000C8H.6 SFRSYM    DATA     BIT       EXF2
      000000A6H   SFRSYM    DATA     BYTE      TKF0
      000000B8H   SFRSYM    DATA     BYTE      IPL0
      000000C0H.3 SFRSYM    DATA     BIT       P4_3
      000000B0H.4 SFRSYM    DATA     BIT       P3_4
      000000A0H.5 SFRSYM    DATA     BIT       P2_5
      00000090H.6 SFRSYM    DATA     BIT       P1_6
      00000080H.7 SFRSYM    DATA     BIT       P0_7
      000000D8H.4 SFRSYM    DATA     BIT       REN1
      000000B9H   SFRSYM    DATA     BYTE      IPL1
      000000C0H.4 SFRSYM    DATA     BIT       P4_4
      000000B0H.5 SFRSYM    DATA     BIT       P3_5
      000000A0H.6 SFRSYM    DATA     BIT       P2_6
      00000090H.7 SFRSYM    DATA     BIT       P1_7
      000000E2H   SFRSYM    DATA     BYTE      TK0H
      0000008EH   SFRSYM    DATA     BYTE      SUSLO
      000000C0H.5 SFRSYM    DATA     BIT       P4_5
      000000B0H.6 SFRSYM    DATA     BIT       P3_6
      000000A0H.7 SFRSYM    DATA     BIT       P2_7
      000000E4H   SFRSYM    DATA     BYTE      TK1H
      000000C0H.6 SFRSYM    DATA     BIT       P4_6
      000000B0H.7 SFRSYM    DATA     BIT       P3_7
      000000E6H   SFRSYM    DATA     BYTE      TK2H
      000000C0H.7 SFRSYM    DATA     BIT       P4_7
      00000098H   SFRSYM    DATA     BIT       RI
      000000A8H.2 SFRSYM    DATA     BIT       E7816
      000000D0H.7 SFRSYM    DATA     BIT       CY
      000000E1H   SFRSYM    DATA     BYTE      TK0L
      00000098H.1 SFRSYM    DATA     BIT       TI
      00000091H   SFRSYM    DATA     BYTE      EADR
      000000E3H   SFRSYM    DATA     BYTE      TK1L
      000000E5H   SFRSYM    DATA     BYTE      TK2L
      000000DBH   SFRSYM    DATA     BYTE      SADEN1
      000000D8H.7 SFRSYM    DATA     BIT       SM10_FE1
      000000FBH   SFRSYM    DATA     BYTE      SADEN2
      000000B8H.4 SFRSYM    DATA     BIT       PS0L
      000000B8H.1 SFRSYM    DATA     BIT       PT0L
      000000DAH   SFRSYM    DATA     BYTE      SADDR1
      000000D8H.5 SFRSYM    DATA     BIT       SM12_TXCOL1
      000000B8H.3 SFRSYM    DATA     BIT       PT1L
      000000FAH   SFRSYM    DATA     BYTE      SADDR2
      000000CBH   SFRSYM    DATA     BYTE      RCAP2H
      000000B8H.5 SFRSYM    DATA     BIT       PT2L
      00000081H   SFRSYM    DATA     BYTE      SP
      000000D0H.2 SFRSYM    DATA     BIT       OV
      000000CAH   SFRSYM    DATA     BYTE      RCAP2L
      000000B8H   SFRSYM    DATA     BIT       PX4L
LX51 LINKER/LOCATER V4.66.41.0                                                        11/18/2021  18:54:16  PAGE 248


      000000C8H.1 SFRSYM    DATA     BIT       C_T2
      000000DEH   SFRSYM    DATA     BYTE      SFINE2
      000000ADH   SFRSYM    DATA     BYTE      IRCON1
      000000AFH   SFRSYM    DATA     BYTE      IRCON2
      000000ABH   SFRSYM    DATA     BYTE      EXCON1
      00000099H   SFRSYM    DATA     BYTE      SBUF
      000000ACH   SFRSYM    DATA     BYTE      EXCON2
      00000087H   SFRSYM    DATA     BYTE      PCON
      000000F1H   SFRSYM    DATA     BYTE      AUXC
      00000098H   SFRSYM    DATA     BYTE      SCON
      000000D4H   SFRSYM    DATA     BYTE      TK0BASEH
      00000089H   SFRSYM    DATA     BYTE      TMOD
      00000088H   SFRSYM    DATA     BYTE      TCON
      000000AAH   SFRSYM    DATA     BYTE      IENX
      000000EEH   SFRSYM    DATA     BYTE      IB_OFFSET
      000000D6H   SFRSYM    DATA     BYTE      TK1BASEH
      000000DCH   SFRSYM    DATA     BYTE      SBRT1H
      000000DFH   SFRSYM    DATA     BYTE      TK2BASEH
      000000FCH   SFRSYM    DATA     BYTE      SBRT2H
      000000B1H   SFRSYM    DATA     BYTE      RSTSTAT
      000000D3H   SFRSYM    DATA     BYTE      TK0BASEL
      000000D5H   SFRSYM    DATA     BYTE      TK1BASEL
      000000DDH   SFRSYM    DATA     BYTE      SBRT1L
      000000D7H   SFRSYM    DATA     BYTE      TK2BASEL
      000000FDH   SFRSYM    DATA     BYTE      SBRT2L
      00000098H.7 SFRSYM    DATA     BIT       SM0_FE
      000000B2H   SFRSYM    DATA     BYTE      CLKCON
      00000098H.5 SFRSYM    DATA     BIT       SM2_TXCOL
      000000B5H   SFRSYM    DATA     BYTE      LDOCON
      000000F0H   SFRSYM    DATA     BYTE      B
      000000C8H   SFRSYM    DATA     BIT       CP_RL2
      000000E0H   SFRSYM    DATA     BYTE      ACC
      000000A8H.4 SFRSYM    DATA     BIT       ES0
      000000A8H.1 SFRSYM    DATA     BIT       ET0
      000000A8H.3 SFRSYM    DATA     BIT       ET1
      00000088H.5 SFRSYM    DATA     BIT       TF0
      000000A8H.5 SFRSYM    DATA     BIT       ET2
      00000088H.7 SFRSYM    DATA     BIT       TF1
      000000D8H   SFRSYM    DATA     BIT       RI1
      00000098H.2 SFRSYM    DATA     BIT       RB8
      000000C8H.7 SFRSYM    DATA     BIT       TF2
      0000008CH   SFRSYM    DATA     BYTE      TH0
      00000086H   SFRSYM    DATA     BYTE      INSCON
      0000008DH   SFRSYM    DATA     BYTE      TH1
      000000D8H.1 SFRSYM    DATA     BIT       TI1
      00000098H.3 SFRSYM    DATA     BIT       TB8
      000000CDH   SFRSYM    DATA     BYTE      TH2
      000000D0H   SFRSYM    DATA     BIT       P
      0000008AH   SFRSYM    DATA     BYTE      TL0
      000000A8H   SFRSYM    DATA     BIT       EX4
      0000008BH   SFRSYM    DATA     BYTE      TL1
      000000A7H   SFRSYM    DATA     BYTE      FLASHCON
      000000CCH   SFRSYM    DATA     BYTE      TL2
      000000D0H.3 SFRSYM    DATA     BIT       RS0
      000000C5H   SFRSYM    DATA     BYTE      ADCDH
      00000088H.4 SFRSYM    DATA     BIT       TR0
      000000D0H.4 SFRSYM    DATA     BIT       RS1
      0000009FH   SFRSYM    DATA     BYTE      PWMCON
      00000088H.6 SFRSYM    DATA     BIT       TR1
      000000C8H.2 SFRSYM    DATA     BIT       TR2
      000000C4H   SFRSYM    DATA     BYTE      ADCDL
      000000C2H   SFRSYM    DATA     BYTE      ADT
      00000083H   SFRSYM    DATA     BYTE      DPH
      00000082H   SFRSYM    DATA     BYTE      DPL
      000000D9H   SFRSYM    DATA     BYTE      SBUF1
LX51 LINKER/LOCATER V4.66.41.0                                                        11/18/2021  18:54:16  PAGE 249


      000000C8H.3 SFRSYM    DATA     BIT       EXEN2
      000000F9H   SFRSYM    DATA     BYTE      SBUF2
      000000D8H.6 SFRSYM    DATA     BIT       SM11_RXOV1
      000000B8H.6 SFRSYM    DATA     BIT       PADCL
      00000098H.4 SFRSYM    DATA     BIT       REN
      000000D8H   SFRSYM    DATA     BYTE      SCON1
      000000D1H   SFRSYM    DATA     BYTE      LCDCON1
      000000C1H   SFRSYM    DATA     BYTE      ADCON
      000000F8H   SFRSYM    DATA     BYTE      SCON2
      0000008FH   SFRSYM    DATA     BYTE      TCON1
      000000D2H   SFRSYM    DATA     BYTE      LCDCON2
      00000092H   SFRSYM    DATA     BYTE      EDTAH
      000000C9H   SFRSYM    DATA     BYTE      T2MOD
      000000C8H   SFRSYM    DATA     BYTE      T2CON
      00000094H   SFRSYM    DATA     BYTE      EDTAL
      00000093H   SFRSYM    DATA     BYTE      EDTAM
      000000BCH   SFRSYM    DATA     BYTE      TK0DIFH
      0000009BH   SFRSYM    DATA     BYTE      SADEN
      000000BEH   SFRSYM    DATA     BYTE      TK1DIFH
      000000B6H   SFRSYM    DATA     BYTE      PBANK
      000000A5H   SFRSYM    DATA     BYTE      TK2DIFH
      000000A8H.6 SFRSYM    DATA     BIT       EADTP
      0000009AH   SFRSYM    DATA     BYTE      SADDR
      000000CFH   SFRSYM    DATA     BYTE      TK0DIFL
      000000BDH   SFRSYM    DATA     BYTE      TK1DIFL
      000000BFH   SFRSYM    DATA     BYTE      TK2DIFL
      000000B8H.2 SFRSYM    DATA     BIT       P7816L
      000000C6H   SFRSYM    DATA     BYTE      LPDCON1
      000000C7H   SFRSYM    DATA     BYTE      LPDCON2
      000000D0H.5 SFRSYM    DATA     BIT       F0
      000000AEH   SFRSYM    DATA     BYTE      IRDAT
      000000D0H.1 SFRSYM    DATA     BIT       F1
      00000096H   SFRSYM    DATA     BYTE      EMUIE
      0000009EH   SFRSYM    DATA     BYTE      SFINE
      000000F7H   SFRSYM    DATA     BYTE      XPAGE
      00000097H   SFRSYM    DATA     BYTE      EMUIF
      000000D0H   SFRSYM    DATA     BYTE      PSW
      000000D8H.2 SFRSYM    DATA     BIT       RB81
      000000A3H   SFRSYM    DATA     BYTE      SPDAT
      000000F2H   SFRSYM    DATA     BYTE      IB_CON1

      01004820H   BLOCK     CODE     ---       LVL=0
      01004820H   LINE      ---      ---       #86
      01004820H   LINE      ---      ---       #87
      01004820H   LINE      ---      ---       #88
      01004827H   LINE      ---      ---       #89
      0100482EH   LINE      ---      ---       #90
      ---         BLOCKEND  ---      ---       LVL=0

      0100486EH   BLOCK     CODE     ---       LVL=0
      0100486EH   LINE      ---      ---       #102
      0100486EH   LINE      ---      ---       #103
      0100486EH   LINE      ---      ---       #104
      01004875H   LINE      ---      ---       #105
      0100487CH   LINE      ---      ---       #106
      ---         BLOCKEND  ---      ---       LVL=0

      0100482FH   BLOCK     CODE     ---       LVL=0
      0100482FH   LINE      ---      ---       #119
      0100482FH   LINE      ---      ---       #120
      0100482FH   LINE      ---      ---       #122
      01004831H   LINE      ---      ---       #128
      01004831H   LINE      ---      ---       #130
      01004836H   LINE      ---      ---       #131
      01004836H   LINE      ---      ---       #132
LX51 LINKER/LOCATER V4.66.41.0                                                        11/18/2021  18:54:16  PAGE 250


      01004844H   LINE      ---      ---       #133
      01004853H   LINE      ---      ---       #134
      01004853H   LINE      ---      ---       #135
      01004857H   LINE      ---      ---       #136
      0100485EH   LINE      ---      ---       #137
      0100485EH   LINE      ---      ---       #138
      0100485FH   LINE      ---      ---       #140
      0100485FH   LINE      ---      ---       #141
      01004866H   LINE      ---      ---       #142
      0100486DH   LINE      ---      ---       #143
      0100486DH   LINE      ---      ---       #144
      0100486DH   LINE      ---      ---       #146
      ---         BLOCKEND  ---      ---       LVL=0

      0100487DH   BLOCK     CODE     ---       LVL=0
      0100487DH   LINE      ---      ---       #158
      0100487DH   LINE      ---      ---       #159
      0100487DH   LINE      ---      ---       #161
      0100487FH   LINE      ---      ---       #164
      01004886H   LINE      ---      ---       #165
      01004886H   LINE      ---      ---       #166
      0100488DH   LINE      ---      ---       #167
      0100488DH   LINE      ---      ---       #168
      01004891H   LINE      ---      ---       #169
      01004895H   LINE      ---      ---       #170
      0100489AH   LINE      ---      ---       #171
      0100489AH   LINE      ---      ---       #172
      0100489BH   LINE      ---      ---       #173
      010048A2H   LINE      ---      ---       #174
      010048A2H   LINE      ---      ---       #175
      010048A7H   LINE      ---      ---       #176
      010048A7H   LINE      ---      ---       #177
      010048ADH   LINE      ---      ---       #178
      010048B5H   LINE      ---      ---       #179
      010048B5H   LINE      ---      ---       #180
      010048BCH   LINE      ---      ---       #181
      010048C0H   LINE      ---      ---       #183
      010048C5H   LINE      ---      ---       #184
      010048CCH   LINE      ---      ---       #185
      010048D6H   LINE      ---      ---       #186
      010048DCH   LINE      ---      ---       #188
      010048E2H   LINE      ---      ---       #189
      010048E2H   LINE      ---      ---       #190
      010048E6H   LINE      ---      ---       #191
      010048ECH   LINE      ---      ---       #192
      010048EDH   LINE      ---      ---       #194
      010048EDH   LINE      ---      ---       #195
      010048F3H   LINE      ---      ---       #196
      01004900H   LINE      ---      ---       #197
      01004900H   LINE      ---      ---       #198
      01004902H   LINE      ---      ---       #199
      01004902H   LINE      ---      ---       #200
      01004902H   LINE      ---      ---       #201
      01004902H   LINE      ---      ---       #202
      01004903H   LINE      ---      ---       #210
      0100490AH   LINE      ---      ---       #211
      0100490AH   LINE      ---      ---       #212
      0100490FH   LINE      ---      ---       #213
      0100490FH   LINE      ---      ---       #214
      0100490FH   LINE      ---      ---       #215
      0100490FH   LINE      ---      ---       #216
      0100490FH   LINE      ---      ---       #217
      01004911H   LINE      ---      ---       #219
      01004911H   LINE      ---      ---       #220
      01004916H   LINE      ---      ---       #221
LX51 LINKER/LOCATER V4.66.41.0                                                        11/18/2021  18:54:16  PAGE 251


      0100491CH   LINE      ---      ---       #222
      0100491CH   LINE      ---      ---       #224
      ---         BLOCKEND  ---      ---       LVL=0

      ---         MODULE    ---      ---       LCDDRV
      0100495CH   PUBLIC    CODE     ---       LCDDrv_DispRamUpdata
      010049AEH   PUBLIC    CODE     ---       LCDDrv_PwOnRegCfg
      01004949H   PUBLIC    CODE     ---       _LCDDrv_SetLcdBuff
      0100498FH   PUBLIC    CODE     ---       LCDDrv_SgeComConfig
      0100491DH   PUBLIC    CODE     ---       _LCDDrv_Init
      000000F3H   SFRSYM    DATA     BYTE      IB_CON2
      000000D8H.3 SFRSYM    DATA     BIT       TB81
      00000080H   SFRSYM    DATA     BYTE      P0
      000000F4H   SFRSYM    DATA     BYTE      IB_CON3
      000000A4H   SFRSYM    DATA     BYTE      TKCON
      00000090H   SFRSYM    DATA     BYTE      P1
      000000F5H   SFRSYM    DATA     BYTE      IB_CON4
      000000E7H   SFRSYM    DATA     BYTE      PASLO
      000000A0H   SFRSYM    DATA     BYTE      P2
      000000FEH   SFRSYM    DATA     BYTE      OSCLO
      000000F6H   SFRSYM    DATA     BYTE      IB_CON5
      00000098H.6 SFRSYM    DATA     BIT       SM1_RXOV
      000000B0H   SFRSYM    DATA     BYTE      P3
      000000D0H.6 SFRSYM    DATA     BIT       AC
      000000C0H   SFRSYM    DATA     BYTE      P4
      000000A1H   SFRSYM    DATA     BYTE      SPCON
      0000009CH   SFRSYM    DATA     BYTE      SBRTH
      000000E9H   SFRSYM    DATA     BYTE      P5
      000000A8H.7 SFRSYM    DATA     BIT       EA
      000000EAH   SFRSYM    DATA     BYTE      P6
      000000EBH   SFRSYM    DATA     BYTE      P7
      000000EFH   SFRSYM    DATA     BYTE      IB_DATA
      000000ECH   SFRSYM    DATA     BYTE      P8
      0000009DH   SFRSYM    DATA     BYTE      SBRTL
      000000EDH   SFRSYM    DATA     BYTE      P9
      000000B7H   SFRSYM    DATA     BYTE      PBANKLO
      000000A2H   SFRSYM    DATA     BYTE      SPSTA
      000000A8H   SFRSYM    DATA     BYTE      IEN0
      000000B3H   SFRSYM    DATA     BYTE      PWRCON1
      00000095H   SFRSYM    DATA     BYTE      EMUSR
      000000A9H   SFRSYM    DATA     BYTE      IEN1
      000000B4H   SFRSYM    DATA     BYTE      PWRCON2
      00000085H   SFRSYM    DATA     BYTE      DPH1
      00000080H   SFRSYM    DATA     BIT       P0_0
      00000090H   SFRSYM    DATA     BIT       P1_0
      00000080H.1 SFRSYM    DATA     BIT       P0_1
      000000C3H   SFRSYM    DATA     BYTE      ADCH
      000000A0H   SFRSYM    DATA     BIT       P2_0
      00000090H.1 SFRSYM    DATA     BIT       P1_1
      00000080H.2 SFRSYM    DATA     BIT       P0_2
      000000BAH   SFRSYM    DATA     BYTE      IPH0
      00000084H   SFRSYM    DATA     BYTE      DPL1
      000000B0H   SFRSYM    DATA     BIT       P3_0
      000000A0H.1 SFRSYM    DATA     BIT       P2_1
      00000090H.2 SFRSYM    DATA     BIT       P1_2
      00000080H.3 SFRSYM    DATA     BIT       P0_3
      000000BBH   SFRSYM    DATA     BYTE      IPH1
      000000C0H   SFRSYM    DATA     BIT       P4_0
      000000B0H.1 SFRSYM    DATA     BIT       P3_1
      000000A0H.2 SFRSYM    DATA     BIT       P2_2
      00000090H.3 SFRSYM    DATA     BIT       P1_3
      00000080H.4 SFRSYM    DATA     BIT       P0_4
      000000E8H   SFRSYM    DATA     BYTE      EXF0
      000000C0H.1 SFRSYM    DATA     BIT       P4_1
      000000B0H.2 SFRSYM    DATA     BIT       P3_2
LX51 LINKER/LOCATER V4.66.41.0                                                        11/18/2021  18:54:16  PAGE 252


      000000A0H.3 SFRSYM    DATA     BIT       P2_3
      00000090H.4 SFRSYM    DATA     BIT       P1_4
      00000080H.5 SFRSYM    DATA     BIT       P0_5
      000000C0H.2 SFRSYM    DATA     BIT       P4_2
      000000B0H.3 SFRSYM    DATA     BIT       P3_3
      000000A0H.4 SFRSYM    DATA     BIT       P2_4
      00000090H.5 SFRSYM    DATA     BIT       P1_5
      00000080H.6 SFRSYM    DATA     BIT       P0_6
      000000C8H.6 SFRSYM    DATA     BIT       EXF2
      000000A6H   SFRSYM    DATA     BYTE      TKF0
      000000B8H   SFRSYM    DATA     BYTE      IPL0
      000000C0H.3 SFRSYM    DATA     BIT       P4_3
      000000B0H.4 SFRSYM    DATA     BIT       P3_4
      000000A0H.5 SFRSYM    DATA     BIT       P2_5
      00000090H.6 SFRSYM    DATA     BIT       P1_6
      00000080H.7 SFRSYM    DATA     BIT       P0_7
      000000D8H.4 SFRSYM    DATA     BIT       REN1
      000000B9H   SFRSYM    DATA     BYTE      IPL1
      000000C0H.4 SFRSYM    DATA     BIT       P4_4
      000000B0H.5 SFRSYM    DATA     BIT       P3_5
      000000A0H.6 SFRSYM    DATA     BIT       P2_6
      00000090H.7 SFRSYM    DATA     BIT       P1_7
      000000E2H   SFRSYM    DATA     BYTE      TK0H
      0000008EH   SFRSYM    DATA     BYTE      SUSLO
      000000C0H.5 SFRSYM    DATA     BIT       P4_5
      000000B0H.6 SFRSYM    DATA     BIT       P3_6
      000000A0H.7 SFRSYM    DATA     BIT       P2_7
      000000E4H   SFRSYM    DATA     BYTE      TK1H
      000000C0H.6 SFRSYM    DATA     BIT       P4_6
      000000B0H.7 SFRSYM    DATA     BIT       P3_7
      000000E6H   SFRSYM    DATA     BYTE      TK2H
      000000C0H.7 SFRSYM    DATA     BIT       P4_7
      00000098H   SFRSYM    DATA     BIT       RI
      000000A8H.2 SFRSYM    DATA     BIT       E7816
      000000D0H.7 SFRSYM    DATA     BIT       CY
      000000E1H   SFRSYM    DATA     BYTE      TK0L
      00000098H.1 SFRSYM    DATA     BIT       TI
      00000091H   SFRSYM    DATA     BYTE      EADR
      000000E3H   SFRSYM    DATA     BYTE      TK1L
      000000E5H   SFRSYM    DATA     BYTE      TK2L
      000000DBH   SFRSYM    DATA     BYTE      SADEN1
      000000D8H.7 SFRSYM    DATA     BIT       SM10_FE1
      000000FBH   SFRSYM    DATA     BYTE      SADEN2
      000000B8H.4 SFRSYM    DATA     BIT       PS0L
      000000B8H.1 SFRSYM    DATA     BIT       PT0L
      000000DAH   SFRSYM    DATA     BYTE      SADDR1
      000000D8H.5 SFRSYM    DATA     BIT       SM12_TXCOL1
      000000B8H.3 SFRSYM    DATA     BIT       PT1L
      000000FAH   SFRSYM    DATA     BYTE      SADDR2
      000000CBH   SFRSYM    DATA     BYTE      RCAP2H
      000000B8H.5 SFRSYM    DATA     BIT       PT2L
      00000081H   SFRSYM    DATA     BYTE      SP
      000000D0H.2 SFRSYM    DATA     BIT       OV
      000000CAH   SFRSYM    DATA     BYTE      RCAP2L
      000000B8H   SFRSYM    DATA     BIT       PX4L
      000000C8H.1 SFRSYM    DATA     BIT       C_T2
      000000DEH   SFRSYM    DATA     BYTE      SFINE2
      000000ADH   SFRSYM    DATA     BYTE      IRCON1
      000000AFH   SFRSYM    DATA     BYTE      IRCON2
      000000ABH   SFRSYM    DATA     BYTE      EXCON1
      00000099H   SFRSYM    DATA     BYTE      SBUF
      000000ACH   SFRSYM    DATA     BYTE      EXCON2
      00000087H   SFRSYM    DATA     BYTE      PCON
      000000F1H   SFRSYM    DATA     BYTE      AUXC
      00000098H   SFRSYM    DATA     BYTE      SCON
LX51 LINKER/LOCATER V4.66.41.0                                                        11/18/2021  18:54:16  PAGE 253


      000000D4H   SFRSYM    DATA     BYTE      TK0BASEH
      00000089H   SFRSYM    DATA     BYTE      TMOD
      00000088H   SFRSYM    DATA     BYTE      TCON
      000000AAH   SFRSYM    DATA     BYTE      IENX
      000000EEH   SFRSYM    DATA     BYTE      IB_OFFSET
      000000D6H   SFRSYM    DATA     BYTE      TK1BASEH
      000000DCH   SFRSYM    DATA     BYTE      SBRT1H
      000000DFH   SFRSYM    DATA     BYTE      TK2BASEH
      000000FCH   SFRSYM    DATA     BYTE      SBRT2H
      000000B1H   SFRSYM    DATA     BYTE      RSTSTAT
      000000D3H   SFRSYM    DATA     BYTE      TK0BASEL
      000000D5H   SFRSYM    DATA     BYTE      TK1BASEL
      000000DDH   SFRSYM    DATA     BYTE      SBRT1L
      000000D7H   SFRSYM    DATA     BYTE      TK2BASEL
      000000FDH   SFRSYM    DATA     BYTE      SBRT2L
      00000098H.7 SFRSYM    DATA     BIT       SM0_FE
      000000B2H   SFRSYM    DATA     BYTE      CLKCON
      00000098H.5 SFRSYM    DATA     BIT       SM2_TXCOL
      000000B5H   SFRSYM    DATA     BYTE      LDOCON
      000000F0H   SFRSYM    DATA     BYTE      B
      000000C8H   SFRSYM    DATA     BIT       CP_RL2
      000000E0H   SFRSYM    DATA     BYTE      ACC
      000000A8H.4 SFRSYM    DATA     BIT       ES0
      000000A8H.1 SFRSYM    DATA     BIT       ET0
      000000A8H.3 SFRSYM    DATA     BIT       ET1
      00000088H.5 SFRSYM    DATA     BIT       TF0
      000000A8H.5 SFRSYM    DATA     BIT       ET2
      00000088H.7 SFRSYM    DATA     BIT       TF1
      000000D8H   SFRSYM    DATA     BIT       RI1
      00000098H.2 SFRSYM    DATA     BIT       RB8
      000000C8H.7 SFRSYM    DATA     BIT       TF2
      0000008CH   SFRSYM    DATA     BYTE      TH0
      00000086H   SFRSYM    DATA     BYTE      INSCON
      0000008DH   SFRSYM    DATA     BYTE      TH1
      000000D8H.1 SFRSYM    DATA     BIT       TI1
      00000098H.3 SFRSYM    DATA     BIT       TB8
      000000CDH   SFRSYM    DATA     BYTE      TH2
      000000D0H   SFRSYM    DATA     BIT       P
      0000008AH   SFRSYM    DATA     BYTE      TL0
      000000A8H   SFRSYM    DATA     BIT       EX4
      0000008BH   SFRSYM    DATA     BYTE      TL1
      000000A7H   SFRSYM    DATA     BYTE      FLASHCON
      000000CCH   SFRSYM    DATA     BYTE      TL2
      000000D0H.3 SFRSYM    DATA     BIT       RS0
      000000C5H   SFRSYM    DATA     BYTE      ADCDH
      00000088H.4 SFRSYM    DATA     BIT       TR0
      000000D0H.4 SFRSYM    DATA     BIT       RS1
      0000009FH   SFRSYM    DATA     BYTE      PWMCON
      00000088H.6 SFRSYM    DATA     BIT       TR1
      000000C8H.2 SFRSYM    DATA     BIT       TR2
      000000C4H   SFRSYM    DATA     BYTE      ADCDL
      000000C2H   SFRSYM    DATA     BYTE      ADT
      00000083H   SFRSYM    DATA     BYTE      DPH
      00000082H   SFRSYM    DATA     BYTE      DPL
      000000D9H   SFRSYM    DATA     BYTE      SBUF1
      000000C8H.3 SFRSYM    DATA     BIT       EXEN2
      000000F9H   SFRSYM    DATA     BYTE      SBUF2
      000000D8H.6 SFRSYM    DATA     BIT       SM11_RXOV1
      000000B8H.6 SFRSYM    DATA     BIT       PADCL
      00000098H.4 SFRSYM    DATA     BIT       REN
      000000D8H   SFRSYM    DATA     BYTE      SCON1
      000000D1H   SFRSYM    DATA     BYTE      LCDCON1
      000000C1H   SFRSYM    DATA     BYTE      ADCON
      000000F8H   SFRSYM    DATA     BYTE      SCON2
      0000008FH   SFRSYM    DATA     BYTE      TCON1
LX51 LINKER/LOCATER V4.66.41.0                                                        11/18/2021  18:54:16  PAGE 254


      000000D2H   SFRSYM    DATA     BYTE      LCDCON2
      00000092H   SFRSYM    DATA     BYTE      EDTAH
      000000C9H   SFRSYM    DATA     BYTE      T2MOD
      000000C8H   SFRSYM    DATA     BYTE      T2CON
      00000094H   SFRSYM    DATA     BYTE      EDTAL
      00000093H   SFRSYM    DATA     BYTE      EDTAM
      000000BCH   SFRSYM    DATA     BYTE      TK0DIFH
      0000009BH   SFRSYM    DATA     BYTE      SADEN
      000000BEH   SFRSYM    DATA     BYTE      TK1DIFH
      000000B6H   SFRSYM    DATA     BYTE      PBANK
      000000A5H   SFRSYM    DATA     BYTE      TK2DIFH
      000000A8H.6 SFRSYM    DATA     BIT       EADTP
      0000009AH   SFRSYM    DATA     BYTE      SADDR
      000000CFH   SFRSYM    DATA     BYTE      TK0DIFL
      000000BDH   SFRSYM    DATA     BYTE      TK1DIFL
      000000BFH   SFRSYM    DATA     BYTE      TK2DIFL
      000000B8H.2 SFRSYM    DATA     BIT       P7816L
      000000C6H   SFRSYM    DATA     BYTE      LPDCON1
      000000C7H   SFRSYM    DATA     BYTE      LPDCON2
      000000D0H.5 SFRSYM    DATA     BIT       F0
      000000AEH   SFRSYM    DATA     BYTE      IRDAT
      000000D0H.1 SFRSYM    DATA     BIT       F1
      00000096H   SFRSYM    DATA     BYTE      EMUIE
      0000009EH   SFRSYM    DATA     BYTE      SFINE
      000000F7H   SFRSYM    DATA     BYTE      XPAGE
      00000097H   SFRSYM    DATA     BYTE      EMUIF
      000000D0H   SFRSYM    DATA     BYTE      PSW
      000000D8H.2 SFRSYM    DATA     BIT       RB81
      000000A3H   SFRSYM    DATA     BYTE      SPDAT
      000000F2H   SFRSYM    DATA     BYTE      IB_CON1
      0100498AH   SYMBOL    CODE     ---       LCDDrv_SgeComConfig
      010049AEH   SYMBOL    CODE     ---       LCDDrv_PwOnRegCfg

      0100491DH   BLOCK     CODE     ---       LVL=0
      0100491DH   LINE      ---      ---       #88
      0100491DH   LINE      ---      ---       #89
      0100491DH   LINE      ---      ---       #91
      01004924H   LINE      ---      ---       #92
      01004924H   LINE      ---      ---       #93
      01004924H   LINE      ---      ---       #94
      01004924H   LINE      ---      ---       #95
      01004926H   LINE      ---      ---       #98
      0100492AH   LINE      ---      ---       #99
      0100492DH   LINE      ---      ---       #100
      01004937H   LINE      ---      ---       #101
      01004941H   LINE      ---      ---       #105
      01004942H   LINE      ---      ---       #107
      01004942H   LINE      ---      ---       #108
      01004942H   LINE      ---      ---       #109
      01004944H   LINE      ---      ---       #112
      01004948H   LINE      ---      ---       #114
      01004948H   LINE      ---      ---       #116
      01004948H   LINE      ---      ---       #117
      01004948H   LINE      ---      ---       #118
      00000007H   SYMBOL    DATA     BYTE      v_ucPowerStatus
      ---         BLOCKEND  ---      ---       LVL=0

      0100498AH   BLOCK     CODE     ---       LVL=0
      0100498FH   LINE      ---      ---       #129
      0100498FH   LINE      ---      ---       #130
      0100498FH   LINE      ---      ---       #141
      01004995H   LINE      ---      ---       #142
      0100499BH   LINE      ---      ---       #143
      010049A1H   LINE      ---      ---       #144
      010049A7H   LINE      ---      ---       #146
LX51 LINKER/LOCATER V4.66.41.0                                                        11/18/2021  18:54:16  PAGE 255


      010049ADH   LINE      ---      ---       #157
      ---         BLOCKEND  ---      ---       LVL=0

      01004949H   BLOCK     CODE     ---       LVL=0
      01004949H   LINE      ---      ---       #171
      01004949H   LINE      ---      ---       #172
      00000007H   SYMBOL    DATA     BYTE      v_ucVal
      01004949H   BLOCK     CODE     NEAR LAB  LVL=1
      01004949H   LINE      ---      ---       #175
      0100494BH   LINE      ---      ---       #176
      0100494BH   LINE      ---      ---       #177
      01004957H   LINE      ---      ---       #178
      00000006H   SYMBOL    DATA     BYTE      V_ucCnti
      ---         BLOCKEND  CODE     ---       LVL=1
      ---         BLOCKEND  CODE     ---       LVL=0

      010049AEH   BLOCK     CODE     ---       LVL=0
      010049AEH   LINE      ---      ---       #193
      010049AEH   LINE      ---      ---       #194
      010049AEH   LINE      ---      ---       #195
      010049B6H   LINE      ---      ---       #196
      010049B6H   LINE      ---      ---       #197
      010049B9H   LINE      ---      ---       #198
      010049BCH   LINE      ---      ---       #199
      010049BCH   LINE      ---      ---       #201
      010049C4H   LINE      ---      ---       #202
      010049C4H   LINE      ---      ---       #203
      010049C7H   LINE      ---      ---       #204
      010049CAH   LINE      ---      ---       #205
      010049CAH   LINE      ---      ---       #207
      010049D2H   LINE      ---      ---       #208
      010049D2H   LINE      ---      ---       #209
      010049D5H   LINE      ---      ---       #210
      010049D8H   LINE      ---      ---       #211
      010049D8H   LINE      ---      ---       #213
      ---         BLOCKEND  ---      ---       LVL=0

      0100495CH   BLOCK     CODE     ---       LVL=0
      0100495CH   LINE      ---      ---       #225
      0100495CH   LINE      ---      ---       #226
      0100495CH   BLOCK     CODE     NEAR LAB  LVL=1
      0100495CH   LINE      ---      ---       #227
      01004960H   LINE      ---      ---       #230
      01004962H   LINE      ---      ---       #231
      01004962H   LINE      ---      ---       #232
      01004978H   LINE      ---      ---       #233
      01004984H   LINE      ---      ---       #234
      01004989H   LINE      ---      ---       #235
      00000006H   SYMBOL    DATA     ---       P_ucLcdBuf
      00000005H   SYMBOL    DATA     BYTE      V_ucCnti
      ---         BLOCKEND  CODE     ---       LVL=1
      ---         BLOCKEND  CODE     ---       LVL=0

      ---         MODULE    ---      ---       RELAYDRV
      010049E5H   PUBLIC    CODE     ---       RelayDrv_DelayTimeMonitor
      01004A0CH   PUBLIC    CODE     ---       RelayDrv_RelayNormal
      01004A17H   PUBLIC    CODE     ---       RelayDrv_Openrelay
      010049D9H   PUBLIC    CODE     ---       RelayDrv_Closerelay
      000000F3H   SFRSYM    DATA     BYTE      IB_CON2
      000000D8H.3 SFRSYM    DATA     BIT       TB81
      00000080H   SFRSYM    DATA     BYTE      P0
      000000F4H   SFRSYM    DATA     BYTE      IB_CON3
      000000A4H   SFRSYM    DATA     BYTE      TKCON
      00000090H   SFRSYM    DATA     BYTE      P1
      000000F5H   SFRSYM    DATA     BYTE      IB_CON4
LX51 LINKER/LOCATER V4.66.41.0                                                        11/18/2021  18:54:16  PAGE 256


      000000E7H   SFRSYM    DATA     BYTE      PASLO
      000000A0H   SFRSYM    DATA     BYTE      P2
      000000FEH   SFRSYM    DATA     BYTE      OSCLO
      000000F6H   SFRSYM    DATA     BYTE      IB_CON5
      00000098H.6 SFRSYM    DATA     BIT       SM1_RXOV
      000000B0H   SFRSYM    DATA     BYTE      P3
      000000D0H.6 SFRSYM    DATA     BIT       AC
      000000C0H   SFRSYM    DATA     BYTE      P4
      000000A1H   SFRSYM    DATA     BYTE      SPCON
      0000009CH   SFRSYM    DATA     BYTE      SBRTH
      000000E9H   SFRSYM    DATA     BYTE      P5
      000000A8H.7 SFRSYM    DATA     BIT       EA
      000000EAH   SFRSYM    DATA     BYTE      P6
      000000EBH   SFRSYM    DATA     BYTE      P7
      000000EFH   SFRSYM    DATA     BYTE      IB_DATA
      000000ECH   SFRSYM    DATA     BYTE      P8
      0000009DH   SFRSYM    DATA     BYTE      SBRTL
      000000EDH   SFRSYM    DATA     BYTE      P9
      000000B7H   SFRSYM    DATA     BYTE      PBANKLO
      000000A2H   SFRSYM    DATA     BYTE      SPSTA
      000000A8H   SFRSYM    DATA     BYTE      IEN0
      000000B3H   SFRSYM    DATA     BYTE      PWRCON1
      00000095H   SFRSYM    DATA     BYTE      EMUSR
      000000A9H   SFRSYM    DATA     BYTE      IEN1
      000000B4H   SFRSYM    DATA     BYTE      PWRCON2
      00000085H   SFRSYM    DATA     BYTE      DPH1
      00000080H   SFRSYM    DATA     BIT       P0_0
      00000090H   SFRSYM    DATA     BIT       P1_0
      00000080H.1 SFRSYM    DATA     BIT       P0_1
      000000C3H   SFRSYM    DATA     BYTE      ADCH
      000000A0H   SFRSYM    DATA     BIT       P2_0
      00000090H.1 SFRSYM    DATA     BIT       P1_1
      00000080H.2 SFRSYM    DATA     BIT       P0_2
      000000BAH   SFRSYM    DATA     BYTE      IPH0
      00000084H   SFRSYM    DATA     BYTE      DPL1
      000000B0H   SFRSYM    DATA     BIT       P3_0
      000000A0H.1 SFRSYM    DATA     BIT       P2_1
      00000090H.2 SFRSYM    DATA     BIT       P1_2
      00000080H.3 SFRSYM    DATA     BIT       P0_3
      000000BBH   SFRSYM    DATA     BYTE      IPH1
      000000C0H   SFRSYM    DATA     BIT       P4_0
      000000B0H.1 SFRSYM    DATA     BIT       P3_1
      000000A0H.2 SFRSYM    DATA     BIT       P2_2
      00000090H.3 SFRSYM    DATA     BIT       P1_3
      00000080H.4 SFRSYM    DATA     BIT       P0_4
      000000E8H   SFRSYM    DATA     BYTE      EXF0
      000000C0H.1 SFRSYM    DATA     BIT       P4_1
      000000B0H.2 SFRSYM    DATA     BIT       P3_2
      000000A0H.3 SFRSYM    DATA     BIT       P2_3
      00000090H.4 SFRSYM    DATA     BIT       P1_4
      00000080H.5 SFRSYM    DATA     BIT       P0_5
      000000C0H.2 SFRSYM    DATA     BIT       P4_2
      000000B0H.3 SFRSYM    DATA     BIT       P3_3
      000000A0H.4 SFRSYM    DATA     BIT       P2_4
      00000090H.5 SFRSYM    DATA     BIT       P1_5
      00000080H.6 SFRSYM    DATA     BIT       P0_6
      000000C8H.6 SFRSYM    DATA     BIT       EXF2
      000000A6H   SFRSYM    DATA     BYTE      TKF0
      000000B8H   SFRSYM    DATA     BYTE      IPL0
      000000C0H.3 SFRSYM    DATA     BIT       P4_3
      000000B0H.4 SFRSYM    DATA     BIT       P3_4
      000000A0H.5 SFRSYM    DATA     BIT       P2_5
      00000090H.6 SFRSYM    DATA     BIT       P1_6
      00000080H.7 SFRSYM    DATA     BIT       P0_7
      000000D8H.4 SFRSYM    DATA     BIT       REN1
LX51 LINKER/LOCATER V4.66.41.0                                                        11/18/2021  18:54:16  PAGE 257


      000000B9H   SFRSYM    DATA     BYTE      IPL1
      000000C0H.4 SFRSYM    DATA     BIT       P4_4
      000000B0H.5 SFRSYM    DATA     BIT       P3_5
      000000A0H.6 SFRSYM    DATA     BIT       P2_6
      00000090H.7 SFRSYM    DATA     BIT       P1_7
      000000E2H   SFRSYM    DATA     BYTE      TK0H
      0000008EH   SFRSYM    DATA     BYTE      SUSLO
      000000C0H.5 SFRSYM    DATA     BIT       P4_5
      000000B0H.6 SFRSYM    DATA     BIT       P3_6
      000000A0H.7 SFRSYM    DATA     BIT       P2_7
      000000E4H   SFRSYM    DATA     BYTE      TK1H
      000000C0H.6 SFRSYM    DATA     BIT       P4_6
      000000B0H.7 SFRSYM    DATA     BIT       P3_7
      000000E6H   SFRSYM    DATA     BYTE      TK2H
      000000C0H.7 SFRSYM    DATA     BIT       P4_7
      00000098H   SFRSYM    DATA     BIT       RI
      000000A8H.2 SFRSYM    DATA     BIT       E7816
      000000D0H.7 SFRSYM    DATA     BIT       CY
      000000E1H   SFRSYM    DATA     BYTE      TK0L
      00000098H.1 SFRSYM    DATA     BIT       TI
      00000091H   SFRSYM    DATA     BYTE      EADR
      000000E3H   SFRSYM    DATA     BYTE      TK1L
      000000E5H   SFRSYM    DATA     BYTE      TK2L
      000000DBH   SFRSYM    DATA     BYTE      SADEN1
      000000D8H.7 SFRSYM    DATA     BIT       SM10_FE1
      000000FBH   SFRSYM    DATA     BYTE      SADEN2
      000000B8H.4 SFRSYM    DATA     BIT       PS0L
      000000B8H.1 SFRSYM    DATA     BIT       PT0L
      000000DAH   SFRSYM    DATA     BYTE      SADDR1
      000000D8H.5 SFRSYM    DATA     BIT       SM12_TXCOL1
      000000B8H.3 SFRSYM    DATA     BIT       PT1L
      000000FAH   SFRSYM    DATA     BYTE      SADDR2
      000000CBH   SFRSYM    DATA     BYTE      RCAP2H
      000000B8H.5 SFRSYM    DATA     BIT       PT2L
      00000081H   SFRSYM    DATA     BYTE      SP
      000000D0H.2 SFRSYM    DATA     BIT       OV
      000000CAH   SFRSYM    DATA     BYTE      RCAP2L
      000000B8H   SFRSYM    DATA     BIT       PX4L
      000000C8H.1 SFRSYM    DATA     BIT       C_T2
      000000DEH   SFRSYM    DATA     BYTE      SFINE2
      000000ADH   SFRSYM    DATA     BYTE      IRCON1
      000000AFH   SFRSYM    DATA     BYTE      IRCON2
      000000ABH   SFRSYM    DATA     BYTE      EXCON1
      00000099H   SFRSYM    DATA     BYTE      SBUF
      000000ACH   SFRSYM    DATA     BYTE      EXCON2
      00000087H   SFRSYM    DATA     BYTE      PCON
      000000F1H   SFRSYM    DATA     BYTE      AUXC
      00000098H   SFRSYM    DATA     BYTE      SCON
      000000D4H   SFRSYM    DATA     BYTE      TK0BASEH
      00000089H   SFRSYM    DATA     BYTE      TMOD
      00000088H   SFRSYM    DATA     BYTE      TCON
      000000AAH   SFRSYM    DATA     BYTE      IENX
      000000EEH   SFRSYM    DATA     BYTE      IB_OFFSET
      000000D6H   SFRSYM    DATA     BYTE      TK1BASEH
      000000DCH   SFRSYM    DATA     BYTE      SBRT1H
      000000DFH   SFRSYM    DATA     BYTE      TK2BASEH
      000000FCH   SFRSYM    DATA     BYTE      SBRT2H
      000000B1H   SFRSYM    DATA     BYTE      RSTSTAT
      000000D3H   SFRSYM    DATA     BYTE      TK0BASEL
      000000D5H   SFRSYM    DATA     BYTE      TK1BASEL
      000000DDH   SFRSYM    DATA     BYTE      SBRT1L
      000000D7H   SFRSYM    DATA     BYTE      TK2BASEL
      000000FDH   SFRSYM    DATA     BYTE      SBRT2L
      00000098H.7 SFRSYM    DATA     BIT       SM0_FE
      000000B2H   SFRSYM    DATA     BYTE      CLKCON
LX51 LINKER/LOCATER V4.66.41.0                                                        11/18/2021  18:54:16  PAGE 258


      00000098H.5 SFRSYM    DATA     BIT       SM2_TXCOL
      000000B5H   SFRSYM    DATA     BYTE      LDOCON
      000000F0H   SFRSYM    DATA     BYTE      B
      000000C8H   SFRSYM    DATA     BIT       CP_RL2
      000000E0H   SFRSYM    DATA     BYTE      ACC
      000000A8H.4 SFRSYM    DATA     BIT       ES0
      000000A8H.1 SFRSYM    DATA     BIT       ET0
      000000A8H.3 SFRSYM    DATA     BIT       ET1
      00000088H.5 SFRSYM    DATA     BIT       TF0
      000000A8H.5 SFRSYM    DATA     BIT       ET2
      00000088H.7 SFRSYM    DATA     BIT       TF1
      000000D8H   SFRSYM    DATA     BIT       RI1
      00000098H.2 SFRSYM    DATA     BIT       RB8
      000000C8H.7 SFRSYM    DATA     BIT       TF2
      0000008CH   SFRSYM    DATA     BYTE      TH0
      00000086H   SFRSYM    DATA     BYTE      INSCON
      0000008DH   SFRSYM    DATA     BYTE      TH1
      000000D8H.1 SFRSYM    DATA     BIT       TI1
      00000098H.3 SFRSYM    DATA     BIT       TB8
      000000CDH   SFRSYM    DATA     BYTE      TH2
      000000D0H   SFRSYM    DATA     BIT       P
      0000008AH   SFRSYM    DATA     BYTE      TL0
      000000A8H   SFRSYM    DATA     BIT       EX4
      0000008BH   SFRSYM    DATA     BYTE      TL1
      000000A7H   SFRSYM    DATA     BYTE      FLASHCON
      000000CCH   SFRSYM    DATA     BYTE      TL2
      000000D0H.3 SFRSYM    DATA     BIT       RS0
      000000C5H   SFRSYM    DATA     BYTE      ADCDH
      00000088H.4 SFRSYM    DATA     BIT       TR0
      000000D0H.4 SFRSYM    DATA     BIT       RS1
      0000009FH   SFRSYM    DATA     BYTE      PWMCON
      00000088H.6 SFRSYM    DATA     BIT       TR1
      000000C8H.2 SFRSYM    DATA     BIT       TR2
      000000C4H   SFRSYM    DATA     BYTE      ADCDL
      000000C2H   SFRSYM    DATA     BYTE      ADT
      00000083H   SFRSYM    DATA     BYTE      DPH
      00000082H   SFRSYM    DATA     BYTE      DPL
      000000D9H   SFRSYM    DATA     BYTE      SBUF1
      000000C8H.3 SFRSYM    DATA     BIT       EXEN2
      000000F9H   SFRSYM    DATA     BYTE      SBUF2
      000000D8H.6 SFRSYM    DATA     BIT       SM11_RXOV1
      000000B8H.6 SFRSYM    DATA     BIT       PADCL
      00000098H.4 SFRSYM    DATA     BIT       REN
      000000D8H   SFRSYM    DATA     BYTE      SCON1
      000000D1H   SFRSYM    DATA     BYTE      LCDCON1
      000000C1H   SFRSYM    DATA     BYTE      ADCON
      000000F8H   SFRSYM    DATA     BYTE      SCON2
      0000008FH   SFRSYM    DATA     BYTE      TCON1
      000000D2H   SFRSYM    DATA     BYTE      LCDCON2
      00000092H   SFRSYM    DATA     BYTE      EDTAH
      000000C9H   SFRSYM    DATA     BYTE      T2MOD
      000000C8H   SFRSYM    DATA     BYTE      T2CON
      00000094H   SFRSYM    DATA     BYTE      EDTAL
      00000093H   SFRSYM    DATA     BYTE      EDTAM
      000000BCH   SFRSYM    DATA     BYTE      TK0DIFH
      0000009BH   SFRSYM    DATA     BYTE      SADEN
      000000BEH   SFRSYM    DATA     BYTE      TK1DIFH
      000000B6H   SFRSYM    DATA     BYTE      PBANK
      000000A5H   SFRSYM    DATA     BYTE      TK2DIFH
      000000A8H.6 SFRSYM    DATA     BIT       EADTP
      0000009AH   SFRSYM    DATA     BYTE      SADDR
      000000CFH   SFRSYM    DATA     BYTE      TK0DIFL
      000000BDH   SFRSYM    DATA     BYTE      TK1DIFL
      000000BFH   SFRSYM    DATA     BYTE      TK2DIFL
      000000B8H.2 SFRSYM    DATA     BIT       P7816L
LX51 LINKER/LOCATER V4.66.41.0                                                        11/18/2021  18:54:16  PAGE 259


      000000C6H   SFRSYM    DATA     BYTE      LPDCON1
      000000C7H   SFRSYM    DATA     BYTE      LPDCON2
      000000D0H.5 SFRSYM    DATA     BIT       F0
      000000AEH   SFRSYM    DATA     BYTE      IRDAT
      000000D0H.1 SFRSYM    DATA     BIT       F1
      00000096H   SFRSYM    DATA     BYTE      EMUIE
      0000009EH   SFRSYM    DATA     BYTE      SFINE
      000000F7H   SFRSYM    DATA     BYTE      XPAGE
      00000097H   SFRSYM    DATA     BYTE      EMUIF
      000000D0H   SFRSYM    DATA     BYTE      PSW
      000000D8H.2 SFRSYM    DATA     BIT       RB81
      000000A3H   SFRSYM    DATA     BYTE      SPDAT
      000000F2H   SFRSYM    DATA     BYTE      IB_CON1
      01004A0CH   SYMBOL    CODE     ---       RelayDrv_RelayNormal

      010049D9H   BLOCK     CODE     ---       LVL=0
      010049D9H   LINE      ---      ---       #95
      010049D9H   LINE      ---      ---       #96
      010049D9H   LINE      ---      ---       #98
      010049DCH   LINE      ---      ---       #99
      010049DDH   LINE      ---      ---       #100
      010049DEH   LINE      ---      ---       #101
      010049E1H   LINE      ---      ---       #104
      010049E4H   LINE      ---      ---       #107
      ---         BLOCKEND  ---      ---       LVL=0

      01004A17H   BLOCK     CODE     ---       LVL=0
      01004A17H   LINE      ---      ---       #111
      01004A17H   LINE      ---      ---       #112
      01004A17H   LINE      ---      ---       #114
      01004A1AH   LINE      ---      ---       #115
      01004A1BH   LINE      ---      ---       #116
      01004A1CH   LINE      ---      ---       #117
      01004A1FH   LINE      ---      ---       #120
      01004A22H   LINE      ---      ---       #123
      ---         BLOCKEND  ---      ---       LVL=0

      01004A0CH   BLOCK     CODE     ---       LVL=0
      01004A0CH   LINE      ---      ---       #125
      01004A0CH   LINE      ---      ---       #126
      01004A0CH   LINE      ---      ---       #127
      01004A0FH   LINE      ---      ---       #128
      01004A10H   LINE      ---      ---       #129
      01004A13H   LINE      ---      ---       #131
      01004A16H   LINE      ---      ---       #133
      ---         BLOCKEND  ---      ---       LVL=0

      010049E5H   BLOCK     CODE     ---       LVL=0
      010049E5H   LINE      ---      ---       #135
      010049E5H   LINE      ---      ---       #136
      010049E5H   LINE      ---      ---       #137
      010049EBH   LINE      ---      ---       #138
      010049EBH   LINE      ---      ---       #139
      010049EEH   LINE      ---      ---       #140
      010049F8H   LINE      ---      ---       #141
      010049F8H   LINE      ---      ---       #142
      010049FAH   LINE      ---      ---       #143
      010049FAH   LINE      ---      ---       #145
      01004A07H   LINE      ---      ---       #146
      01004A07H   LINE      ---      ---       #147
      01004A09H   LINE      ---      ---       #148
      01004A09H   LINE      ---      ---       #150
      01004A09H   LINE      ---      ---       #152
      01004A09H   LINE      ---      ---       #153
      01004A0BH   LINE      ---      ---       #154
LX51 LINKER/LOCATER V4.66.41.0                                                        11/18/2021  18:54:16  PAGE 260


      01004A0BH   LINE      ---      ---       #155
      ---         BLOCKEND  ---      ---       LVL=0

      ---         MODULE    ---      ---       SPIDRV
      01004A23H   PUBLIC    CODE     ---       SPIDrv_Disable_MeterIC
      01002B61H   PUBLIC    CODE     ---       SPIDrv_Eable_MeterIC
      01002B7FH   PUBLIC    CODE     ---       SPIDrv_ENSPIMode
      01002C2AH   PUBLIC    CODE     ---       _SPIDrv_SendBtye
      01002BB9H   PUBLIC    CODE     ---       SPIDrv_ReceiveByte
      000000F3H   SFRSYM    DATA     BYTE      IB_CON2
      000000D8H.3 SFRSYM    DATA     BIT       TB81
      00000080H   SFRSYM    DATA     BYTE      P0
      000000F4H   SFRSYM    DATA     BYTE      IB_CON3
      000000A4H   SFRSYM    DATA     BYTE      TKCON
      00000090H   SFRSYM    DATA     BYTE      P1
      000000F5H   SFRSYM    DATA     BYTE      IB_CON4
      000000E7H   SFRSYM    DATA     BYTE      PASLO
      000000A0H   SFRSYM    DATA     BYTE      P2
      000000FEH   SFRSYM    DATA     BYTE      OSCLO
      000000F6H   SFRSYM    DATA     BYTE      IB_CON5
      00000098H.6 SFRSYM    DATA     BIT       SM1_RXOV
      000000B0H   SFRSYM    DATA     BYTE      P3
      000000D0H.6 SFRSYM    DATA     BIT       AC
      000000C0H   SFRSYM    DATA     BYTE      P4
      000000A1H   SFRSYM    DATA     BYTE      SPCON
      0000009CH   SFRSYM    DATA     BYTE      SBRTH
      000000E9H   SFRSYM    DATA     BYTE      P5
      000000A8H.7 SFRSYM    DATA     BIT       EA
      000000EAH   SFRSYM    DATA     BYTE      P6
      000000EBH   SFRSYM    DATA     BYTE      P7
      000000EFH   SFRSYM    DATA     BYTE      IB_DATA
      000000ECH   SFRSYM    DATA     BYTE      P8
      0000009DH   SFRSYM    DATA     BYTE      SBRTL
      000000EDH   SFRSYM    DATA     BYTE      P9
      000000B7H   SFRSYM    DATA     BYTE      PBANKLO
      000000A2H   SFRSYM    DATA     BYTE      SPSTA
      000000A8H   SFRSYM    DATA     BYTE      IEN0
      000000B3H   SFRSYM    DATA     BYTE      PWRCON1
      00000095H   SFRSYM    DATA     BYTE      EMUSR
      000000A9H   SFRSYM    DATA     BYTE      IEN1
      000000B4H   SFRSYM    DATA     BYTE      PWRCON2
      00000085H   SFRSYM    DATA     BYTE      DPH1
      00000080H   SFRSYM    DATA     BIT       P0_0
      00000090H   SFRSYM    DATA     BIT       P1_0
      00000080H.1 SFRSYM    DATA     BIT       P0_1
      000000C3H   SFRSYM    DATA     BYTE      ADCH
      000000A0H   SFRSYM    DATA     BIT       P2_0
      00000090H.1 SFRSYM    DATA     BIT       P1_1
      00000080H.2 SFRSYM    DATA     BIT       P0_2
      000000BAH   SFRSYM    DATA     BYTE      IPH0
      00000084H   SFRSYM    DATA     BYTE      DPL1
      000000B0H   SFRSYM    DATA     BIT       P3_0
      000000A0H.1 SFRSYM    DATA     BIT       P2_1
      00000090H.2 SFRSYM    DATA     BIT       P1_2
      00000080H.3 SFRSYM    DATA     BIT       P0_3
      000000BBH   SFRSYM    DATA     BYTE      IPH1
      000000C0H   SFRSYM    DATA     BIT       P4_0
      000000B0H.1 SFRSYM    DATA     BIT       P3_1
      000000A0H.2 SFRSYM    DATA     BIT       P2_2
      00000090H.3 SFRSYM    DATA     BIT       P1_3
      00000080H.4 SFRSYM    DATA     BIT       P0_4
      000000E8H   SFRSYM    DATA     BYTE      EXF0
      000000C0H.1 SFRSYM    DATA     BIT       P4_1
      000000B0H.2 SFRSYM    DATA     BIT       P3_2
      000000A0H.3 SFRSYM    DATA     BIT       P2_3
LX51 LINKER/LOCATER V4.66.41.0                                                        11/18/2021  18:54:16  PAGE 261


      00000090H.4 SFRSYM    DATA     BIT       P1_4
      00000080H.5 SFRSYM    DATA     BIT       P0_5
      000000C0H.2 SFRSYM    DATA     BIT       P4_2
      000000B0H.3 SFRSYM    DATA     BIT       P3_3
      000000A0H.4 SFRSYM    DATA     BIT       P2_4
      00000090H.5 SFRSYM    DATA     BIT       P1_5
      00000080H.6 SFRSYM    DATA     BIT       P0_6
      000000C8H.6 SFRSYM    DATA     BIT       EXF2
      000000A6H   SFRSYM    DATA     BYTE      TKF0
      000000B8H   SFRSYM    DATA     BYTE      IPL0
      000000C0H.3 SFRSYM    DATA     BIT       P4_3
      000000B0H.4 SFRSYM    DATA     BIT       P3_4
      000000A0H.5 SFRSYM    DATA     BIT       P2_5
      00000090H.6 SFRSYM    DATA     BIT       P1_6
      00000080H.7 SFRSYM    DATA     BIT       P0_7
      000000D8H.4 SFRSYM    DATA     BIT       REN1
      000000B9H   SFRSYM    DATA     BYTE      IPL1
      000000C0H.4 SFRSYM    DATA     BIT       P4_4
      000000B0H.5 SFRSYM    DATA     BIT       P3_5
      000000A0H.6 SFRSYM    DATA     BIT       P2_6
      00000090H.7 SFRSYM    DATA     BIT       P1_7
      000000E2H   SFRSYM    DATA     BYTE      TK0H
      0000008EH   SFRSYM    DATA     BYTE      SUSLO
      000000C0H.5 SFRSYM    DATA     BIT       P4_5
      000000B0H.6 SFRSYM    DATA     BIT       P3_6
      000000A0H.7 SFRSYM    DATA     BIT       P2_7
      000000E4H   SFRSYM    DATA     BYTE      TK1H
      000000C0H.6 SFRSYM    DATA     BIT       P4_6
      000000B0H.7 SFRSYM    DATA     BIT       P3_7
      000000E6H   SFRSYM    DATA     BYTE      TK2H
      000000C0H.7 SFRSYM    DATA     BIT       P4_7
      00000098H   SFRSYM    DATA     BIT       RI
      000000A8H.2 SFRSYM    DATA     BIT       E7816
      000000D0H.7 SFRSYM    DATA     BIT       CY
      000000E1H   SFRSYM    DATA     BYTE      TK0L
      00000098H.1 SFRSYM    DATA     BIT       TI
      00000091H   SFRSYM    DATA     BYTE      EADR
      000000E3H   SFRSYM    DATA     BYTE      TK1L
      000000E5H   SFRSYM    DATA     BYTE      TK2L
      000000DBH   SFRSYM    DATA     BYTE      SADEN1
      000000D8H.7 SFRSYM    DATA     BIT       SM10_FE1
      000000FBH   SFRSYM    DATA     BYTE      SADEN2
      000000B8H.4 SFRSYM    DATA     BIT       PS0L
      000000B8H.1 SFRSYM    DATA     BIT       PT0L
      000000DAH   SFRSYM    DATA     BYTE      SADDR1
      000000D8H.5 SFRSYM    DATA     BIT       SM12_TXCOL1
      000000B8H.3 SFRSYM    DATA     BIT       PT1L
      000000FAH   SFRSYM    DATA     BYTE      SADDR2
      000000CBH   SFRSYM    DATA     BYTE      RCAP2H
      000000B8H.5 SFRSYM    DATA     BIT       PT2L
      00000081H   SFRSYM    DATA     BYTE      SP
      000000D0H.2 SFRSYM    DATA     BIT       OV
      000000CAH   SFRSYM    DATA     BYTE      RCAP2L
      000000B8H   SFRSYM    DATA     BIT       PX4L
      000000C8H.1 SFRSYM    DATA     BIT       C_T2
      000000DEH   SFRSYM    DATA     BYTE      SFINE2
      000000ADH   SFRSYM    DATA     BYTE      IRCON1
      000000AFH   SFRSYM    DATA     BYTE      IRCON2
      000000ABH   SFRSYM    DATA     BYTE      EXCON1
      00000099H   SFRSYM    DATA     BYTE      SBUF
      000000ACH   SFRSYM    DATA     BYTE      EXCON2
      00000087H   SFRSYM    DATA     BYTE      PCON
      000000F1H   SFRSYM    DATA     BYTE      AUXC
      00000098H   SFRSYM    DATA     BYTE      SCON
      000000D4H   SFRSYM    DATA     BYTE      TK0BASEH
LX51 LINKER/LOCATER V4.66.41.0                                                        11/18/2021  18:54:16  PAGE 262


      00000089H   SFRSYM    DATA     BYTE      TMOD
      00000088H   SFRSYM    DATA     BYTE      TCON
      000000AAH   SFRSYM    DATA     BYTE      IENX
      000000EEH   SFRSYM    DATA     BYTE      IB_OFFSET
      000000D6H   SFRSYM    DATA     BYTE      TK1BASEH
      000000DCH   SFRSYM    DATA     BYTE      SBRT1H
      000000DFH   SFRSYM    DATA     BYTE      TK2BASEH
      000000FCH   SFRSYM    DATA     BYTE      SBRT2H
      000000B1H   SFRSYM    DATA     BYTE      RSTSTAT
      000000D3H   SFRSYM    DATA     BYTE      TK0BASEL
      000000D5H   SFRSYM    DATA     BYTE      TK1BASEL
      000000DDH   SFRSYM    DATA     BYTE      SBRT1L
      000000D7H   SFRSYM    DATA     BYTE      TK2BASEL
      000000FDH   SFRSYM    DATA     BYTE      SBRT2L
      00000098H.7 SFRSYM    DATA     BIT       SM0_FE
      000000B2H   SFRSYM    DATA     BYTE      CLKCON
      00000098H.5 SFRSYM    DATA     BIT       SM2_TXCOL
      000000B5H   SFRSYM    DATA     BYTE      LDOCON
      000000F0H   SFRSYM    DATA     BYTE      B
      000000C8H   SFRSYM    DATA     BIT       CP_RL2
      000000E0H   SFRSYM    DATA     BYTE      ACC
      000000A8H.4 SFRSYM    DATA     BIT       ES0
      000000A8H.1 SFRSYM    DATA     BIT       ET0
      000000A8H.3 SFRSYM    DATA     BIT       ET1
      00000088H.5 SFRSYM    DATA     BIT       TF0
      000000A8H.5 SFRSYM    DATA     BIT       ET2
      00000088H.7 SFRSYM    DATA     BIT       TF1
      000000D8H   SFRSYM    DATA     BIT       RI1
      00000098H.2 SFRSYM    DATA     BIT       RB8
      000000C8H.7 SFRSYM    DATA     BIT       TF2
      0000008CH   SFRSYM    DATA     BYTE      TH0
      00000086H   SFRSYM    DATA     BYTE      INSCON
      0000008DH   SFRSYM    DATA     BYTE      TH1
      000000D8H.1 SFRSYM    DATA     BIT       TI1
      00000098H.3 SFRSYM    DATA     BIT       TB8
      000000CDH   SFRSYM    DATA     BYTE      TH2
      000000D0H   SFRSYM    DATA     BIT       P
      0000008AH   SFRSYM    DATA     BYTE      TL0
      000000A8H   SFRSYM    DATA     BIT       EX4
      0000008BH   SFRSYM    DATA     BYTE      TL1
      000000A7H   SFRSYM    DATA     BYTE      FLASHCON
      000000CCH   SFRSYM    DATA     BYTE      TL2
      000000D0H.3 SFRSYM    DATA     BIT       RS0
      000000C5H   SFRSYM    DATA     BYTE      ADCDH
      00000088H.4 SFRSYM    DATA     BIT       TR0
      000000D0H.4 SFRSYM    DATA     BIT       RS1
      0000009FH   SFRSYM    DATA     BYTE      PWMCON
      00000088H.6 SFRSYM    DATA     BIT       TR1
      000000C8H.2 SFRSYM    DATA     BIT       TR2
      000000C4H   SFRSYM    DATA     BYTE      ADCDL
      000000C2H   SFRSYM    DATA     BYTE      ADT
      00000083H   SFRSYM    DATA     BYTE      DPH
      00000082H   SFRSYM    DATA     BYTE      DPL
      000000D9H   SFRSYM    DATA     BYTE      SBUF1
      000000C8H.3 SFRSYM    DATA     BIT       EXEN2
      000000F9H   SFRSYM    DATA     BYTE      SBUF2
      000000D8H.6 SFRSYM    DATA     BIT       SM11_RXOV1
      000000B8H.6 SFRSYM    DATA     BIT       PADCL
      00000098H.4 SFRSYM    DATA     BIT       REN
      000000D8H   SFRSYM    DATA     BYTE      SCON1
      000000D1H   SFRSYM    DATA     BYTE      LCDCON1
      000000C1H   SFRSYM    DATA     BYTE      ADCON
      000000F8H   SFRSYM    DATA     BYTE      SCON2
      0000008FH   SFRSYM    DATA     BYTE      TCON1
      000000D2H   SFRSYM    DATA     BYTE      LCDCON2
LX51 LINKER/LOCATER V4.66.41.0                                                        11/18/2021  18:54:16  PAGE 263


      00000092H   SFRSYM    DATA     BYTE      EDTAH
      000000C9H   SFRSYM    DATA     BYTE      T2MOD
      000000C8H   SFRSYM    DATA     BYTE      T2CON
      00000094H   SFRSYM    DATA     BYTE      EDTAL
      00000093H   SFRSYM    DATA     BYTE      EDTAM
      000000BCH   SFRSYM    DATA     BYTE      TK0DIFH
      0000009BH   SFRSYM    DATA     BYTE      SADEN
      000000BEH   SFRSYM    DATA     BYTE      TK1DIFH
      000000B6H   SFRSYM    DATA     BYTE      PBANK
      000000A5H   SFRSYM    DATA     BYTE      TK2DIFH
      000000A8H.6 SFRSYM    DATA     BIT       EADTP
      0000009AH   SFRSYM    DATA     BYTE      SADDR
      000000CFH   SFRSYM    DATA     BYTE      TK0DIFL
      000000BDH   SFRSYM    DATA     BYTE      TK1DIFL
      000000BFH   SFRSYM    DATA     BYTE      TK2DIFL
      000000B8H.2 SFRSYM    DATA     BIT       P7816L
      000000C6H   SFRSYM    DATA     BYTE      LPDCON1
      000000C7H   SFRSYM    DATA     BYTE      LPDCON2
      000000D0H.5 SFRSYM    DATA     BIT       F0
      000000AEH   SFRSYM    DATA     BYTE      IRDAT
      000000D0H.1 SFRSYM    DATA     BIT       F1
      00000096H   SFRSYM    DATA     BYTE      EMUIE
      0000009EH   SFRSYM    DATA     BYTE      SFINE
      000000F7H   SFRSYM    DATA     BYTE      XPAGE
      00000097H   SFRSYM    DATA     BYTE      EMUIF
      000000D0H   SFRSYM    DATA     BYTE      PSW
      000000D8H.2 SFRSYM    DATA     BIT       RB81
      000000A3H   SFRSYM    DATA     BYTE      SPDAT
      000000F2H   SFRSYM    DATA     BYTE      IB_CON1

      01002BB9H   BLOCK     CODE     ---       LVL=0
      01002BB9H   LINE      ---      ---       #89
      01002BB9H   LINE      ---      ---       #90
      01002BB9H   BLOCK     CODE     NEAR LAB  LVL=1
      01002BB9H   LINE      ---      ---       #92
      01002BC7H   LINE      ---      ---       #93
      01002BCCH   LINE      ---      ---       #94
      01002BD6H   LINE      ---      ---       #95
      01002BDBH   LINE      ---      ---       #96
      01002BDBH   LINE      ---      ---       #97
      01002BE3H   LINE      ---      ---       #98
      01002BEDH   LINE      ---      ---       #99
      01002BEFH   LINE      ---      ---       #100
      01002BF4H   LINE      ---      ---       #101
      01002BF4H   LINE      ---      ---       #102
      01002BFBH   LINE      ---      ---       #103
      01002BFBH   LINE      ---      ---       #104
      01002C05H   LINE      ---      ---       #105
      01002C07H   LINE      ---      ---       #106
      01002C08H   LINE      ---      ---       #107
      01002C09H   LINE      ---      ---       #108
      01002C15H   LINE      ---      ---       #109
      01002C1FH   LINE      ---      ---       #110
      01002C24H   LINE      ---      ---       #111
      020006BAH   SYMBOL    XDATA    BYTE      i
      020006BBH   SYMBOL    XDATA    BYTE      V_ucDataTemp
      ---         BLOCKEND  CODE     ---       LVL=1
      ---         BLOCKEND  CODE     ---       LVL=0

      01002C25H   BLOCK     CODE     ---       LVL=0
      01002C2AH   LINE      ---      ---       #125
      01002C2FH   LINE      ---      ---       #126
      020006C3H   SYMBOL    XDATA    BYTE      v_ucSendData
      01002C2FH   BLOCK     CODE     NEAR LAB  LVL=1
      01002C2FH   LINE      ---      ---       #128
LX51 LINKER/LOCATER V4.66.41.0                                                        11/18/2021  18:54:16  PAGE 264


      01002C3DH   LINE      ---      ---       #129
      01002C47H   LINE      ---      ---       #130
      01002C4CH   LINE      ---      ---       #131
      01002C4CH   LINE      ---      ---       #132
      01002C56H   LINE      ---      ---       #133
      01002C60H   LINE      ---      ---       #134
      01002C60H   LINE      ---      ---       #135
      01002C67H   LINE      ---      ---       #136
      01002C69H   LINE      ---      ---       #138
      01002C69H   LINE      ---      ---       #139
      01002C70H   LINE      ---      ---       #140
      01002C70H   LINE      ---      ---       #141
      01002C72H   LINE      ---      ---       #142
      01002C7CH   LINE      ---      ---       #143
      01002C84H   LINE      ---      ---       #144
      01002C86H   LINE      ---      ---       #145
      01002C87H   LINE      ---      ---       #146
      01002C88H   LINE      ---      ---       #147
      01002C94H   LINE      ---      ---       #148
      01002C9EH   LINE      ---      ---       #149
      020006C4H   SYMBOL    XDATA    BYTE      i
      ---         BLOCKEND  CODE     ---       LVL=1
      ---         BLOCKEND  CODE     ---       LVL=0

      01002B7BH   BLOCK     CODE     ---       LVL=0
      01002B7FH   LINE      ---      ---       #161
      01002B7FH   LINE      ---      ---       #162
      01002B7FH   LINE      ---      ---       #163
      01002B8DH   LINE      ---      ---       #164
      01002B97H   LINE      ---      ---       #165
      01002B99H   LINE      ---      ---       #168
      01002BA3H   LINE      ---      ---       #169
      01002BA5H   LINE      ---      ---       #170
      01002BAFH   LINE      ---      ---       #171
      ---         BLOCKEND  ---      ---       LVL=0

      01002B61H   BLOCK     CODE     ---       LVL=0
      01002B61H   LINE      ---      ---       #183
      01002B61H   LINE      ---      ---       #184
      01002B61H   LINE      ---      ---       #185
      01002B6BH   LINE      ---      ---       #186
      01002B6DH   LINE      ---      ---       #187
      01002B77H   LINE      ---      ---       #188
      01002B79H   LINE      ---      ---       #191
      ---         BLOCKEND  ---      ---       LVL=0

      01004A23H   BLOCK     CODE     ---       LVL=0
      01004A23H   LINE      ---      ---       #203
      01004A23H   LINE      ---      ---       #204
      01004A23H   LINE      ---      ---       #205
      01004A2DH   LINE      ---      ---       #206
      ---         BLOCKEND  ---      ---       LVL=0

      ---         MODULE    ---      ---       ?BANK?SWITCHING
      01000100H   PUBLIC    CODE     ---       ?B_BANK0
      01000123H   PUBLIC    CODE     ---       ?B_BANK1
      01000146H   PUBLIC    CODE     ---       ?B_BANK2
      01000169H   PUBLIC    CODE     ---       ?B_BANK3
      00000008H   PUBLIC    DATA     ---       ?B_CURRENTBANK
      00000000H   PUBLIC    NUMBER   ---       ?B_FACTOR
      00000003H   PUBLIC    NUMBER   ---       ?B_MASK
      00000004H   PUBLIC    NUMBER   ---       ?B_MODE
      00000004H   PUBLIC    NUMBER   ---       ?B_NBANKS
      000000FFH   PUBLIC    NUMBER   ---       ?B_RST_BANK
      0100010AH   PUBLIC    CODE     ---       ?B_SWITCH0
LX51 LINKER/LOCATER V4.66.41.0                                                        11/18/2021  18:54:16  PAGE 265


      0100012DH   PUBLIC    CODE     ---       ?B_SWITCH1
      01000150H   PUBLIC    CODE     ---       ?B_SWITCH2
      01000173H   PUBLIC    CODE     ---       ?B_SWITCH3
      0100000EH   PUBLIC    CODE     ---       _SWITCHBANK
      00000000H   SYMBOL    NUMBER   ---       ?BANK?SWITCHING
      00000000H   SYMBOL    NUMBER   ---       ?B_FIRSTBIT
      00000000H   SYMBOL    NUMBER   ---       ?B_RTX
      00000000H   SYMBOL    NUMBER   ---       ?B_VAR_BANKING
      000000E0H   SYMBOL    DATA     ---       ACC
      000000F0H   SYMBOL    DATA     ---       B
      0000008CH   SYMBOL    NUMBER   ---       B_SWITCH_SIZE
      01000100H   SYMBOL    CODE     ---       B_SWITCH_START
      00000004H   SYMBOL    NUMBER   ---       CNT
      00000083H   SYMBOL    DATA     ---       DPH
      00000082H   SYMBOL    DATA     ---       DPL
      000000A8H.7 SYMBOL    BIT      ---       EA
      000000A8H   SYMBOL    DATA     ---       IE
      00000003H   SYMBOL    NUMBER   ---       MASK
      000000B6H   SYMBOL    DATA     ---       PBANK
      000000B7H   SYMBOL    DATA     ---       PBANKLO
      01000016H   SYMBOL    CODE     ---       SWITCH_TAB
      0100000FH   SYMBOL    CODE     ---       _SWITCHBANK_A

      ---         MODULE    ---      ---       ?C_STARTUP
      01000000H   PUBLIC    CODE     ---       ?C_STARTUP
      000000E0H   SYMBOL    DATA     ---       ACC
      000000F0H   SYMBOL    DATA     ---       B
      00000083H   SYMBOL    DATA     ---       DPH
      00000082H   SYMBOL    DATA     ---       DPL
      00000000H   SYMBOL    NUMBER   ---       IBPSTACK
      00000100H   SYMBOL    NUMBER   ---       IBPSTACKTOP
      00000080H   SYMBOL    NUMBER   ---       IDATALEN
      01000A61H   SYMBOL    CODE     ---       IDATALOOP
      00000000H   SYMBOL    NUMBER   ---       PBPSTACK
      00000100H   SYMBOL    NUMBER   ---       PBPSTACKTOP
      00000000H   SYMBOL    NUMBER   ---       PDATALEN
      00000000H   SYMBOL    NUMBER   ---       PDATASTART
      00000000H   SYMBOL    NUMBER   ---       PPAGE
      00000000H   SYMBOL    NUMBER   ---       PPAGEENABLE
      000000A0H   SYMBOL    DATA     ---       PPAGE_SFR
      00000081H   SYMBOL    DATA     ---       SP
      01000A5EH   SYMBOL    CODE     ---       STARTUP1
      00000000H   SYMBOL    NUMBER   ---       XBPSTACK
      00000000H   SYMBOL    NUMBER   ---       XBPSTACKTOP
      00000000H   SYMBOL    NUMBER   ---       XDATALEN
      00000000H   SYMBOL    NUMBER   ---       XDATASTART
      01000000H   LINE      CODE     ---       #126
      01000A5EH   LINE      CODE     ---       #133
      01000A60H   LINE      CODE     ---       #134
      01000A61H   LINE      CODE     ---       #135
      01000A62H   LINE      CODE     ---       #136
      01000A64H   LINE      CODE     ---       #185
      01000A67H   LINE      CODE     ---       #193
      01000A6AH   LINE      CODE     ---       #196

      ---         MODULE    ---      ---       TRIPLEDES
      02000BFEH   PUBLIC    XDATA    ---       GA_ucDesTata
      00000020H   PUBLIC    DATA     BYTE      GV_bDesRepbit
      02000BEEH   PUBLIC    XDATA    ---       GA_ucDesKey
      02000AF4H   PUBLIC    XDATA    ---       GA_uc7816CommBuffer
      01000C6DH   PUBLIC    CONST    ---       GT_ucSBox
      01000C4DH   PUBLIC    CONST    ---       GT_ucPBoxLocation
      01000C2DH   PUBLIC    CONST    ---       GT_ucPBoxValue
      01000BFDH   PUBLIC    CONST    ---       GT_ucEBoxLocation
      01000BCDH   PUBLIC    CONST    ---       GT_ucEBoxValue
LX51 LINKER/LOCATER V4.66.41.0                                                        11/18/2021  18:54:16  PAGE 266


      01000BBDH   PUBLIC    CONST    ---       GT_ucShiftTable
      01000B8DH   PUBLIC    CONST    ---       GT_ucPC_2Value
      01000B5DH   PUBLIC    CONST    ---       GT_ucPC_2Location
      01000B25H   PUBLIC    CONST    ---       GT_ucPC_1Value
      01000AEDH   PUBLIC    CONST    ---       GT_ucPC_1Location
      02000772H   PUBLIC    XDATA    BYTE      ?_Data_MAC?BYTE
      0100257DH   PUBLIC    CODE     ---       _Data_MAC
      0200077FH   PUBLIC    XDATA    BYTE      ?_TripleDES_DeOrEncryption?BYTE
      01002527H   PUBLIC    CODE     ---       _TripleDES_DeOrEncryption
      02000786H   PUBLIC    XDATA    BYTE      ?_DES_DeOrEncryption?BYTE
      01002392H   PUBLIC    CODE     ---       _DES_DeOrEncryption
      0200079FH   PUBLIC    XDATA    BYTE      ?_DES_F?BYTE
      01004BC6H   PUBLIC    CODE     ---       _DES_F
      01002484H   PUBLIC    CODE     ---       _DES_IP_1
      01004E0EH   PUBLIC    CODE     ---       _DES_CycLRShifting
      020007B2H   PUBLIC    XDATA    BYTE      ?_DES_Transposition?BYTE
      01004AF3H   PUBLIC    CODE     ---       _DES_Transposition
      01004AD5H   PUBLIC    CODE     ---       _DES_PC_1
      01004A5DH   PUBLIC    CODE     ---       _DES_IP
      01004A35H   PUBLIC    CODE     ---       _DES_ReplaceMent
      000000F3H   SFRSYM    DATA     BYTE      IB_CON2
      000000D8H.3 SFRSYM    DATA     BIT       TB81
      00000080H   SFRSYM    DATA     BYTE      P0
      000000F4H   SFRSYM    DATA     BYTE      IB_CON3
      000000A4H   SFRSYM    DATA     BYTE      TKCON
      00000090H   SFRSYM    DATA     BYTE      P1
      000000F5H   SFRSYM    DATA     BYTE      IB_CON4
      000000E7H   SFRSYM    DATA     BYTE      PASLO
      000000A0H   SFRSYM    DATA     BYTE      P2
      000000FEH   SFRSYM    DATA     BYTE      OSCLO
      000000F6H   SFRSYM    DATA     BYTE      IB_CON5
      00000098H.6 SFRSYM    DATA     BIT       SM1_RXOV
      000000B0H   SFRSYM    DATA     BYTE      P3
      000000D0H.6 SFRSYM    DATA     BIT       AC
      000000C0H   SFRSYM    DATA     BYTE      P4
      000000A1H   SFRSYM    DATA     BYTE      SPCON
      0000009CH   SFRSYM    DATA     BYTE      SBRTH
      000000E9H   SFRSYM    DATA     BYTE      P5
      000000A8H.7 SFRSYM    DATA     BIT       EA
      000000EAH   SFRSYM    DATA     BYTE      P6
      000000EBH   SFRSYM    DATA     BYTE      P7
      000000EFH   SFRSYM    DATA     BYTE      IB_DATA
      000000ECH   SFRSYM    DATA     BYTE      P8
      0000009DH   SFRSYM    DATA     BYTE      SBRTL
      000000EDH   SFRSYM    DATA     BYTE      P9
      000000B7H   SFRSYM    DATA     BYTE      PBANKLO
      000000A2H   SFRSYM    DATA     BYTE      SPSTA
      000000A8H   SFRSYM    DATA     BYTE      IEN0
      000000B3H   SFRSYM    DATA     BYTE      PWRCON1
      00000095H   SFRSYM    DATA     BYTE      EMUSR
      000000A9H   SFRSYM    DATA     BYTE      IEN1
      000000B4H   SFRSYM    DATA     BYTE      PWRCON2
      00000085H   SFRSYM    DATA     BYTE      DPH1
      00000080H   SFRSYM    DATA     BIT       P0_0
      00000090H   SFRSYM    DATA     BIT       P1_0
      00000080H.1 SFRSYM    DATA     BIT       P0_1
      000000C3H   SFRSYM    DATA     BYTE      ADCH
      000000A0H   SFRSYM    DATA     BIT       P2_0
      00000090H.1 SFRSYM    DATA     BIT       P1_1
      00000080H.2 SFRSYM    DATA     BIT       P0_2
      000000BAH   SFRSYM    DATA     BYTE      IPH0
      00000084H   SFRSYM    DATA     BYTE      DPL1
      000000B0H   SFRSYM    DATA     BIT       P3_0
      000000A0H.1 SFRSYM    DATA     BIT       P2_1
      00000090H.2 SFRSYM    DATA     BIT       P1_2
LX51 LINKER/LOCATER V4.66.41.0                                                        11/18/2021  18:54:16  PAGE 267


      00000080H.3 SFRSYM    DATA     BIT       P0_3
      000000BBH   SFRSYM    DATA     BYTE      IPH1
      000000C0H   SFRSYM    DATA     BIT       P4_0
      000000B0H.1 SFRSYM    DATA     BIT       P3_1
      000000A0H.2 SFRSYM    DATA     BIT       P2_2
      00000090H.3 SFRSYM    DATA     BIT       P1_3
      00000080H.4 SFRSYM    DATA     BIT       P0_4
      000000E8H   SFRSYM    DATA     BYTE      EXF0
      000000C0H.1 SFRSYM    DATA     BIT       P4_1
      000000B0H.2 SFRSYM    DATA     BIT       P3_2
      000000A0H.3 SFRSYM    DATA     BIT       P2_3
      00000090H.4 SFRSYM    DATA     BIT       P1_4
      00000080H.5 SFRSYM    DATA     BIT       P0_5
      000000C0H.2 SFRSYM    DATA     BIT       P4_2
      000000B0H.3 SFRSYM    DATA     BIT       P3_3
      000000A0H.4 SFRSYM    DATA     BIT       P2_4
      00000090H.5 SFRSYM    DATA     BIT       P1_5
      00000080H.6 SFRSYM    DATA     BIT       P0_6
      000000C8H.6 SFRSYM    DATA     BIT       EXF2
      000000A6H   SFRSYM    DATA     BYTE      TKF0
      000000B8H   SFRSYM    DATA     BYTE      IPL0
      000000C0H.3 SFRSYM    DATA     BIT       P4_3
      000000B0H.4 SFRSYM    DATA     BIT       P3_4
      000000A0H.5 SFRSYM    DATA     BIT       P2_5
      00000090H.6 SFRSYM    DATA     BIT       P1_6
      00000080H.7 SFRSYM    DATA     BIT       P0_7
      000000D8H.4 SFRSYM    DATA     BIT       REN1
      000000B9H   SFRSYM    DATA     BYTE      IPL1
      000000C0H.4 SFRSYM    DATA     BIT       P4_4
      000000B0H.5 SFRSYM    DATA     BIT       P3_5
      000000A0H.6 SFRSYM    DATA     BIT       P2_6
      00000090H.7 SFRSYM    DATA     BIT       P1_7
      000000E2H   SFRSYM    DATA     BYTE      TK0H
      0000008EH   SFRSYM    DATA     BYTE      SUSLO
      000000C0H.5 SFRSYM    DATA     BIT       P4_5
      000000B0H.6 SFRSYM    DATA     BIT       P3_6
      000000A0H.7 SFRSYM    DATA     BIT       P2_7
      000000E4H   SFRSYM    DATA     BYTE      TK1H
      000000C0H.6 SFRSYM    DATA     BIT       P4_6
      000000B0H.7 SFRSYM    DATA     BIT       P3_7
      000000E6H   SFRSYM    DATA     BYTE      TK2H
      000000C0H.7 SFRSYM    DATA     BIT       P4_7
      00000098H   SFRSYM    DATA     BIT       RI
      000000A8H.2 SFRSYM    DATA     BIT       E7816
      000000D0H.7 SFRSYM    DATA     BIT       CY
      000000E1H   SFRSYM    DATA     BYTE      TK0L
      00000098H.1 SFRSYM    DATA     BIT       TI
      00000091H   SFRSYM    DATA     BYTE      EADR
      000000E3H   SFRSYM    DATA     BYTE      TK1L
      000000E5H   SFRSYM    DATA     BYTE      TK2L
      000000DBH   SFRSYM    DATA     BYTE      SADEN1
      000000D8H.7 SFRSYM    DATA     BIT       SM10_FE1
      000000FBH   SFRSYM    DATA     BYTE      SADEN2
      000000B8H.4 SFRSYM    DATA     BIT       PS0L
      000000B8H.1 SFRSYM    DATA     BIT       PT0L
      000000DAH   SFRSYM    DATA     BYTE      SADDR1
      000000D8H.5 SFRSYM    DATA     BIT       SM12_TXCOL1
      000000B8H.3 SFRSYM    DATA     BIT       PT1L
      000000FAH   SFRSYM    DATA     BYTE      SADDR2
      000000CBH   SFRSYM    DATA     BYTE      RCAP2H
      000000B8H.5 SFRSYM    DATA     BIT       PT2L
      00000081H   SFRSYM    DATA     BYTE      SP
      000000D0H.2 SFRSYM    DATA     BIT       OV
      000000CAH   SFRSYM    DATA     BYTE      RCAP2L
      000000B8H   SFRSYM    DATA     BIT       PX4L
LX51 LINKER/LOCATER V4.66.41.0                                                        11/18/2021  18:54:16  PAGE 268


      000000C8H.1 SFRSYM    DATA     BIT       C_T2
      000000DEH   SFRSYM    DATA     BYTE      SFINE2
      000000ADH   SFRSYM    DATA     BYTE      IRCON1
      000000AFH   SFRSYM    DATA     BYTE      IRCON2
      000000ABH   SFRSYM    DATA     BYTE      EXCON1
      00000099H   SFRSYM    DATA     BYTE      SBUF
      000000ACH   SFRSYM    DATA     BYTE      EXCON2
      00000087H   SFRSYM    DATA     BYTE      PCON
      000000F1H   SFRSYM    DATA     BYTE      AUXC
      00000098H   SFRSYM    DATA     BYTE      SCON
      000000D4H   SFRSYM    DATA     BYTE      TK0BASEH
      00000089H   SFRSYM    DATA     BYTE      TMOD
      00000088H   SFRSYM    DATA     BYTE      TCON
      000000AAH   SFRSYM    DATA     BYTE      IENX
      000000EEH   SFRSYM    DATA     BYTE      IB_OFFSET
      000000D6H   SFRSYM    DATA     BYTE      TK1BASEH
      000000DCH   SFRSYM    DATA     BYTE      SBRT1H
      000000DFH   SFRSYM    DATA     BYTE      TK2BASEH
      000000FCH   SFRSYM    DATA     BYTE      SBRT2H
      000000B1H   SFRSYM    DATA     BYTE      RSTSTAT
      000000D3H   SFRSYM    DATA     BYTE      TK0BASEL
      000000D5H   SFRSYM    DATA     BYTE      TK1BASEL
      000000DDH   SFRSYM    DATA     BYTE      SBRT1L
      000000D7H   SFRSYM    DATA     BYTE      TK2BASEL
      000000FDH   SFRSYM    DATA     BYTE      SBRT2L
      00000098H.7 SFRSYM    DATA     BIT       SM0_FE
      000000B2H   SFRSYM    DATA     BYTE      CLKCON
      00000098H.5 SFRSYM    DATA     BIT       SM2_TXCOL
      000000B5H   SFRSYM    DATA     BYTE      LDOCON
      000000F0H   SFRSYM    DATA     BYTE      B
      000000C8H   SFRSYM    DATA     BIT       CP_RL2
      000000E0H   SFRSYM    DATA     BYTE      ACC
      000000A8H.4 SFRSYM    DATA     BIT       ES0
      000000A8H.1 SFRSYM    DATA     BIT       ET0
      000000A8H.3 SFRSYM    DATA     BIT       ET1
      00000088H.5 SFRSYM    DATA     BIT       TF0
      000000A8H.5 SFRSYM    DATA     BIT       ET2
      00000088H.7 SFRSYM    DATA     BIT       TF1
      000000D8H   SFRSYM    DATA     BIT       RI1
      00000098H.2 SFRSYM    DATA     BIT       RB8
      000000C8H.7 SFRSYM    DATA     BIT       TF2
      0000008CH   SFRSYM    DATA     BYTE      TH0
      00000086H   SFRSYM    DATA     BYTE      INSCON
      0000008DH   SFRSYM    DATA     BYTE      TH1
      000000D8H.1 SFRSYM    DATA     BIT       TI1
      00000098H.3 SFRSYM    DATA     BIT       TB8
      000000CDH   SFRSYM    DATA     BYTE      TH2
      000000D0H   SFRSYM    DATA     BIT       P
      0000008AH   SFRSYM    DATA     BYTE      TL0
      000000A8H   SFRSYM    DATA     BIT       EX4
      0000008BH   SFRSYM    DATA     BYTE      TL1
      000000A7H   SFRSYM    DATA     BYTE      FLASHCON
      000000CCH   SFRSYM    DATA     BYTE      TL2
      000000D0H.3 SFRSYM    DATA     BIT       RS0
      000000C5H   SFRSYM    DATA     BYTE      ADCDH
      00000088H.4 SFRSYM    DATA     BIT       TR0
      000000D0H.4 SFRSYM    DATA     BIT       RS1
      0000009FH   SFRSYM    DATA     BYTE      PWMCON
      00000088H.6 SFRSYM    DATA     BIT       TR1
      000000C8H.2 SFRSYM    DATA     BIT       TR2
      000000C4H   SFRSYM    DATA     BYTE      ADCDL
      000000C2H   SFRSYM    DATA     BYTE      ADT
      00000083H   SFRSYM    DATA     BYTE      DPH
      00000082H   SFRSYM    DATA     BYTE      DPL
      000000D9H   SFRSYM    DATA     BYTE      SBUF1
LX51 LINKER/LOCATER V4.66.41.0                                                        11/18/2021  18:54:16  PAGE 269


      000000C8H.3 SFRSYM    DATA     BIT       EXEN2
      000000F9H   SFRSYM    DATA     BYTE      SBUF2
      000000D8H.6 SFRSYM    DATA     BIT       SM11_RXOV1
      000000B8H.6 SFRSYM    DATA     BIT       PADCL
      00000098H.4 SFRSYM    DATA     BIT       REN
      000000D8H   SFRSYM    DATA     BYTE      SCON1
      000000D1H   SFRSYM    DATA     BYTE      LCDCON1
      000000C1H   SFRSYM    DATA     BYTE      ADCON
      000000F8H   SFRSYM    DATA     BYTE      SCON2
      0000008FH   SFRSYM    DATA     BYTE      TCON1
      000000D2H   SFRSYM    DATA     BYTE      LCDCON2
      00000092H   SFRSYM    DATA     BYTE      EDTAH
      000000C9H   SFRSYM    DATA     BYTE      T2MOD
      000000C8H   SFRSYM    DATA     BYTE      T2CON
      00000094H   SFRSYM    DATA     BYTE      EDTAL
      00000093H   SFRSYM    DATA     BYTE      EDTAM
      000000BCH   SFRSYM    DATA     BYTE      TK0DIFH
      0000009BH   SFRSYM    DATA     BYTE      SADEN
      000000BEH   SFRSYM    DATA     BYTE      TK1DIFH
      000000B6H   SFRSYM    DATA     BYTE      PBANK
      000000A5H   SFRSYM    DATA     BYTE      TK2DIFH
      000000A8H.6 SFRSYM    DATA     BIT       EADTP
      0000009AH   SFRSYM    DATA     BYTE      SADDR
      000000CFH   SFRSYM    DATA     BYTE      TK0DIFL
      000000BDH   SFRSYM    DATA     BYTE      TK1DIFL
      000000BFH   SFRSYM    DATA     BYTE      TK2DIFL
      000000B8H.2 SFRSYM    DATA     BIT       P7816L
      000000C6H   SFRSYM    DATA     BYTE      LPDCON1
      000000C7H   SFRSYM    DATA     BYTE      LPDCON2
      000000D0H.5 SFRSYM    DATA     BIT       F0
      000000AEH   SFRSYM    DATA     BYTE      IRDAT
      000000D0H.1 SFRSYM    DATA     BIT       F1
      00000096H   SFRSYM    DATA     BYTE      EMUIE
      0000009EH   SFRSYM    DATA     BYTE      SFINE
      000000F7H   SFRSYM    DATA     BYTE      XPAGE
      00000097H   SFRSYM    DATA     BYTE      EMUIF
      000000D0H   SFRSYM    DATA     BYTE      PSW
      000000D8H.2 SFRSYM    DATA     BIT       RB81
      000000A3H   SFRSYM    DATA     BYTE      SPDAT
      000000F2H   SFRSYM    DATA     BYTE      IB_CON1

      01004A30H   BLOCK     CODE     ---       LVL=0
      01004A35H   LINE      ---      ---       #241
      01004A3AH   LINE      ---      ---       #242
      00000001H   SYMBOL    DATA     ---       P_ucSData
      020007ACH   SYMBOL    XDATA    BYTE      V_ucRepMode
      01004A3AH   BLOCK     CODE     NEAR LAB  LVL=1
      01004A3AH   LINE      ---      ---       #245
      01004A3CH   LINE      ---      ---       #246
      01004A3EH   LINE      ---      ---       #247
      01004A3EH   LINE      ---      ---       #248
      01004A42H   LINE      ---      ---       #249
      01004A5AH   LINE      ---      ---       #250
      01004A5CH   LINE      ---      ---       #252
      01004A5CH   LINE      ---      ---       #253
      00000006H   SYMBOL    DATA     BYTE      V_ucCnti
      00000007H   SYMBOL    DATA     BYTE      V_ucDesRepbit
      ---         BLOCKEND  CODE     ---       LVL=1
      ---         BLOCKEND  CODE     ---       LVL=0

      01004A5DH   BLOCK     CODE     ---       LVL=0
      01004A5DH   LINE      ---      ---       #264
      01004A68H   LINE      ---      ---       #265
      0200079FH   SYMBOL    XDATA    ---       P_ucSorceData
      01004A68H   BLOCK     CODE     NEAR LAB  LVL=1
LX51 LINKER/LOCATER V4.66.41.0                                                        11/18/2021  18:54:16  PAGE 270


      01004A68H   LINE      ---      ---       #269
      01004A6EH   LINE      ---      ---       #270
      01004A7DH   LINE      ---      ---       #271
      01004A7DH   LINE      ---      ---       #272
      01004A85H   LINE      ---      ---       #274
      01004AA1H   LINE      ---      ---       #276
      01004AABH   LINE      ---      ---       #277
      01004AB3H   LINE      ---      ---       #279
      020007A2H   SYMBOL    XDATA    BYTE      V_ucCnti
      020007A3H   SYMBOL    XDATA    BYTE      V_ucTempData
      020007A4H   SYMBOL    XDATA    ---       V_ucTemp
      ---         BLOCKEND  CODE     ---       LVL=1
      ---         BLOCKEND  CODE     ---       LVL=0

      01004AD5H   BLOCK     CODE     ---       LVL=0
      01004AD5H   LINE      ---      ---       #291
      01004AD5H   LINE      ---      ---       #292
      01004AD5H   LINE      ---      ---       #293
      00000001H   SYMBOL    DATA     ---       P_ucSorceData
      ---         BLOCKEND  ---      ---       LVL=0

      01004AF3H   BLOCK     CODE     ---       LVL=0
      01004AF3H   LINE      ---      ---       #310
      01004AFEH   LINE      ---      ---       #311
      020007B2H   SYMBOL    XDATA    ---       P_ucSorceData
      020007B5H   SYMBOL    XDATA    ---       P_ucLocattion
      020007B8H   SYMBOL    XDATA    ---       P_ucValue
      020007BBH   SYMBOL    XDATA    BYTE      V_ucOutLen
      01004AFEH   BLOCK     CODE     NEAR LAB  LVL=1
      01004AFEH   LINE      ---      ---       #315
      01004B01H   LINE      ---      ---       #316
      01004B23H   LINE      ---      ---       #317
      01004B23H   LINE      ---      ---       #318
      01004B29H   LINE      ---      ---       #319
      01004B7AH   LINE      ---      ---       #320
      01004B83H   LINE      ---      ---       #321
      01004B83H   LINE      ---      ---       #322
      01004B95H   LINE      ---      ---       #323
      01004B98H   LINE      ---      ---       #324
      01004B98H   LINE      ---      ---       #325
      01004BA0H   LINE      ---      ---       #326
      020007BCH   SYMBOL    XDATA    BYTE      i
      020007BDH   SYMBOL    XDATA    ---       V_ucTemp
      ---         BLOCKEND  CODE     ---       LVL=1
      ---         BLOCKEND  CODE     ---       LVL=0

      01004E0EH   BLOCK     CODE     ---       LVL=0
      01004E0EH   LINE      ---      ---       #340
      01004E1CH   LINE      ---      ---       #341
      0200079FH   SYMBOL    XDATA    ---       P_ucData
      020007A2H   SYMBOL    XDATA    BYTE      V_ucMode
      01004E1CH   BLOCK     CODE     NEAR LAB  LVL=1
      01004E1CH   LINE      ---      ---       #346
      01004E23H   LINE      ---      ---       #347
      01004E2DH   LINE      ---      ---       #348
      01004E37H   LINE      ---      ---       #349
      01004E43H   LINE      ---      ---       #350
      01004E46H   LINE      ---      ---       #351
      01004E46H   LINE      ---      ---       #352
      01004E5FH   LINE      ---      ---       #353
      01004E77H   LINE      ---      ---       #354
      01004E79H   LINE      ---      ---       #356
      01004E79H   LINE      ---      ---       #357
      01004E92H   LINE      ---      ---       #358
      01004E99H   LINE      ---      ---       #359
LX51 LINKER/LOCATER V4.66.41.0                                                        11/18/2021  18:54:16  PAGE 271


      01004EB4H   LINE      ---      ---       #360
      01004EB4H   LINE      ---      ---       #363
      01004ECBH   LINE      ---      ---       #364
      01004ED5H   LINE      ---      ---       #365
      01004EDFH   LINE      ---      ---       #366
      01004EE9H   LINE      ---      ---       #367
      01004EF1H   LINE      ---      ---       #368
      01004EF1H   LINE      ---      ---       #369
      01004F0AH   LINE      ---      ---       #370
      01004F11H   LINE      ---      ---       #371
      01004F2CH   LINE      ---      ---       #372
      01004F2EH   LINE      ---      ---       #374
      01004F2EH   LINE      ---      ---       #375
      01004F47H   LINE      ---      ---       #376
      01004F62H   LINE      ---      ---       #377
      01004F62H   LINE      ---      ---       #380
      01004F70H   LINE      ---      ---       #381
      01004F78H   LINE      ---      ---       #382
      01004F80H   LINE      ---      ---       #383
      01004F88H   LINE      ---      ---       #385
      020007A3H   SYMBOL    XDATA    ---       V_unTemp32
      ---         BLOCKEND  CODE     ---       LVL=1
      ---         BLOCKEND  CODE     ---       LVL=0

      01002484H   BLOCK     CODE     ---       LVL=0
      01002484H   LINE      ---      ---       #397
      0100248FH   LINE      ---      ---       #398
      0200079FH   SYMBOL    XDATA    ---       P_ucSorceData
      0100248FH   BLOCK     CODE     NEAR LAB  LVL=1
      0100248FH   LINE      ---      ---       #401
      01002492H   LINE      ---      ---       #403
      01002497H   LINE      ---      ---       #405
      0100249EH   LINE      ---      ---       #406
      010024A8H   LINE      ---      ---       #407
      010024B2H   LINE      ---      ---       #408
      010024BCH   LINE      ---      ---       #409
      010024C6H   LINE      ---      ---       #410
      010024D0H   LINE      ---      ---       #411
      010024DAH   LINE      ---      ---       #412
      010024E4H   LINE      ---      ---       #413
      010024E9H   LINE      ---      ---       #414
      010024E9H   LINE      ---      ---       #415
      01002508H   LINE      ---      ---       #416
      0100250FH   LINE      ---      ---       #417
      0100251BH   LINE      ---      ---       #418
      0100251EH   LINE      ---      ---       #419
      020007A2H   SYMBOL    XDATA    BYTE      i
      020007A3H   SYMBOL    XDATA    BYTE      n
      020007A4H   SYMBOL    XDATA    ---       V_ucTemp
      ---         BLOCKEND  CODE     ---       LVL=1
      ---         BLOCKEND  CODE     ---       LVL=0

      01004BC6H   BLOCK     CODE     ---       LVL=0
      01004BC6H   LINE      ---      ---       #431
      01004BD1H   LINE      ---      ---       #432
      0200079FH   SYMBOL    XDATA    ---       P_ucData
      020007A2H   SYMBOL    XDATA    ---       P_Key
      01004BD1H   BLOCK     CODE     NEAR LAB  LVL=1
      01004BD1H   LINE      ---      ---       #436
      01004BECH   LINE      ---      ---       #438
      01004C12H   LINE      ---      ---       #441
      01004C17H   LINE      ---      ---       #442
      01004C17H   LINE      ---      ---       #443
      01004C46H   LINE      ---      ---       #444
      01004C50H   LINE      ---      ---       #447
LX51 LINKER/LOCATER V4.66.41.0                                                        11/18/2021  18:54:16  PAGE 272


      01004C61H   LINE      ---      ---       #448
      01004C61H   LINE      ---      ---       #449
      01004C8BH   LINE      ---      ---       #450
      01004CEDH   LINE      ---      ---       #452
      01004D1BH   LINE      ---      ---       #453
      01004D75H   LINE      ---      ---       #454
      01004D7DH   LINE      ---      ---       #457
      01004DA3H   LINE      ---      ---       #459
      01004DB2H   LINE      ---      ---       #460
      01004DB2H   LINE      ---      ---       #461
      01004DCFH   LINE      ---      ---       #462
      01004DF7H   LINE      ---      ---       #463
      01004E05H   LINE      ---      ---       #464
      01004E0DH   LINE      ---      ---       #466
      020007A5H   SYMBOL    XDATA    BYTE      i
      020007A6H   SYMBOL    XDATA    ---       V_ucTempData
      020007AEH   SYMBOL    XDATA    ---       V_ucTempSData
      ---         BLOCKEND  CODE     ---       LVL=1
      ---         BLOCKEND  CODE     ---       LVL=0

      01002371H   BLOCK     CODE     ---       LVL=0
      01002392H   LINE      ---      ---       #480
      0100239DH   LINE      ---      ---       #482
      02000786H   SYMBOL    XDATA    ---       P_ucData
      02000789H   SYMBOL    XDATA    ---       P_Key
      0200078CH   SYMBOL    XDATA    BYTE      V_ucMode
      0100239DH   BLOCK     CODE     NEAR LAB  LVL=1
      0100239DH   LINE      ---      ---       #488
      010023BCH   LINE      ---      ---       #491
      010023CAH   LINE      ---      ---       #494
      010023D3H   LINE      ---      ---       #497
      010023D8H   LINE      ---      ---       #498
      010023D8H   LINE      ---      ---       #500
      010023EFH   LINE      ---      ---       #501
      010023EFH   LINE      ---      ---       #502
      010023FAH   LINE      ---      ---       #503
      01002403H   LINE      ---      ---       #504
      0100240BH   LINE      ---      ---       #506
      01002425H   LINE      ---      ---       #508
      0100244CH   LINE      ---      ---       #510
      01002468H   LINE      ---      ---       #511
      0100246BH   LINE      ---      ---       #512
      01002479H   LINE      ---      ---       #515
      0200078DH   SYMBOL    XDATA    BYTE      i
      0200078EH   SYMBOL    XDATA    BYTE      j
      0200078FH   SYMBOL    XDATA    ---       V_ucTempBuff
      02000797H   SYMBOL    XDATA    ---       V_ucTempKey
      ---         BLOCKEND  CODE     ---       LVL=1
      ---         BLOCKEND  CODE     ---       LVL=0

      0100251FH   BLOCK     CODE     ---       LVL=0
      01002527H   LINE      ---      ---       #527
      01002532H   LINE      ---      ---       #528
      00000007H   SYMBOL    DATA     BYTE      V_ucKeyNum
      02000780H   SYMBOL    XDATA    ---       P_ucData
      02000783H   SYMBOL    XDATA    BYTE      V_ucMode
      01002532H   BLOCK     CODE     NEAR LAB  LVL=1
      01002532H   LINE      ---      ---       #532
      01002537H   LINE      ---      ---       #533
      01002537H   LINE      ---      ---       #534
      01002547H   LINE      ---      ---       #535
      01002547H   LINE      ---      ---       #536
      0100254AH   LINE      ---      ---       #537
      0100254AH   LINE      ---      ---       #538
      0100254AH   LINE      ---      ---       #541
LX51 LINKER/LOCATER V4.66.41.0                                                        11/18/2021  18:54:16  PAGE 273


      01002551H   LINE      ---      ---       #542
      01002551H   LINE      ---      ---       #543
      01002555H   LINE      ---      ---       #544
      01002558H   LINE      ---      ---       #545
      0100255AH   LINE      ---      ---       #547
      0100255AH   LINE      ---      ---       #548
      01002560H   LINE      ---      ---       #549
      01002563H   LINE      ---      ---       #550
      01002563H   LINE      ---      ---       #552
      01002565H   LINE      ---      ---       #554
      01002578H   LINE      ---      ---       #556
      0100257AH   LINE      ---      ---       #558
      0100257CH   LINE      ---      ---       #559
      02000784H   SYMBOL    XDATA    BYTE      V_ucMode1
      02000785H   SYMBOL    XDATA    BYTE      V_ucMode2
      ---         BLOCKEND  CODE     ---       LVL=1
      ---         BLOCKEND  CODE     ---       LVL=0

      0100257DH   BLOCK     CODE     ---       LVL=0
      0100257DH   LINE      ---      ---       #573
      0100258BH   LINE      ---      ---       #574
      02000772H   SYMBOL    XDATA    ---       P_ucData
      02000775H   SYMBOL    XDATA    BYTE      V_ucLen
      02000776H   SYMBOL    XDATA    ---       P_ucRand
      02000779H   SYMBOL    XDATA    BYTE      V_ucType
      0100258BH   BLOCK     CODE     NEAR LAB  LVL=1
      0100258BH   LINE      ---      ---       #578
      01002593H   LINE      ---      ---       #579
      010025A1H   LINE      ---      ---       #582
      010025C0H   LINE      ---      ---       #583
      010025D0H   LINE      ---      ---       #584
      010025D3H   LINE      ---      ---       #587
      010025FDH   LINE      ---      ---       #588
      01002617H   LINE      ---      ---       #589
      01002634H   LINE      ---      ---       #590
      01002642H   LINE      ---      ---       #593
      01002644H   LINE      ---      ---       #594
      01002644H   LINE      ---      ---       #595
      0100266FH   LINE      ---      ---       #596
      01002674H   LINE      ---      ---       #597
      01002687H   LINE      ---      ---       #598
      01002687H   LINE      ---      ---       #600
      010026A1H   LINE      ---      ---       #601
      010026A3H   LINE      ---      ---       #602
      010026A3H   LINE      ---      ---       #603
      010026E8H   LINE      ---      ---       #604
      010026EDH   LINE      ---      ---       #605
      010026F5H   LINE      ---      ---       #608
      01002705H   LINE      ---      ---       #611
      0100270DH   LINE      ---      ---       #612
      0100270DH   LINE      ---      ---       #613
      01002742H   LINE      ---      ---       #614
      01002745H   LINE      ---      ---       #616
      01002748H   LINE      ---      ---       #617
      01002748H   LINE      ---      ---       #619
      0100274AH   LINE      ---      ---       #620
      0200077AH   SYMBOL    XDATA    BYTE      i
      0200077BH   SYMBOL    XDATA    BYTE      j
      00000005H   SYMBOL    DATA     BYTE      k
      0200077CH   SYMBOL    XDATA    ---       P_ucTempBuff
      ---         BLOCKEND  CODE     ---       LVL=1
      ---         BLOCKEND  CODE     ---       LVL=0

      ---         MODULE    ---      ---       ?C?FPMUL
      010001FBH   PUBLIC    CODE     ---       ?C?FPMUL
LX51 LINKER/LOCATER V4.66.41.0                                                        11/18/2021  18:54:16  PAGE 274



      ---         MODULE    ---      ---       ?C?FPDIV
      01000304H   PUBLIC    CODE     ---       ?C?FPDIV

      ---         MODULE    ---      ---       ?C?FCAST
      010003ABH   PUBLIC    CODE     ---       ?C?FCASTC
      010003A6H   PUBLIC    CODE     ---       ?C?FCASTI
      010003A1H   PUBLIC    CODE     ---       ?C?FCASTL

      ---         MODULE    ---      ---       ?C?CASTF
      010003DFH   PUBLIC    CODE     ---       ?C?CASTF

      ---         MODULE    ---      ---       ?C?FPGETOPN
      01000416H   PUBLIC    CODE     ---       ?C?FPGETOPN2
      0100044BH   PUBLIC    CODE     ---       ?C?FPNANRESULT
      01000455H   PUBLIC    CODE     ---       ?C?FPOVERFLOW
      0100042DH   PUBLIC    CODE     ---       ?C?FPRESULT
      01000441H   PUBLIC    CODE     ---       ?C?FPRESULT2
      01000452H   PUBLIC    CODE     ---       ?C?FPUNDERFLOW

      ---         MODULE    ---      ---       ?C_INIT
      01000AA8H   PUBLIC    CODE     ---       ?C_START

      ---         MODULE    ---      ---       ?C?COPY
      01000530H   PUBLIC    CODE     ---       ?C?COPY

      ---         MODULE    ---      ---       ?C?CLDPTR
      01000556H   PUBLIC    CODE     ---       ?C?CLDPTR

      ---         MODULE    ---      ---       ?C?CLDOPTR
      0100056FH   PUBLIC    CODE     ---       ?C?CLDOPTR

      ---         MODULE    ---      ---       ?C?CILDOPTR
      0100059CH   PUBLIC    CODE     ---       ?C?CILDOPTR

      ---         MODULE    ---      ---       ?C?CSTPTR
      010005CFH   PUBLIC    CODE     ---       ?C?CSTPTR

      ---         MODULE    ---      ---       ?C?CSTOPTR
      010005E1H   PUBLIC    CODE     ---       ?C?CSTOPTR

      ---         MODULE    ---      ---       ?C?IMUL
      01000603H   PUBLIC    CODE     ---       ?C?IMUL

      ---         MODULE    ---      ---       ?C?UIDIV
      01000615H   PUBLIC    CODE     ---       ?C?UIDIV

      ---         MODULE    ---      ---       ?C?IILDX
      0100066AH   PUBLIC    CODE     ---       ?C?IILDX

      ---         MODULE    ---      ---       ?C?ILDIX
      01000680H   PUBLIC    CODE     ---       ?C?ILDIX

      ---         MODULE    ---      ---       ?C?LMUL
      01000696H   PUBLIC    CODE     ---       ?C?LMUL

      ---         MODULE    ---      ---       ?C?ULDIV
      01000721H   PUBLIC    CODE     ---       ?C?ULDIV

      ---         MODULE    ---      ---       ?C?LNEG
      010007B3H   PUBLIC    CODE     ---       ?C?LNEG

      ---         MODULE    ---      ---       ?C?ULCMP
      010007C1H   PUBLIC    CODE     ---       ?C?ULCMP

LX51 LINKER/LOCATER V4.66.41.0                                                        11/18/2021  18:54:16  PAGE 275


      ---         MODULE    ---      ---       ?C?ULSHR
      010007D2H   PUBLIC    CODE     ---       ?C?ULSHR

      ---         MODULE    ---      ---       ?C?LSHL
      010007E5H   PUBLIC    CODE     ---       ?C?LSHL

      ---         MODULE    ---      ---       ?C?LLDPTR
      010007F8H   PUBLIC    CODE     ---       ?C?LLDPTR

      ---         MODULE    ---      ---       ?C?LSTPTR
      01000818H   PUBLIC    CODE     ---       ?C?LSTPTR

      ---         MODULE    ---      ---       ?C?LLDCODE
      01000832H   PUBLIC    CODE     ---       ?C?LLDCODE

      ---         MODULE    ---      ---       ?C?LSTXDATA
      01000842H   PUBLIC    CODE     ---       ?C?LSTXDATA

      ---         MODULE    ---      ---       ?C?LSTKXDATA
      0100084EH   PUBLIC    CODE     ---       ?C?LSTKXDATA

      ---         MODULE    ---      ---       ?C?CCASE
      0100087FH   PUBLIC    CODE     ---       ?C?CCASE

      ---         MODULE    ---      ---       ?C?LCASE
      010008A5H   PUBLIC    CODE     ---       ?C?LCASE

      ---         MODULE    ---      ---       RAND
      02000DC4H   PUBLIC    XDATA    ---       ?SRAND?BYTE
      01000076H   PUBLIC    CODE     ---       RAND
      010000B4H   PUBLIC    CODE     ---       _SRAND

      ---         MODULE    ---      ---       ?C?LLDIDATA
      010008DFH   PUBLIC    CODE     ---       ?C?LLDIDATA

      ---         MODULE    ---      ---       ?C?LLDXDATA
      010008EBH   PUBLIC    CODE     ---       ?C?LLDXDATA

      ---         MODULE    ---      ---       ?C?LLDPDATA
      010008F7H   PUBLIC    CODE     ---       ?C?LLDPDATA

      ---         MODULE    ---      ---       ?C?LSTIDATA
      01000903H   PUBLIC    CODE     ---       ?C?LSTIDATA

      ---         MODULE    ---      ---       ?C?LSTPDATA
      0100090FH   PUBLIC    CODE     ---       ?C?LSTPDATA

Program Size: data=11.0 xdata=3640 const=3581 code=66787
LX51 RUN COMPLETE.  0 WARNING(S),  0 ERROR(S)
